
========================================================================

** ELF Header Information

    File Name: .\obj\scale_v2.axf

    Machine class: ELFCLASS32 (32-bit)
    Data encoding: ELFDATA2LSB (Little endian)
    Header version: EV_CURRENT (Current version)
    Operating System ABI: none
    ABI Version: 0
    File Type: ET_EXEC (Executable) (2)
    Machine: EM_ARM (ARM)

    Image Entry point: 0x00000155
    Flags: EF_ARM_HASENTRY + EF_ARM_ABI_FLOAT_SOFT (0x05000202)

    ARM ELF revision: 5 (ABI version 2)

    Conforms to Soft float procedure-call standard

    Built with
    Component: Arm Compiler for Embedded 6.18 Tool: armasm [5e4cbe00]
    Component: Arm Compiler for Embedded 6.18 Tool: armlink [5e4cc100]

    Header size: 52 bytes (0x34)
    Program header entry size: 32 bytes (0x20)
    Section header entry size: 40 bytes (0x28)

    Program header entries: 1
    Section header entries: 15

    Program header offset: 201776 (0x00031430)
    Section header offset: 201808 (0x00031450)

    Section header string table index: 14

========================================================================

** Program header #0 (PT_LOAD) [PF_X + PF_W + PF_R + PF_ARM_ENTRY]
    Size : 34944 bytes (31644 bytes in file)
    Virtual address: 0x00000000 (Alignment 8)


========================================================================

** Section #1 'ER_RO' (SHT_PROGBITS) [SHF_ALLOC + SHF_EXECINSTR]
    Size   : 31588 bytes (alignment 4)
    Address: 0x00000000

    $d.realdata
    RESET
    __Vectors
        0x00000000:    20000d18    ...     DCD    536874264
        0x00000004:    00000155    U...    DCD    341
        0x00000008:    0000018d    ....    DCD    397
        0x0000000c:    0000018f    ....    DCD    399
        0x00000010:    00004601    .F..    DCD    17921
        0x00000014:    00002ee5    ....    DCD    12005
        0x00000018:    00000000    ....    DCD    0
        0x0000001c:    00000000    ....    DCD    0
        0x00000020:    00000000    ....    DCD    0
        0x00000024:    00000000    ....    DCD    0
        0x00000028:    00000000    ....    DCD    0
        0x0000002c:    0000019f    ....    DCD    415
        0x00000030:    00000000    ....    DCD    0
        0x00000034:    00000000    ....    DCD    0
        0x00000038:    000001a1    ....    DCD    417
        0x0000003c:    000001a3    ....    DCD    419
        0x00000040:    000001a5    ....    DCD    421
        0x00000044:    000001a5    ....    DCD    421
        0x00000048:    000001a5    ....    DCD    421
        0x0000004c:    000001a5    ....    DCD    421
        0x00000050:    000001a5    ....    DCD    421
        0x00000054:    000001a5    ....    DCD    421
        0x00000058:    000001a5    ....    DCD    421
        0x0000005c:    000001a5    ....    DCD    421
        0x00000060:    00004afd    .J..    DCD    19197
        0x00000064:    000001a5    ....    DCD    421
        0x00000068:    000029d9    .)..    DCD    10713
        0x0000006c:    000029fd    .)..    DCD    10749
        0x00000070:    000001a5    ....    DCD    421
        0x00000074:    00002a21    !*..    DCD    10785
        0x00000078:    000001a5    ....    DCD    421
        0x0000007c:    000001a5    ....    DCD    421
        0x00000080:    000001a5    ....    DCD    421
        0x00000084:    00002c7d    },..    DCD    11389
        0x00000088:    00002cb1    .,..    DCD    11441
        0x0000008c:    00002ce5    .,..    DCD    11493
        0x00000090:    000001a5    ....    DCD    421
        0x00000094:    000001a5    ....    DCD    421
        0x00000098:    000001a5    ....    DCD    421
        0x0000009c:    000001a5    ....    DCD    421
        0x000000a0:    000001a5    ....    DCD    421
        0x000000a4:    000001a5    ....    DCD    421
        0x000000a8:    000001a5    ....    DCD    421
        0x000000ac:    000001a5    ....    DCD    421
        0x000000b0:    000001a5    ....    DCD    421
        0x000000b4:    000001a5    ....    DCD    421
        0x000000b8:    000001a5    ....    DCD    421
        0x000000bc:    000001a5    ....    DCD    421
        0x000000c0:    000048c9    .H..    DCD    18633
        0x000000c4:    000048e5    .H..    DCD    18661
        0x000000c8:    000001a5    ....    DCD    421
        0x000000cc:    000001a5    ....    DCD    421
        0x000000d0:    000001a5    ....    DCD    421
        0x000000d4:    000001a5    ....    DCD    421
        0x000000d8:    000001a5    ....    DCD    421
        0x000000dc:    000001a5    ....    DCD    421
        0x000000e0:    000001a5    ....    DCD    421
        0x000000e4:    000001a5    ....    DCD    421
        0x000000e8:    000001a5    ....    DCD    421
        0x000000ec:    000001a5    ....    DCD    421
        0x000000f0:    000001a5    ....    DCD    421
        0x000000f4:    000001a5    ....    DCD    421
        0x000000f8:    000001a5    ....    DCD    421
        0x000000fc:    000001a5    ....    DCD    421
        0x00000100:    000001a5    ....    DCD    421
        0x00000104:    000001a5    ....    DCD    421
        0x00000108:    000001a5    ....    DCD    421
        0x0000010c:    000001a5    ....    DCD    421
        0x00000110:    000001a5    ....    DCD    421
        0x00000114:    000001a5    ....    DCD    421
        0x00000118:    000001a5    ....    DCD    421
        0x0000011c:    000001a5    ....    DCD    421
        0x00000120:    000001a5    ....    DCD    421
        0x00000124:    000001a5    ....    DCD    421
        0x00000128:    000001a5    ....    DCD    421
        0x0000012c:    000001a5    ....    DCD    421
        0x00000130:    000001a5    ....    DCD    421
        0x00000134:    000001a5    ....    DCD    421
        0x00000138:    000001a5    ....    DCD    421
        0x0000013c:    000001a5    ....    DCD    421
    $t
    .ARM.Collect$$$$00000000
    .ARM.Collect$$$$00000001
    __Vectors_End
    __main
    _main_stk
        0x00000140:    4803        .H      LDR      r0,__lit__00000000 ; [0x150] = 0x20000d18
        0x00000142:    4685        .F      MOV      sp,r0
    .ARM.Collect$$$$00000004
    _main_scatterload
        0x00000144:    f000fd0e    ....    BL       __scatterload ; 0xb64
    .ARM.Collect$$$$00000008
    .ARM.Collect$$$$0000000A
    .ARM.Collect$$$$0000000B
    __main_after_scatterload
    _main_clock
    _main_cpp_init
    _main_init
        0x00000148:    4800        .H      LDR      r0,[pc,#0] ; [0x14c] = 0x56bd
        0x0000014a:    4700        .G      BX       r0
    $d
        0x0000014c:    000056bd    .V..    DCD    22205
    .ARM.Collect$$$$00002712
    __lit__00000000
    .ARM.Collect$$$$0000000D
    .ARM.Collect$$$$0000000F
    __rt_final_cpp
    __rt_final_exit
        0x00000150:    20000d18    ...     DCD    536874264
    $t
    .text
    Reset_Handler
        0x00000154:    4818        .H      LDR      r0,[pc,#96] ; [0x1b8] = 0x40000100
        0x00000156:    f2400159    @.Y.    MOVW     r1,#0x59
        0x0000015a:    6001        .`      STR      r1,[r0,#0]
        0x0000015c:    f2400116    @...    MOVW     r1,#0x16
        0x00000160:    6001        .`      STR      r1,[r0,#0]
        0x00000162:    f2400188    @...    MOVW     r1,#0x88
        0x00000166:    6001        .`      STR      r1,[r0,#0]
        0x00000168:    4814        .H      LDR      r0,[pc,#80] ; [0x1bc] = 0x46e9
        0x0000016a:    4780        .G      BLX      r0
        0x0000016c:    4814        .H      LDR      r0,[pc,#80] ; [0x1c0] = 0x40000180
        0x0000016e:    6801        .h      LDR      r1,[r0,#0]
        0x00000170:    2280        ."      MOVS     r2,#0x80
        0x00000172:    4391        .C      BICS     r1,r1,r2
        0x00000174:    6001        .`      STR      r1,[r0,#0]
        0x00000176:    4a13        .J      LDR      r2,[pc,#76] ; [0x1c4] = 0x40000024
        0x00000178:    f64521a5    E..!    MOV      r1,#0x5aa5
        0x0000017c:    6011        .`      STR      r1,[r2,#0]
        0x0000017e:    4a12        .J      LDR      r2,[pc,#72] ; [0x1c8] = 0x400001ec
        0x00000180:    6011        .`      STR      r1,[r2,#0]
        0x00000182:    480d        .H      LDR      r0,[pc,#52] ; [0x1b8] = 0x40000100
        0x00000184:    2100        .!      MOVS     r1,#0
        0x00000186:    6001        .`      STR      r1,[r0,#0]
        0x00000188:    4810        .H      LDR      r0,[pc,#64] ; [0x1cc] = 0x141
        0x0000018a:    4700        .G      BX       r0
    NMI_Handler
        0x0000018c:    e7fe        ..      B        NMI_Handler ; 0x18c
    HardFault_Handler
        0x0000018e:    4670        pF      MOV      r0,lr
        0x00000190:    f3ef8108    ....    MRS      r1,MSP
        0x00000194:    f3ef8209    ....    MRS      r2,PSP
        0x00000198:    4b0d        .K      LDR      r3,[pc,#52] ; [0x1d0] = 0x4055
        0x0000019a:    4798        .G      BLX      r3
        0x0000019c:    4700        .G      BX       r0
    SVC_Handler
        0x0000019e:    e7fe        ..      B        SVC_Handler ; 0x19e
    PendSV_Handler
        0x000001a0:    e7fe        ..      B        PendSV_Handler ; 0x1a0
    SysTick_Handler
        0x000001a2:    e7fe        ..      B        SysTick_Handler ; 0x1a2
    ACMP01_IRQHandler
    BOD_IRQHandler
    BPWM0_IRQHandler
    BPWM1_IRQHandler
    BRAKE0_IRQHandler
    BRAKE1_IRQHandler
    CLKFAIL_IRQHandler
    CRPT_IRQHandler
    DAC_IRQHandler
    DEFAULT_IRQHandler
    EADC_INT0_IRQHandler
    EADC_INT1_IRQHandler
    EADC_INT2_IRQHandler
    EADC_INT3_IRQHandler
    EINT2_IRQHandler
    EINT4_IRQHandler
    EINT5_IRQHandler
    GPA_IRQHandler
    GPE_IRQHandler
    GPF_IRQHandler
    I2C0_IRQHandler
    I2C1_IRQHandler
    IRCTRIM_IRQHandler
    LCD_IRQHandler
    OPA_IRQHandler
    PDMA_IRQHandler
    PSIO_IRQHandler
    PWM0_P0_IRQHandler
    PWM0_P1_IRQHandler
    PWM0_P2_IRQHandler
    PWM1_P0_IRQHandler
    PWM1_P1_IRQHandler
    PWM1_P2_IRQHandler
    PWRWU_IRQHandler
    QSPI0_IRQHandler
    RTC_IRQHandler
    SC0_IRQHandler
    SPI0_IRQHandler
    SPI1_IRQHandler
    TAMPER_IRQHandler
    TK_IRQHandler
    TMR2_IRQHandler
    TMR3_IRQHandler
    UART0_IRQHandler
    UART1_IRQHandler
    UART2_IRQHandler
    UART3_IRQHandler
    USBD_IRQHandler
    USCI0_IRQHandler
    USCI1_IRQHandler
    USCI2_IRQHandler
    WWDT_IRQHandler
        0x000001a4:    e7fe        ..      B        ACMP01_IRQHandler ; 0x1a4
    $d
        0x000001a6:    0000        ..      DCW    0
    $t
    SH_DoCommand
        0x000001a8:    beab        ..      BKPT     #0xab
        0x000001aa:    4b0a        .K      LDR      r3,[pc,#40] ; [0x1d4] = 0x41a9
        0x000001ac:    b508        ..      PUSH     {r3,lr}
        0x000001ae:    4798        .G      BLX      r3
        0x000001b0:    bd08        ..      POP      {r3,pc}
    __PC
        0x000001b2:    4670        pF      MOV      r0,lr
        0x000001b4:    47f0        .G      BLX      lr
    $d
        0x000001b6:    0000        ..      DCW    0
        0x000001b8:    40000100    ...@    DCD    1073742080
        0x000001bc:    000046e9    .F..    DCD    18153
        0x000001c0:    40000180    ...@    DCD    1073742208
        0x000001c4:    40000024    $..@    DCD    1073741860
        0x000001c8:    400001ec    ...@    DCD    1073742316
        0x000001cc:    00000141    A...    DCD    321
        0x000001d0:    00004055    U@..    DCD    16469
        0x000001d4:    000041a9    .A..    DCD    16809
    $t
    .text
    __aeabi_memset
    __aeabi_memset4
    __aeabi_memset8
        0x000001d8:    b2d2        ..      UXTB     r2,r2
        0x000001da:    e001        ..      B        0x1e0 ; __aeabi_memset + 8
        0x000001dc:    7002        .p      STRB     r2,[r0,#0]
        0x000001de:    1c40        @.      ADDS     r0,r0,#1
        0x000001e0:    1e49        I.      SUBS     r1,r1,#1
        0x000001e2:    d2fb        ..      BCS      0x1dc ; __aeabi_memset + 4
        0x000001e4:    4770        pG      BX       lr
    __aeabi_memclr
    __aeabi_memclr4
    __aeabi_memclr8
        0x000001e6:    2200        ."      MOVS     r2,#0
        0x000001e8:    e7f6        ..      B        __aeabi_memset ; 0x1d8
    _memset$wrapper
        0x000001ea:    b510        ..      PUSH     {r4,lr}
        0x000001ec:    4613        .F      MOV      r3,r2
        0x000001ee:    460a        .F      MOV      r2,r1
        0x000001f0:    4604        .F      MOV      r4,r0
        0x000001f2:    4619        .F      MOV      r1,r3
        0x000001f4:    f7fffff0    ....    BL       __aeabi_memset ; 0x1d8
        0x000001f8:    4620         F      MOV      r0,r4
        0x000001fa:    bd10        ..      POP      {r4,pc}
    .text
    strncat
        0x000001fc:    b510        ..      PUSH     {r4,lr}
        0x000001fe:    4604        .F      MOV      r4,r0
        0x00000200:    e000        ..      B        0x204 ; strncat + 8
        0x00000202:    1c40        @.      ADDS     r0,r0,#1
        0x00000204:    7803        .x      LDRB     r3,[r0,#0]
        0x00000206:    2b00        .+      CMP      r3,#0
        0x00000208:    d1fb        ..      BNE      0x202 ; strncat + 6
        0x0000020a:    e000        ..      B        0x20e ; strncat + 18
        0x0000020c:    1c40        @.      ADDS     r0,r0,#1
        0x0000020e:    1e52        R.      SUBS     r2,r2,#1
        0x00000210:    d304        ..      BCC      0x21c ; strncat + 32
        0x00000212:    780b        .x      LDRB     r3,[r1,#0]
        0x00000214:    1c49        I.      ADDS     r1,r1,#1
        0x00000216:    7003        .p      STRB     r3,[r0,#0]
        0x00000218:    2b00        .+      CMP      r3,#0
        0x0000021a:    d1f7        ..      BNE      0x20c ; strncat + 16
        0x0000021c:    2100        .!      MOVS     r1,#0
        0x0000021e:    7001        .p      STRB     r1,[r0,#0]
        0x00000220:    4620         F      MOV      r0,r4
        0x00000222:    bd10        ..      POP      {r4,pc}
    .text
    __aeabi_fadd
        0x00000224:    b5f8        ..      PUSH     {r3-r7,lr}
        0x00000226:    4602        .F      MOV      r2,r0
        0x00000228:    404a        J@      EORS     r2,r2,r1
        0x0000022a:    0fd4        ..      LSRS     r4,r2,#31
        0x0000022c:    0042        B.      LSLS     r2,r0,#1
        0x0000022e:    004b        K.      LSLS     r3,r1,#1
        0x00000230:    0852        R.      LSRS     r2,r2,#1
        0x00000232:    085b        [.      LSRS     r3,r3,#1
        0x00000234:    429a        .B      CMP      r2,r3
        0x00000236:    d202        ..      BCS      0x23e ; __aeabi_fadd + 26
        0x00000238:    4602        .F      MOV      r2,r0
        0x0000023a:    4608        .F      MOV      r0,r1
        0x0000023c:    4611        .F      MOV      r1,r2
        0x0000023e:    004a        J.      LSLS     r2,r1,#1
        0x00000240:    d023        #.      BEQ      0x28a ; __aeabi_fadd + 102
        0x00000242:    0dc3        ..      LSRS     r3,r0,#23
        0x00000244:    004a        J.      LSLS     r2,r1,#1
        0x00000246:    b2dd        ..      UXTB     r5,r3
        0x00000248:    0e12        ..      LSRS     r2,r2,#24
        0x0000024a:    1aad        ..      SUBS     r5,r5,r2
        0x0000024c:    2d20         -      CMP      r5,#0x20
        0x0000024e:    da35        5.      BGE      0x2bc ; __aeabi_fadd + 152
        0x00000250:    0249        I.      LSLS     r1,r1,#9
        0x00000252:    2601        .&      MOVS     r6,#1
        0x00000254:    0a49        I.      LSRS     r1,r1,#9
        0x00000256:    05f6        ..      LSLS     r6,r6,#23
        0x00000258:    198a        ..      ADDS     r2,r1,r6
        0x0000025a:    2c00        .,      CMP      r4,#0
        0x0000025c:    d000        ..      BEQ      0x260 ; __aeabi_fadd + 60
        0x0000025e:    4252        RB      RSBS     r2,r2,#0
        0x00000260:    2120         !      MOVS     r1,#0x20
        0x00000262:    1b4f        O.      SUBS     r7,r1,r5
        0x00000264:    4611        .F      MOV      r1,r2
        0x00000266:    40b9        .@      LSLS     r1,r1,r7
        0x00000268:    412a        *A      ASRS     r2,r2,r5
        0x0000026a:    1810        ..      ADDS     r0,r2,r0
        0x0000026c:    0dc2        ..      LSRS     r2,r0,#23
        0x0000026e:    429a        .B      CMP      r2,r3
        0x00000270:    d021        !.      BEQ      0x2b6 ; __aeabi_fadd + 146
        0x00000272:    2c00        .,      CMP      r4,#0
        0x00000274:    d017        ..      BEQ      0x2a6 ; __aeabi_fadd + 130
        0x00000276:    2d01        .-      CMP      r5,#1
        0x00000278:    dc08        ..      BGT      0x28c ; __aeabi_fadd + 104
        0x0000027a:    05da        ..      LSLS     r2,r3,#23
        0x0000027c:    1a80        ..      SUBS     r0,r0,r2
        0x0000027e:    0fd2        ..      LSRS     r2,r2,#31
        0x00000280:    1980        ..      ADDS     r0,r0,r6
        0x00000282:    07d2        ..      LSLS     r2,r2,#31
        0x00000284:    b2db        ..      UXTB     r3,r3
        0x00000286:    f000fa77    ..w.    BL       _float_epilogue ; 0x778
        0x0000028a:    bdf8        ..      POP      {r3-r7,pc}
        0x0000028c:    05da        ..      LSLS     r2,r3,#23
        0x0000028e:    1a80        ..      SUBS     r0,r0,r2
        0x00000290:    2301        .#      MOVS     r3,#1
        0x00000292:    0040        @.      LSLS     r0,r0,#1
        0x00000294:    061b        ..      LSLS     r3,r3,#24
        0x00000296:    18c0        ..      ADDS     r0,r0,r3
        0x00000298:    1880        ..      ADDS     r0,r0,r2
        0x0000029a:    425a        ZB      RSBS     r2,r3,#0
        0x0000029c:    1880        ..      ADDS     r0,r0,r2
        0x0000029e:    0fca        ..      LSRS     r2,r1,#31
        0x000002a0:    4310        .C      ORRS     r0,r0,r2
        0x000002a2:    0049        I.      LSLS     r1,r1,#1
        0x000002a4:    e007        ..      B        0x2b6 ; __aeabi_fadd + 146
        0x000002a6:    0849        I.      LSRS     r1,r1,#1
        0x000002a8:    07c2        ..      LSLS     r2,r0,#31
        0x000002aa:    4311        .C      ORRS     r1,r1,r2
        0x000002ac:    05da        ..      LSLS     r2,r3,#23
        0x000002ae:    1a80        ..      SUBS     r0,r0,r2
        0x000002b0:    1980        ..      ADDS     r0,r0,r6
        0x000002b2:    0840        @.      LSRS     r0,r0,#1
        0x000002b4:    1880        ..      ADDS     r0,r0,r2
        0x000002b6:    f000fa57    ..W.    BL       __I$use$fp ; 0x768
        0x000002ba:    bdf8        ..      POP      {r3-r7,pc}
        0x000002bc:    0061        a.      LSLS     r1,r4,#1
        0x000002be:    2201        ."      MOVS     r2,#1
        0x000002c0:    1a51        Q.      SUBS     r1,r2,r1
        0x000002c2:    1b00        ..      SUBS     r0,r0,r4
        0x000002c4:    e7f7        ..      B        0x2b6 ; __aeabi_fadd + 146
    __aeabi_fsub
        0x000002c6:    2201        ."      MOVS     r2,#1
        0x000002c8:    07d2        ..      LSLS     r2,r2,#31
        0x000002ca:    4051        Q@      EORS     r1,r1,r2
        0x000002cc:    e7aa        ..      B        __aeabi_fadd ; 0x224
    __aeabi_frsub
        0x000002ce:    2201        ."      MOVS     r2,#1
        0x000002d0:    07d2        ..      LSLS     r2,r2,#31
        0x000002d2:    4050        P@      EORS     r0,r0,r2
        0x000002d4:    e7a6        ..      B        __aeabi_fadd ; 0x224
    .text
    __aeabi_fmul
        0x000002d6:    4602        .F      MOV      r2,r0
        0x000002d8:    b570        p.      PUSH     {r4-r6,lr}
        0x000002da:    404a        J@      EORS     r2,r2,r1
        0x000002dc:    0fd3        ..      LSRS     r3,r2,#31
        0x000002de:    07db        ..      LSLS     r3,r3,#31
        0x000002e0:    0040        @.      LSLS     r0,r0,#1
        0x000002e2:    d02d        -.      BEQ      0x340 ; __aeabi_fmul + 106
        0x000002e4:    004a        J.      LSLS     r2,r1,#1
        0x000002e6:    d02a        *.      BEQ      0x33e ; __aeabi_fmul + 104
        0x000002e8:    0e01        ..      LSRS     r1,r0,#24
        0x000002ea:    0e14        ..      LSRS     r4,r2,#24
        0x000002ec:    0200        ..      LSLS     r0,r0,#8
        0x000002ee:    0212        ..      LSLS     r2,r2,#8
        0x000002f0:    1909        ..      ADDS     r1,r1,r4
        0x000002f2:    0a40        @.      LSRS     r0,r0,#9
        0x000002f4:    0a52        R.      LSRS     r2,r2,#9
        0x000002f6:    1884        ..      ADDS     r4,r0,r2
        0x000002f8:    01e5        ..      LSLS     r5,r4,#7
        0x000002fa:    4604        .F      MOV      r4,r0
        0x000002fc:    4354        TC      MULS     r4,r2,r4
        0x000002fe:    0a00        ..      LSRS     r0,r0,#8
        0x00000300:    0a12        ..      LSRS     r2,r2,#8
        0x00000302:    042e        ..      LSLS     r6,r5,#16
        0x00000304:    4350        PC      MULS     r0,r2,r0
        0x00000306:    19a4        ..      ADDS     r4,r4,r6
        0x00000308:    1942        B.      ADDS     r2,r0,r5
        0x0000030a:    0c20         .      LSRS     r0,r4,#16
        0x0000030c:    43c5        .C      MVNS     r5,r0
        0x0000030e:    18aa        ..      ADDS     r2,r5,r2
        0x00000310:    0c12        ..      LSRS     r2,r2,#16
        0x00000312:    2501        .%      MOVS     r5,#1
        0x00000314:    03ad        ..      LSLS     r5,r5,#14
        0x00000316:    1c52        R.      ADDS     r2,r2,#1
        0x00000318:    1952        R.      ADDS     r2,r2,r5
        0x0000031a:    0412        ..      LSLS     r2,r2,#16
        0x0000031c:    397f        .9      SUBS     r1,r1,#0x7f
        0x0000031e:    0424        $.      LSLS     r4,r4,#16
        0x00000320:    d000        ..      BEQ      0x324 ; __aeabi_fmul + 78
        0x00000322:    1c52        R.      ADDS     r2,r2,#1
        0x00000324:    4310        .C      ORRS     r0,r0,r2
        0x00000326:    d401        ..      BMI      0x32c ; __aeabi_fmul + 86
        0x00000328:    0040        @.      LSLS     r0,r0,#1
        0x0000032a:    1e49        I.      SUBS     r1,r1,#1
        0x0000032c:    b2c2        ..      UXTB     r2,r0
        0x0000032e:    060c        ..      LSLS     r4,r1,#24
        0x00000330:    09c0        ..      LSRS     r0,r0,#7
        0x00000332:    1820         .      ADDS     r0,r4,r0
        0x00000334:    1c40        @.      ADDS     r0,r0,#1
        0x00000336:    0840        @.      LSRS     r0,r0,#1
        0x00000338:    2a80        .*      CMP      r2,#0x80
        0x0000033a:    d002        ..      BEQ      0x342 ; __aeabi_fmul + 108
        0x0000033c:    e003        ..      B        0x346 ; __aeabi_fmul + 112
        0x0000033e:    2000        .       MOVS     r0,#0
        0x00000340:    bd70        p.      POP      {r4-r6,pc}
        0x00000342:    0840        @.      LSRS     r0,r0,#1
        0x00000344:    0040        @.      LSLS     r0,r0,#1
        0x00000346:    2900        .)      CMP      r1,#0
        0x00000348:    da00        ..      BGE      0x34c ; __aeabi_fmul + 118
        0x0000034a:    2000        .       MOVS     r0,#0
        0x0000034c:    4318        .C      ORRS     r0,r0,r3
        0x0000034e:    bd70        p.      POP      {r4-r6,pc}
    .text
    __aeabi_fdiv
        0x00000350:    b570        p.      PUSH     {r4-r6,lr}
        0x00000352:    4602        .F      MOV      r2,r0
        0x00000354:    404a        J@      EORS     r2,r2,r1
        0x00000356:    0fd5        ..      LSRS     r5,r2,#31
        0x00000358:    0040        @.      LSLS     r0,r0,#1
        0x0000035a:    004a        J.      LSLS     r2,r1,#1
        0x0000035c:    07ed        ..      LSLS     r5,r5,#31
        0x0000035e:    0840        @.      LSRS     r0,r0,#1
        0x00000360:    0852        R.      LSRS     r2,r2,#1
        0x00000362:    2800        .(      CMP      r0,#0
        0x00000364:    d014        ..      BEQ      0x390 ; __aeabi_fdiv + 64
        0x00000366:    2a00        .*      CMP      r2,#0
        0x00000368:    d012        ..      BEQ      0x390 ; __aeabi_fdiv + 64
        0x0000036a:    0dc4        ..      LSRS     r4,r0,#23
        0x0000036c:    0dd3        ..      LSRS     r3,r2,#23
        0x0000036e:    0241        A.      LSLS     r1,r0,#9
        0x00000370:    2001        .       MOVS     r0,#1
        0x00000372:    05c0        ..      LSLS     r0,r0,#23
        0x00000374:    0252        R.      LSLS     r2,r2,#9
        0x00000376:    0a49        I.      LSRS     r1,r1,#9
        0x00000378:    0a52        R.      LSRS     r2,r2,#9
        0x0000037a:    1ae4        ..      SUBS     r4,r4,r3
        0x0000037c:    1809        ..      ADDS     r1,r1,r0
        0x0000037e:    1812        ..      ADDS     r2,r2,r0
        0x00000380:    347d        }4      ADDS     r4,r4,#0x7d
        0x00000382:    4291        .B      CMP      r1,r2
        0x00000384:    d301        ..      BCC      0x38a ; __aeabi_fdiv + 58
        0x00000386:    1c64        d.      ADDS     r4,r4,#1
        0x00000388:    e000        ..      B        0x38c ; __aeabi_fdiv + 60
        0x0000038a:    0049        I.      LSLS     r1,r1,#1
        0x0000038c:    2c00        .,      CMP      r4,#0
        0x0000038e:    da01        ..      BGE      0x394 ; __aeabi_fdiv + 68
        0x00000390:    2000        .       MOVS     r0,#0
        0x00000392:    bd70        p.      POP      {r4-r6,pc}
        0x00000394:    2300        .#      MOVS     r3,#0
        0x00000396:    4291        .B      CMP      r1,r2
        0x00000398:    d301        ..      BCC      0x39e ; __aeabi_fdiv + 78
        0x0000039a:    1a89        ..      SUBS     r1,r1,r2
        0x0000039c:    4303        .C      ORRS     r3,r3,r0
        0x0000039e:    0840        @.      LSRS     r0,r0,#1
        0x000003a0:    0049        I.      LSLS     r1,r1,#1
        0x000003a2:    2800        .(      CMP      r0,#0
        0x000003a4:    d1f7        ..      BNE      0x396 ; __aeabi_fdiv + 70
        0x000003a6:    2900        .)      CMP      r1,#0
        0x000003a8:    d00a        ..      BEQ      0x3c0 ; __aeabi_fdiv + 112
        0x000003aa:    4291        .B      CMP      r1,r2
        0x000003ac:    d102        ..      BNE      0x3b4 ; __aeabi_fdiv + 100
        0x000003ae:    2101        .!      MOVS     r1,#1
        0x000003b0:    07c9        ..      LSLS     r1,r1,#31
        0x000003b2:    e005        ..      B        0x3c0 ; __aeabi_fdiv + 112
        0x000003b4:    4291        .B      CMP      r1,r2
        0x000003b6:    d201        ..      BCS      0x3bc ; __aeabi_fdiv + 108
        0x000003b8:    2101        .!      MOVS     r1,#1
        0x000003ba:    e001        ..      B        0x3c0 ; __aeabi_fdiv + 112
        0x000003bc:    2101        .!      MOVS     r1,#1
        0x000003be:    43c9        .C      MVNS     r1,r1
        0x000003c0:    05e0        ..      LSLS     r0,r4,#23
        0x000003c2:    18c0        ..      ADDS     r0,r0,r3
        0x000003c4:    1940        @.      ADDS     r0,r0,r5
        0x000003c6:    f000f9cf    ....    BL       __I$use$fp ; 0x768
        0x000003ca:    bd70        p.      POP      {r4-r6,pc}
    .text
    __aeabi_dmul
        0x000003cc:    b5f0        ..      PUSH     {r4-r7,lr}
        0x000003ce:    b41f        ..      PUSH     {r0-r4}
        0x000003d0:    b088        ..      SUB      sp,sp,#0x20
        0x000003d2:    990b        ..      LDR      r1,[sp,#0x2c]
        0x000003d4:    9809        ..      LDR      r0,[sp,#0x24]
        0x000003d6:    2400        .$      MOVS     r4,#0
        0x000003d8:    4048        H@      EORS     r0,r0,r1
        0x000003da:    9909        ..      LDR      r1,[sp,#0x24]
        0x000003dc:    0fc0        ..      LSRS     r0,r0,#31
        0x000003de:    0049        I.      LSLS     r1,r1,#1
        0x000003e0:    0849        I.      LSRS     r1,r1,#1
        0x000003e2:    9109        ..      STR      r1,[sp,#0x24]
        0x000003e4:    07c0        ..      LSLS     r0,r0,#31
        0x000003e6:    990b        ..      LDR      r1,[sp,#0x2c]
        0x000003e8:    9000        ..      STR      r0,[sp,#0]
        0x000003ea:    0049        I.      LSLS     r1,r1,#1
        0x000003ec:    0849        I.      LSRS     r1,r1,#1
        0x000003ee:    910b        ..      STR      r1,[sp,#0x2c]
        0x000003f0:    9909        ..      LDR      r1,[sp,#0x24]
        0x000003f2:    9808        ..      LDR      r0,[sp,#0x20]
        0x000003f4:    46a6        .F      MOV      lr,r4
        0x000003f6:    4308        .C      ORRS     r0,r0,r1
        0x000003f8:    d01c        ..      BEQ      0x434 ; __aeabi_dmul + 104
        0x000003fa:    990b        ..      LDR      r1,[sp,#0x2c]
        0x000003fc:    980a        ..      LDR      r0,[sp,#0x28]
        0x000003fe:    4308        .C      ORRS     r0,r0,r1
        0x00000400:    d018        ..      BEQ      0x434 ; __aeabi_dmul + 104
        0x00000402:    9809        ..      LDR      r0,[sp,#0x24]
        0x00000404:    2401        .$      MOVS     r4,#1
        0x00000406:    0040        @.      LSLS     r0,r0,#1
        0x00000408:    0d42        B.      LSRS     r2,r0,#21
        0x0000040a:    0048        H.      LSLS     r0,r1,#1
        0x0000040c:    0d41        A.      LSRS     r1,r0,#21
        0x0000040e:    9809        ..      LDR      r0,[sp,#0x24]
        0x00000410:    0524        $.      LSLS     r4,r4,#20
        0x00000412:    0300        ..      LSLS     r0,r0,#12
        0x00000414:    0b00        ..      LSRS     r0,r0,#12
        0x00000416:    4320         C      ORRS     r0,r0,r4
        0x00000418:    9009        ..      STR      r0,[sp,#0x24]
        0x0000041a:    980b        ..      LDR      r0,[sp,#0x2c]
        0x0000041c:    0300        ..      LSLS     r0,r0,#12
        0x0000041e:    0b00        ..      LSRS     r0,r0,#12
        0x00000420:    4320         C      ORRS     r0,r0,r4
        0x00000422:    900b        ..      STR      r0,[sp,#0x2c]
        0x00000424:    1850        P.      ADDS     r0,r2,r1
        0x00000426:    491c        .I      LDR      r1,[pc,#112] ; [0x498] = 0xfffffc0d
        0x00000428:    1840        @.      ADDS     r0,r0,r1
        0x0000042a:    2200        ."      MOVS     r2,#0
        0x0000042c:    9001        ..      STR      r0,[sp,#4]
        0x0000042e:    4614        .F      MOV      r4,r2
        0x00000430:    4610        .F      MOV      r0,r2
        0x00000432:    e005        ..      B        0x440 ; __aeabi_dmul + 116
        0x00000434:    2000        .       MOVS     r0,#0
        0x00000436:    4601        .F      MOV      r1,r0
        0x00000438:    b00d        ..      ADD      sp,sp,#0x34
        0x0000043a:    bdf0        ..      POP      {r4-r7,pc}
        0x0000043c:    2803        .(      CMP      r0,#3
        0x0000043e:    da01        ..      BGE      0x444 ; __aeabi_dmul + 120
        0x00000440:    4603        .F      MOV      r3,r0
        0x00000442:    e000        ..      B        0x446 ; __aeabi_dmul + 122
        0x00000444:    2303        .#      MOVS     r3,#3
        0x00000446:    469c        .F      MOV      r12,r3
        0x00000448:    1ac1        ..      SUBS     r1,r0,r3
        0x0000044a:    ae0a        ..      ADD      r6,sp,#0x28
        0x0000044c:    e00a        ..      B        0x464 ; __aeabi_dmul + 152
        0x0000044e:    005f        _.      LSLS     r7,r3,#1
        0x00000450:    ad08        ..      ADD      r5,sp,#0x20
        0x00000452:    5bed        .[      LDRH     r5,[r5,r7]
        0x00000454:    004f        O.      LSLS     r7,r1,#1
        0x00000456:    5bf7        .[      LDRH     r7,[r6,r7]
        0x00000458:    437d        }C      MULS     r5,r7,r5
        0x0000045a:    2700        .'      MOVS     r7,#0
        0x0000045c:    18aa        ..      ADDS     r2,r5,r2
        0x0000045e:    417c        |A      ADCS     r4,r4,r7
        0x00000460:    1c49        I.      ADDS     r1,r1,#1
        0x00000462:    1e5b        [.      SUBS     r3,r3,#1
        0x00000464:    4561        aE      CMP      r1,r12
        0x00000466:    ddf2        ..      BLE      0x44e ; __aeabi_dmul + 130
        0x00000468:    0041        A.      LSLS     r1,r0,#1
        0x0000046a:    ab04        ..      ADD      r3,sp,#0x10
        0x0000046c:    525a        ZR      STRH     r2,[r3,r1]
        0x0000046e:    0421        !.      LSLS     r1,r4,#16
        0x00000470:    0c12        ..      LSRS     r2,r2,#16
        0x00000472:    430a        .C      ORRS     r2,r2,r1
        0x00000474:    0c24        $.      LSRS     r4,r4,#16
        0x00000476:    1c40        @.      ADDS     r0,r0,#1
        0x00000478:    2808        .(      CMP      r0,#8
        0x0000047a:    dbdf        ..      BLT      0x43c ; __aeabi_dmul + 112
        0x0000047c:    9801        ..      LDR      r0,[sp,#4]
        0x0000047e:    9002        ..      STR      r0,[sp,#8]
        0x00000480:    9900        ..      LDR      r1,[sp,#0]
        0x00000482:    4670        pF      MOV      r0,lr
        0x00000484:    9101        ..      STR      r1,[sp,#4]
        0x00000486:    9000        ..      STR      r0,[sp,#0]
        0x00000488:    9b05        ..      LDR      r3,[sp,#0x14]
        0x0000048a:    9a04        ..      LDR      r2,[sp,#0x10]
        0x0000048c:    9907        ..      LDR      r1,[sp,#0x1c]
        0x0000048e:    9806        ..      LDR      r0,[sp,#0x18]
        0x00000490:    f000f9b8    ....    BL       _double_epilogue ; 0x804
        0x00000494:    e7d0        ..      B        0x438 ; __aeabi_dmul + 108
    $d
        0x00000496:    0000        ..      DCW    0
        0x00000498:    fffffc0d    ....    DCD    4294966285
    $t
    .text
    __aeabi_fcmple
        0x0000049c:    2201        ."      MOVS     r2,#1
        0x0000049e:    07d2        ..      LSLS     r2,r2,#31
        0x000004a0:    2800        .(      CMP      r0,#0
        0x000004a2:    db00        ..      BLT      0x4a6 ; __aeabi_fcmple + 10
        0x000004a4:    1a10        ..      SUBS     r0,r2,r0
        0x000004a6:    2900        .)      CMP      r1,#0
        0x000004a8:    db00        ..      BLT      0x4ac ; __aeabi_fcmple + 16
        0x000004aa:    1a51        Q.      SUBS     r1,r2,r1
        0x000004ac:    4281        .B      CMP      r1,r0
        0x000004ae:    d801        ..      BHI      0x4b4 ; __aeabi_fcmple + 24
        0x000004b0:    2001        .       MOVS     r0,#1
        0x000004b2:    4770        pG      BX       lr
        0x000004b4:    2000        .       MOVS     r0,#0
        0x000004b6:    4770        pG      BX       lr
    .text
    __aeabi_i2f
        0x000004b8:    17c2        ..      ASRS     r2,r0,#31
        0x000004ba:    0fc1        ..      LSRS     r1,r0,#31
        0x000004bc:    4050        P@      EORS     r0,r0,r2
        0x000004be:    b510        ..      PUSH     {r4,lr}
        0x000004c0:    1840        @.      ADDS     r0,r0,r1
        0x000004c2:    07ca        ..      LSLS     r2,r1,#31
        0x000004c4:    2396        .#      MOVS     r3,#0x96
        0x000004c6:    2100        .!      MOVS     r1,#0
        0x000004c8:    f000f956    ..V.    BL       _float_epilogue ; 0x778
        0x000004cc:    bd10        ..      POP      {r4,pc}
    .text
    __aeabi_ui2f
        0x000004ce:    b510        ..      PUSH     {r4,lr}
        0x000004d0:    2200        ."      MOVS     r2,#0
        0x000004d2:    2396        .#      MOVS     r3,#0x96
        0x000004d4:    4611        .F      MOV      r1,r2
        0x000004d6:    f000f94f    ..O.    BL       _float_epilogue ; 0x778
        0x000004da:    bd10        ..      POP      {r4,pc}
    .text
    __aeabi_i2d
        0x000004dc:    b50e        ..      PUSH     {r1-r3,lr}
        0x000004de:    17c2        ..      ASRS     r2,r0,#31
        0x000004e0:    0fc1        ..      LSRS     r1,r0,#31
        0x000004e2:    4050        P@      EORS     r0,r0,r2
        0x000004e4:    07ca        ..      LSLS     r2,r1,#31
        0x000004e6:    1840        @.      ADDS     r0,r0,r1
        0x000004e8:    2100        .!      MOVS     r1,#0
        0x000004ea:    4b05        .K      LDR      r3,[pc,#20] ; [0x500] = 0x433
        0x000004ec:    9302        ..      STR      r3,[sp,#8]
        0x000004ee:    9201        ..      STR      r2,[sp,#4]
        0x000004f0:    9100        ..      STR      r1,[sp,#0]
        0x000004f2:    460a        .F      MOV      r2,r1
        0x000004f4:    460b        .F      MOV      r3,r1
        0x000004f6:    f000f985    ....    BL       _double_epilogue ; 0x804
        0x000004fa:    b003        ..      ADD      sp,sp,#0xc
        0x000004fc:    bd00        ..      POP      {pc}
    $d
        0x000004fe:    0000        ..      DCW    0
        0x00000500:    00000433    3...    DCD    1075
    $t
    .text
    __aeabi_f2iz
        0x00000504:    0fc2        ..      LSRS     r2,r0,#31
        0x00000506:    0041        A.      LSLS     r1,r0,#1
        0x00000508:    0240        @.      LSLS     r0,r0,#9
        0x0000050a:    2301        .#      MOVS     r3,#1
        0x0000050c:    0a40        @.      LSRS     r0,r0,#9
        0x0000050e:    05db        ..      LSLS     r3,r3,#23
        0x00000510:    07d2        ..      LSLS     r2,r2,#31
        0x00000512:    0e09        ..      LSRS     r1,r1,#24
        0x00000514:    18c0        ..      ADDS     r0,r0,r3
        0x00000516:    297f        .)      CMP      r1,#0x7f
        0x00000518:    da01        ..      BGE      0x51e ; __aeabi_f2iz + 26
        0x0000051a:    2000        .       MOVS     r0,#0
        0x0000051c:    4770        pG      BX       lr
        0x0000051e:    2996        .)      CMP      r1,#0x96
        0x00000520:    dc03        ..      BGT      0x52a ; __aeabi_f2iz + 38
        0x00000522:    2396        .#      MOVS     r3,#0x96
        0x00000524:    1a59        Y.      SUBS     r1,r3,r1
        0x00000526:    40c8        .@      LSRS     r0,r0,r1
        0x00000528:    e001        ..      B        0x52e ; __aeabi_f2iz + 42
        0x0000052a:    3996        .9      SUBS     r1,r1,#0x96
        0x0000052c:    4088        .@      LSLS     r0,r0,r1
        0x0000052e:    2a00        .*      CMP      r2,#0
        0x00000530:    d0f4        ..      BEQ      0x51c ; __aeabi_f2iz + 24
        0x00000532:    4240        @B      RSBS     r0,r0,#0
        0x00000534:    4770        pG      BX       lr
    .text
    __aeabi_f2uiz
        0x00000536:    0041        A.      LSLS     r1,r0,#1
        0x00000538:    0240        @.      LSLS     r0,r0,#9
        0x0000053a:    2201        ."      MOVS     r2,#1
        0x0000053c:    0a40        @.      LSRS     r0,r0,#9
        0x0000053e:    05d2        ..      LSLS     r2,r2,#23
        0x00000540:    0e09        ..      LSRS     r1,r1,#24
        0x00000542:    1880        ..      ADDS     r0,r0,r2
        0x00000544:    297f        .)      CMP      r1,#0x7f
        0x00000546:    da01        ..      BGE      0x54c ; __aeabi_f2uiz + 22
        0x00000548:    2000        .       MOVS     r0,#0
        0x0000054a:    4770        pG      BX       lr
        0x0000054c:    2996        .)      CMP      r1,#0x96
        0x0000054e:    dc03        ..      BGT      0x558 ; __aeabi_f2uiz + 34
        0x00000550:    2296        ."      MOVS     r2,#0x96
        0x00000552:    1a51        Q.      SUBS     r1,r2,r1
        0x00000554:    40c8        .@      LSRS     r0,r0,r1
        0x00000556:    4770        pG      BX       lr
        0x00000558:    3996        .9      SUBS     r1,r1,#0x96
        0x0000055a:    4088        .@      LSLS     r0,r0,r1
        0x0000055c:    4770        pG      BX       lr
        0x0000055e:    0000        ..      MOVS     r0,r0
    .text
    __aeabi_d2lz
        0x00000560:    b570        p.      PUSH     {r4-r6,lr}
        0x00000562:    0fcd        ..      LSRS     r5,r1,#31
        0x00000564:    004a        J.      LSLS     r2,r1,#1
        0x00000566:    0309        ..      LSLS     r1,r1,#12
        0x00000568:    2301        .#      MOVS     r3,#1
        0x0000056a:    0b09        ..      LSRS     r1,r1,#12
        0x0000056c:    051b        ..      LSLS     r3,r3,#20
        0x0000056e:    4319        .C      ORRS     r1,r1,r3
        0x00000570:    4b0d        .K      LDR      r3,[pc,#52] ; [0x5a8] = 0x3ff
        0x00000572:    07ed        ..      LSLS     r5,r5,#31
        0x00000574:    2400        .$      MOVS     r4,#0
        0x00000576:    0d52        R.      LSRS     r2,r2,#21
        0x00000578:    429a        .B      CMP      r2,r3
        0x0000057a:    da02        ..      BGE      0x582 ; __aeabi_d2lz + 34
        0x0000057c:    2000        .       MOVS     r0,#0
        0x0000057e:    4601        .F      MOV      r1,r0
        0x00000580:    bd70        p.      POP      {r4-r6,pc}
        0x00000582:    4b09        .K      LDR      r3,[pc,#36] ; [0x5a8] = 0x3ff
        0x00000584:    3334        43      ADDS     r3,r3,#0x34
        0x00000586:    429a        .B      CMP      r2,r3
        0x00000588:    dc03        ..      BGT      0x592 ; __aeabi_d2lz + 50
        0x0000058a:    1a9a        ..      SUBS     r2,r3,r2
        0x0000058c:    f000f880    ....    BL       __aeabi_llsr ; 0x690
        0x00000590:    e003        ..      B        0x59a ; __aeabi_d2lz + 58
        0x00000592:    4b06        .K      LDR      r3,[pc,#24] ; [0x5ac] = 0xfffffbcd
        0x00000594:    18d2        ..      ADDS     r2,r2,r3
        0x00000596:    f000f86b    ..k.    BL       __aeabi_llsl ; 0x670
        0x0000059a:    432c        ,C      ORRS     r4,r4,r5
        0x0000059c:    d0f0        ..      BEQ      0x580 ; __aeabi_d2lz + 32
        0x0000059e:    2200        ."      MOVS     r2,#0
        0x000005a0:    4240        @B      RSBS     r0,r0,#0
        0x000005a2:    418a        .A      SBCS     r2,r2,r1
        0x000005a4:    4611        .F      MOV      r1,r2
        0x000005a6:    bd70        p.      POP      {r4-r6,pc}
    $d
        0x000005a8:    000003ff    ....    DCD    1023
        0x000005ac:    fffffbcd    ....    DCD    4294966221
    $t
    .text
    __aeabi_f2d
        0x000005b0:    0fc2        ..      LSRS     r2,r0,#31
        0x000005b2:    07d2        ..      LSLS     r2,r2,#31
        0x000005b4:    0040        @.      LSLS     r0,r0,#1
        0x000005b6:    0840        @.      LSRS     r0,r0,#1
        0x000005b8:    d00b        ..      BEQ      0x5d2 ; __aeabi_f2d + 34
        0x000005ba:    0dc1        ..      LSRS     r1,r0,#23
        0x000005bc:    2307        .#      MOVS     r3,#7
        0x000005be:    01db        ..      LSLS     r3,r3,#7
        0x000005c0:    18c9        ..      ADDS     r1,r1,r3
        0x000005c2:    0240        @.      LSLS     r0,r0,#9
        0x000005c4:    0509        ..      LSLS     r1,r1,#20
        0x000005c6:    0a40        @.      LSRS     r0,r0,#9
        0x000005c8:    4311        .C      ORRS     r1,r1,r2
        0x000005ca:    08c2        ..      LSRS     r2,r0,#3
        0x000005cc:    0740        @.      LSLS     r0,r0,#29
        0x000005ce:    4311        .C      ORRS     r1,r1,r2
        0x000005d0:    4770        pG      BX       lr
        0x000005d2:    2000        .       MOVS     r0,#0
        0x000005d4:    4601        .F      MOV      r1,r0
        0x000005d6:    4770        pG      BX       lr
    .text
    __aeabi_d2f
        0x000005d8:    0fcb        ..      LSRS     r3,r1,#31
        0x000005da:    07db        ..      LSLS     r3,r3,#31
        0x000005dc:    0049        I.      LSLS     r1,r1,#1
        0x000005de:    b510        ..      PUSH     {r4,lr}
        0x000005e0:    0849        I.      LSRS     r1,r1,#1
        0x000005e2:    4602        .F      MOV      r2,r0
        0x000005e4:    430a        .C      ORRS     r2,r2,r1
        0x000005e6:    d007        ..      BEQ      0x5f8 ; __aeabi_d2f + 32
        0x000005e8:    0d0a        ..      LSRS     r2,r1,#20
        0x000005ea:    2407        .$      MOVS     r4,#7
        0x000005ec:    0309        ..      LSLS     r1,r1,#12
        0x000005ee:    01e4        ..      LSLS     r4,r4,#7
        0x000005f0:    0b09        ..      LSRS     r1,r1,#12
        0x000005f2:    1b12        ..      SUBS     r2,r2,r4
        0x000005f4:    2a00        .*      CMP      r2,#0
        0x000005f6:    dc01        ..      BGT      0x5fc ; __aeabi_d2f + 36
        0x000005f8:    2000        .       MOVS     r0,#0
        0x000005fa:    bd10        ..      POP      {r4,pc}
        0x000005fc:    00c9        ..      LSLS     r1,r1,#3
        0x000005fe:    0f44        D.      LSRS     r4,r0,#29
        0x00000600:    430c        .C      ORRS     r4,r4,r1
        0x00000602:    00c1        ..      LSLS     r1,r0,#3
        0x00000604:    18e0        ..      ADDS     r0,r4,r3
        0x00000606:    05d2        ..      LSLS     r2,r2,#23
        0x00000608:    1880        ..      ADDS     r0,r0,r2
        0x0000060a:    f000f8ad    ....    BL       __I$use$fp ; 0x768
        0x0000060e:    bd10        ..      POP      {r4,pc}
    .text
    __aeabi_uldivmod
        0x00000610:    b5f0        ..      PUSH     {r4-r7,lr}
        0x00000612:    b41f        ..      PUSH     {r0-r4}
        0x00000614:    4606        .F      MOV      r6,r0
        0x00000616:    2000        .       MOVS     r0,#0
        0x00000618:    b082        ..      SUB      sp,sp,#8
        0x0000061a:    4605        .F      MOV      r5,r0
        0x0000061c:    2440        @$      MOVS     r4,#0x40
        0x0000061e:    9101        ..      STR      r1,[sp,#4]
        0x00000620:    9000        ..      STR      r0,[sp,#0]
        0x00000622:    e01b        ..      B        0x65c ; __aeabi_uldivmod + 76
        0x00000624:    9901        ..      LDR      r1,[sp,#4]
        0x00000626:    4622        "F      MOV      r2,r4
        0x00000628:    460f        .F      MOV      r7,r1
        0x0000062a:    4630        0F      MOV      r0,r6
        0x0000062c:    f000f830    ..0.    BL       __aeabi_llsr ; 0x690
        0x00000630:    9a04        ..      LDR      r2,[sp,#0x10]
        0x00000632:    9b05        ..      LDR      r3,[sp,#0x14]
        0x00000634:    1a80        ..      SUBS     r0,r0,r2
        0x00000636:    4199        .A      SBCS     r1,r1,r3
        0x00000638:    d310        ..      BCC      0x65c ; __aeabi_uldivmod + 76
        0x0000063a:    4610        .F      MOV      r0,r2
        0x0000063c:    4619        .F      MOV      r1,r3
        0x0000063e:    4622        "F      MOV      r2,r4
        0x00000640:    f000f816    ....    BL       __aeabi_llsl ; 0x670
        0x00000644:    1a36        6.      SUBS     r6,r6,r0
        0x00000646:    418f        .A      SBCS     r7,r7,r1
        0x00000648:    9701        ..      STR      r7,[sp,#4]
        0x0000064a:    4622        "F      MOV      r2,r4
        0x0000064c:    2001        .       MOVS     r0,#1
        0x0000064e:    2100        .!      MOVS     r1,#0
        0x00000650:    9f00        ..      LDR      r7,[sp,#0]
        0x00000652:    f000f80d    ....    BL       __aeabi_llsl ; 0x670
        0x00000656:    1838        8.      ADDS     r0,r7,r0
        0x00000658:    414d        MA      ADCS     r5,r5,r1
        0x0000065a:    9000        ..      STR      r0,[sp,#0]
        0x0000065c:    4620         F      MOV      r0,r4
        0x0000065e:    1e64        d.      SUBS     r4,r4,#1
        0x00000660:    2800        .(      CMP      r0,#0
        0x00000662:    dcdf        ..      BGT      0x624 ; __aeabi_uldivmod + 20
        0x00000664:    9b01        ..      LDR      r3,[sp,#4]
        0x00000666:    9800        ..      LDR      r0,[sp,#0]
        0x00000668:    4629        )F      MOV      r1,r5
        0x0000066a:    4632        2F      MOV      r2,r6
        0x0000066c:    b007        ..      ADD      sp,sp,#0x1c
        0x0000066e:    bdf0        ..      POP      {r4-r7,pc}
    .text
    __aeabi_llsl
    _ll_shift_l
        0x00000670:    b510        ..      PUSH     {r4,lr}
        0x00000672:    2a20         *      CMP      r2,#0x20
        0x00000674:    db04        ..      BLT      0x680 ; __aeabi_llsl + 16
        0x00000676:    4601        .F      MOV      r1,r0
        0x00000678:    3a20         :      SUBS     r2,r2,#0x20
        0x0000067a:    4091        .@      LSLS     r1,r1,r2
        0x0000067c:    2000        .       MOVS     r0,#0
        0x0000067e:    bd10        ..      POP      {r4,pc}
        0x00000680:    4091        .@      LSLS     r1,r1,r2
        0x00000682:    2320         #      MOVS     r3,#0x20
        0x00000684:    1a9c        ..      SUBS     r4,r3,r2
        0x00000686:    4603        .F      MOV      r3,r0
        0x00000688:    40e3        .@      LSRS     r3,r3,r4
        0x0000068a:    4319        .C      ORRS     r1,r1,r3
        0x0000068c:    4090        .@      LSLS     r0,r0,r2
        0x0000068e:    bd10        ..      POP      {r4,pc}
    .text
    __aeabi_llsr
    _ll_ushift_r
        0x00000690:    b510        ..      PUSH     {r4,lr}
        0x00000692:    2a20         *      CMP      r2,#0x20
        0x00000694:    db04        ..      BLT      0x6a0 ; __aeabi_llsr + 16
        0x00000696:    4608        .F      MOV      r0,r1
        0x00000698:    3a20         :      SUBS     r2,r2,#0x20
        0x0000069a:    40d0        .@      LSRS     r0,r0,r2
        0x0000069c:    2100        .!      MOVS     r1,#0
        0x0000069e:    bd10        ..      POP      {r4,pc}
        0x000006a0:    460b        .F      MOV      r3,r1
        0x000006a2:    40d3        .@      LSRS     r3,r3,r2
        0x000006a4:    40d0        .@      LSRS     r0,r0,r2
        0x000006a6:    2420         $      MOVS     r4,#0x20
        0x000006a8:    1aa2        ..      SUBS     r2,r4,r2
        0x000006aa:    4091        .@      LSLS     r1,r1,r2
        0x000006ac:    4308        .C      ORRS     r0,r0,r1
        0x000006ae:    4619        .F      MOV      r1,r3
        0x000006b0:    bd10        ..      POP      {r4,pc}
        0x000006b2:    0000        ..      MOVS     r0,r0
    .text
    _local_sscanf
        0x000006b4:    b40f        ..      PUSH     {r0-r3}
        0x000006b6:    b500        ..      PUSH     {lr}
        0x000006b8:    b089        ..      SUB      sp,sp,#0x24
        0x000006ba:    460a        .F      MOV      r2,r1
        0x000006bc:    a90d        ..      ADD      r1,sp,#0x34
        0x000006be:    9100        ..      STR      r1,[sp,#0]
        0x000006c0:    2300        .#      MOVS     r3,#0
        0x000006c2:    990c        ..      LDR      r1,[sp,#0x30]
        0x000006c4:    2a00        .*      CMP      r2,#0
        0x000006c6:    60cb        .`      STR      r3,[r1,#0xc]
        0x000006c8:    4b23        #K      LDR      r3,[pc,#140] ; [0x758] = 0xf71
        0x000006ca:    9306        ..      STR      r3,[sp,#0x18]
        0x000006cc:    4b23        #K      LDR      r3,[pc,#140] ; [0x75c] = 0xf91
        0x000006ce:    9307        ..      STR      r3,[sp,#0x1c]
        0x000006d0:    d001        ..      BEQ      0x6d6 ; _local_sscanf + 34
        0x000006d2:    2304        .#      MOVS     r3,#4
        0x000006d4:    e000        ..      B        0x6d8 ; _local_sscanf + 36
        0x000006d6:    2300        .#      MOVS     r3,#0
        0x000006d8:    4a21        !J      LDR      r2,[pc,#132] ; [0x760] = 0x7fffffff
        0x000006da:    9202        ..      STR      r2,[sp,#8]
        0x000006dc:    4a21        !J      LDR      r2,[pc,#132] ; [0x764] = 0xbed
        0x000006de:    9208        ..      STR      r2,[sp,#0x20]
        0x000006e0:    9301        ..      STR      r3,[sp,#4]
        0x000006e2:    4602        .F      MOV      r2,r0
        0x000006e4:    466b        kF      MOV      r3,sp
        0x000006e6:    2000        .       MOVS     r0,#0
        0x000006e8:    f000fb17    ....    BL       _scanf_real ; 0xd1a
        0x000006ec:    b009        ..      ADD      sp,sp,#0x24
        0x000006ee:    bc08        ..      POP      {r3}
        0x000006f0:    b004        ..      ADD      sp,sp,#0x10
        0x000006f2:    4718        .G      BX       r3
    __strtod_int
        0x000006f4:    b5f0        ..      PUSH     {r4-r7,lr}
        0x000006f6:    b085        ..      SUB      sp,sp,#0x14
        0x000006f8:    4607        .F      MOV      r7,r0
        0x000006fa:    2000        .       MOVS     r0,#0
        0x000006fc:    43c0        .C      MVNS     r0,r0
        0x000006fe:    9001        ..      STR      r0,[sp,#4]
        0x00000700:    461e        .F      MOV      r6,r3
        0x00000702:    2000        .       MOVS     r0,#0
        0x00000704:    4615        .F      MOV      r5,r2
        0x00000706:    460c        .F      MOV      r4,r1
        0x00000708:    9100        ..      STR      r1,[sp,#0]
        0x0000070a:    9102        ..      STR      r1,[sp,#8]
        0x0000070c:    9004        ..      STR      r0,[sp,#0x10]
        0x0000070e:    463b        ;F      MOV      r3,r7
        0x00000710:    466a        jF      MOV      r2,sp
        0x00000712:    4631        1F      MOV      r1,r6
        0x00000714:    a804        ..      ADD      r0,sp,#0x10
        0x00000716:    f7ffffcd    ....    BL       _local_sscanf ; 0x6b4
        0x0000071a:    9904        ..      LDR      r1,[sp,#0x10]
        0x0000071c:    4602        .F      MOV      r2,r0
        0x0000071e:    1860        `.      ADDS     r0,r4,r1
        0x00000720:    2d00        .-      CMP      r5,#0
        0x00000722:    d005        ..      BEQ      0x730 ; __strtod_int + 60
        0x00000724:    2900        .)      CMP      r1,#0
        0x00000726:    d001        ..      BEQ      0x72c ; __strtod_int + 56
        0x00000728:    4603        .F      MOV      r3,r0
        0x0000072a:    e000        ..      B        0x72e ; __strtod_int + 58
        0x0000072c:    4623        #F      MOV      r3,r4
        0x0000072e:    602b        +`      STR      r3,[r5,#0]
        0x00000730:    2900        .)      CMP      r1,#0
        0x00000732:    d00e        ..      BEQ      0x752 ; __strtod_int + 94
        0x00000734:    2a00        .*      CMP      r2,#0
        0x00000736:    dd02        ..      BLE      0x73e ; __strtod_int + 74
        0x00000738:    9900        ..      LDR      r1,[sp,#0]
        0x0000073a:    4281        .B      CMP      r1,r0
        0x0000073c:    d009        ..      BEQ      0x752 ; __strtod_int + 94
        0x0000073e:    1b00        ..      SUBS     r0,r0,r4
        0x00000740:    9001        ..      STR      r0,[sp,#4]
        0x00000742:    9400        ..      STR      r4,[sp,#0]
        0x00000744:    463b        ;F      MOV      r3,r7
        0x00000746:    466a        jF      MOV      r2,sp
        0x00000748:    4631        1F      MOV      r1,r6
        0x0000074a:    9402        ..      STR      r4,[sp,#8]
        0x0000074c:    a804        ..      ADD      r0,sp,#0x10
        0x0000074e:    f7ffffb1    ....    BL       _local_sscanf ; 0x6b4
        0x00000752:    b005        ..      ADD      sp,sp,#0x14
        0x00000754:    bdf0        ..      POP      {r4-r7,pc}
    $d
        0x00000756:    0000        ..      DCW    0
        0x00000758:    00000f71    q...    DCD    3953
        0x0000075c:    00000f91    ....    DCD    3985
        0x00000760:    7fffffff    ....    DCD    2147483647
        0x00000764:    00000bed    ....    DCD    3053
    $t
    .text
    .text
    __I$use$fp
    _float_round
        0x00000768:    2900        .)      CMP      r1,#0
        0x0000076a:    da04        ..      BGE      0x776 ; __I$use$fp + 14
        0x0000076c:    1c40        @.      ADDS     r0,r0,#1
        0x0000076e:    0049        I.      LSLS     r1,r1,#1
        0x00000770:    d101        ..      BNE      0x776 ; __I$use$fp + 14
        0x00000772:    0840        @.      LSRS     r0,r0,#1
        0x00000774:    0040        @.      LSLS     r0,r0,#1
        0x00000776:    4770        pG      BX       lr
    _float_epilogue
        0x00000778:    b470        p.      PUSH     {r4-r6}
        0x0000077a:    2400        .$      MOVS     r4,#0
        0x0000077c:    0c05        ..      LSRS     r5,r0,#16
        0x0000077e:    d105        ..      BNE      0x78c ; _float_epilogue + 20
        0x00000780:    2410        .$      MOVS     r4,#0x10
        0x00000782:    0400        ..      LSLS     r0,r0,#16
        0x00000784:    d102        ..      BNE      0x78c ; _float_epilogue + 20
        0x00000786:    2900        .)      CMP      r1,#0
        0x00000788:    d021        !.      BEQ      0x7ce ; _float_epilogue + 86
        0x0000078a:    2411        .$      MOVS     r4,#0x11
        0x0000078c:    0e05        ..      LSRS     r5,r0,#24
        0x0000078e:    d101        ..      BNE      0x794 ; _float_epilogue + 28
        0x00000790:    0200        ..      LSLS     r0,r0,#8
        0x00000792:    3408        .4      ADDS     r4,r4,#8
        0x00000794:    0f05        ..      LSRS     r5,r0,#28
        0x00000796:    d101        ..      BNE      0x79c ; _float_epilogue + 36
        0x00000798:    0100        ..      LSLS     r0,r0,#4
        0x0000079a:    1d24        $.      ADDS     r4,r4,#4
        0x0000079c:    0f85        ..      LSRS     r5,r0,#30
        0x0000079e:    d101        ..      BNE      0x7a4 ; _float_epilogue + 44
        0x000007a0:    0080        ..      LSLS     r0,r0,#2
        0x000007a2:    1ca4        ..      ADDS     r4,r4,#2
        0x000007a4:    2800        .(      CMP      r0,#0
        0x000007a6:    db01        ..      BLT      0x7ac ; _float_epilogue + 52
        0x000007a8:    0040        @.      LSLS     r0,r0,#1
        0x000007aa:    1c64        d.      ADDS     r4,r4,#1
        0x000007ac:    2900        .)      CMP      r1,#0
        0x000007ae:    d008        ..      BEQ      0x7c2 ; _float_epilogue + 74
        0x000007b0:    2520         %      MOVS     r5,#0x20
        0x000007b2:    1b2e        ..      SUBS     r6,r5,r4
        0x000007b4:    460d        .F      MOV      r5,r1
        0x000007b6:    40f5        .@      LSRS     r5,r5,r6
        0x000007b8:    40a1        .@      LSLS     r1,r1,r4
        0x000007ba:    d000        ..      BEQ      0x7be ; _float_epilogue + 70
        0x000007bc:    2101        .!      MOVS     r1,#1
        0x000007be:    4329        )C      ORRS     r1,r1,r5
        0x000007c0:    4308        .C      ORRS     r0,r0,r1
        0x000007c2:    0601        ..      LSLS     r1,r0,#24
        0x000007c4:    1b1b        ..      SUBS     r3,r3,r4
        0x000007c6:    0a00        ..      LSRS     r0,r0,#8
        0x000007c8:    1ddb        ..      ADDS     r3,r3,#7
        0x000007ca:    d502        ..      BPL      0x7d2 ; _float_epilogue + 90
        0x000007cc:    2000        .       MOVS     r0,#0
        0x000007ce:    bc70        p.      POP      {r4-r6}
        0x000007d0:    4770        pG      BX       lr
        0x000007d2:    05db        ..      LSLS     r3,r3,#23
        0x000007d4:    1818        ..      ADDS     r0,r3,r0
        0x000007d6:    1880        ..      ADDS     r0,r0,r2
        0x000007d8:    2900        .)      CMP      r1,#0
        0x000007da:    daf8        ..      BGE      0x7ce ; _float_epilogue + 86
        0x000007dc:    1c40        @.      ADDS     r0,r0,#1
        0x000007de:    0049        I.      LSLS     r1,r1,#1
        0x000007e0:    d1f5        ..      BNE      0x7ce ; _float_epilogue + 86
        0x000007e2:    bc70        p.      POP      {r4-r6}
        0x000007e4:    0840        @.      LSRS     r0,r0,#1
        0x000007e6:    0040        @.      LSLS     r0,r0,#1
        0x000007e8:    4770        pG      BX       lr
    .text
    _double_round
        0x000007ea:    b510        ..      PUSH     {r4,lr}
        0x000007ec:    2b00        .+      CMP      r3,#0
        0x000007ee:    da08        ..      BGE      0x802 ; _double_round + 24
        0x000007f0:    2400        .$      MOVS     r4,#0
        0x000007f2:    1c40        @.      ADDS     r0,r0,#1
        0x000007f4:    4161        aA      ADCS     r1,r1,r4
        0x000007f6:    1892        ..      ADDS     r2,r2,r2
        0x000007f8:    415b        [A      ADCS     r3,r3,r3
        0x000007fa:    431a        .C      ORRS     r2,r2,r3
        0x000007fc:    d101        ..      BNE      0x802 ; _double_round + 24
        0x000007fe:    0840        @.      LSRS     r0,r0,#1
        0x00000800:    0040        @.      LSLS     r0,r0,#1
        0x00000802:    bd10        ..      POP      {r4,pc}
    _double_epilogue
        0x00000804:    b5f0        ..      PUSH     {r4-r7,lr}
        0x00000806:    b41f        ..      PUSH     {r0-r4}
        0x00000808:    b082        ..      SUB      sp,sp,#8
        0x0000080a:    4605        .F      MOV      r5,r0
        0x0000080c:    000c        ..      MOVS     r4,r1
        0x0000080e:    d003        ..      BEQ      0x818 ; _double_epilogue + 20
        0x00000810:    4608        .F      MOV      r0,r1
        0x00000812:    f006f9df    ....    BL       __ARM_clz ; 0x6bd4
        0x00000816:    e002        ..      B        0x81e ; _double_epilogue + 26
        0x00000818:    f006f9dc    ....    BL       __ARM_clz ; 0x6bd4
        0x0000081c:    3020         0      ADDS     r0,r0,#0x20
        0x0000081e:    4602        .F      MOV      r2,r0
        0x00000820:    9000        ..      STR      r0,[sp,#0]
        0x00000822:    4621        !F      MOV      r1,r4
        0x00000824:    4628        (F      MOV      r0,r5
        0x00000826:    f7ffff23    ..#.    BL       __aeabi_llsl ; 0x670
        0x0000082a:    9b04        ..      LDR      r3,[sp,#0x10]
        0x0000082c:    9a05        ..      LDR      r2,[sp,#0x14]
        0x0000082e:    4604        .F      MOV      r4,r0
        0x00000830:    460f        .F      MOV      r7,r1
        0x00000832:    4318        .C      ORRS     r0,r0,r3
        0x00000834:    4311        .C      ORRS     r1,r1,r2
        0x00000836:    4308        .C      ORRS     r0,r0,r1
        0x00000838:    d014        ..      BEQ      0x864 ; _double_epilogue + 96
        0x0000083a:    4618        .F      MOV      r0,r3
        0x0000083c:    4310        .C      ORRS     r0,r0,r2
        0x0000083e:    d01b        ..      BEQ      0x878 ; _double_epilogue + 116
        0x00000840:    9800        ..      LDR      r0,[sp,#0]
        0x00000842:    2140        @!      MOVS     r1,#0x40
        0x00000844:    1a0a        ..      SUBS     r2,r1,r0
        0x00000846:    4618        .F      MOV      r0,r3
        0x00000848:    9905        ..      LDR      r1,[sp,#0x14]
        0x0000084a:    f7ffff21    ..!.    BL       __aeabi_llsr ; 0x690
        0x0000084e:    4605        .F      MOV      r5,r0
        0x00000850:    460e        .F      MOV      r6,r1
        0x00000852:    9a00        ..      LDR      r2,[sp,#0]
        0x00000854:    9905        ..      LDR      r1,[sp,#0x14]
        0x00000856:    9804        ..      LDR      r0,[sp,#0x10]
        0x00000858:    f7ffff0a    ....    BL       __aeabi_llsl ; 0x670
        0x0000085c:    4308        .C      ORRS     r0,r0,r1
        0x0000085e:    d005        ..      BEQ      0x86c ; _double_epilogue + 104
        0x00000860:    2001        .       MOVS     r0,#1
        0x00000862:    e004        ..      B        0x86e ; _double_epilogue + 106
        0x00000864:    4620         F      MOV      r0,r4
        0x00000866:    4639        9F      MOV      r1,r7
        0x00000868:    b007        ..      ADD      sp,sp,#0x1c
        0x0000086a:    bdf0        ..      POP      {r4-r7,pc}
        0x0000086c:    2000        .       MOVS     r0,#0
        0x0000086e:    17c1        ..      ASRS     r1,r0,#31
        0x00000870:    4305        .C      ORRS     r5,r5,r0
        0x00000872:    430e        .C      ORRS     r6,r6,r1
        0x00000874:    432c        ,C      ORRS     r4,r4,r5
        0x00000876:    4337        7C      ORRS     r7,r7,r6
        0x00000878:    9900        ..      LDR      r1,[sp,#0]
        0x0000087a:    980e        ..      LDR      r0,[sp,#0x38]
        0x0000087c:    0563        c.      LSLS     r3,r4,#21
        0x0000087e:    1a40        @.      SUBS     r0,r0,r1
        0x00000880:    0579        y.      LSLS     r1,r7,#21
        0x00000882:    0ae4        ..      LSRS     r4,r4,#11
        0x00000884:    2200        ."      MOVS     r2,#0
        0x00000886:    430c        .C      ORRS     r4,r4,r1
        0x00000888:    0afd        ..      LSRS     r5,r7,#11
        0x0000088a:    300a        .0      ADDS     r0,r0,#0xa
        0x0000088c:    d502        ..      BPL      0x894 ; _double_epilogue + 144
        0x0000088e:    2000        .       MOVS     r0,#0
        0x00000890:    4601        .F      MOV      r1,r0
        0x00000892:    e7e9        ..      B        0x868 ; _double_epilogue + 100
        0x00000894:    0501        ..      LSLS     r1,r0,#20
        0x00000896:    1910        ..      ADDS     r0,r2,r4
        0x00000898:    4169        iA      ADCS     r1,r1,r5
        0x0000089a:    9c0c        ..      LDR      r4,[sp,#0x30]
        0x0000089c:    9d0d        ..      LDR      r5,[sp,#0x34]
        0x0000089e:    1900        ..      ADDS     r0,r0,r4
        0x000008a0:    4169        iA      ADCS     r1,r1,r5
        0x000008a2:    f7ffffa2    ....    BL       _double_round ; 0x7ea
        0x000008a6:    e7df        ..      B        0x868 ; _double_epilogue + 100
    .text
    __aeabi_dadd
        0x000008a8:    b5f0        ..      PUSH     {r4-r7,lr}
        0x000008aa:    4607        .F      MOV      r7,r0
        0x000008ac:    4608        .F      MOV      r0,r1
        0x000008ae:    4058        X@      EORS     r0,r0,r3
        0x000008b0:    b087        ..      SUB      sp,sp,#0x1c
        0x000008b2:    0fc0        ..      LSRS     r0,r0,#31
        0x000008b4:    9004        ..      STR      r0,[sp,#0x10]
        0x000008b6:    0048        H.      LSLS     r0,r1,#1
        0x000008b8:    460e        .F      MOV      r6,r1
        0x000008ba:    0059        Y.      LSLS     r1,r3,#1
        0x000008bc:    0840        @.      LSRS     r0,r0,#1
        0x000008be:    0849        I.      LSRS     r1,r1,#1
        0x000008c0:    1abc        ..      SUBS     r4,r7,r2
        0x000008c2:    4188        .A      SBCS     r0,r0,r1
        0x000008c4:    d205        ..      BCS      0x8d2 ; __aeabi_dadd + 42
        0x000008c6:    4638        8F      MOV      r0,r7
        0x000008c8:    4631        1F      MOV      r1,r6
        0x000008ca:    461e        .F      MOV      r6,r3
        0x000008cc:    4617        .F      MOV      r7,r2
        0x000008ce:    460b        .F      MOV      r3,r1
        0x000008d0:    4602        .F      MOV      r2,r0
        0x000008d2:    0058        X.      LSLS     r0,r3,#1
        0x000008d4:    0840        @.      LSRS     r0,r0,#1
        0x000008d6:    4310        .C      ORRS     r0,r0,r2
        0x000008d8:    d04c        L.      BEQ      0x974 ; __aeabi_dadd + 204
        0x000008da:    0d30        0.      LSRS     r0,r6,#20
        0x000008dc:    9003        ..      STR      r0,[sp,#0xc]
        0x000008de:    0540        @.      LSLS     r0,r0,#21
        0x000008e0:    0059        Y.      LSLS     r1,r3,#1
        0x000008e2:    0d40        @.      LSRS     r0,r0,#21
        0x000008e4:    0d49        I.      LSRS     r1,r1,#21
        0x000008e6:    9005        ..      STR      r0,[sp,#0x14]
        0x000008e8:    1a40        @.      SUBS     r0,r0,r1
        0x000008ea:    9002        ..      STR      r0,[sp,#8]
        0x000008ec:    2840        @(      CMP      r0,#0x40
        0x000008ee:    da72        r.      BGE      0x9d6 ; __aeabi_dadd + 302
        0x000008f0:    0318        ..      LSLS     r0,r3,#12
        0x000008f2:    2101        .!      MOVS     r1,#1
        0x000008f4:    0b00        ..      LSRS     r0,r0,#12
        0x000008f6:    0509        ..      LSLS     r1,r1,#20
        0x000008f8:    4308        .C      ORRS     r0,r0,r1
        0x000008fa:    9001        ..      STR      r0,[sp,#4]
        0x000008fc:    9804        ..      LDR      r0,[sp,#0x10]
        0x000008fe:    9200        ..      STR      r2,[sp,#0]
        0x00000900:    2800        .(      CMP      r0,#0
        0x00000902:    d005        ..      BEQ      0x910 ; __aeabi_dadd + 104
        0x00000904:    9901        ..      LDR      r1,[sp,#4]
        0x00000906:    4252        RB      RSBS     r2,r2,#0
        0x00000908:    2000        .       MOVS     r0,#0
        0x0000090a:    4188        .A      SBCS     r0,r0,r1
        0x0000090c:    9200        ..      STR      r2,[sp,#0]
        0x0000090e:    9001        ..      STR      r0,[sp,#4]
        0x00000910:    9802        ..      LDR      r0,[sp,#8]
        0x00000912:    2140        @!      MOVS     r1,#0x40
        0x00000914:    1a0a        ..      SUBS     r2,r1,r0
        0x00000916:    9901        ..      LDR      r1,[sp,#4]
        0x00000918:    9800        ..      LDR      r0,[sp,#0]
        0x0000091a:    f7fffea9    ....    BL       __aeabi_llsl ; 0x670
        0x0000091e:    4605        .F      MOV      r5,r0
        0x00000920:    460c        .F      MOV      r4,r1
        0x00000922:    466b        kF      MOV      r3,sp
        0x00000924:    cb07        ..      LDM      r3!,{r0-r2}
        0x00000926:    f000f94e    ..N.    BL       __aeabi_lasr ; 0xbc6
        0x0000092a:    19c0        ..      ADDS     r0,r0,r7
        0x0000092c:    4171        qA      ADCS     r1,r1,r6
        0x0000092e:    9a03        ..      LDR      r2,[sp,#0xc]
        0x00000930:    0d0e        ..      LSRS     r6,r1,#20
        0x00000932:    2300        .#      MOVS     r3,#0
        0x00000934:    17d7        ..      ASRS     r7,r2,#31
        0x00000936:    4056        V@      EORS     r6,r6,r2
        0x00000938:    461a        .F      MOV      r2,r3
        0x0000093a:    407a        z@      EORS     r2,r2,r7
        0x0000093c:    4316        .C      ORRS     r6,r6,r2
        0x0000093e:    d044        D.      BEQ      0x9ca ; __aeabi_dadd + 290
        0x00000940:    9a04        ..      LDR      r2,[sp,#0x10]
        0x00000942:    2a00        .*      CMP      r2,#0
        0x00000944:    d02d        -.      BEQ      0x9a2 ; __aeabi_dadd + 250
        0x00000946:    9a02        ..      LDR      r2,[sp,#8]
        0x00000948:    2a01        .*      CMP      r2,#1
        0x0000094a:    9a03        ..      LDR      r2,[sp,#0xc]
        0x0000094c:    dc15        ..      BGT      0x97a ; __aeabi_dadd + 210
        0x0000094e:    0512        ..      LSLS     r2,r2,#20
        0x00000950:    1ac0        ..      SUBS     r0,r0,r3
        0x00000952:    4191        .A      SBCS     r1,r1,r2
        0x00000954:    2601        .&      MOVS     r6,#1
        0x00000956:    0536        6.      LSLS     r6,r6,#20
        0x00000958:    1c00        ..      ADDS     r0,r0,#0
        0x0000095a:    4171        qA      ADCS     r1,r1,r6
        0x0000095c:    0fd2        ..      LSRS     r2,r2,#31
        0x0000095e:    9e05        ..      LDR      r6,[sp,#0x14]
        0x00000960:    07d2        ..      LSLS     r2,r2,#31
        0x00000962:    9300        ..      STR      r3,[sp,#0]
        0x00000964:    9201        ..      STR      r2,[sp,#4]
        0x00000966:    9602        ..      STR      r6,[sp,#8]
        0x00000968:    462a        *F      MOV      r2,r5
        0x0000096a:    4623        #F      MOV      r3,r4
        0x0000096c:    f7ffff4a    ..J.    BL       _double_epilogue ; 0x804
        0x00000970:    b007        ..      ADD      sp,sp,#0x1c
        0x00000972:    bdf0        ..      POP      {r4-r7,pc}
        0x00000974:    4638        8F      MOV      r0,r7
        0x00000976:    4631        1F      MOV      r1,r6
        0x00000978:    e7fa        ..      B        0x970 ; __aeabi_dadd + 200
        0x0000097a:    0516        ..      LSLS     r6,r2,#20
        0x0000097c:    4a22        "J      LDR      r2,[pc,#136] ; [0xa08] = 0xffe00000
        0x0000097e:    460f        .F      MOV      r7,r1
        0x00000980:    18b2        ..      ADDS     r2,r6,r2
        0x00000982:    1ac0        ..      SUBS     r0,r0,r3
        0x00000984:    41b7        .A      SBCS     r7,r7,r6
        0x00000986:    2101        .!      MOVS     r1,#1
        0x00000988:    0509        ..      LSLS     r1,r1,#20
        0x0000098a:    1c00        ..      ADDS     r0,r0,#0
        0x0000098c:    414f        OA      ADCS     r7,r7,r1
        0x0000098e:    1800        ..      ADDS     r0,r0,r0
        0x00000990:    417f        .A      ADCS     r7,r7,r7
        0x00000992:    4611        .F      MOV      r1,r2
        0x00000994:    1818        ..      ADDS     r0,r3,r0
        0x00000996:    4179        yA      ADCS     r1,r1,r7
        0x00000998:    0fe2        ..      LSRS     r2,r4,#31
        0x0000099a:    4310        .C      ORRS     r0,r0,r2
        0x0000099c:    196d        m.      ADDS     r5,r5,r5
        0x0000099e:    4164        dA      ADCS     r4,r4,r4
        0x000009a0:    e013        ..      B        0x9ca ; __aeabi_dadd + 290
        0x000009a2:    07e2        ..      LSLS     r2,r4,#31
        0x000009a4:    086d        m.      LSRS     r5,r5,#1
        0x000009a6:    4315        .C      ORRS     r5,r5,r2
        0x000009a8:    0864        d.      LSRS     r4,r4,#1
        0x000009aa:    07c2        ..      LSLS     r2,r0,#31
        0x000009ac:    4314        .C      ORRS     r4,r4,r2
        0x000009ae:    9a03        ..      LDR      r2,[sp,#0xc]
        0x000009b0:    2601        .&      MOVS     r6,#1
        0x000009b2:    0512        ..      LSLS     r2,r2,#20
        0x000009b4:    1ac0        ..      SUBS     r0,r0,r3
        0x000009b6:    4191        .A      SBCS     r1,r1,r2
        0x000009b8:    0536        6.      LSLS     r6,r6,#20
        0x000009ba:    1c00        ..      ADDS     r0,r0,#0
        0x000009bc:    4171        qA      ADCS     r1,r1,r6
        0x000009be:    07ce        ..      LSLS     r6,r1,#31
        0x000009c0:    0840        @.      LSRS     r0,r0,#1
        0x000009c2:    4330        0C      ORRS     r0,r0,r6
        0x000009c4:    0849        I.      LSRS     r1,r1,#1
        0x000009c6:    18c0        ..      ADDS     r0,r0,r3
        0x000009c8:    4151        QA      ADCS     r1,r1,r2
        0x000009ca:    462a        *F      MOV      r2,r5
        0x000009cc:    4623        #F      MOV      r3,r4
        0x000009ce:    f7ffff0c    ....    BL       _double_round ; 0x7ea
        0x000009d2:    e7cd        ..      B        0x970 ; __aeabi_dadd + 200
        0x000009d4:    e7ff        ..      B        0x9d6 ; __aeabi_dadd + 302
        0x000009d6:    9804        ..      LDR      r0,[sp,#0x10]
        0x000009d8:    2201        ."      MOVS     r2,#1
        0x000009da:    0040        @.      LSLS     r0,r0,#1
        0x000009dc:    17c1        ..      ASRS     r1,r0,#31
        0x000009de:    1a12        ..      SUBS     r2,r2,r0
        0x000009e0:    2300        .#      MOVS     r3,#0
        0x000009e2:    418b        .A      SBCS     r3,r3,r1
        0x000009e4:    9804        ..      LDR      r0,[sp,#0x10]
        0x000009e6:    4631        1F      MOV      r1,r6
        0x000009e8:    17c4        ..      ASRS     r4,r0,#31
        0x000009ea:    1a38        8.      SUBS     r0,r7,r0
        0x000009ec:    41a1        .A      SBCS     r1,r1,r4
        0x000009ee:    e7ee        ..      B        0x9ce ; __aeabi_dadd + 294
    __aeabi_dsub
        0x000009f0:    b430        0.      PUSH     {r4,r5}
        0x000009f2:    2401        .$      MOVS     r4,#1
        0x000009f4:    07e4        ..      LSLS     r4,r4,#31
        0x000009f6:    4063        c@      EORS     r3,r3,r4
        0x000009f8:    bc30        0.      POP      {r4,r5}
        0x000009fa:    e755        U.      B        __aeabi_dadd ; 0x8a8
    __aeabi_drsub
        0x000009fc:    b430        0.      PUSH     {r4,r5}
        0x000009fe:    2401        .$      MOVS     r4,#1
        0x00000a00:    07e4        ..      LSLS     r4,r4,#31
        0x00000a02:    4061        a@      EORS     r1,r1,r4
        0x00000a04:    bc30        0.      POP      {r4,r5}
        0x00000a06:    e74f        O.      B        __aeabi_dadd ; 0x8a8
    $d
        0x00000a08:    ffe00000    ....    DCD    4292870144
    $t
    .text
    __aeabi_ddiv
        0x00000a0c:    b5f0        ..      PUSH     {r4-r7,lr}
        0x00000a0e:    460c        .F      MOV      r4,r1
        0x00000a10:    405c        \@      EORS     r4,r4,r3
        0x00000a12:    b085        ..      SUB      sp,sp,#0x14
        0x00000a14:    0fe4        ..      LSRS     r4,r4,#31
        0x00000a16:    07e4        ..      LSLS     r4,r4,#31
        0x00000a18:    9403        ..      STR      r4,[sp,#0xc]
        0x00000a1a:    004c        L.      LSLS     r4,r1,#1
        0x00000a1c:    2600        .&      MOVS     r6,#0
        0x00000a1e:    0864        d.      LSRS     r4,r4,#1
        0x00000a20:    0059        Y.      LSLS     r1,r3,#1
        0x00000a22:    4694        .F      MOV      r12,r2
        0x00000a24:    0849        I.      LSRS     r1,r1,#1
        0x00000a26:    4602        .F      MOV      r2,r0
        0x00000a28:    9602        ..      STR      r6,[sp,#8]
        0x00000a2a:    4322        "C      ORRS     r2,r2,r4
        0x00000a2c:    d021        !.      BEQ      0xa72 ; __aeabi_ddiv + 102
        0x00000a2e:    4662        bF      MOV      r2,r12
        0x00000a30:    430a        .C      ORRS     r2,r2,r1
        0x00000a32:    d01e        ..      BEQ      0xa72 ; __aeabi_ddiv + 102
        0x00000a34:    0062        b.      LSLS     r2,r4,#1
        0x00000a36:    0d57        W.      LSRS     r7,r2,#21
        0x00000a38:    004a        J.      LSLS     r2,r1,#1
        0x00000a3a:    030e        ..      LSLS     r6,r1,#12
        0x00000a3c:    0323        #.      LSLS     r3,r4,#12
        0x00000a3e:    0d55        U.      LSRS     r5,r2,#21
        0x00000a40:    2401        .$      MOVS     r4,#1
        0x00000a42:    4602        .F      MOV      r2,r0
        0x00000a44:    492c        ,I      LDR      r1,[pc,#176] ; [0xaf8] = 0x3fd
        0x00000a46:    0524        $.      LSLS     r4,r4,#20
        0x00000a48:    1b78        x.      SUBS     r0,r7,r5
        0x00000a4a:    0b1b        ..      LSRS     r3,r3,#12
        0x00000a4c:    0b36        6.      LSRS     r6,r6,#12
        0x00000a4e:    1840        @.      ADDS     r0,r0,r1
        0x00000a50:    4323        #C      ORRS     r3,r3,r4
        0x00000a52:    4326        &C      ORRS     r6,r6,r4
        0x00000a54:    4661        aF      MOV      r1,r12
        0x00000a56:    9000        ..      STR      r0,[sp,#0]
        0x00000a58:    461c        .F      MOV      r4,r3
        0x00000a5a:    1a50        P.      SUBS     r0,r2,r1
        0x00000a5c:    41b4        .A      SBCS     r4,r4,r6
        0x00000a5e:    d303        ..      BCC      0xa68 ; __aeabi_ddiv + 92
        0x00000a60:    9800        ..      LDR      r0,[sp,#0]
        0x00000a62:    1c40        @.      ADDS     r0,r0,#1
        0x00000a64:    9000        ..      STR      r0,[sp,#0]
        0x00000a66:    e002        ..      B        0xa6e ; __aeabi_ddiv + 98
        0x00000a68:    1892        ..      ADDS     r2,r2,r2
        0x00000a6a:    9800        ..      LDR      r0,[sp,#0]
        0x00000a6c:    415b        [A      ADCS     r3,r3,r3
        0x00000a6e:    2800        .(      CMP      r0,#0
        0x00000a70:    da03        ..      BGE      0xa7a ; __aeabi_ddiv + 110
        0x00000a72:    2000        .       MOVS     r0,#0
        0x00000a74:    4601        .F      MOV      r1,r0
        0x00000a76:    b005        ..      ADD      sp,sp,#0x14
        0x00000a78:    bdf0        ..      POP      {r4-r7,pc}
        0x00000a7a:    2000        .       MOVS     r0,#0
        0x00000a7c:    2101        .!      MOVS     r1,#1
        0x00000a7e:    0509        ..      LSLS     r1,r1,#20
        0x00000a80:    4607        .F      MOV      r7,r0
        0x00000a82:    4686        .F      MOV      lr,r0
        0x00000a84:    e011        ..      B        0xaaa ; __aeabi_ddiv + 158
        0x00000a86:    4664        dF      MOV      r4,r12
        0x00000a88:    461d        .F      MOV      r5,r3
        0x00000a8a:    1b14        ..      SUBS     r4,r2,r4
        0x00000a8c:    41b5        .A      SBCS     r5,r5,r6
        0x00000a8e:    d306        ..      BCC      0xa9e ; __aeabi_ddiv + 146
        0x00000a90:    4665        eF      MOV      r5,r12
        0x00000a92:    1b52        R.      SUBS     r2,r2,r5
        0x00000a94:    41b3        .A      SBCS     r3,r3,r6
        0x00000a96:    4674        tF      MOV      r4,lr
        0x00000a98:    4307        .C      ORRS     r7,r7,r0
        0x00000a9a:    430c        .C      ORRS     r4,r4,r1
        0x00000a9c:    46a6        .F      MOV      lr,r4
        0x00000a9e:    07cd        ..      LSLS     r5,r1,#31
        0x00000aa0:    0840        @.      LSRS     r0,r0,#1
        0x00000aa2:    0849        I.      LSRS     r1,r1,#1
        0x00000aa4:    4328        (C      ORRS     r0,r0,r5
        0x00000aa6:    1892        ..      ADDS     r2,r2,r2
        0x00000aa8:    415b        [A      ADCS     r3,r3,r3
        0x00000aaa:    4605        .F      MOV      r5,r0
        0x00000aac:    430d        .C      ORRS     r5,r5,r1
        0x00000aae:    d1ea        ..      BNE      0xa86 ; __aeabi_ddiv + 122
        0x00000ab0:    4610        .F      MOV      r0,r2
        0x00000ab2:    4318        .C      ORRS     r0,r0,r3
        0x00000ab4:    d013        ..      BEQ      0xade ; __aeabi_ddiv + 210
        0x00000ab6:    4660        `F      MOV      r0,r12
        0x00000ab8:    4619        .F      MOV      r1,r3
        0x00000aba:    4050        P@      EORS     r0,r0,r2
        0x00000abc:    4071        q@      EORS     r1,r1,r6
        0x00000abe:    4308        .C      ORRS     r0,r0,r1
        0x00000ac0:    d006        ..      BEQ      0xad0 ; __aeabi_ddiv + 196
        0x00000ac2:    4660        `F      MOV      r0,r12
        0x00000ac4:    1a10        ..      SUBS     r0,r2,r0
        0x00000ac6:    41b3        .A      SBCS     r3,r3,r6
        0x00000ac8:    d206        ..      BCS      0xad8 ; __aeabi_ddiv + 204
        0x00000aca:    2201        ."      MOVS     r2,#1
        0x00000acc:    2300        .#      MOVS     r3,#0
        0x00000ace:    e006        ..      B        0xade ; __aeabi_ddiv + 210
        0x00000ad0:    2200        ."      MOVS     r2,#0
        0x00000ad2:    2301        .#      MOVS     r3,#1
        0x00000ad4:    07db        ..      LSLS     r3,r3,#31
        0x00000ad6:    e002        ..      B        0xade ; __aeabi_ddiv + 210
        0x00000ad8:    2201        ."      MOVS     r2,#1
        0x00000ada:    43d2        .C      MVNS     r2,r2
        0x00000adc:    1053        S.      ASRS     r3,r2,#1
        0x00000ade:    9800        ..      LDR      r0,[sp,#0]
        0x00000ae0:    4674        tF      MOV      r4,lr
        0x00000ae2:    0501        ..      LSLS     r1,r0,#20
        0x00000ae4:    1c38        8.      ADDS     r0,r7,#0
        0x00000ae6:    4161        aA      ADCS     r1,r1,r4
        0x00000ae8:    9c02        ..      LDR      r4,[sp,#8]
        0x00000aea:    9d03        ..      LDR      r5,[sp,#0xc]
        0x00000aec:    1900        ..      ADDS     r0,r0,r4
        0x00000aee:    4169        iA      ADCS     r1,r1,r5
        0x00000af0:    f7fffe7b    ..{.    BL       _double_round ; 0x7ea
        0x00000af4:    e7bf        ..      B        0xa76 ; __aeabi_ddiv + 106
    $d
        0x00000af6:    0000        ..      DCW    0
        0x00000af8:    000003fd    ....    DCD    1021
    $t
    .text
    __aeabi_d2ulz
        0x00000afc:    004a        J.      LSLS     r2,r1,#1
        0x00000afe:    0309        ..      LSLS     r1,r1,#12
        0x00000b00:    2301        .#      MOVS     r3,#1
        0x00000b02:    0b09        ..      LSRS     r1,r1,#12
        0x00000b04:    051b        ..      LSLS     r3,r3,#20
        0x00000b06:    4319        .C      ORRS     r1,r1,r3
        0x00000b08:    4b0a        .K      LDR      r3,[pc,#40] ; [0xb34] = 0x3ff
        0x00000b0a:    b510        ..      PUSH     {r4,lr}
        0x00000b0c:    0d52        R.      LSRS     r2,r2,#21
        0x00000b0e:    429a        .B      CMP      r2,r3
        0x00000b10:    da02        ..      BGE      0xb18 ; __aeabi_d2ulz + 28
        0x00000b12:    2000        .       MOVS     r0,#0
        0x00000b14:    4601        .F      MOV      r1,r0
        0x00000b16:    bd10        ..      POP      {r4,pc}
        0x00000b18:    4b06        .K      LDR      r3,[pc,#24] ; [0xb34] = 0x3ff
        0x00000b1a:    3334        43      ADDS     r3,r3,#0x34
        0x00000b1c:    429a        .B      CMP      r2,r3
        0x00000b1e:    dc03        ..      BGT      0xb28 ; __aeabi_d2ulz + 44
        0x00000b20:    1a9a        ..      SUBS     r2,r3,r2
        0x00000b22:    f7fffdb5    ....    BL       __aeabi_llsr ; 0x690
        0x00000b26:    bd10        ..      POP      {r4,pc}
        0x00000b28:    4b03        .K      LDR      r3,[pc,#12] ; [0xb38] = 0xfffffbcd
        0x00000b2a:    18d2        ..      ADDS     r2,r2,r3
        0x00000b2c:    f7fffda0    ....    BL       __aeabi_llsl ; 0x670
        0x00000b30:    bd10        ..      POP      {r4,pc}
    $d
        0x00000b32:    0000        ..      DCW    0
        0x00000b34:    000003ff    ....    DCD    1023
        0x00000b38:    fffffbcd    ....    DCD    4294966221
    $t
    .text
    __aeabi_cdrcmple
        0x00000b3c:    b510        ..      PUSH     {r4,lr}
        0x00000b3e:    2900        .)      CMP      r1,#0
        0x00000b40:    db04        ..      BLT      0xb4c ; __aeabi_cdrcmple + 16
        0x00000b42:    2401        .$      MOVS     r4,#1
        0x00000b44:    07e4        ..      LSLS     r4,r4,#31
        0x00000b46:    4240        @B      RSBS     r0,r0,#0
        0x00000b48:    418c        .A      SBCS     r4,r4,r1
        0x00000b4a:    4621        !F      MOV      r1,r4
        0x00000b4c:    2b00        .+      CMP      r3,#0
        0x00000b4e:    db04        ..      BLT      0xb5a ; __aeabi_cdrcmple + 30
        0x00000b50:    461c        .F      MOV      r4,r3
        0x00000b52:    2301        .#      MOVS     r3,#1
        0x00000b54:    07db        ..      LSLS     r3,r3,#31
        0x00000b56:    4252        RB      RSBS     r2,r2,#0
        0x00000b58:    41a3        .A      SBCS     r3,r3,r4
        0x00000b5a:    4299        .B      CMP      r1,r3
        0x00000b5c:    d100        ..      BNE      0xb60 ; __aeabi_cdrcmple + 36
        0x00000b5e:    4290        .B      CMP      r0,r2
        0x00000b60:    bd10        ..      POP      {r4,pc}
    $d
        0x00000b62:    0000        ..      DCW    0
    $t
    .text
    __scatterload
    __scatterload_rt2
        0x00000b64:    4c06        .L      LDR      r4,[pc,#24] ; [0xb80] = 0x7b44
        0x00000b66:    2501        .%      MOVS     r5,#1
        0x00000b68:    4e06        .N      LDR      r6,[pc,#24] ; [0xb84] = 0x7b64
        0x00000b6a:    e005        ..      B        0xb78 ; __scatterload + 20
        0x00000b6c:    68e3        .h      LDR      r3,[r4,#0xc]
        0x00000b6e:    cc07        ..      LDM      r4!,{r0-r2}
        0x00000b70:    432b        +C      ORRS     r3,r3,r5
        0x00000b72:    3c0c        .<      SUBS     r4,r4,#0xc
        0x00000b74:    4798        .G      BLX      r3
        0x00000b76:    3410        .4      ADDS     r4,r4,#0x10
        0x00000b78:    42b4        .B      CMP      r4,r6
        0x00000b7a:    d3f7        ..      BCC      0xb6c ; __scatterload + 8
        0x00000b7c:    f7fffae4    ....    BL       __main_after_scatterload ; 0x148
    $d
        0x00000b80:    00007b44    D{..    DCD    31556
        0x00000b84:    00007b64    d{..    DCD    31588
    $t
    .text
    __aeabi_uidiv$div0
    __aeabi_uidivmod
        0x00000b88:    b570        p.      PUSH     {r4-r6,lr}
        0x00000b8a:    4604        .F      MOV      r4,r0
        0x00000b8c:    2900        .)      CMP      r1,#0
        0x00000b8e:    d003        ..      BEQ      0xb98 ; __aeabi_uidiv$div0 + 16
        0x00000b90:    2000        .       MOVS     r0,#0
        0x00000b92:    2220         "      MOVS     r2,#0x20
        0x00000b94:    2301        .#      MOVS     r3,#1
        0x00000b96:    e010        ..      B        0xbba ; __aeabi_uidiv$div0 + 50
        0x00000b98:    2800        .(      CMP      r0,#0
        0x00000b9a:    d001        ..      BEQ      0xba0 ; __aeabi_uidiv$div0 + 24
        0x00000b9c:    2000        .       MOVS     r0,#0
        0x00000b9e:    43c0        .C      MVNS     r0,r0
        0x00000ba0:    46c0        .F      MOV      r8,r8
        0x00000ba2:    46c0        .F      MOV      r8,r8
        0x00000ba4:    e00d        ..      B        0xbc2 ; __aeabi_uidiv$div0 + 58
        0x00000ba6:    4625        %F      MOV      r5,r4
        0x00000ba8:    40d5        .@      LSRS     r5,r5,r2
        0x00000baa:    428d        .B      CMP      r5,r1
        0x00000bac:    d305        ..      BCC      0xbba ; __aeabi_uidiv$div0 + 50
        0x00000bae:    460d        .F      MOV      r5,r1
        0x00000bb0:    4095        .@      LSLS     r5,r5,r2
        0x00000bb2:    1b64        d.      SUBS     r4,r4,r5
        0x00000bb4:    461d        .F      MOV      r5,r3
        0x00000bb6:    4095        .@      LSLS     r5,r5,r2
        0x00000bb8:    1940        @.      ADDS     r0,r0,r5
        0x00000bba:    4615        .F      MOV      r5,r2
        0x00000bbc:    1e52        R.      SUBS     r2,r2,#1
        0x00000bbe:    2d00        .-      CMP      r5,#0
        0x00000bc0:    dcf1        ..      BGT      0xba6 ; __aeabi_uidiv$div0 + 30
        0x00000bc2:    4621        !F      MOV      r1,r4
        0x00000bc4:    bd70        p.      POP      {r4-r6,pc}
    .text
    __aeabi_lasr
    _ll_sshift_r
        0x00000bc6:    b510        ..      PUSH     {r4,lr}
        0x00000bc8:    2a20         *      CMP      r2,#0x20
        0x00000bca:    db06        ..      BLT      0xbda ; __aeabi_lasr + 20
        0x00000bcc:    17cb        ..      ASRS     r3,r1,#31
        0x00000bce:    4608        .F      MOV      r0,r1
        0x00000bd0:    3a20         :      SUBS     r2,r2,#0x20
        0x00000bd2:    4110        .A      ASRS     r0,r0,r2
        0x00000bd4:    17c1        ..      ASRS     r1,r0,#31
        0x00000bd6:    430b        .C      ORRS     r3,r3,r1
        0x00000bd8:    e006        ..      B        0xbe8 ; __aeabi_lasr + 34
        0x00000bda:    460b        .F      MOV      r3,r1
        0x00000bdc:    4113        .A      ASRS     r3,r3,r2
        0x00000bde:    40d0        .@      LSRS     r0,r0,r2
        0x00000be0:    2420         $      MOVS     r4,#0x20
        0x00000be2:    1aa2        ..      SUBS     r2,r4,r2
        0x00000be4:    4091        .@      LSLS     r1,r1,r2
        0x00000be6:    4308        .C      ORRS     r0,r0,r1
        0x00000be8:    4619        .F      MOV      r1,r3
        0x00000bea:    bd10        ..      POP      {r4,pc}
    .text
    isspace
        0x00000bec:    b510        ..      PUSH     {r4,lr}
        0x00000bee:    210f        .!      MOVS     r1,#0xf
        0x00000bf0:    b2c0        ..      UXTB     r0,r0
        0x00000bf2:    0249        I.      LSLS     r1,r1,#9
        0x00000bf4:    f000f9f6    ....    BL       __ctype_lookup ; 0xfe4
        0x00000bf8:    bd10        ..      POP      {r4,pc}
        0x00000bfa:    0000        ..      MOVS     r0,r0
    .text
    _fp_value
        0x00000bfc:    b5ff        ..      PUSH     {r0-r7,lr}
        0x00000bfe:    7808        .x      LDRB     r0,[r1,#0]
        0x00000c00:    b089        ..      SUB      sp,sp,#0x24
        0x00000c02:    4615        .F      MOV      r5,r2
        0x00000c04:    28ff        .(      CMP      r0,#0xff
        0x00000c06:    d005        ..      BEQ      0xc14 ; _fp_value + 24
        0x00000c08:    1c49        I.      ADDS     r1,r1,#1
        0x00000c0a:    282d        -(      CMP      r0,#0x2d
        0x00000c0c:    d004        ..      BEQ      0xc18 ; _fp_value + 28
        0x00000c0e:    2200        ."      MOVS     r2,#0
        0x00000c10:    2400        .$      MOVS     r4,#0
        0x00000c12:    e007        ..      B        0xc24 ; _fp_value + 40
        0x00000c14:    2400        .$      MOVS     r4,#0
        0x00000c16:    e00b        ..      B        0xc30 ; _fp_value + 52
        0x00000c18:    2201        ."      MOVS     r2,#1
        0x00000c1a:    e7f9        ..      B        0xc10 ; _fp_value + 20
        0x00000c1c:    230a        .#      MOVS     r3,#0xa
        0x00000c1e:    435c        \C      MULS     r4,r3,r4
        0x00000c20:    1904        ..      ADDS     r4,r0,r4
        0x00000c22:    1c49        I.      ADDS     r1,r1,#1
        0x00000c24:    7808        .x      LDRB     r0,[r1,#0]
        0x00000c26:    28ff        .(      CMP      r0,#0xff
        0x00000c28:    d1f8        ..      BNE      0xc1c ; _fp_value + 32
        0x00000c2a:    2a00        .*      CMP      r2,#0
        0x00000c2c:    d000        ..      BEQ      0xc30 ; _fp_value + 52
        0x00000c2e:    4264        dB      RSBS     r4,r4,#0
        0x00000c30:    2000        .       MOVS     r0,#0
        0x00000c32:    9004        ..      STR      r0,[sp,#0x10]
        0x00000c34:    782a        *x      LDRB     r2,[r5,#0]
        0x00000c36:    4601        .F      MOV      r1,r0
        0x00000c38:    2a2d        -*      CMP      r2,#0x2d
        0x00000c3a:    d001        ..      BEQ      0xc40 ; _fp_value + 68
        0x00000c3c:    2a2b        +*      CMP      r2,#0x2b
        0x00000c3e:    d10f        ..      BNE      0xc60 ; _fp_value + 100
        0x00000c40:    1c6d        m.      ADDS     r5,r5,#1
        0x00000c42:    2a2d        -*      CMP      r2,#0x2d
        0x00000c44:    d002        ..      BEQ      0xc4c ; _fp_value + 80
        0x00000c46:    2200        ."      MOVS     r2,#0
        0x00000c48:    9204        ..      STR      r2,[sp,#0x10]
        0x00000c4a:    e009        ..      B        0xc60 ; _fp_value + 100
        0x00000c4c:    2201        ."      MOVS     r2,#1
        0x00000c4e:    e7fb        ..      B        0xc48 ; _fp_value + 76
        0x00000c50:    2600        .&      MOVS     r6,#0
        0x00000c52:    220a        ."      MOVS     r2,#0xa
        0x00000c54:    4633        3F      MOV      r3,r6
        0x00000c56:    1c6d        m.      ADDS     r5,r5,#1
        0x00000c58:    f000f9ac    ....    BL       __aeabi_lmul ; 0xfb4
        0x00000c5c:    1838        8.      ADDS     r0,r7,r0
        0x00000c5e:    4171        qA      ADCS     r1,r1,r6
        0x00000c60:    782f        /x      LDRB     r7,[r5,#0]
        0x00000c62:    2fff        ./      CMP      r7,#0xff
        0x00000c64:    d1f4        ..      BNE      0xc50 ; _fp_value + 84
        0x00000c66:    9a0c        ..      LDR      r2,[sp,#0x30]
        0x00000c68:    18a2        ..      ADDS     r2,r4,r2
        0x00000c6a:    9206        ..      STR      r2,[sp,#0x18]
        0x00000c6c:    4602        .F      MOV      r2,r0
        0x00000c6e:    430a        .C      ORRS     r2,r2,r1
        0x00000c70:    d004        ..      BEQ      0xc7c ; _fp_value + 128
        0x00000c72:    23ff        .#      MOVS     r3,#0xff
        0x00000c74:    9a06        ..      LDR      r2,[sp,#0x18]
        0x00000c76:    3391        .3      ADDS     r3,r3,#0x91
        0x00000c78:    42da        .B      CMN      r2,r3
        0x00000c7a:    da05        ..      BGE      0xc88 ; _fp_value + 140
        0x00000c7c:    2100        .!      MOVS     r1,#0
        0x00000c7e:    9809        ..      LDR      r0,[sp,#0x24]
        0x00000c80:    460a        .F      MOV      r2,r1
        0x00000c82:    c006        ..      STM      r0!,{r1,r2}
        0x00000c84:    b00d        ..      ADD      sp,sp,#0x34
        0x00000c86:    bdf0        ..      POP      {r4-r7,pc}
        0x00000c88:    2400        .$      MOVS     r4,#0
        0x00000c8a:    4ab7        .J      LDR      r2,[pc,#732] ; [0xf68] = 0x3ff00000
        0x00000c8c:    4db5        .M      LDR      r5,[pc,#724] ; [0xf64] = 0x40140000
        0x00000c8e:    4626        &F      MOV      r6,r4
        0x00000c90:    9207        ..      STR      r2,[sp,#0x1c]
        0x00000c92:    f000f9b9    ....    BL       __aeabi_ul2d ; 0x1008
        0x00000c96:    9002        ..      STR      r0,[sp,#8]
        0x00000c98:    9806        ..      LDR      r0,[sp,#0x18]
        0x00000c9a:    9103        ..      STR      r1,[sp,#0xc]
        0x00000c9c:    2800        .(      CMP      r0,#0
        0x00000c9e:    da01        ..      BGE      0xca4 ; _fp_value + 168
        0x00000ca0:    4247        GB      RSBS     r7,r0,#0
        0x00000ca2:    e000        ..      B        0xca6 ; _fp_value + 170
        0x00000ca4:    4607        .F      MOV      r7,r0
        0x00000ca6:    0539        9.      LSLS     r1,r7,#20
        0x00000ca8:    2000        .       MOVS     r0,#0
        0x00000caa:    4aaf        .J      LDR      r2,[pc,#700] ; [0xf68] = 0x3ff00000
        0x00000cac:    1c00        ..      ADDS     r0,r0,#0
        0x00000cae:    4151        QA      ADCS     r1,r1,r2
        0x00000cb0:    9101        ..      STR      r1,[sp,#4]
        0x00000cb2:    9000        ..      STR      r0,[sp,#0]
        0x00000cb4:    e012        ..      B        0xcdc ; _fp_value + 224
        0x00000cb6:    07f8        ..      LSLS     r0,r7,#31
        0x00000cb8:    d007        ..      BEQ      0xcca ; _fp_value + 206
        0x00000cba:    4622        "F      MOV      r2,r4
        0x00000cbc:    462b        +F      MOV      r3,r5
        0x00000cbe:    4630        0F      MOV      r0,r6
        0x00000cc0:    9907        ..      LDR      r1,[sp,#0x1c]
        0x00000cc2:    f7fffb83    ....    BL       __aeabi_dmul ; 0x3cc
        0x00000cc6:    4606        .F      MOV      r6,r0
        0x00000cc8:    9107        ..      STR      r1,[sp,#0x1c]
        0x00000cca:    4622        "F      MOV      r2,r4
        0x00000ccc:    462b        +F      MOV      r3,r5
        0x00000cce:    4610        .F      MOV      r0,r2
        0x00000cd0:    4619        .F      MOV      r1,r3
        0x00000cd2:    f7fffb7b    ..{.    BL       __aeabi_dmul ; 0x3cc
        0x00000cd6:    4604        .F      MOV      r4,r0
        0x00000cd8:    460d        .F      MOV      r5,r1
        0x00000cda:    107f        ..      ASRS     r7,r7,#1
        0x00000cdc:    2f00        ./      CMP      r7,#0
        0x00000cde:    d1ea        ..      BNE      0xcb6 ; _fp_value + 186
        0x00000ce0:    9806        ..      LDR      r0,[sp,#0x18]
        0x00000ce2:    9b01        ..      LDR      r3,[sp,#4]
        0x00000ce4:    2800        .(      CMP      r0,#0
        0x00000ce6:    9a00        ..      LDR      r2,[sp,#0]
        0x00000ce8:    9903        ..      LDR      r1,[sp,#0xc]
        0x00000cea:    9802        ..      LDR      r0,[sp,#8]
        0x00000cec:    da06        ..      BGE      0xcfc ; _fp_value + 256
        0x00000cee:    f7fffe8d    ....    BL       __aeabi_ddiv ; 0xa0c
        0x00000cf2:    4632        2F      MOV      r2,r6
        0x00000cf4:    9b07        ..      LDR      r3,[sp,#0x1c]
        0x00000cf6:    f7fffe89    ....    BL       __aeabi_ddiv ; 0xa0c
        0x00000cfa:    e005        ..      B        0xd08 ; _fp_value + 268
        0x00000cfc:    f7fffb66    ..f.    BL       __aeabi_dmul ; 0x3cc
        0x00000d00:    4632        2F      MOV      r2,r6
        0x00000d02:    9b07        ..      LDR      r3,[sp,#0x1c]
        0x00000d04:    f7fffb62    ..b.    BL       __aeabi_dmul ; 0x3cc
        0x00000d08:    9a04        ..      LDR      r2,[sp,#0x10]
        0x00000d0a:    2a00        .*      CMP      r2,#0
        0x00000d0c:    d002        ..      BEQ      0xd14 ; _fp_value + 280
        0x00000d0e:    2201        ."      MOVS     r2,#1
        0x00000d10:    07d2        ..      LSLS     r2,r2,#31
        0x00000d12:    4051        Q@      EORS     r1,r1,r2
        0x00000d14:    9a09        ..      LDR      r2,[sp,#0x24]
        0x00000d16:    c203        ..      STM      r2!,{r0,r1}
        0x00000d18:    e7b4        ..      B        0xc84 ; _fp_value + 136
    _scanf_real
    _scanf_really_real
        0x00000d1a:    b5ff        ..      PUSH     {r0-r7,lr}
        0x00000d1c:    b091        ..      SUB      sp,sp,#0x44
        0x00000d1e:    2000        .       MOVS     r0,#0
        0x00000d20:    9009        ..      STR      r0,[sp,#0x24]
        0x00000d22:    2500        .%      MOVS     r5,#0
        0x00000d24:    43ed        .C      MVNS     r5,r5
        0x00000d26:    202e        .       MOVS     r0,#0x2e
        0x00000d28:    689e        .h      LDR      r6,[r3,#8]
        0x00000d2a:    685c        \h      LDR      r4,[r3,#4]
        0x00000d2c:    461f        .F      MOV      r7,r3
        0x00000d2e:    9001        ..      STR      r0,[sp,#4]
        0x00000d30:    69b9        .i      LDR      r1,[r7,#0x18]
        0x00000d32:    1c6d        m.      ADDS     r5,r5,#1
        0x00000d34:    9812        ..      LDR      r0,[sp,#0x48]
        0x00000d36:    4788        .G      BLX      r1
        0x00000d38:    9000        ..      STR      r0,[sp,#0]
        0x00000d3a:    6a39        9j      LDR      r1,[r7,#0x20]
        0x00000d3c:    4788        .G      BLX      r1
        0x00000d3e:    2800        .(      CMP      r0,#0
        0x00000d40:    d1f6        ..      BNE      0xd30 ; _scanf_real + 22
        0x00000d42:    9800        ..      LDR      r0,[sp,#0]
        0x00000d44:    1c40        @.      ADDS     r0,r0,#1
        0x00000d46:    d00a        ..      BEQ      0xd5e ; _scanf_real + 68
        0x00000d48:    200d        .       MOVS     r0,#0xd
        0x00000d4a:    01c0        ..      LSLS     r0,r0,#7
        0x00000d4c:    4384        .C      BICS     r4,r4,r0
        0x00000d4e:    2e00        ..      CMP      r6,#0
        0x00000d50:    dd12        ..      BLE      0xd78 ; _scanf_real + 94
        0x00000d52:    9800        ..      LDR      r0,[sp,#0]
        0x00000d54:    282b        +(      CMP      r0,#0x2b
        0x00000d56:    d009        ..      BEQ      0xd6c ; _scanf_real + 82
        0x00000d58:    282d        -(      CMP      r0,#0x2d
        0x00000d5a:    d10d        ..      BNE      0xd78 ; _scanf_real + 94
        0x00000d5c:    e003        ..      B        0xd66 ; _scanf_real + 76
        0x00000d5e:    2000        .       MOVS     r0,#0
        0x00000d60:    43c0        .C      MVNS     r0,r0
        0x00000d62:    b015        ..      ADD      sp,sp,#0x54
        0x00000d64:    bdf0        ..      POP      {r4-r7,pc}
        0x00000d66:    2001        .       MOVS     r0,#1
        0x00000d68:    0280        ..      LSLS     r0,r0,#10
        0x00000d6a:    4304        .C      ORRS     r4,r4,r0
        0x00000d6c:    69b9        .i      LDR      r1,[r7,#0x18]
        0x00000d6e:    1c6d        m.      ADDS     r5,r5,#1
        0x00000d70:    9812        ..      LDR      r0,[sp,#0x48]
        0x00000d72:    4788        .G      BLX      r1
        0x00000d74:    1e76        v.      SUBS     r6,r6,#1
        0x00000d76:    9000        ..      STR      r0,[sp,#0]
        0x00000d78:    a903        ..      ADD      r1,sp,#0xc
        0x00000d7a:    0560        `.      LSLS     r0,r4,#21
        0x00000d7c:    d501        ..      BPL      0xd82 ; _scanf_real + 104
        0x00000d7e:    202d        -       MOVS     r0,#0x2d
        0x00000d80:    e000        ..      B        0xd84 ; _scanf_real + 106
        0x00000d82:    202b        +       MOVS     r0,#0x2b
        0x00000d84:    466a        jF      MOV      r2,sp
        0x00000d86:    7310        .s      STRB     r0,[r2,#0xc]
        0x00000d88:    1c49        I.      ADDS     r1,r1,#1
        0x00000d8a:    a80c        ..      ADD      r0,sp,#0x30
        0x00000d8c:    910f        ..      STR      r1,[sp,#0x3c]
        0x00000d8e:    9002        ..      STR      r0,[sp,#8]
        0x00000d90:    e00a        ..      B        0xda8 ; _scanf_real + 142
        0x00000d92:    69b9        .i      LDR      r1,[r7,#0x18]
        0x00000d94:    1c6d        m.      ADDS     r5,r5,#1
        0x00000d96:    9812        ..      LDR      r0,[sp,#0x48]
        0x00000d98:    4788        .G      BLX      r1
        0x00000d9a:    9000        ..      STR      r0,[sp,#0]
        0x00000d9c:    2001        .       MOVS     r0,#1
        0x00000d9e:    0240        @.      LSLS     r0,r0,#9
        0x00000da0:    4304        .C      ORRS     r4,r4,r0
        0x00000da2:    9813        ..      LDR      r0,[sp,#0x4c]
        0x00000da4:    1e76        v.      SUBS     r6,r6,#1
        0x00000da6:    6005        .`      STR      r5,[r0,#0]
        0x00000da8:    2e00        ..      CMP      r6,#0
        0x00000daa:    dd02        ..      BLE      0xdb2 ; _scanf_real + 152
        0x00000dac:    9800        ..      LDR      r0,[sp,#0]
        0x00000dae:    2830        0(      CMP      r0,#0x30
        0x00000db0:    d0ef        ..      BEQ      0xd92 ; _scanf_real + 120
        0x00000db2:    9901        ..      LDR      r1,[sp,#4]
        0x00000db4:    9800        ..      LDR      r0,[sp,#0]
        0x00000db6:    4288        .B      CMP      r0,r1
        0x00000db8:    d145        E.      BNE      0xe46 ; _scanf_real + 300
        0x00000dba:    2080        .       MOVS     r0,#0x80
        0x00000dbc:    4304        .C      ORRS     r4,r4,r0
        0x00000dbe:    e008        ..      B        0xdd2 ; _scanf_real + 184
        0x00000dc0:    9809        ..      LDR      r0,[sp,#0x24]
        0x00000dc2:    1e40        @.      SUBS     r0,r0,#1
        0x00000dc4:    9009        ..      STR      r0,[sp,#0x24]
        0x00000dc6:    2001        .       MOVS     r0,#1
        0x00000dc8:    0240        @.      LSLS     r0,r0,#9
        0x00000dca:    4304        .C      ORRS     r4,r4,r0
        0x00000dcc:    9913        ..      LDR      r1,[sp,#0x4c]
        0x00000dce:    1c68        h.      ADDS     r0,r5,#1
        0x00000dd0:    6008        .`      STR      r0,[r1,#0]
        0x00000dd2:    69b9        .i      LDR      r1,[r7,#0x18]
        0x00000dd4:    1c6d        m.      ADDS     r5,r5,#1
        0x00000dd6:    1e76        v.      SUBS     r6,r6,#1
        0x00000dd8:    9812        ..      LDR      r0,[sp,#0x48]
        0x00000dda:    4788        .G      BLX      r1
        0x00000ddc:    9000        ..      STR      r0,[sp,#0]
        0x00000dde:    2830        0(      CMP      r0,#0x30
        0x00000de0:    d0ee        ..      BEQ      0xdc0 ; _scanf_real + 166
        0x00000de2:    e030        0.      B        0xe46 ; _scanf_real + 300
        0x00000de4:    9901        ..      LDR      r1,[sp,#4]
        0x00000de6:    4288        .B      CMP      r0,r1
        0x00000de8:    d105        ..      BNE      0xdf6 ; _scanf_real + 220
        0x00000dea:    0620         .      LSLS     r0,r4,#24
        0x00000dec:    d403        ..      BMI      0xdf6 ; _scanf_real + 220
        0x00000dee:    2080        .       MOVS     r0,#0x80
        0x00000df0:    4304        .C      ORRS     r4,r4,r0
        0x00000df2:    1e76        v.      SUBS     r6,r6,#1
        0x00000df4:    e01d        ..      B        0xe32 ; _scanf_real + 280
        0x00000df6:    9800        ..      LDR      r0,[sp,#0]
        0x00000df8:    f005ffda    ....    BL       _is_digit ; 0x6db0
        0x00000dfc:    2800        .(      CMP      r0,#0
        0x00000dfe:    d025        %.      BEQ      0xe4c ; _scanf_real + 306
        0x00000e00:    2101        .!      MOVS     r1,#1
        0x00000e02:    0249        I.      LSLS     r1,r1,#9
        0x00000e04:    430c        .C      ORRS     r4,r4,r1
        0x00000e06:    9800        ..      LDR      r0,[sp,#0]
        0x00000e08:    aa07        ..      ADD      r2,sp,#0x1c
        0x00000e0a:    990f        ..      LDR      r1,[sp,#0x3c]
        0x00000e0c:    3203        .2      ADDS     r2,#3
        0x00000e0e:    3830        08      SUBS     r0,r0,#0x30
        0x00000e10:    1e76        v.      SUBS     r6,r6,#1
        0x00000e12:    4291        .B      CMP      r1,r2
        0x00000e14:    d208        ..      BCS      0xe28 ; _scanf_real + 270
        0x00000e16:    7008        .p      STRB     r0,[r1,#0]
        0x00000e18:    980f        ..      LDR      r0,[sp,#0x3c]
        0x00000e1a:    1c40        @.      ADDS     r0,r0,#1
        0x00000e1c:    900f        ..      STR      r0,[sp,#0x3c]
        0x00000e1e:    0620         .      LSLS     r0,r4,#24
        0x00000e20:    d507        ..      BPL      0xe32 ; _scanf_real + 280
        0x00000e22:    9809        ..      LDR      r0,[sp,#0x24]
        0x00000e24:    1e40        @.      SUBS     r0,r0,#1
        0x00000e26:    e003        ..      B        0xe30 ; _scanf_real + 278
        0x00000e28:    0620         .      LSLS     r0,r4,#24
        0x00000e2a:    d402        ..      BMI      0xe32 ; _scanf_real + 280
        0x00000e2c:    9809        ..      LDR      r0,[sp,#0x24]
        0x00000e2e:    1c40        @.      ADDS     r0,r0,#1
        0x00000e30:    9009        ..      STR      r0,[sp,#0x24]
        0x00000e32:    05a0        ..      LSLS     r0,r4,#22
        0x00000e34:    d502        ..      BPL      0xe3c ; _scanf_real + 290
        0x00000e36:    9913        ..      LDR      r1,[sp,#0x4c]
        0x00000e38:    1c68        h.      ADDS     r0,r5,#1
        0x00000e3a:    6008        .`      STR      r0,[r1,#0]
        0x00000e3c:    69b9        .i      LDR      r1,[r7,#0x18]
        0x00000e3e:    1c6d        m.      ADDS     r5,r5,#1
        0x00000e40:    9812        ..      LDR      r0,[sp,#0x48]
        0x00000e42:    4788        .G      BLX      r1
        0x00000e44:    9000        ..      STR      r0,[sp,#0]
        0x00000e46:    2e00        ..      CMP      r6,#0
        0x00000e48:    dccc        ..      BGT      0xde4 ; _scanf_real + 202
        0x00000e4a:    e059        Y.      B        0xf00 ; _scanf_real + 486
        0x00000e4c:    2e00        ..      CMP      r6,#0
        0x00000e4e:    dd57        W.      BLE      0xf00 ; _scanf_real + 486
        0x00000e50:    9800        ..      LDR      r0,[sp,#0]
        0x00000e52:    2865        e(      CMP      r0,#0x65
        0x00000e54:    d001        ..      BEQ      0xe5a ; _scanf_real + 320
        0x00000e56:    2845        E(      CMP      r0,#0x45
        0x00000e58:    d152        R.      BNE      0xf00 ; _scanf_real + 486
        0x00000e5a:    05a0        ..      LSLS     r0,r4,#22
        0x00000e5c:    d550        P.      BPL      0xf00 ; _scanf_real + 486
        0x00000e5e:    2003        .       MOVS     r0,#3
        0x00000e60:    0200        ..      LSLS     r0,r0,#8
        0x00000e62:    4384        .C      BICS     r4,r4,r0
        0x00000e64:    69b9        .i      LDR      r1,[r7,#0x18]
        0x00000e66:    1c6d        m.      ADDS     r5,r5,#1
        0x00000e68:    1e76        v.      SUBS     r6,r6,#1
        0x00000e6a:    9812        ..      LDR      r0,[sp,#0x48]
        0x00000e6c:    4788        .G      BLX      r1
        0x00000e6e:    9000        ..      STR      r0,[sp,#0]
        0x00000e70:    2e00        ..      CMP      r6,#0
        0x00000e72:    dd0c        ..      BLE      0xe8e ; _scanf_real + 372
        0x00000e74:    282b        +(      CMP      r0,#0x2b
        0x00000e76:    d004        ..      BEQ      0xe82 ; _scanf_real + 360
        0x00000e78:    282d        -(      CMP      r0,#0x2d
        0x00000e7a:    d108        ..      BNE      0xe8e ; _scanf_real + 372
        0x00000e7c:    20ff        .       MOVS     r0,#0xff
        0x00000e7e:    3001        .0      ADDS     r0,#1
        0x00000e80:    4304        .C      ORRS     r4,r4,r0
        0x00000e82:    69b9        .i      LDR      r1,[r7,#0x18]
        0x00000e84:    1c6d        m.      ADDS     r5,r5,#1
        0x00000e86:    9812        ..      LDR      r0,[sp,#0x48]
        0x00000e88:    4788        .G      BLX      r1
        0x00000e8a:    1e76        v.      SUBS     r6,r6,#1
        0x00000e8c:    9000        ..      STR      r0,[sp,#0]
        0x00000e8e:    05e0        ..      LSLS     r0,r4,#23
        0x00000e90:    d501        ..      BPL      0xe96 ; _scanf_real + 380
        0x00000e92:    212d        -!      MOVS     r1,#0x2d
        0x00000e94:    e000        ..      B        0xe98 ; _scanf_real + 382
        0x00000e96:    212b        +!      MOVS     r1,#0x2b
        0x00000e98:    9802        ..      LDR      r0,[sp,#8]
        0x00000e9a:    7001        .p      STRB     r1,[r0,#0]
        0x00000e9c:    9802        ..      LDR      r0,[sp,#8]
        0x00000e9e:    1c40        @.      ADDS     r0,r0,#1
        0x00000ea0:    9002        ..      STR      r0,[sp,#8]
        0x00000ea2:    9001        ..      STR      r0,[sp,#4]
        0x00000ea4:    e025        %.      B        0xef2 ; _scanf_real + 472
        0x00000ea6:    2001        .       MOVS     r0,#1
        0x00000ea8:    0240        @.      LSLS     r0,r0,#9
        0x00000eaa:    4304        .C      ORRS     r4,r4,r0
        0x00000eac:    a90e        ..      ADD      r1,sp,#0x38
        0x00000eae:    9802        ..      LDR      r0,[sp,#8]
        0x00000eb0:    3101        .1      ADDS     r1,#1
        0x00000eb2:    1e76        v.      SUBS     r6,r6,#1
        0x00000eb4:    4288        .B      CMP      r0,r1
        0x00000eb6:    d20e        ..      BCS      0xed6 ; _scanf_real + 444
        0x00000eb8:    9800        ..      LDR      r0,[sp,#0]
        0x00000eba:    9902        ..      LDR      r1,[sp,#8]
        0x00000ebc:    3830        08      SUBS     r0,r0,#0x30
        0x00000ebe:    0600        ..      LSLS     r0,r0,#24
        0x00000ec0:    0e00        ..      LSRS     r0,r0,#24
        0x00000ec2:    7008        .p      STRB     r0,[r1,#0]
        0x00000ec4:    d103        ..      BNE      0xece ; _scanf_real + 436
        0x00000ec6:    9902        ..      LDR      r1,[sp,#8]
        0x00000ec8:    9801        ..      LDR      r0,[sp,#4]
        0x00000eca:    4281        .B      CMP      r1,r0
        0x00000ecc:    d90a        ..      BLS      0xee4 ; _scanf_real + 458
        0x00000ece:    9802        ..      LDR      r0,[sp,#8]
        0x00000ed0:    1c40        @.      ADDS     r0,r0,#1
        0x00000ed2:    9002        ..      STR      r0,[sp,#8]
        0x00000ed4:    e006        ..      B        0xee4 ; _scanf_real + 458
        0x00000ed6:    05e0        ..      LSLS     r0,r4,#23
        0x00000ed8:    d501        ..      BPL      0xede ; _scanf_real + 452
        0x00000eda:    4824        $H      LDR      r0,[pc,#144] ; [0xf6c] = 0xffffd8f1
        0x00000edc:    e001        ..      B        0xee2 ; _scanf_real + 456
        0x00000ede:    4823        #H      LDR      r0,[pc,#140] ; [0xf6c] = 0xffffd8f1
        0x00000ee0:    4240        @B      RSBS     r0,r0,#0
        0x00000ee2:    9009        ..      STR      r0,[sp,#0x24]
        0x00000ee4:    69b9        .i      LDR      r1,[r7,#0x18]
        0x00000ee6:    1c6d        m.      ADDS     r5,r5,#1
        0x00000ee8:    9812        ..      LDR      r0,[sp,#0x48]
        0x00000eea:    4788        .G      BLX      r1
        0x00000eec:    9000        ..      STR      r0,[sp,#0]
        0x00000eee:    9813        ..      LDR      r0,[sp,#0x4c]
        0x00000ef0:    6005        .`      STR      r5,[r0,#0]
        0x00000ef2:    2e00        ..      CMP      r6,#0
        0x00000ef4:    dd04        ..      BLE      0xf00 ; _scanf_real + 486
        0x00000ef6:    9800        ..      LDR      r0,[sp,#0]
        0x00000ef8:    f005ff5a    ..Z.    BL       _is_digit ; 0x6db0
        0x00000efc:    2800        .(      CMP      r0,#0
        0x00000efe:    d1d2        ..      BNE      0xea6 ; _scanf_real + 396
        0x00000f00:    69f9        .i      LDR      r1,[r7,#0x1c]
        0x00000f02:    9812        ..      LDR      r0,[sp,#0x48]
        0x00000f04:    4788        .G      BLX      r1
        0x00000f06:    990f        ..      LDR      r1,[sp,#0x3c]
        0x00000f08:    20ff        .       MOVS     r0,#0xff
        0x00000f0a:    7008        .p      STRB     r0,[r1,#0]
        0x00000f0c:    9902        ..      LDR      r1,[sp,#8]
        0x00000f0e:    aa03        ..      ADD      r2,sp,#0xc
        0x00000f10:    7008        .p      STRB     r0,[r1,#0]
        0x00000f12:    2000        .       MOVS     r0,#0
        0x00000f14:    900a        ..      STR      r0,[sp,#0x28]
        0x00000f16:    900b        ..      STR      r0,[sp,#0x2c]
        0x00000f18:    a90c        ..      ADD      r1,sp,#0x30
        0x00000f1a:    a80a        ..      ADD      r0,sp,#0x28
        0x00000f1c:    9b09        ..      LDR      r3,[sp,#0x24]
        0x00000f1e:    f7fffe6d    ..m.    BL       _fp_value ; 0xbfc
        0x00000f22:    05a0        ..      LSLS     r0,r4,#22
        0x00000f24:    d402        ..      BMI      0xf2c ; _scanf_real + 530
        0x00000f26:    2001        .       MOVS     r0,#1
        0x00000f28:    43c0        .C      MVNS     r0,r0
        0x00000f2a:    e71a        ..      B        0xd62 ; _scanf_real + 72
        0x00000f2c:    2024        $       MOVS     r0,#0x24
        0x00000f2e:    4204        .B      TST      r4,r0
        0x00000f30:    d009        ..      BEQ      0xf46 ; _scanf_real + 556
        0x00000f32:    07e0        ..      LSLS     r0,r4,#31
        0x00000f34:    d113        ..      BNE      0xf5e ; _scanf_real + 580
        0x00000f36:    6838        8h      LDR      r0,[r7,#0]
        0x00000f38:    9a0b        ..      LDR      r2,[sp,#0x2c]
        0x00000f3a:    990a        ..      LDR      r1,[sp,#0x28]
        0x00000f3c:    1d03        ..      ADDS     r3,r0,#4
        0x00000f3e:    603b        ;`      STR      r3,[r7,#0]
        0x00000f40:    6800        .h      LDR      r0,[r0,#0]
        0x00000f42:    c006        ..      STM      r0!,{r1,r2}
        0x00000f44:    e00b        ..      B        0xf5e ; _scanf_real + 580
        0x00000f46:    990b        ..      LDR      r1,[sp,#0x2c]
        0x00000f48:    980a        ..      LDR      r0,[sp,#0x28]
        0x00000f4a:    f7fffb45    ..E.    BL       __aeabi_d2f ; 0x5d8
        0x00000f4e:    4601        .F      MOV      r1,r0
        0x00000f50:    07e0        ..      LSLS     r0,r4,#31
        0x00000f52:    d104        ..      BNE      0xf5e ; _scanf_real + 580
        0x00000f54:    6838        8h      LDR      r0,[r7,#0]
        0x00000f56:    1d02        ..      ADDS     r2,r0,#4
        0x00000f58:    603a        :`      STR      r2,[r7,#0]
        0x00000f5a:    6800        .h      LDR      r0,[r0,#0]
        0x00000f5c:    6001        .`      STR      r1,[r0,#0]
        0x00000f5e:    4628        (F      MOV      r0,r5
        0x00000f60:    e6ff        ..      B        0xd62 ; _scanf_real + 72
    $d
        0x00000f62:    0000        ..      DCW    0
        0x00000f64:    40140000    ...@    DCD    1075052544
        0x00000f68:    3ff00000    ...?    DCD    1072693248
        0x00000f6c:    ffffd8f1    ....    DCD    4294957297
    $t
    .text
    _sgetc
        0x00000f70:    6842        Bh      LDR      r2,[r0,#4]
        0x00000f72:    2a00        .*      CMP      r2,#0
        0x00000f74:    d008        ..      BEQ      0xf88 ; _sgetc + 24
        0x00000f76:    6801        .h      LDR      r1,[r0,#0]
        0x00000f78:    780b        .x      LDRB     r3,[r1,#0]
        0x00000f7a:    1c49        I.      ADDS     r1,r1,#1
        0x00000f7c:    2b00        .+      CMP      r3,#0
        0x00000f7e:    d003        ..      BEQ      0xf88 ; _sgetc + 24
        0x00000f80:    1e52        R.      SUBS     r2,r2,#1
        0x00000f82:    c006        ..      STM      r0!,{r1,r2}
        0x00000f84:    4618        .F      MOV      r0,r3
        0x00000f86:    4770        pG      BX       lr
        0x00000f88:    2101        .!      MOVS     r1,#1
        0x00000f8a:    60c1        .`      STR      r1,[r0,#0xc]
        0x00000f8c:    1e88        ..      SUBS     r0,r1,#2
        0x00000f8e:    4770        pG      BX       lr
    _sbackspace
        0x00000f90:    6842        Bh      LDR      r2,[r0,#4]
        0x00000f92:    2a00        .*      CMP      r2,#0
        0x00000f94:    d00b        ..      BEQ      0xfae ; _sbackspace + 30
        0x00000f96:    68c3        .h      LDR      r3,[r0,#0xc]
        0x00000f98:    6801        .h      LDR      r1,[r0,#0]
        0x00000f9a:    2b00        .+      CMP      r3,#0
        0x00000f9c:    d107        ..      BNE      0xfae ; _sbackspace + 30
        0x00000f9e:    6883        .h      LDR      r3,[r0,#8]
        0x00000fa0:    428b        .B      CMP      r3,r1
        0x00000fa2:    d004        ..      BEQ      0xfae ; _sbackspace + 30
        0x00000fa4:    1e49        I.      SUBS     r1,r1,#1
        0x00000fa6:    1c52        R.      ADDS     r2,r2,#1
        0x00000fa8:    c006        ..      STM      r0!,{r1,r2}
        0x00000faa:    2000        .       MOVS     r0,#0
        0x00000fac:    4770        pG      BX       lr
        0x00000fae:    2000        .       MOVS     r0,#0
        0x00000fb0:    43c0        .C      MVNS     r0,r0
        0x00000fb2:    4770        pG      BX       lr
    .text
    __aeabi_lmul
    _ll_mul
        0x00000fb4:    b530        0.      PUSH     {r4,r5,lr}
        0x00000fb6:    4343        CC      MULS     r3,r0,r3
        0x00000fb8:    4351        QC      MULS     r1,r2,r1
        0x00000fba:    185c        \.      ADDS     r4,r3,r1
        0x00000fbc:    0c01        ..      LSRS     r1,r0,#16
        0x00000fbe:    0c13        ..      LSRS     r3,r2,#16
        0x00000fc0:    460d        .F      MOV      r5,r1
        0x00000fc2:    435d        ]C      MULS     r5,r3,r5
        0x00000fc4:    192c        ,.      ADDS     r4,r5,r4
        0x00000fc6:    b280        ..      UXTH     r0,r0
        0x00000fc8:    b292        ..      UXTH     r2,r2
        0x00000fca:    4605        .F      MOV      r5,r0
        0x00000fcc:    4355        UC      MULS     r5,r2,r5
        0x00000fce:    4351        QC      MULS     r1,r2,r1
        0x00000fd0:    0c0a        ..      LSRS     r2,r1,#16
        0x00000fd2:    0409        ..      LSLS     r1,r1,#16
        0x00000fd4:    194d        M.      ADDS     r5,r1,r5
        0x00000fd6:    4162        bA      ADCS     r2,r2,r4
        0x00000fd8:    4358        XC      MULS     r0,r3,r0
        0x00000fda:    0c01        ..      LSRS     r1,r0,#16
        0x00000fdc:    0400        ..      LSLS     r0,r0,#16
        0x00000fde:    1940        @.      ADDS     r0,r0,r5
        0x00000fe0:    4151        QA      ADCS     r1,r1,r2
        0x00000fe2:    bd30        0.      POP      {r4,r5,pc}
    .text
    __ctype_lookup
        0x00000fe4:    287f        .(      CMP      r0,#0x7f
        0x00000fe6:    d901        ..      BLS      0xfec ; __ctype_lookup + 8
        0x00000fe8:    2200        ."      MOVS     r2,#0
        0x00000fea:    e007        ..      B        0xffc ; __ctype_lookup + 24
        0x00000fec:    4b05        .K      LDR      r3,[pc,#20] ; [0x1004] = 0x759c
        0x00000fee:    0842        B.      LSRS     r2,r0,#1
        0x00000ff0:    5c9a        .\      LDRB     r2,[r3,r2]
        0x00000ff2:    07c0        ..      LSLS     r0,r0,#31
        0x00000ff4:    d100        ..      BNE      0xff8 ; __ctype_lookup + 20
        0x00000ff6:    0912        ..      LSRS     r2,r2,#4
        0x00000ff8:    0712        ..      LSLS     r2,r2,#28
        0x00000ffa:    0f12        ..      LSRS     r2,r2,#28
        0x00000ffc:    2001        .       MOVS     r0,#1
        0x00000ffe:    4090        .@      LSLS     r0,r0,r2
        0x00001000:    4008        .@      ANDS     r0,r0,r1
        0x00001002:    4770        pG      BX       lr
    $d
        0x00001004:    0000759c    .u..    DCD    30108
    $t
    .text
    __aeabi_ul2d
        0x00001008:    b50e        ..      PUSH     {r1-r3,lr}
        0x0000100a:    4a05        .J      LDR      r2,[pc,#20] ; [0x1020] = 0x433
        0x0000100c:    9202        ..      STR      r2,[sp,#8]
        0x0000100e:    2200        ."      MOVS     r2,#0
        0x00001010:    9200        ..      STR      r2,[sp,#0]
        0x00001012:    4613        .F      MOV      r3,r2
        0x00001014:    9201        ..      STR      r2,[sp,#4]
        0x00001016:    f7fffbf5    ....    BL       _double_epilogue ; 0x804
        0x0000101a:    b003        ..      ADD      sp,sp,#0xc
        0x0000101c:    bd00        ..      POP      {pc}
    $d
        0x0000101e:    0000        ..      DCW    0
        0x00001020:    00000433    3...    DCD    1075
    $t.14
    AIP_ClearScreen
        0x00001024:    b580        ..      PUSH     {r7,lr}
        0x00001026:    b082        ..      SUB      sp,sp,#8
        0x00001028:    9001        ..      STR      r0,[sp,#4]
        0x0000102a:    9801        ..      LDR      r0,[sp,#4]
        0x0000102c:    6bc0        .k      LDR      r0,[r0,#0x3c]
        0x0000102e:    2113        .!      MOVS     r1,#0x13
        0x00001030:    f7fff8d9    ....    BL       __aeabi_memclr ; 0x1e6
        0x00001034:    9a01        ..      LDR      r2,[sp,#4]
        0x00001036:    2100        .!      MOVS     r1,#0
        0x00001038:    4608        .F      MOV      r0,r1
        0x0000103a:    f000f855    ..U.    BL       AIP_SetCursor ; 0x10e8
        0x0000103e:    b002        ..      ADD      sp,sp,#8
        0x00001040:    bd80        ..      POP      {r7,pc}
    AIP_Init
        0x00001042:    b580        ..      PUSH     {r7,lr}
        0x00001044:    b084        ..      SUB      sp,sp,#0x10
        0x00001046:    9003        ..      STR      r0,[sp,#0xc]
        0x00001048:    9803        ..      LDR      r0,[sp,#0xc]
        0x0000104a:    6b41        Ak      LDR      r1,[r0,#0x34]
        0x0000104c:    2001        .       MOVS     r0,#1
        0x0000104e:    9001        ..      STR      r0,[sp,#4]
        0x00001050:    4788        .G      BLX      r1
        0x00001052:    9801        ..      LDR      r0,[sp,#4]
        0x00001054:    9903        ..      LDR      r1,[sp,#0xc]
        0x00001056:    6b89        .k      LDR      r1,[r1,#0x38]
        0x00001058:    4788        .G      BLX      r1
        0x0000105a:    9903        ..      LDR      r1,[sp,#0xc]
        0x0000105c:    20e2        .       MOVS     r0,#0xe2
        0x0000105e:    f000fa87    ....    BL       AIP_writeCommand ; 0x1570
        0x00001062:    9903        ..      LDR      r1,[sp,#0xc]
        0x00001064:    202f        /       MOVS     r0,#0x2f
        0x00001066:    f000fa83    ....    BL       AIP_writeCommand ; 0x1570
        0x0000106a:    9903        ..      LDR      r1,[sp,#0xc]
        0x0000106c:    20a0        .       MOVS     r0,#0xa0
        0x0000106e:    f000fa7f    ....    BL       AIP_writeCommand ; 0x1570
        0x00001072:    9903        ..      LDR      r1,[sp,#0xc]
        0x00001074:    20c0        .       MOVS     r0,#0xc0
        0x00001076:    f000fa7b    ..{.    BL       AIP_writeCommand ; 0x1570
        0x0000107a:    9903        ..      LDR      r1,[sp,#0xc]
        0x0000107c:    20a4        .       MOVS     r0,#0xa4
        0x0000107e:    9002        ..      STR      r0,[sp,#8]
        0x00001080:    f000fa76    ..v.    BL       AIP_writeCommand ; 0x1570
        0x00001084:    9903        ..      LDR      r1,[sp,#0xc]
        0x00001086:    209f        .       MOVS     r0,#0x9f
        0x00001088:    f000fa72    ..r.    BL       AIP_writeCommand ; 0x1570
        0x0000108c:    9903        ..      LDR      r1,[sp,#0xc]
        0x0000108e:    20a6        .       MOVS     r0,#0xa6
        0x00001090:    f000fa6e    ..n.    BL       AIP_writeCommand ; 0x1570
        0x00001094:    9903        ..      LDR      r1,[sp,#0xc]
        0x00001096:    20b0        .       MOVS     r0,#0xb0
        0x00001098:    f000fa6a    ..j.    BL       AIP_writeCommand ; 0x1570
        0x0000109c:    9903        ..      LDR      r1,[sp,#0xc]
        0x0000109e:    20f1        .       MOVS     r0,#0xf1
        0x000010a0:    f000fa66    ..f.    BL       AIP_writeCommand ; 0x1570
        0x000010a4:    9903        ..      LDR      r1,[sp,#0xc]
        0x000010a6:    205b        [       MOVS     r0,#0x5b
        0x000010a8:    f000fa62    ..b.    BL       AIP_writeCommand ; 0x1570
        0x000010ac:    9903        ..      LDR      r1,[sp,#0xc]
        0x000010ae:    2070        p       MOVS     r0,#0x70
        0x000010b0:    f000fa5e    ..^.    BL       AIP_writeCommand ; 0x1570
        0x000010b4:    9903        ..      LDR      r1,[sp,#0xc]
        0x000010b6:    2060        `       MOVS     r0,#0x60
        0x000010b8:    f000fa5a    ..Z.    BL       AIP_writeCommand ; 0x1570
        0x000010bc:    9802        ..      LDR      r0,[sp,#8]
        0x000010be:    9903        ..      LDR      r1,[sp,#0xc]
        0x000010c0:    f000fa56    ..V.    BL       AIP_writeCommand ; 0x1570
        0x000010c4:    9903        ..      LDR      r1,[sp,#0xc]
        0x000010c6:    20f0        .       MOVS     r0,#0xf0
        0x000010c8:    f000fa52    ..R.    BL       AIP_writeCommand ; 0x1570
        0x000010cc:    9903        ..      LDR      r1,[sp,#0xc]
        0x000010ce:    20af        .       MOVS     r0,#0xaf
        0x000010d0:    f000fa4e    ..N.    BL       AIP_writeCommand ; 0x1570
        0x000010d4:    9903        ..      LDR      r1,[sp,#0xc]
        0x000010d6:    2000        .       MOVS     r0,#0
        0x000010d8:    f000fa4a    ..J.    BL       AIP_writeCommand ; 0x1570
        0x000010dc:    9903        ..      LDR      r1,[sp,#0xc]
        0x000010de:    2010        .       MOVS     r0,#0x10
        0x000010e0:    f000fa46    ..F.    BL       AIP_writeCommand ; 0x1570
        0x000010e4:    b004        ..      ADD      sp,sp,#0x10
        0x000010e6:    bd80        ..      POP      {r7,pc}
    AIP_SetCursor
        0x000010e8:    b083        ..      SUB      sp,sp,#0xc
        0x000010ea:    ab02        ..      ADD      r3,sp,#8
        0x000010ec:    7018        .p      STRB     r0,[r3,#0]
        0x000010ee:    a801        ..      ADD      r0,sp,#4
        0x000010f0:    7001        .p      STRB     r1,[r0,#0]
        0x000010f2:    9200        ..      STR      r2,[sp,#0]
        0x000010f4:    9802        ..      LDR      r0,[sp,#8]
        0x000010f6:    9900        ..      LDR      r1,[sp,#0]
        0x000010f8:    2240        @"      MOVS     r2,#0x40
        0x000010fa:    5488        .T      STRB     r0,[r1,r2]
        0x000010fc:    9801        ..      LDR      r0,[sp,#4]
        0x000010fe:    9900        ..      LDR      r1,[sp,#0]
        0x00001100:    2241        A"      MOVS     r2,#0x41
        0x00001102:    5488        .T      STRB     r0,[r1,r2]
        0x00001104:    b003        ..      ADD      sp,sp,#0xc
        0x00001106:    4770        pG      BX       lr
    AIP_Spoint
        0x00001108:    b580        ..      PUSH     {r7,lr}
        0x0000110a:    b084        ..      SUB      sp,sp,#0x10
        0x0000110c:    4603        .F      MOV      r3,r0
        0x0000110e:    a803        ..      ADD      r0,sp,#0xc
        0x00001110:    7003        .p      STRB     r3,[r0,#0]
        0x00001112:    ab02        ..      ADD      r3,sp,#8
        0x00001114:    7019        .p      STRB     r1,[r3,#0]
        0x00001116:    9201        ..      STR      r2,[sp,#4]
        0x00001118:    7800        .x      LDRB     r0,[r0,#0]
        0x0000111a:    1e40        @.      SUBS     r0,r0,#1
        0x0000111c:    9000        ..      STR      r0,[sp,#0]
        0x0000111e:    2810        .(      CMP      r0,#0x10
        0x00001120:    d900        ..      BLS      0x1124 ; AIP_Spoint + 28
        0x00001122:    e0af        ..      B        0x1284 ; AIP_Spoint + 380
        0x00001124:    9900        ..      LDR      r1,[sp,#0]
        0x00001126:    008a        ..      LSLS     r2,r1,#2
        0x00001128:    a001        ..      ADR      r0,{pc}+8 ; 0x1130
        0x0000112a:    1880        ..      ADDS     r0,r0,r2
        0x0000112c:    4687        .F      MOV      pc,r0
        0x0000112e:    46c0        .F      MOV      r8,r8
        0x00001130:    f000b820    .. .    B.W      0x1174 ; AIP_Spoint + 108
        0x00001134:    f000b826    ..&.    B.W      0x1184 ; AIP_Spoint + 124
        0x00001138:    f000b82c    ..,.    B.W      0x1194 ; AIP_Spoint + 140
        0x0000113c:    f000b832    ..2.    B.W      0x11a4 ; AIP_Spoint + 156
        0x00001140:    f000b838    ..8.    B.W      0x11b4 ; AIP_Spoint + 172
        0x00001144:    f000b83e    ..>.    B.W      0x11c4 ; AIP_Spoint + 188
        0x00001148:    f000b844    ..D.    B.W      0x11d4 ; AIP_Spoint + 204
        0x0000114c:    f000b84a    ..J.    B.W      0x11e4 ; AIP_Spoint + 220
        0x00001150:    f000b850    ..P.    B.W      0x11f4 ; AIP_Spoint + 236
        0x00001154:    f000b856    ..V.    B.W      0x1204 ; AIP_Spoint + 252
        0x00001158:    f000b85c    ..\.    B.W      0x1214 ; AIP_Spoint + 268
        0x0000115c:    f000b862    ..b.    B.W      0x1224 ; AIP_Spoint + 284
        0x00001160:    f000b868    ..h.    B.W      0x1234 ; AIP_Spoint + 300
        0x00001164:    f000b86e    ..n.    B.W      0x1244 ; AIP_Spoint + 316
        0x00001168:    f000b874    ..t.    B.W      0x1254 ; AIP_Spoint + 332
        0x0000116c:    f000b87a    ..z.    B.W      0x1264 ; AIP_Spoint + 348
        0x00001170:    f000b880    ....    B.W      0x1274 ; AIP_Spoint + 364
        0x00001174:    a802        ..      ADD      r0,sp,#8
        0x00001176:    7802        .x      LDRB     r2,[r0,#0]
        0x00001178:    9b01        ..      LDR      r3,[sp,#4]
        0x0000117a:    2002        .       MOVS     r0,#2
        0x0000117c:    2103        .!      MOVS     r1,#3
        0x0000117e:    f000f93a    ..:.    BL       AIP_draw_pixel ; 0x13f6
        0x00001182:    e07f        ..      B        0x1284 ; AIP_Spoint + 380
        0x00001184:    a802        ..      ADD      r0,sp,#8
        0x00001186:    7802        .x      LDRB     r2,[r0,#0]
        0x00001188:    9b01        ..      LDR      r3,[sp,#4]
        0x0000118a:    2001        .       MOVS     r0,#1
        0x0000118c:    2103        .!      MOVS     r1,#3
        0x0000118e:    f000f932    ..2.    BL       AIP_draw_pixel ; 0x13f6
        0x00001192:    e077        w.      B        0x1284 ; AIP_Spoint + 380
        0x00001194:    a802        ..      ADD      r0,sp,#8
        0x00001196:    7802        .x      LDRB     r2,[r0,#0]
        0x00001198:    9b01        ..      LDR      r3,[sp,#4]
        0x0000119a:    2000        .       MOVS     r0,#0
        0x0000119c:    2103        .!      MOVS     r1,#3
        0x0000119e:    f000f92a    ..*.    BL       AIP_draw_pixel ; 0x13f6
        0x000011a2:    e06f        o.      B        0x1284 ; AIP_Spoint + 380
        0x000011a4:    a802        ..      ADD      r0,sp,#8
        0x000011a6:    7802        .x      LDRB     r2,[r0,#0]
        0x000011a8:    9b01        ..      LDR      r3,[sp,#4]
        0x000011aa:    2100        .!      MOVS     r1,#0
        0x000011ac:    4608        .F      MOV      r0,r1
        0x000011ae:    f000f922    ..".    BL       AIP_draw_pixel ; 0x13f6
        0x000011b2:    e067        g.      B        0x1284 ; AIP_Spoint + 380
        0x000011b4:    a802        ..      ADD      r0,sp,#8
        0x000011b6:    7802        .x      LDRB     r2,[r0,#0]
        0x000011b8:    9b01        ..      LDR      r3,[sp,#4]
        0x000011ba:    2002        .       MOVS     r0,#2
        0x000011bc:    2100        .!      MOVS     r1,#0
        0x000011be:    f000f91a    ....    BL       AIP_draw_pixel ; 0x13f6
        0x000011c2:    e05f        _.      B        0x1284 ; AIP_Spoint + 380
        0x000011c4:    a802        ..      ADD      r0,sp,#8
        0x000011c6:    7802        .x      LDRB     r2,[r0,#0]
        0x000011c8:    9b01        ..      LDR      r3,[sp,#4]
        0x000011ca:    2003        .       MOVS     r0,#3
        0x000011cc:    2100        .!      MOVS     r1,#0
        0x000011ce:    f000f912    ....    BL       AIP_draw_pixel ; 0x13f6
        0x000011d2:    e057        W.      B        0x1284 ; AIP_Spoint + 380
        0x000011d4:    a802        ..      ADD      r0,sp,#8
        0x000011d6:    7802        .x      LDRB     r2,[r0,#0]
        0x000011d8:    9b01        ..      LDR      r3,[sp,#4]
        0x000011da:    2005        .       MOVS     r0,#5
        0x000011dc:    2100        .!      MOVS     r1,#0
        0x000011de:    f000f90a    ....    BL       AIP_draw_pixel ; 0x13f6
        0x000011e2:    e04f        O.      B        0x1284 ; AIP_Spoint + 380
        0x000011e4:    a802        ..      ADD      r0,sp,#8
        0x000011e6:    7802        .x      LDRB     r2,[r0,#0]
        0x000011e8:    9b01        ..      LDR      r3,[sp,#4]
        0x000011ea:    2006        .       MOVS     r0,#6
        0x000011ec:    2100        .!      MOVS     r1,#0
        0x000011ee:    f000f902    ....    BL       AIP_draw_pixel ; 0x13f6
        0x000011f2:    e047        G.      B        0x1284 ; AIP_Spoint + 380
        0x000011f4:    a802        ..      ADD      r0,sp,#8
        0x000011f6:    7802        .x      LDRB     r2,[r0,#0]
        0x000011f8:    9b01        ..      LDR      r3,[sp,#4]
        0x000011fa:    2008        .       MOVS     r0,#8
        0x000011fc:    2100        .!      MOVS     r1,#0
        0x000011fe:    f000f8fa    ....    BL       AIP_draw_pixel ; 0x13f6
        0x00001202:    e03f        ?.      B        0x1284 ; AIP_Spoint + 380
        0x00001204:    a802        ..      ADD      r0,sp,#8
        0x00001206:    7802        .x      LDRB     r2,[r0,#0]
        0x00001208:    9b01        ..      LDR      r3,[sp,#4]
        0x0000120a:    2009        .       MOVS     r0,#9
        0x0000120c:    2100        .!      MOVS     r1,#0
        0x0000120e:    f000f8f2    ....    BL       AIP_draw_pixel ; 0x13f6
        0x00001212:    e037        7.      B        0x1284 ; AIP_Spoint + 380
        0x00001214:    a802        ..      ADD      r0,sp,#8
        0x00001216:    7802        .x      LDRB     r2,[r0,#0]
        0x00001218:    9b01        ..      LDR      r3,[sp,#4]
        0x0000121a:    200b        .       MOVS     r0,#0xb
        0x0000121c:    2100        .!      MOVS     r1,#0
        0x0000121e:    f000f8ea    ....    BL       AIP_draw_pixel ; 0x13f6
        0x00001222:    e02f        /.      B        0x1284 ; AIP_Spoint + 380
        0x00001224:    a802        ..      ADD      r0,sp,#8
        0x00001226:    7802        .x      LDRB     r2,[r0,#0]
        0x00001228:    9b01        ..      LDR      r3,[sp,#4]
        0x0000122a:    200c        .       MOVS     r0,#0xc
        0x0000122c:    2100        .!      MOVS     r1,#0
        0x0000122e:    f000f8e2    ....    BL       AIP_draw_pixel ; 0x13f6
        0x00001232:    e027        '.      B        0x1284 ; AIP_Spoint + 380
        0x00001234:    a802        ..      ADD      r0,sp,#8
        0x00001236:    7802        .x      LDRB     r2,[r0,#0]
        0x00001238:    9b01        ..      LDR      r3,[sp,#4]
        0x0000123a:    200e        .       MOVS     r0,#0xe
        0x0000123c:    2100        .!      MOVS     r1,#0
        0x0000123e:    f000f8da    ....    BL       AIP_draw_pixel ; 0x13f6
        0x00001242:    e01f        ..      B        0x1284 ; AIP_Spoint + 380
        0x00001244:    a802        ..      ADD      r0,sp,#8
        0x00001246:    7802        .x      LDRB     r2,[r0,#0]
        0x00001248:    9b01        ..      LDR      r3,[sp,#4]
        0x0000124a:    200f        .       MOVS     r0,#0xf
        0x0000124c:    2100        .!      MOVS     r1,#0
        0x0000124e:    f000f8d2    ....    BL       AIP_draw_pixel ; 0x13f6
        0x00001252:    e017        ..      B        0x1284 ; AIP_Spoint + 380
        0x00001254:    a802        ..      ADD      r0,sp,#8
        0x00001256:    7802        .x      LDRB     r2,[r0,#0]
        0x00001258:    9b01        ..      LDR      r3,[sp,#4]
        0x0000125a:    2011        .       MOVS     r0,#0x11
        0x0000125c:    2100        .!      MOVS     r1,#0
        0x0000125e:    f000f8ca    ....    BL       AIP_draw_pixel ; 0x13f6
        0x00001262:    e00f        ..      B        0x1284 ; AIP_Spoint + 380
        0x00001264:    a802        ..      ADD      r0,sp,#8
        0x00001266:    7802        .x      LDRB     r2,[r0,#0]
        0x00001268:    9b01        ..      LDR      r3,[sp,#4]
        0x0000126a:    2012        .       MOVS     r0,#0x12
        0x0000126c:    2100        .!      MOVS     r1,#0
        0x0000126e:    f000f8c2    ....    BL       AIP_draw_pixel ; 0x13f6
        0x00001272:    e007        ..      B        0x1284 ; AIP_Spoint + 380
        0x00001274:    a802        ..      ADD      r0,sp,#8
        0x00001276:    7802        .x      LDRB     r2,[r0,#0]
        0x00001278:    9b01        ..      LDR      r3,[sp,#4]
        0x0000127a:    2012        .       MOVS     r0,#0x12
        0x0000127c:    2101        .!      MOVS     r1,#1
        0x0000127e:    f000f8ba    ....    BL       AIP_draw_pixel ; 0x13f6
        0x00001282:    e7ff        ..      B        0x1284 ; AIP_Spoint + 380
        0x00001284:    b004        ..      ADD      sp,sp,#0x10
        0x00001286:    bd80        ..      POP      {r7,pc}
    AIP_UpdateScreen
        0x00001288:    b580        ..      PUSH     {r7,lr}
        0x0000128a:    b088        ..      SUB      sp,sp,#0x20
        0x0000128c:    9007        ..      STR      r0,[sp,#0x1c]
        0x0000128e:    9907        ..      LDR      r1,[sp,#0x1c]
        0x00001290:    20b0        .       MOVS     r0,#0xb0
        0x00001292:    f000f96d    ..m.    BL       AIP_writeCommand ; 0x1570
        0x00001296:    9907        ..      LDR      r1,[sp,#0x1c]
        0x00001298:    2000        .       MOVS     r0,#0
        0x0000129a:    9000        ..      STR      r0,[sp,#0]
        0x0000129c:    f000f968    ..h.    BL       AIP_writeCommand ; 0x1570
        0x000012a0:    9907        ..      LDR      r1,[sp,#0x1c]
        0x000012a2:    2010        .       MOVS     r0,#0x10
        0x000012a4:    f000f964    ..d.    BL       AIP_writeCommand ; 0x1570
        0x000012a8:    9a07        ..      LDR      r2,[sp,#0x1c]
        0x000012aa:    6bd0        .k      LDR      r0,[r2,#0x3c]
        0x000012ac:    2113        .!      MOVS     r1,#0x13
        0x000012ae:    f000f977    ..w.    BL       AIP_writeData ; 0x15a0
        0x000012b2:    9800        ..      LDR      r0,[sp,#0]
        0x000012b4:    9006        ..      STR      r0,[sp,#0x18]
        0x000012b6:    9005        ..      STR      r0,[sp,#0x14]
        0x000012b8:    9004        ..      STR      r0,[sp,#0x10]
        0x000012ba:    9003        ..      STR      r0,[sp,#0xc]
        0x000012bc:    9002        ..      STR      r0,[sp,#8]
        0x000012be:    9001        ..      STR      r0,[sp,#4]
        0x000012c0:    e7ff        ..      B        0x12c2 ; AIP_UpdateScreen + 58
        0x000012c2:    9801        ..      LDR      r0,[sp,#4]
        0x000012c4:    2812        .(      CMP      r0,#0x12
        0x000012c6:    dc0b        ..      BGT      0x12e0 ; AIP_UpdateScreen + 88
        0x000012c8:    e7ff        ..      B        0x12ca ; AIP_UpdateScreen + 66
        0x000012ca:    9807        ..      LDR      r0,[sp,#0x1c]
        0x000012cc:    6bc0        .k      LDR      r0,[r0,#0x3c]
        0x000012ce:    9a01        ..      LDR      r2,[sp,#4]
        0x000012d0:    5c80        .\      LDRB     r0,[r0,r2]
        0x000012d2:    a902        ..      ADD      r1,sp,#8
        0x000012d4:    5488        .T      STRB     r0,[r1,r2]
        0x000012d6:    e7ff        ..      B        0x12d8 ; AIP_UpdateScreen + 80
        0x000012d8:    9801        ..      LDR      r0,[sp,#4]
        0x000012da:    1c40        @.      ADDS     r0,r0,#1
        0x000012dc:    9001        ..      STR      r0,[sp,#4]
        0x000012de:    e7f0        ..      B        0x12c2 ; AIP_UpdateScreen + 58
        0x000012e0:    b008        ..      ADD      sp,sp,#0x20
        0x000012e2:    bd80        ..      POP      {r7,pc}
    AIP_WriteString
        0x000012e4:    b510        ..      PUSH     {r4,lr}
        0x000012e6:    b088        ..      SUB      sp,sp,#0x20
        0x000012e8:    9c0a        ..      LDR      r4,[sp,#0x28]
        0x000012ea:    ac07        ..      ADD      r4,sp,#0x1c
        0x000012ec:    9401        ..      STR      r4,[sp,#4]
        0x000012ee:    7020         p      STRB     r0,[r4,#0]
        0x000012f0:    a806        ..      ADD      r0,sp,#0x18
        0x000012f2:    9002        ..      STR      r0,[sp,#8]
        0x000012f4:    7001        .p      STRB     r1,[r0,#0]
        0x000012f6:    9205        ..      STR      r2,[sp,#0x14]
        0x000012f8:    9304        ..      STR      r3,[sp,#0x10]
        0x000012fa:    a903        ..      ADD      r1,sp,#0xc
        0x000012fc:    2000        .       MOVS     r0,#0
        0x000012fe:    7008        .p      STRB     r0,[r1,#0]
        0x00001300:    980a        ..      LDR      r0,[sp,#0x28]
        0x00001302:    f7fffe8f    ....    BL       AIP_ClearScreen ; 0x1024
        0x00001306:    9801        ..      LDR      r0,[sp,#4]
        0x00001308:    9902        ..      LDR      r1,[sp,#8]
        0x0000130a:    7800        .x      LDRB     r0,[r0,#0]
        0x0000130c:    7809        .x      LDRB     r1,[r1,#0]
        0x0000130e:    9a0a        ..      LDR      r2,[sp,#0x28]
        0x00001310:    f7fffeea    ....    BL       AIP_SetCursor ; 0x10e8
        0x00001314:    e7ff        ..      B        0x1316 ; AIP_WriteString + 50
        0x00001316:    9805        ..      LDR      r0,[sp,#0x14]
        0x00001318:    7800        .x      LDRB     r0,[r0,#0]
        0x0000131a:    b1f0        ..      CBZ      r0,0x135a ; AIP_WriteString + 118
        0x0000131c:    e7ff        ..      B        0x131e ; AIP_WriteString + 58
        0x0000131e:    9803        ..      LDR      r0,[sp,#0xc]
        0x00001320:    1c40        @.      ADDS     r0,r0,#1
        0x00001322:    a903        ..      ADD      r1,sp,#0xc
        0x00001324:    7008        .p      STRB     r0,[r1,#0]
        0x00001326:    9805        ..      LDR      r0,[sp,#0x14]
        0x00001328:    7800        .x      LDRB     r0,[r0,#0]
        0x0000132a:    282e        .(      CMP      r0,#0x2e
        0x0000132c:    d10c        ..      BNE      0x1348 ; AIP_WriteString + 100
        0x0000132e:    e7ff        ..      B        0x1330 ; AIP_WriteString + 76
        0x00001330:    9803        ..      LDR      r0,[sp,#0xc]
        0x00001332:    0040        @.      LSLS     r0,r0,#1
        0x00001334:    1c40        @.      ADDS     r0,r0,#1
        0x00001336:    9a0a        ..      LDR      r2,[sp,#0x28]
        0x00001338:    b2c0        ..      UXTB     r0,r0
        0x0000133a:    2101        .!      MOVS     r1,#1
        0x0000133c:    f7fffee4    ....    BL       AIP_Spoint ; 0x1108
        0x00001340:    9805        ..      LDR      r0,[sp,#0x14]
        0x00001342:    1c40        @.      ADDS     r0,r0,#1
        0x00001344:    9005        ..      STR      r0,[sp,#0x14]
        0x00001346:    e7e6        ..      B        0x1316 ; AIP_WriteString + 50
        0x00001348:    9805        ..      LDR      r0,[sp,#0x14]
        0x0000134a:    9904        ..      LDR      r1,[sp,#0x10]
        0x0000134c:    9a0a        ..      LDR      r2,[sp,#0x28]
        0x0000134e:    f000f889    ....    BL       AIP_writeChar ; 0x1464
        0x00001352:    9805        ..      LDR      r0,[sp,#0x14]
        0x00001354:    1c40        @.      ADDS     r0,r0,#1
        0x00001356:    9005        ..      STR      r0,[sp,#0x14]
        0x00001358:    e7dd        ..      B        0x1316 ; AIP_WriteString + 50
        0x0000135a:    b008        ..      ADD      sp,sp,#0x20
        0x0000135c:    bd10        ..      POP      {r4,pc}
    AIP_WriteStringLen
        0x0000135e:    b5b0        ..      PUSH     {r4,r5,r7,lr}
        0x00001360:    b08a        ..      SUB      sp,sp,#0x28
        0x00001362:    4604        .F      MOV      r4,r0
        0x00001364:    980f        ..      LDR      r0,[sp,#0x3c]
        0x00001366:    9d0e        ..      LDR      r5,[sp,#0x38]
        0x00001368:    ad09        ..      ADD      r5,sp,#0x24
        0x0000136a:    9500        ..      STR      r5,[sp,#0]
        0x0000136c:    702c        ,p      STRB     r4,[r5,#0]
        0x0000136e:    ac08        ..      ADD      r4,sp,#0x20
        0x00001370:    9401        ..      STR      r4,[sp,#4]
        0x00001372:    7021        !p      STRB     r1,[r4,#0]
        0x00001374:    9207        ..      STR      r2,[sp,#0x1c]
        0x00001376:    9306        ..      STR      r3,[sp,#0x18]
        0x00001378:    a905        ..      ADD      r1,sp,#0x14
        0x0000137a:    7008        .p      STRB     r0,[r1,#0]
        0x0000137c:    a904        ..      ADD      r1,sp,#0x10
        0x0000137e:    2000        .       MOVS     r0,#0
        0x00001380:    9002        ..      STR      r0,[sp,#8]
        0x00001382:    7008        .p      STRB     r0,[r1,#0]
        0x00001384:    980e        ..      LDR      r0,[sp,#0x38]
        0x00001386:    f7fffe4d    ..M.    BL       AIP_ClearScreen ; 0x1024
        0x0000138a:    9800        ..      LDR      r0,[sp,#0]
        0x0000138c:    9901        ..      LDR      r1,[sp,#4]
        0x0000138e:    7800        .x      LDRB     r0,[r0,#0]
        0x00001390:    7809        .x      LDRB     r1,[r1,#0]
        0x00001392:    9a0e        ..      LDR      r2,[sp,#0x38]
        0x00001394:    f7fffea8    ....    BL       AIP_SetCursor ; 0x10e8
        0x00001398:    9802        ..      LDR      r0,[sp,#8]
        0x0000139a:    a903        ..      ADD      r1,sp,#0xc
        0x0000139c:    7008        .p      STRB     r0,[r1,#0]
        0x0000139e:    e7ff        ..      B        0x13a0 ; AIP_WriteStringLen + 66
        0x000013a0:    a803        ..      ADD      r0,sp,#0xc
        0x000013a2:    7800        .x      LDRB     r0,[r0,#0]
        0x000013a4:    a905        ..      ADD      r1,sp,#0x14
        0x000013a6:    7809        .x      LDRB     r1,[r1,#0]
        0x000013a8:    4288        .B      CMP      r0,r1
        0x000013aa:    da22        ".      BGE      0x13f2 ; AIP_WriteStringLen + 148
        0x000013ac:    e7ff        ..      B        0x13ae ; AIP_WriteStringLen + 80
        0x000013ae:    9804        ..      LDR      r0,[sp,#0x10]
        0x000013b0:    1c40        @.      ADDS     r0,r0,#1
        0x000013b2:    a904        ..      ADD      r1,sp,#0x10
        0x000013b4:    7008        .p      STRB     r0,[r1,#0]
        0x000013b6:    9807        ..      LDR      r0,[sp,#0x1c]
        0x000013b8:    a903        ..      ADD      r1,sp,#0xc
        0x000013ba:    7809        .x      LDRB     r1,[r1,#0]
        0x000013bc:    5c40        @\      LDRB     r0,[r0,r1]
        0x000013be:    282e        .(      CMP      r0,#0x2e
        0x000013c0:    d109        ..      BNE      0x13d6 ; AIP_WriteStringLen + 120
        0x000013c2:    e7ff        ..      B        0x13c4 ; AIP_WriteStringLen + 102
        0x000013c4:    9804        ..      LDR      r0,[sp,#0x10]
        0x000013c6:    0040        @.      LSLS     r0,r0,#1
        0x000013c8:    1c40        @.      ADDS     r0,r0,#1
        0x000013ca:    9a0e        ..      LDR      r2,[sp,#0x38]
        0x000013cc:    b2c0        ..      UXTB     r0,r0
        0x000013ce:    2101        .!      MOVS     r1,#1
        0x000013d0:    f7fffe9a    ....    BL       AIP_Spoint ; 0x1108
        0x000013d4:    e008        ..      B        0x13e8 ; AIP_WriteStringLen + 138
        0x000013d6:    9807        ..      LDR      r0,[sp,#0x1c]
        0x000013d8:    a903        ..      ADD      r1,sp,#0xc
        0x000013da:    7809        .x      LDRB     r1,[r1,#0]
        0x000013dc:    1840        @.      ADDS     r0,r0,r1
        0x000013de:    9906        ..      LDR      r1,[sp,#0x18]
        0x000013e0:    9a0e        ..      LDR      r2,[sp,#0x38]
        0x000013e2:    f000f83f    ..?.    BL       AIP_writeChar ; 0x1464
        0x000013e6:    e7ff        ..      B        0x13e8 ; AIP_WriteStringLen + 138
        0x000013e8:    9803        ..      LDR      r0,[sp,#0xc]
        0x000013ea:    1c40        @.      ADDS     r0,r0,#1
        0x000013ec:    a903        ..      ADD      r1,sp,#0xc
        0x000013ee:    7008        .p      STRB     r0,[r1,#0]
        0x000013f0:    e7d6        ..      B        0x13a0 ; AIP_WriteStringLen + 66
        0x000013f2:    b00a        ..      ADD      sp,sp,#0x28
        0x000013f4:    bdb0        ..      POP      {r4,r5,r7,pc}
    AIP_draw_pixel
        0x000013f6:    b510        ..      PUSH     {r4,lr}
        0x000013f8:    b084        ..      SUB      sp,sp,#0x10
        0x000013fa:    4604        .F      MOV      r4,r0
        0x000013fc:    a803        ..      ADD      r0,sp,#0xc
        0x000013fe:    7004        .p      STRB     r4,[r0,#0]
        0x00001400:    ac02        ..      ADD      r4,sp,#8
        0x00001402:    7021        !p      STRB     r1,[r4,#0]
        0x00001404:    a901        ..      ADD      r1,sp,#4
        0x00001406:    700a        .p      STRB     r2,[r1,#0]
        0x00001408:    9300        ..      STR      r3,[sp,#0]
        0x0000140a:    7800        .x      LDRB     r0,[r0,#0]
        0x0000140c:    2812        .(      CMP      r0,#0x12
        0x0000140e:    dc05        ..      BGT      0x141c ; AIP_draw_pixel + 38
        0x00001410:    e7ff        ..      B        0x1412 ; AIP_draw_pixel + 28
        0x00001412:    a802        ..      ADD      r0,sp,#8
        0x00001414:    7800        .x      LDRB     r0,[r0,#0]
        0x00001416:    2804        .(      CMP      r0,#4
        0x00001418:    db01        ..      BLT      0x141e ; AIP_draw_pixel + 40
        0x0000141a:    e7ff        ..      B        0x141c ; AIP_draw_pixel + 38
        0x0000141c:    e020         .      B        0x1460 ; AIP_draw_pixel + 106
        0x0000141e:    a801        ..      ADD      r0,sp,#4
        0x00001420:    7800        .x      LDRB     r0,[r0,#0]
        0x00001422:    2801        .(      CMP      r0,#1
        0x00001424:    d10e        ..      BNE      0x1444 ; AIP_draw_pixel + 78
        0x00001426:    e7ff        ..      B        0x1428 ; AIP_draw_pixel + 50
        0x00001428:    a802        ..      ADD      r0,sp,#8
        0x0000142a:    7800        .x      LDRB     r0,[r0,#0]
        0x0000142c:    2103        .!      MOVS     r1,#3
        0x0000142e:    4008        .@      ANDS     r0,r0,r1
        0x00001430:    2301        .#      MOVS     r3,#1
        0x00001432:    4083        .@      LSLS     r3,r3,r0
        0x00001434:    9800        ..      LDR      r0,[sp,#0]
        0x00001436:    6bc1        .k      LDR      r1,[r0,#0x3c]
        0x00001438:    a803        ..      ADD      r0,sp,#0xc
        0x0000143a:    7802        .x      LDRB     r2,[r0,#0]
        0x0000143c:    5c88        .\      LDRB     r0,[r1,r2]
        0x0000143e:    4318        .C      ORRS     r0,r0,r3
        0x00001440:    5488        .T      STRB     r0,[r1,r2]
        0x00001442:    e00d        ..      B        0x1460 ; AIP_draw_pixel + 106
        0x00001444:    a802        ..      ADD      r0,sp,#8
        0x00001446:    7800        .x      LDRB     r0,[r0,#0]
        0x00001448:    2103        .!      MOVS     r1,#3
        0x0000144a:    4008        .@      ANDS     r0,r0,r1
        0x0000144c:    2301        .#      MOVS     r3,#1
        0x0000144e:    4083        .@      LSLS     r3,r3,r0
        0x00001450:    9800        ..      LDR      r0,[sp,#0]
        0x00001452:    6bc1        .k      LDR      r1,[r0,#0x3c]
        0x00001454:    a803        ..      ADD      r0,sp,#0xc
        0x00001456:    7802        .x      LDRB     r2,[r0,#0]
        0x00001458:    5c88        .\      LDRB     r0,[r1,r2]
        0x0000145a:    4398        .C      BICS     r0,r0,r3
        0x0000145c:    5488        .T      STRB     r0,[r1,r2]
        0x0000145e:    e7ff        ..      B        0x1460 ; AIP_draw_pixel + 106
        0x00001460:    b004        ..      ADD      sp,sp,#0x10
        0x00001462:    bd10        ..      POP      {r4,pc}
    AIP_writeChar
        0x00001464:    b580        ..      PUSH     {r7,lr}
        0x00001466:    b088        ..      SUB      sp,sp,#0x20
        0x00001468:    9006        ..      STR      r0,[sp,#0x18]
        0x0000146a:    9105        ..      STR      r1,[sp,#0x14]
        0x0000146c:    9204        ..      STR      r2,[sp,#0x10]
        0x0000146e:    9806        ..      LDR      r0,[sp,#0x18]
        0x00001470:    7800        .x      LDRB     r0,[r0,#0]
        0x00001472:    2820         (      CMP      r0,#0x20
        0x00001474:    db05        ..      BLT      0x1482 ; AIP_writeChar + 30
        0x00001476:    e7ff        ..      B        0x1478 ; AIP_writeChar + 20
        0x00001478:    9806        ..      LDR      r0,[sp,#0x18]
        0x0000147a:    7800        .x      LDRB     r0,[r0,#0]
        0x0000147c:    287f        .(      CMP      r0,#0x7f
        0x0000147e:    db04        ..      BLT      0x148a ; AIP_writeChar + 38
        0x00001480:    e7ff        ..      B        0x1482 ; AIP_writeChar + 30
        0x00001482:    a907        ..      ADD      r1,sp,#0x1c
        0x00001484:    2000        .       MOVS     r0,#0
        0x00001486:    7008        .p      STRB     r0,[r1,#0]
        0x00001488:    e06e        n.      B        0x1568 ; AIP_writeChar + 260
        0x0000148a:    9804        ..      LDR      r0,[sp,#0x10]
        0x0000148c:    2140        @!      MOVS     r1,#0x40
        0x0000148e:    5c40        @\      LDRB     r0,[r0,r1]
        0x00001490:    9905        ..      LDR      r1,[sp,#0x14]
        0x00001492:    7809        .x      LDRB     r1,[r1,#0]
        0x00001494:    1840        @.      ADDS     r0,r0,r1
        0x00001496:    2814        .(      CMP      r0,#0x14
        0x00001498:    db04        ..      BLT      0x14a4 ; AIP_writeChar + 64
        0x0000149a:    e7ff        ..      B        0x149c ; AIP_writeChar + 56
        0x0000149c:    a907        ..      ADD      r1,sp,#0x1c
        0x0000149e:    2000        .       MOVS     r0,#0
        0x000014a0:    7008        .p      STRB     r0,[r1,#0]
        0x000014a2:    e061        a.      B        0x1568 ; AIP_writeChar + 260
        0x000014a4:    a902        ..      ADD      r1,sp,#8
        0x000014a6:    2000        .       MOVS     r0,#0
        0x000014a8:    7008        .p      STRB     r0,[r1,#0]
        0x000014aa:    e7ff        ..      B        0x14ac ; AIP_writeChar + 72
        0x000014ac:    a802        ..      ADD      r0,sp,#8
        0x000014ae:    7800        .x      LDRB     r0,[r0,#0]
        0x000014b0:    9905        ..      LDR      r1,[sp,#0x14]
        0x000014b2:    7809        .x      LDRB     r1,[r1,#0]
        0x000014b4:    4288        .B      CMP      r0,r1
        0x000014b6:    da4c        L.      BGE      0x1552 ; AIP_writeChar + 238
        0x000014b8:    e7ff        ..      B        0x14ba ; AIP_writeChar + 86
        0x000014ba:    9905        ..      LDR      r1,[sp,#0x14]
        0x000014bc:    6848        Hh      LDR      r0,[r1,#4]
        0x000014be:    9a06        ..      LDR      r2,[sp,#0x18]
        0x000014c0:    7812        .x      LDRB     r2,[r2,#0]
        0x000014c2:    3a20         :      SUBS     r2,r2,#0x20
        0x000014c4:    7809        .x      LDRB     r1,[r1,#0]
        0x000014c6:    4351        QC      MULS     r1,r2,r1
        0x000014c8:    aa02        ..      ADD      r2,sp,#8
        0x000014ca:    7812        .x      LDRB     r2,[r2,#0]
        0x000014cc:    1889        ..      ADDS     r1,r1,r2
        0x000014ce:    0049        I.      LSLS     r1,r1,#1
        0x000014d0:    5c40        @\      LDRB     r0,[r0,r1]
        0x000014d2:    a903        ..      ADD      r1,sp,#0xc
        0x000014d4:    7008        .p      STRB     r0,[r1,#0]
        0x000014d6:    9805        ..      LDR      r0,[sp,#0x14]
        0x000014d8:    7840        @x      LDRB     r0,[r0,#1]
        0x000014da:    a901        ..      ADD      r1,sp,#4
        0x000014dc:    7008        .p      STRB     r0,[r1,#0]
        0x000014de:    e7ff        ..      B        0x14e0 ; AIP_writeChar + 124
        0x000014e0:    a801        ..      ADD      r0,sp,#4
        0x000014e2:    7800        .x      LDRB     r0,[r0,#0]
        0x000014e4:    2801        .(      CMP      r0,#1
        0x000014e6:    db2e        ..      BLT      0x1546 ; AIP_writeChar + 226
        0x000014e8:    e7ff        ..      B        0x14ea ; AIP_writeChar + 134
        0x000014ea:    a803        ..      ADD      r0,sp,#0xc
        0x000014ec:    7800        .x      LDRB     r0,[r0,#0]
        0x000014ee:    a901        ..      ADD      r1,sp,#4
        0x000014f0:    7809        .x      LDRB     r1,[r1,#0]
        0x000014f2:    1c49        I.      ADDS     r1,r1,#1
        0x000014f4:    4088        .@      LSLS     r0,r0,r1
        0x000014f6:    06c0        ..      LSLS     r0,r0,#27
        0x000014f8:    2800        .(      CMP      r0,#0
        0x000014fa:    d50f        ..      BPL      0x151c ; AIP_writeChar + 184
        0x000014fc:    e7ff        ..      B        0x14fe ; AIP_writeChar + 154
        0x000014fe:    9b04        ..      LDR      r3,[sp,#0x10]
        0x00001500:    2040        @       MOVS     r0,#0x40
        0x00001502:    5c18        .\      LDRB     r0,[r3,r0]
        0x00001504:    9902        ..      LDR      r1,[sp,#8]
        0x00001506:    1840        @.      ADDS     r0,r0,r1
        0x00001508:    9905        ..      LDR      r1,[sp,#0x14]
        0x0000150a:    7849        Ix      LDRB     r1,[r1,#1]
        0x0000150c:    9a01        ..      LDR      r2,[sp,#4]
        0x0000150e:    1a89        ..      SUBS     r1,r1,r2
        0x00001510:    b2c0        ..      UXTB     r0,r0
        0x00001512:    b2c9        ..      UXTB     r1,r1
        0x00001514:    2201        ."      MOVS     r2,#1
        0x00001516:    f7ffff6e    ..n.    BL       AIP_draw_pixel ; 0x13f6
        0x0000151a:    e00e        ..      B        0x153a ; AIP_writeChar + 214
        0x0000151c:    9b04        ..      LDR      r3,[sp,#0x10]
        0x0000151e:    2040        @       MOVS     r0,#0x40
        0x00001520:    5c18        .\      LDRB     r0,[r3,r0]
        0x00001522:    9902        ..      LDR      r1,[sp,#8]
        0x00001524:    1840        @.      ADDS     r0,r0,r1
        0x00001526:    9905        ..      LDR      r1,[sp,#0x14]
        0x00001528:    7849        Ix      LDRB     r1,[r1,#1]
        0x0000152a:    9a01        ..      LDR      r2,[sp,#4]
        0x0000152c:    1a89        ..      SUBS     r1,r1,r2
        0x0000152e:    b2c0        ..      UXTB     r0,r0
        0x00001530:    b2c9        ..      UXTB     r1,r1
        0x00001532:    2200        ."      MOVS     r2,#0
        0x00001534:    f7ffff5f    .._.    BL       AIP_draw_pixel ; 0x13f6
        0x00001538:    e7ff        ..      B        0x153a ; AIP_writeChar + 214
        0x0000153a:    e7ff        ..      B        0x153c ; AIP_writeChar + 216
        0x0000153c:    9801        ..      LDR      r0,[sp,#4]
        0x0000153e:    1e40        @.      SUBS     r0,r0,#1
        0x00001540:    a901        ..      ADD      r1,sp,#4
        0x00001542:    7008        .p      STRB     r0,[r1,#0]
        0x00001544:    e7cc        ..      B        0x14e0 ; AIP_writeChar + 124
        0x00001546:    e7ff        ..      B        0x1548 ; AIP_writeChar + 228
        0x00001548:    9802        ..      LDR      r0,[sp,#8]
        0x0000154a:    1c40        @.      ADDS     r0,r0,#1
        0x0000154c:    a902        ..      ADD      r1,sp,#8
        0x0000154e:    7008        .p      STRB     r0,[r1,#0]
        0x00001550:    e7ac        ..      B        0x14ac ; AIP_writeChar + 72
        0x00001552:    9805        ..      LDR      r0,[sp,#0x14]
        0x00001554:    7803        .x      LDRB     r3,[r0,#0]
        0x00001556:    9904        ..      LDR      r1,[sp,#0x10]
        0x00001558:    2240        @"      MOVS     r2,#0x40
        0x0000155a:    5c88        .\      LDRB     r0,[r1,r2]
        0x0000155c:    18c0        ..      ADDS     r0,r0,r3
        0x0000155e:    5488        .T      STRB     r0,[r1,r2]
        0x00001560:    a907        ..      ADD      r1,sp,#0x1c
        0x00001562:    2001        .       MOVS     r0,#1
        0x00001564:    7008        .p      STRB     r0,[r1,#0]
        0x00001566:    e7ff        ..      B        0x1568 ; AIP_writeChar + 260
        0x00001568:    a807        ..      ADD      r0,sp,#0x1c
        0x0000156a:    7800        .x      LDRB     r0,[r0,#0]
        0x0000156c:    b008        ..      ADD      sp,sp,#0x20
        0x0000156e:    bd80        ..      POP      {r7,pc}
    AIP_writeCommand
        0x00001570:    b580        ..      PUSH     {r7,lr}
        0x00001572:    b084        ..      SUB      sp,sp,#0x10
        0x00001574:    aa03        ..      ADD      r2,sp,#0xc
        0x00001576:    9201        ..      STR      r2,[sp,#4]
        0x00001578:    7010        .p      STRB     r0,[r2,#0]
        0x0000157a:    9102        ..      STR      r1,[sp,#8]
        0x0000157c:    9802        ..      LDR      r0,[sp,#8]
        0x0000157e:    6b81        .k      LDR      r1,[r0,#0x38]
        0x00001580:    2000        .       MOVS     r0,#0
        0x00001582:    9000        ..      STR      r0,[sp,#0]
        0x00001584:    4788        .G      BLX      r1
        0x00001586:    9800        ..      LDR      r0,[sp,#0]
        0x00001588:    9902        ..      LDR      r1,[sp,#8]
        0x0000158a:    6b09        .k      LDR      r1,[r1,#0x30]
        0x0000158c:    4788        .G      BLX      r1
        0x0000158e:    9801        ..      LDR      r0,[sp,#4]
        0x00001590:    f005fa9c    ....    BL       spi_transfer ; 0x6acc
        0x00001594:    9802        ..      LDR      r0,[sp,#8]
        0x00001596:    6b01        .k      LDR      r1,[r0,#0x30]
        0x00001598:    2001        .       MOVS     r0,#1
        0x0000159a:    4788        .G      BLX      r1
        0x0000159c:    b004        ..      ADD      sp,sp,#0x10
        0x0000159e:    bd80        ..      POP      {r7,pc}
    AIP_writeData
        0x000015a0:    b580        ..      PUSH     {r7,lr}
        0x000015a2:    b086        ..      SUB      sp,sp,#0x18
        0x000015a4:    9005        ..      STR      r0,[sp,#0x14]
        0x000015a6:    a804        ..      ADD      r0,sp,#0x10
        0x000015a8:    7001        .p      STRB     r1,[r0,#0]
        0x000015aa:    9203        ..      STR      r2,[sp,#0xc]
        0x000015ac:    9803        ..      LDR      r0,[sp,#0xc]
        0x000015ae:    6b81        .k      LDR      r1,[r0,#0x38]
        0x000015b0:    2001        .       MOVS     r0,#1
        0x000015b2:    4788        .G      BLX      r1
        0x000015b4:    9803        ..      LDR      r0,[sp,#0xc]
        0x000015b6:    6b01        .k      LDR      r1,[r0,#0x30]
        0x000015b8:    2000        .       MOVS     r0,#0
        0x000015ba:    9001        ..      STR      r0,[sp,#4]
        0x000015bc:    4788        .G      BLX      r1
        0x000015be:    9801        ..      LDR      r0,[sp,#4]
        0x000015c0:    9002        ..      STR      r0,[sp,#8]
        0x000015c2:    e7ff        ..      B        0x15c4 ; AIP_writeData + 36
        0x000015c4:    9802        ..      LDR      r0,[sp,#8]
        0x000015c6:    a904        ..      ADD      r1,sp,#0x10
        0x000015c8:    7809        .x      LDRB     r1,[r1,#0]
        0x000015ca:    4288        .B      CMP      r0,r1
        0x000015cc:    da0a        ..      BGE      0x15e4 ; AIP_writeData + 68
        0x000015ce:    e7ff        ..      B        0x15d0 ; AIP_writeData + 48
        0x000015d0:    9805        ..      LDR      r0,[sp,#0x14]
        0x000015d2:    9902        ..      LDR      r1,[sp,#8]
        0x000015d4:    1840        @.      ADDS     r0,r0,r1
        0x000015d6:    f005fa79    ..y.    BL       spi_transfer ; 0x6acc
        0x000015da:    e7ff        ..      B        0x15dc ; AIP_writeData + 60
        0x000015dc:    9802        ..      LDR      r0,[sp,#8]
        0x000015de:    1c40        @.      ADDS     r0,r0,#1
        0x000015e0:    9002        ..      STR      r0,[sp,#8]
        0x000015e2:    e7ef        ..      B        0x15c4 ; AIP_writeData + 36
        0x000015e4:    9803        ..      LDR      r0,[sp,#0xc]
        0x000015e6:    6b01        .k      LDR      r1,[r0,#0x30]
        0x000015e8:    2001        .       MOVS     r0,#1
        0x000015ea:    4788        .G      BLX      r1
        0x000015ec:    b006        ..      ADD      sp,sp,#0x18
        0x000015ee:    bd80        ..      POP      {r7,pc}
    AIP_writeNumber
        0x000015f0:    b510        ..      PUSH     {r4,lr}
        0x000015f2:    b086        ..      SUB      sp,sp,#0x18
        0x000015f4:    ac05        ..      ADD      r4,sp,#0x14
        0x000015f6:    7020         p      STRB     r0,[r4,#0]
        0x000015f8:    a804        ..      ADD      r0,sp,#0x10
        0x000015fa:    7001        .p      STRB     r1,[r0,#0]
        0x000015fc:    9203        ..      STR      r2,[sp,#0xc]
        0x000015fe:    9302        ..      STR      r3,[sp,#8]
        0x00001600:    9904        ..      LDR      r1,[sp,#0x10]
        0x00001602:    2003        .       MOVS     r0,#3
        0x00001604:    4348        HC      MULS     r0,r1,r0
        0x00001606:    9902        ..      LDR      r1,[sp,#8]
        0x00001608:    2240        @"      MOVS     r2,#0x40
        0x0000160a:    5488        .T      STRB     r0,[r1,r2]
        0x0000160c:    9902        ..      LDR      r1,[sp,#8]
        0x0000160e:    2241        A"      MOVS     r2,#0x41
        0x00001610:    2000        .       MOVS     r0,#0
        0x00001612:    5488        .T      STRB     r0,[r1,r2]
        0x00001614:    9905        ..      LDR      r1,[sp,#0x14]
        0x00001616:    3130        01      ADDS     r1,r1,#0x30
        0x00001618:    a801        ..      ADD      r0,sp,#4
        0x0000161a:    7001        .p      STRB     r1,[r0,#0]
        0x0000161c:    9903        ..      LDR      r1,[sp,#0xc]
        0x0000161e:    9a02        ..      LDR      r2,[sp,#8]
        0x00001620:    f7ffff20    .. .    BL       AIP_writeChar ; 0x1464
        0x00001624:    b006        ..      ADD      sp,sp,#0x18
        0x00001626:    bd10        ..      POP      {r4,pc}
    APP_All_Point_High
        0x00001628:    b580        ..      PUSH     {r7,lr}
        0x0000162a:    b084        ..      SUB      sp,sp,#0x10
        0x0000162c:    4601        .F      MOV      r1,r0
        0x0000162e:    a803        ..      ADD      r0,sp,#0xc
        0x00001630:    7001        .p      STRB     r1,[r0,#0]
        0x00001632:    7800        .x      LDRB     r0,[r0,#0]
        0x00001634:    9000        ..      STR      r0,[sp,#0]
        0x00001636:    2801        .(      CMP      r0,#1
        0x00001638:    d008        ..      BEQ      0x164c ; APP_All_Point_High + 36
        0x0000163a:    e7ff        ..      B        0x163c ; APP_All_Point_High + 20
        0x0000163c:    9800        ..      LDR      r0,[sp,#0]
        0x0000163e:    2802        .(      CMP      r0,#2
        0x00001640:    d008        ..      BEQ      0x1654 ; APP_All_Point_High + 44
        0x00001642:    e7ff        ..      B        0x1644 ; APP_All_Point_High + 28
        0x00001644:    9800        ..      LDR      r0,[sp,#0]
        0x00001646:    2803        .(      CMP      r0,#3
        0x00001648:    d008        ..      BEQ      0x165c ; APP_All_Point_High + 52
        0x0000164a:    e00b        ..      B        0x1664 ; APP_All_Point_High + 60
        0x0000164c:    48d1        .H      LDR      r0,[pc,#836] ; [0x1994] = 0x200004e8
        0x0000164e:    6800        .h      LDR      r0,[r0,#0]
        0x00001650:    9002        ..      STR      r0,[sp,#8]
        0x00001652:    e008        ..      B        0x1666 ; APP_All_Point_High + 62
        0x00001654:    48d4        .H      LDR      r0,[pc,#848] ; [0x19a8] = 0x200004ec
        0x00001656:    6800        .h      LDR      r0,[r0,#0]
        0x00001658:    9002        ..      STR      r0,[sp,#8]
        0x0000165a:    e004        ..      B        0x1666 ; APP_All_Point_High + 62
        0x0000165c:    48d7        .H      LDR      r0,[pc,#860] ; [0x19bc] = 0x200004f0
        0x0000165e:    6800        .h      LDR      r0,[r0,#0]
        0x00001660:    9002        ..      STR      r0,[sp,#8]
        0x00001662:    e000        ..      B        0x1666 ; APP_All_Point_High + 62
        0x00001664:    e011        ..      B        0x168a ; APP_All_Point_High + 98
        0x00001666:    2011        .       MOVS     r0,#0x11
        0x00001668:    9001        ..      STR      r0,[sp,#4]
        0x0000166a:    e7ff        ..      B        0x166c ; APP_All_Point_High + 68
        0x0000166c:    9801        ..      LDR      r0,[sp,#4]
        0x0000166e:    2800        .(      CMP      r0,#0
        0x00001670:    d40b        ..      BMI      0x168a ; APP_All_Point_High + 98
        0x00001672:    e7ff        ..      B        0x1674 ; APP_All_Point_High + 76
        0x00001674:    9a02        ..      LDR      r2,[sp,#8]
        0x00001676:    6a93        .j      LDR      r3,[r2,#0x28]
        0x00001678:    a801        ..      ADD      r0,sp,#4
        0x0000167a:    7800        .x      LDRB     r0,[r0,#0]
        0x0000167c:    2101        .!      MOVS     r1,#1
        0x0000167e:    4798        .G      BLX      r3
        0x00001680:    e7ff        ..      B        0x1682 ; APP_All_Point_High + 90
        0x00001682:    9801        ..      LDR      r0,[sp,#4]
        0x00001684:    1e40        @.      SUBS     r0,r0,#1
        0x00001686:    9001        ..      STR      r0,[sp,#4]
        0x00001688:    e7f0        ..      B        0x166c ; APP_All_Point_High + 68
        0x0000168a:    b004        ..      ADD      sp,sp,#0x10
        0x0000168c:    bd80        ..      POP      {r7,pc}
        0x0000168e:    46c0        .F      MOV      r8,r8
    APP_GetMeasure
        0x00001690:    b580        ..      PUSH     {r7,lr}
        0x00001692:    b086        ..      SUB      sp,sp,#0x18
        0x00001694:    9005        ..      STR      r0,[sp,#0x14]
        0x00001696:    9104        ..      STR      r1,[sp,#0x10]
        0x00001698:    a903        ..      ADD      r1,sp,#0xc
        0x0000169a:    2000        .       MOVS     r0,#0
        0x0000169c:    7008        .p      STRB     r0,[r1,#0]
        0x0000169e:    9002        ..      STR      r0,[sp,#8]
        0x000016a0:    9001        ..      STR      r0,[sp,#4]
        0x000016a2:    2001        .       MOVS     r0,#1
        0x000016a4:    7008        .p      STRB     r0,[r1,#0]
        0x000016a6:    48c6        .H      LDR      r0,[pc,#792] ; [0x19c0] = 0x200004f8
        0x000016a8:    6800        .h      LDR      r0,[r0,#0]
        0x000016aa:    6880        .h      LDR      r0,[r0,#8]
        0x000016ac:    4780        .G      BLX      r0
        0x000016ae:    b148        H.      CBZ      r0,0x16c4 ; APP_GetMeasure + 52
        0x000016b0:    e7ff        ..      B        0x16b2 ; APP_GetMeasure + 34
        0x000016b2:    48c3        .H      LDR      r0,[pc,#780] ; [0x19c0] = 0x200004f8
        0x000016b4:    6800        .h      LDR      r0,[r0,#0]
        0x000016b6:    6ac2        .j      LDR      r2,[r0,#0x2c]
        0x000016b8:    2001        .       MOVS     r0,#1
        0x000016ba:    210a        .!      MOVS     r1,#0xa
        0x000016bc:    4790        .G      BLX      r2
        0x000016be:    9905        ..      LDR      r1,[sp,#0x14]
        0x000016c0:    6008        .`      STR      r0,[r1,#0]
        0x000016c2:    e7ff        ..      B        0x16c4 ; APP_GetMeasure + 52
        0x000016c4:    9804        ..      LDR      r0,[sp,#0x10]
        0x000016c6:    7a80        .z      LDRB     r0,[r0,#0xa]
        0x000016c8:    9000        ..      STR      r0,[sp,#0]
        0x000016ca:    2804        .(      CMP      r0,#4
        0x000016cc:    d85b        [.      BHI      0x1786 ; APP_GetMeasure + 246
        0x000016ce:    9900        ..      LDR      r1,[sp,#0]
        0x000016d0:    008a        ..      LSLS     r2,r1,#2
        0x000016d2:    a001        ..      ADR      r0,{pc}+6 ; 0x16d8
        0x000016d4:    1880        ..      ADDS     r0,r0,r2
        0x000016d6:    4687        .F      MOV      pc,r0
        0x000016d8:    f000b808    ....    B.W      0x16ec ; APP_GetMeasure + 92
        0x000016dc:    f000b807    ....    B.W      0x16ee ; APP_GetMeasure + 94
        0x000016e0:    f000b818    ....    B.W      0x1714 ; APP_GetMeasure + 132
        0x000016e4:    f000b829    ..).    B.W      0x173a ; APP_GetMeasure + 170
        0x000016e8:    f000b83a    ..:.    B.W      0x1760 ; APP_GetMeasure + 208
        0x000016ec:    e04b        K.      B        0x1786 ; APP_GetMeasure + 246
        0x000016ee:    9805        ..      LDR      r0,[sp,#0x14]
        0x000016f0:    6800        .h      LDR      r0,[r0,#0]
        0x000016f2:    4932        2I      LDR      r1,[pc,#200] ; [0x17bc] = 0x41200000
        0x000016f4:    f7fefdef    ....    BL       __aeabi_fmul ; 0x2d6
        0x000016f8:    f7feff04    ....    BL       __aeabi_f2iz ; 0x504
        0x000016fc:    9002        ..      STR      r0,[sp,#8]
        0x000016fe:    9802        ..      LDR      r0,[sp,#8]
        0x00001700:    f7fefeec    ....    BL       __aeabi_i2d ; 0x4dc
        0x00001704:    4a2e        .J      LDR      r2,[pc,#184] ; [0x17c0] = 0x9999999a
        0x00001706:    4b2f        /K      LDR      r3,[pc,#188] ; [0x17c4] = 0x3fb99999
        0x00001708:    f7fefe60    ..`.    BL       __aeabi_dmul ; 0x3cc
        0x0000170c:    f7feff64    ..d.    BL       __aeabi_d2f ; 0x5d8
        0x00001710:    9001        ..      STR      r0,[sp,#4]
        0x00001712:    e038        8.      B        0x1786 ; APP_GetMeasure + 246
        0x00001714:    9805        ..      LDR      r0,[sp,#0x14]
        0x00001716:    6800        .h      LDR      r0,[r0,#0]
        0x00001718:    4925        %I      LDR      r1,[pc,#148] ; [0x17b0] = 0x42c80000
        0x0000171a:    f7fefddc    ....    BL       __aeabi_fmul ; 0x2d6
        0x0000171e:    f7fefef1    ....    BL       __aeabi_f2iz ; 0x504
        0x00001722:    9002        ..      STR      r0,[sp,#8]
        0x00001724:    9802        ..      LDR      r0,[sp,#8]
        0x00001726:    f7fefed9    ....    BL       __aeabi_i2d ; 0x4dc
        0x0000172a:    4a22        "J      LDR      r2,[pc,#136] ; [0x17b4] = 0x47ae147b
        0x0000172c:    4b22        "K      LDR      r3,[pc,#136] ; [0x17b8] = 0x3f847ae1
        0x0000172e:    f7fefe4d    ..M.    BL       __aeabi_dmul ; 0x3cc
        0x00001732:    f7feff51    ..Q.    BL       __aeabi_d2f ; 0x5d8
        0x00001736:    9001        ..      STR      r0,[sp,#4]
        0x00001738:    e025        %.      B        0x1786 ; APP_GetMeasure + 246
        0x0000173a:    9805        ..      LDR      r0,[sp,#0x14]
        0x0000173c:    6800        .h      LDR      r0,[r0,#0]
        0x0000173e:    4919        .I      LDR      r1,[pc,#100] ; [0x17a4] = 0x447a0000
        0x00001740:    f7fefdc9    ....    BL       __aeabi_fmul ; 0x2d6
        0x00001744:    f7fefede    ....    BL       __aeabi_f2iz ; 0x504
        0x00001748:    9002        ..      STR      r0,[sp,#8]
        0x0000174a:    9802        ..      LDR      r0,[sp,#8]
        0x0000174c:    f7fefec6    ....    BL       __aeabi_i2d ; 0x4dc
        0x00001750:    4a15        .J      LDR      r2,[pc,#84] ; [0x17a8] = 0xd2f1a9fc
        0x00001752:    4b16        .K      LDR      r3,[pc,#88] ; [0x17ac] = 0x3f50624d
        0x00001754:    f7fefe3a    ..:.    BL       __aeabi_dmul ; 0x3cc
        0x00001758:    f7feff3e    ..>.    BL       __aeabi_d2f ; 0x5d8
        0x0000175c:    9001        ..      STR      r0,[sp,#4]
        0x0000175e:    e012        ..      B        0x1786 ; APP_GetMeasure + 246
        0x00001760:    9805        ..      LDR      r0,[sp,#0x14]
        0x00001762:    6800        .h      LDR      r0,[r0,#0]
        0x00001764:    490c        .I      LDR      r1,[pc,#48] ; [0x1798] = 0x461c4000
        0x00001766:    f7fefdb6    ....    BL       __aeabi_fmul ; 0x2d6
        0x0000176a:    f7fefecb    ....    BL       __aeabi_f2iz ; 0x504
        0x0000176e:    9002        ..      STR      r0,[sp,#8]
        0x00001770:    9802        ..      LDR      r0,[sp,#8]
        0x00001772:    f7fefeb3    ....    BL       __aeabi_i2d ; 0x4dc
        0x00001776:    4a09        .J      LDR      r2,[pc,#36] ; [0x179c] = 0xeb1c432d
        0x00001778:    4b09        .K      LDR      r3,[pc,#36] ; [0x17a0] = 0x3f1a36e2
        0x0000177a:    f7fefe27    ..'.    BL       __aeabi_dmul ; 0x3cc
        0x0000177e:    f7feff2b    ..+.    BL       __aeabi_d2f ; 0x5d8
        0x00001782:    9001        ..      STR      r0,[sp,#4]
        0x00001784:    e7ff        ..      B        0x1786 ; APP_GetMeasure + 246
        0x00001786:    9801        ..      LDR      r0,[sp,#4]
        0x00001788:    9905        ..      LDR      r1,[sp,#0x14]
        0x0000178a:    6008        .`      STR      r0,[r1,#0]
        0x0000178c:    a803        ..      ADD      r0,sp,#0xc
        0x0000178e:    7800        .x      LDRB     r0,[r0,#0]
        0x00001790:    2101        .!      MOVS     r1,#1
        0x00001792:    4008        .@      ANDS     r0,r0,r1
        0x00001794:    b006        ..      ADD      sp,sp,#0x18
        0x00001796:    bd80        ..      POP      {r7,pc}
    $d.45
    __arm_cp.22_1
        0x00001798:    461c4000    .@.F    DCD    1176256512
    __arm_cp.22_2
        0x0000179c:    eb1c432d    -C..    DCD    3944497965
    __arm_cp.22_3
        0x000017a0:    3f1a36e2    .6.?    DCD    1058682594
    __arm_cp.22_4
        0x000017a4:    447a0000    ..zD    DCD    1148846080
    __arm_cp.22_5
        0x000017a8:    d2f1a9fc    ....    DCD    3539053052
    __arm_cp.22_6
        0x000017ac:    3f50624d    MbP?    DCD    1062232653
    __arm_cp.22_7
        0x000017b0:    42c80000    ...B    DCD    1120403456
    __arm_cp.22_8
        0x000017b4:    47ae147b    {..G    DCD    1202590843
    __arm_cp.22_9
        0x000017b8:    3f847ae1    .z.?    DCD    1065646817
    __arm_cp.22_10
        0x000017bc:    41200000    .. A    DCD    1092616192
    __arm_cp.22_11
        0x000017c0:    9999999a    ....    DCD    2576980378
    __arm_cp.22_12
        0x000017c4:    3fb99999    ...?    DCD    1069128089
    $t.32
    APP_Handle
        0x000017c8:    b580        ..      PUSH     {r7,lr}
        0x000017ca:    b088        ..      SUB      sp,sp,#0x20
        0x000017cc:    a907        ..      ADD      r1,sp,#0x1c
        0x000017ce:    9102        ..      STR      r1,[sp,#8]
        0x000017d0:    2000        .       MOVS     r0,#0
        0x000017d2:    7008        .p      STRB     r0,[r1,#0]
        0x000017d4:    a906        ..      ADD      r1,sp,#0x18
        0x000017d6:    8008        ..      STRH     r0,[r1,#0]
        0x000017d8:    a905        ..      ADD      r1,sp,#0x14
        0x000017da:    7008        .p      STRB     r0,[r1,#0]
        0x000017dc:    9004        ..      STR      r0,[sp,#0x10]
        0x000017de:    9003        ..      STR      r0,[sp,#0xc]
        0x000017e0:    4865        eH      LDR      r0,[pc,#404] ; [0x1978] = 0x200004bc
        0x000017e2:    2102        .!      MOVS     r1,#2
        0x000017e4:    7281        .r      STRB     r1,[r0,#0xa]
        0x000017e6:    f000fb1d    ....    BL       APP_StartScreen ; 0x1e24
        0x000017ea:    4601        .F      MOV      r1,r0
        0x000017ec:    9802        ..      LDR      r0,[sp,#8]
        0x000017ee:    7001        .p      STRB     r1,[r0,#0]
        0x000017f0:    7800        .x      LDRB     r0,[r0,#0]
        0x000017f2:    b118        ..      CBZ      r0,0x17fc ; APP_Handle + 52
        0x000017f4:    e7ff        ..      B        0x17f6 ; APP_Handle + 46
        0x000017f6:    f000f8e7    ....    BL       APP_SettingsHandle ; 0x19c8
        0x000017fa:    e7ff        ..      B        0x17fc ; APP_Handle + 52
        0x000017fc:    e7ff        ..      B        0x17fe ; APP_Handle + 54
        0x000017fe:    495e        ^I      LDR      r1,[pc,#376] ; [0x1978] = 0x200004bc
        0x00001800:    a804        ..      ADD      r0,sp,#0x10
        0x00001802:    f000fa03    ....    BL       APP_Show_Weight ; 0x1c0c
        0x00001806:    48a0        .H      LDR      r0,[pc,#640] ; [0x1a88] = 0x200004e4
        0x00001808:    6800        .h      LDR      r0,[r0,#0]
        0x0000180a:    6841        Ah      LDR      r1,[r0,#4]
        0x0000180c:    a805        ..      ADD      r0,sp,#0x14
        0x0000180e:    4788        .G      BLX      r1
        0x00001810:    4601        .F      MOV      r1,r0
        0x00001812:    a806        ..      ADD      r0,sp,#0x18
        0x00001814:    8001        ..      STRH     r1,[r0,#0]
        0x00001816:    2100        .!      MOVS     r1,#0
        0x00001818:    5e40        @^      LDRSH    r0,[r0,r1]
        0x0000181a:    2800        .(      CMP      r0,#0
        0x0000181c:    d413        ..      BMI      0x1846 ; APP_Handle + 126
        0x0000181e:    e7ff        ..      B        0x1820 ; APP_Handle + 88
        0x00001820:    a805        ..      ADD      r0,sp,#0x14
        0x00001822:    7800        .x      LDRB     r0,[r0,#0]
        0x00001824:    b978        x.      CBNZ     r0,0x1846 ; APP_Handle + 126
        0x00001826:    e7ff        ..      B        0x1828 ; APP_Handle + 96
        0x00001828:    a806        ..      ADD      r0,sp,#0x18
        0x0000182a:    7800        .x      LDRB     r0,[r0,#0]
        0x0000182c:    495e        ^I      LDR      r1,[pc,#376] ; [0x19a8] = 0x200004ec
        0x0000182e:    6809        .h      LDR      r1,[r1,#0]
        0x00001830:    4a51        QJ      LDR      r2,[pc,#324] ; [0x1978] = 0x200004bc
        0x00001832:    9201        ..      STR      r2,[sp,#4]
        0x00001834:    f004f97a    ..z.    BL       setPrice ; 0x5b2c
        0x00001838:    9a01        ..      LDR      r2,[sp,#4]
        0x0000183a:    9003        ..      STR      r0,[sp,#0xc]
        0x0000183c:    9904        ..      LDR      r1,[sp,#0x10]
        0x0000183e:    9803        ..      LDR      r0,[sp,#0xc]
        0x00001840:    f000f924    ..$.    BL       APP_ShowTotal ; 0x1a8c
        0x00001844:    e7ff        ..      B        0x1846 ; APP_Handle + 126
        0x00001846:    2100        .!      MOVS     r1,#0
        0x00001848:    a806        ..      ADD      r0,sp,#0x18
        0x0000184a:    5e40        @^      LDRSH    r0,[r0,r1]
        0x0000184c:    2800        .(      CMP      r0,#0
        0x0000184e:    d409        ..      BMI      0x1864 ; APP_Handle + 156
        0x00001850:    e7ff        ..      B        0x1852 ; APP_Handle + 138
        0x00001852:    a805        ..      ADD      r0,sp,#0x14
        0x00001854:    7800        .x      LDRB     r0,[r0,#0]
        0x00001856:    2801        .(      CMP      r0,#1
        0x00001858:    d104        ..      BNE      0x1864 ; APP_Handle + 156
        0x0000185a:    e7ff        ..      B        0x185c ; APP_Handle + 148
        0x0000185c:    a905        ..      ADD      r1,sp,#0x14
        0x0000185e:    2000        .       MOVS     r0,#0
        0x00001860:    7008        .p      STRB     r0,[r1,#0]
        0x00001862:    e7ff        ..      B        0x1864 ; APP_Handle + 156
        0x00001864:    e7cb        ..      B        0x17fe ; APP_Handle + 54
        0x00001866:    46c0        .F      MOV      r8,r8
    APP_Init
        0x00001868:    b580        ..      PUSH     {r7,lr}
        0x0000186a:    b086        ..      SUB      sp,sp,#0x18
        0x0000186c:    4842        BH      LDR      r0,[pc,#264] ; [0x1978] = 0x200004bc
        0x0000186e:    9000        ..      STR      r0,[sp,#0]
        0x00001870:    f004f8a4    ....    BL       readFlashMemoryInformation ; 0x59bc
        0x00001874:    9900        ..      LDR      r1,[sp,#0]
        0x00001876:    4841        AH      LDR      r0,[pc,#260] ; [0x197c] = 0x200000f4
        0x00001878:    6001        .`      STR      r1,[r0,#0]
        0x0000187a:    4941        AI      LDR      r1,[pc,#260] ; [0x1980] = 0x200004fc
        0x0000187c:    9104        ..      STR      r1,[sp,#0x10]
        0x0000187e:    6008        .`      STR      r0,[r1,#0]
        0x00001880:    4840        @H      LDR      r0,[pc,#256] ; [0x1984] = 0x20000094
        0x00001882:    4941        AI      LDR      r1,[pc,#260] ; [0x1988] = 0x40d1
        0x00001884:    6081        .`      STR      r1,[r0,#8]
        0x00001886:    4941        AI      LDR      r1,[pc,#260] ; [0x198c] = 0x4101
        0x00001888:    6041        A`      STR      r1,[r0,#4]
        0x0000188a:    4941        AI      LDR      r1,[pc,#260] ; [0x1990] = 0x40e9
        0x0000188c:    6001        .`      STR      r1,[r0,#0]
        0x0000188e:    f003ff61    ..a.    BL       newLCDObj ; 0x5754
        0x00001892:    4601        .F      MOV      r1,r0
        0x00001894:    483f        ?H      LDR      r0,[pc,#252] ; [0x1994] = 0x200004e8
        0x00001896:    9001        ..      STR      r0,[sp,#4]
        0x00001898:    6001        .`      STR      r1,[r0,#0]
        0x0000189a:    6800        .h      LDR      r0,[r0,#0]
        0x0000189c:    6801        .h      LDR      r1,[r0,#0]
        0x0000189e:    4788        .G      BLX      r1
        0x000018a0:    9801        ..      LDR      r0,[sp,#4]
        0x000018a2:    6800        .h      LDR      r0,[r0,#0]
        0x000018a4:    68c1        .h      LDR      r1,[r0,#0xc]
        0x000018a6:    4788        .G      BLX      r1
        0x000018a8:    9801        ..      LDR      r0,[sp,#4]
        0x000018aa:    6800        .h      LDR      r0,[r0,#0]
        0x000018ac:    6901        .i      LDR      r1,[r0,#0x10]
        0x000018ae:    4788        .G      BLX      r1
        0x000018b0:    4839        9H      LDR      r0,[pc,#228] ; [0x1998] = 0x200000b4
        0x000018b2:    493a        :I      LDR      r1,[pc,#232] ; [0x199c] = 0x4119
        0x000018b4:    6081        .`      STR      r1,[r0,#8]
        0x000018b6:    493a        :I      LDR      r1,[pc,#232] ; [0x19a0] = 0x4149
        0x000018b8:    6041        A`      STR      r1,[r0,#4]
        0x000018ba:    493a        :I      LDR      r1,[pc,#232] ; [0x19a4] = 0x4131
        0x000018bc:    6001        .`      STR      r1,[r0,#0]
        0x000018be:    f003ff49    ..I.    BL       newLCDObj ; 0x5754
        0x000018c2:    4601        .F      MOV      r1,r0
        0x000018c4:    4838        8H      LDR      r0,[pc,#224] ; [0x19a8] = 0x200004ec
        0x000018c6:    9002        ..      STR      r0,[sp,#8]
        0x000018c8:    6001        .`      STR      r1,[r0,#0]
        0x000018ca:    6800        .h      LDR      r0,[r0,#0]
        0x000018cc:    6801        .h      LDR      r1,[r0,#0]
        0x000018ce:    4788        .G      BLX      r1
        0x000018d0:    9802        ..      LDR      r0,[sp,#8]
        0x000018d2:    6800        .h      LDR      r0,[r0,#0]
        0x000018d4:    68c1        .h      LDR      r1,[r0,#0xc]
        0x000018d6:    4788        .G      BLX      r1
        0x000018d8:    9802        ..      LDR      r0,[sp,#8]
        0x000018da:    6800        .h      LDR      r0,[r0,#0]
        0x000018dc:    6901        .i      LDR      r1,[r0,#0x10]
        0x000018de:    4788        .G      BLX      r1
        0x000018e0:    4832        2H      LDR      r0,[pc,#200] ; [0x19ac] = 0x200000d4
        0x000018e2:    4933        3I      LDR      r1,[pc,#204] ; [0x19b0] = 0x4161
        0x000018e4:    6081        .`      STR      r1,[r0,#8]
        0x000018e6:    4933        3I      LDR      r1,[pc,#204] ; [0x19b4] = 0x4191
        0x000018e8:    6041        A`      STR      r1,[r0,#4]
        0x000018ea:    4933        3I      LDR      r1,[pc,#204] ; [0x19b8] = 0x4179
        0x000018ec:    6001        .`      STR      r1,[r0,#0]
        0x000018ee:    f003ff31    ..1.    BL       newLCDObj ; 0x5754
        0x000018f2:    4601        .F      MOV      r1,r0
        0x000018f4:    48c3        .H      LDR      r0,[pc,#780] ; [0x1c04] = 0x200004f0
        0x000018f6:    9003        ..      STR      r0,[sp,#0xc]
        0x000018f8:    6001        .`      STR      r1,[r0,#0]
        0x000018fa:    6800        .h      LDR      r0,[r0,#0]
        0x000018fc:    6801        .h      LDR      r1,[r0,#0]
        0x000018fe:    4788        .G      BLX      r1
        0x00001900:    9803        ..      LDR      r0,[sp,#0xc]
        0x00001902:    6800        .h      LDR      r0,[r0,#0]
        0x00001904:    68c1        .h      LDR      r1,[r0,#0xc]
        0x00001906:    4788        .G      BLX      r1
        0x00001908:    9803        ..      LDR      r0,[sp,#0xc]
        0x0000190a:    6800        .h      LDR      r0,[r0,#0]
        0x0000190c:    6901        .i      LDR      r1,[r0,#0x10]
        0x0000190e:    4788        .G      BLX      r1
        0x00001910:    f003fef8    ....    BL       newKeyPadObj ; 0x5704
        0x00001914:    4601        .F      MOV      r1,r0
        0x00001916:    485c        \H      LDR      r0,[pc,#368] ; [0x1a88] = 0x200004e4
        0x00001918:    6001        .`      STR      r1,[r0,#0]
        0x0000191a:    6800        .h      LDR      r0,[r0,#0]
        0x0000191c:    6802        .h      LDR      r2,[r0,#0]
        0x0000191e:    2005        .       MOVS     r0,#5
        0x00001920:    2104        .!      MOVS     r1,#4
        0x00001922:    4790        .G      BLX      r2
        0x00001924:    f003ffa0    ....    BL       newScaleObj ; 0x5868
        0x00001928:    4601        .F      MOV      r1,r0
        0x0000192a:    4825        %H      LDR      r0,[pc,#148] ; [0x19c0] = 0x200004f8
        0x0000192c:    9005        ..      STR      r0,[sp,#0x14]
        0x0000192e:    6001        .`      STR      r1,[r0,#0]
        0x00001930:    6800        .h      LDR      r0,[r0,#0]
        0x00001932:    6800        .h      LDR      r0,[r0,#0]
        0x00001934:    4780        .G      BLX      r0
        0x00001936:    9905        ..      LDR      r1,[sp,#0x14]
        0x00001938:    9804        ..      LDR      r0,[sp,#0x10]
        0x0000193a:    6809        .h      LDR      r1,[r1,#0]
        0x0000193c:    6989        .i      LDR      r1,[r1,#0x18]
        0x0000193e:    6800        .h      LDR      r0,[r0,#0]
        0x00001940:    6800        .h      LDR      r0,[r0,#0]
        0x00001942:    6840        @h      LDR      r0,[r0,#4]
        0x00001944:    4788        .G      BLX      r1
        0x00001946:    9804        ..      LDR      r0,[sp,#0x10]
        0x00001948:    9905        ..      LDR      r1,[sp,#0x14]
        0x0000194a:    6809        .h      LDR      r1,[r1,#0]
        0x0000194c:    6a49        Ij      LDR      r1,[r1,#0x24]
        0x0000194e:    6800        .h      LDR      r0,[r0,#0]
        0x00001950:    6800        .h      LDR      r0,[r0,#0]
        0x00001952:    6800        .h      LDR      r0,[r0,#0]
        0x00001954:    4788        .G      BLX      r1
        0x00001956:    9805        ..      LDR      r0,[sp,#0x14]
        0x00001958:    6800        .h      LDR      r0,[r0,#0]
        0x0000195a:    6c00        .l      LDR      r0,[r0,#0x40]
        0x0000195c:    4780        .G      BLX      r0
        0x0000195e:    f003ff55    ..U.    BL       newMenuObj ; 0x580c
        0x00001962:    4601        .F      MOV      r1,r0
        0x00001964:    4847        GH      LDR      r0,[pc,#284] ; [0x1a84] = 0x200004f4
        0x00001966:    6001        .`      STR      r1,[r0,#0]
        0x00001968:    6800        .h      LDR      r0,[r0,#0]
        0x0000196a:    6800        .h      LDR      r0,[r0,#0]
        0x0000196c:    4780        .G      BLX      r0
        0x0000196e:    4915        .I      LDR      r1,[pc,#84] ; [0x19c4] = 0x200004e0
        0x00001970:    48a5        .H      LDR      r0,[pc,#660] ; [0x1c08] = 0x20000018
        0x00001972:    6008        .`      STR      r0,[r1,#0]
        0x00001974:    b006        ..      ADD      sp,sp,#0x18
        0x00001976:    bd80        ..      POP      {r7,pc}
    $d.1
    __arm_cp.0_0
        0x00001978:    200004bc    ...     DCD    536872124
    __arm_cp.0_1
        0x0000197c:    200000f4    ...     DCD    536871156
    __arm_cp.0_2
        0x00001980:    200004fc    ...     DCD    536872188
    __arm_cp.0_3
        0x00001984:    20000094    ...     DCD    536871060
    __arm_cp.0_4
        0x00001988:    000040d1    .@..    DCD    16593
    __arm_cp.0_5
        0x0000198c:    00004101    .A..    DCD    16641
    __arm_cp.0_6
        0x00001990:    000040e9    .@..    DCD    16617
    __arm_cp.0_7
        0x00001994:    200004e8    ...     DCD    536872168
    __arm_cp.0_8
        0x00001998:    200000b4    ...     DCD    536871092
    __arm_cp.0_9
        0x0000199c:    00004119    .A..    DCD    16665
    __arm_cp.0_10
        0x000019a0:    00004149    IA..    DCD    16713
    __arm_cp.0_11
        0x000019a4:    00004131    1A..    DCD    16689
    __arm_cp.0_12
        0x000019a8:    200004ec    ...     DCD    536872172
    __arm_cp.0_13
        0x000019ac:    200000d4    ...     DCD    536871124
    __arm_cp.0_14
        0x000019b0:    00004161    aA..    DCD    16737
    __arm_cp.0_15
        0x000019b4:    00004191    .A..    DCD    16785
    __arm_cp.0_16
        0x000019b8:    00004179    yA..    DCD    16761
    __arm_cp.0_17
        0x000019bc:    200004f0    ...     DCD    536872176
    __arm_cp.0_19
        0x000019c0:    200004f8    ...     DCD    536872184
    __arm_cp.0_21
        0x000019c4:    200004e0    ...     DCD    536872160
    $t.21
    APP_SettingsHandle
        0x000019c8:    b580        ..      PUSH     {r7,lr}
        0x000019ca:    b084        ..      SUB      sp,sp,#0x10
        0x000019cc:    a903        ..      ADD      r1,sp,#0xc
        0x000019ce:    2000        .       MOVS     r0,#0
        0x000019d0:    7008        .p      STRB     r0,[r1,#0]
        0x000019d2:    a902        ..      ADD      r1,sp,#8
        0x000019d4:    7008        .p      STRB     r0,[r1,#0]
        0x000019d6:    482b        +H      LDR      r0,[pc,#172] ; [0x1a84] = 0x200004f4
        0x000019d8:    6800        .h      LDR      r0,[r0,#0]
        0x000019da:    6841        Ah      LDR      r1,[r0,#4]
        0x000019dc:    3014        .0      ADDS     r0,r0,#0x14
        0x000019de:    4788        .G      BLX      r1
        0x000019e0:    e7ff        ..      B        0x19e2 ; APP_SettingsHandle + 26
        0x000019e2:    4829        )H      LDR      r0,[pc,#164] ; [0x1a88] = 0x200004e4
        0x000019e4:    6800        .h      LDR      r0,[r0,#0]
        0x000019e6:    6841        Ah      LDR      r1,[r0,#4]
        0x000019e8:    a803        ..      ADD      r0,sp,#0xc
        0x000019ea:    4788        .G      BLX      r1
        0x000019ec:    4601        .F      MOV      r1,r0
        0x000019ee:    a802        ..      ADD      r0,sp,#8
        0x000019f0:    7001        .p      STRB     r1,[r0,#0]
        0x000019f2:    7800        .x      LDRB     r0,[r0,#0]
        0x000019f4:    386d        m8      SUBS     r0,r0,#0x6d
        0x000019f6:    9001        ..      STR      r0,[sp,#4]
        0x000019f8:    280d        .(      CMP      r0,#0xd
        0x000019fa:    d842        B.      BHI      0x1a82 ; APP_SettingsHandle + 186
        0x000019fc:    9901        ..      LDR      r1,[sp,#4]
        0x000019fe:    008a        ..      LSLS     r2,r1,#2
        0x00001a00:    a001        ..      ADR      r0,{pc}+8 ; 0x1a08
        0x00001a02:    1880        ..      ADDS     r0,r0,r2
        0x00001a04:    4687        .F      MOV      pc,r0
        0x00001a06:    46c0        .F      MOV      r8,r8
        0x00001a08:    f000b82f    ../.    B.W      0x1a6a ; APP_SettingsHandle + 162
        0x00001a0c:    f000b839    ..9.    B.W      0x1a82 ; APP_SettingsHandle + 186
        0x00001a10:    f000b837    ..7.    B.W      0x1a82 ; APP_SettingsHandle + 186
        0x00001a14:    f000b82f    ../.    B.W      0x1a76 ; APP_SettingsHandle + 174
        0x00001a18:    f000b833    ..3.    B.W      0x1a82 ; APP_SettingsHandle + 186
        0x00001a1c:    f000b831    ..1.    B.W      0x1a82 ; APP_SettingsHandle + 186
        0x00001a20:    f000b82f    ../.    B.W      0x1a82 ; APP_SettingsHandle + 186
        0x00001a24:    f000b80c    ....    B.W      0x1a40 ; APP_SettingsHandle + 120
        0x00001a28:    f000b82b    ..+.    B.W      0x1a82 ; APP_SettingsHandle + 186
        0x00001a2c:    f000b829    ..).    B.W      0x1a82 ; APP_SettingsHandle + 186
        0x00001a30:    f000b827    ..'.    B.W      0x1a82 ; APP_SettingsHandle + 186
        0x00001a34:    f000b825    ..%.    B.W      0x1a82 ; APP_SettingsHandle + 186
        0x00001a38:    f000b823    ..#.    B.W      0x1a82 ; APP_SettingsHandle + 186
        0x00001a3c:    f000b806    ....    B.W      0x1a4c ; APP_SettingsHandle + 132
        0x00001a40:    4810        .H      LDR      r0,[pc,#64] ; [0x1a84] = 0x200004f4
        0x00001a42:    6800        .h      LDR      r0,[r0,#0]
        0x00001a44:    6841        Ah      LDR      r1,[r0,#4]
        0x00001a46:    3014        .0      ADDS     r0,r0,#0x14
        0x00001a48:    4788        .G      BLX      r1
        0x00001a4a:    e01a        ..      B        0x1a82 ; APP_SettingsHandle + 186
        0x00001a4c:    480d        .H      LDR      r0,[pc,#52] ; [0x1a84] = 0x200004f4
        0x00001a4e:    9000        ..      STR      r0,[sp,#0]
        0x00001a50:    6800        .h      LDR      r0,[r0,#0]
        0x00001a52:    6881        .h      LDR      r1,[r0,#8]
        0x00001a54:    3014        .0      ADDS     r0,r0,#0x14
        0x00001a56:    4788        .G      BLX      r1
        0x00001a58:    9800        ..      LDR      r0,[sp,#0]
        0x00001a5a:    6800        .h      LDR      r0,[r0,#0]
        0x00001a5c:    6940        @i      LDR      r0,[r0,#0x14]
        0x00001a5e:    6880        .h      LDR      r0,[r0,#8]
        0x00001a60:    b910        ..      CBNZ     r0,0x1a68 ; APP_SettingsHandle + 160
        0x00001a62:    e7ff        ..      B        0x1a64 ; APP_SettingsHandle + 156
        0x00001a64:    b004        ..      ADD      sp,sp,#0x10
        0x00001a66:    bd80        ..      POP      {r7,pc}
        0x00001a68:    e00b        ..      B        0x1a82 ; APP_SettingsHandle + 186
        0x00001a6a:    4806        .H      LDR      r0,[pc,#24] ; [0x1a84] = 0x200004f4
        0x00001a6c:    6800        .h      LDR      r0,[r0,#0]
        0x00001a6e:    68c1        .h      LDR      r1,[r0,#0xc]
        0x00001a70:    3014        .0      ADDS     r0,r0,#0x14
        0x00001a72:    4788        .G      BLX      r1
        0x00001a74:    e005        ..      B        0x1a82 ; APP_SettingsHandle + 186
        0x00001a76:    4803        .H      LDR      r0,[pc,#12] ; [0x1a84] = 0x200004f4
        0x00001a78:    6800        .h      LDR      r0,[r0,#0]
        0x00001a7a:    6901        .i      LDR      r1,[r0,#0x10]
        0x00001a7c:    3014        .0      ADDS     r0,r0,#0x14
        0x00001a7e:    4788        .G      BLX      r1
        0x00001a80:    e7ff        ..      B        0x1a82 ; APP_SettingsHandle + 186
        0x00001a82:    e7ae        ..      B        0x19e2 ; APP_SettingsHandle + 26
    $d.22
    __arm_cp.11_0
        0x00001a84:    200004f4    ...     DCD    536872180
    __arm_cp.11_1
        0x00001a88:    200004e4    ...     DCD    536872164
    $t.30
    APP_ShowTotal
        0x00001a8c:    b510        ..      PUSH     {r4,lr}
        0x00001a8e:    b090        ..      SUB      sp,sp,#0x40
        0x00001a90:    900f        ..      STR      r0,[sp,#0x3c]
        0x00001a92:    910e        ..      STR      r1,[sp,#0x38]
        0x00001a94:    920d        ..      STR      r2,[sp,#0x34]
        0x00001a96:    a90a        ..      ADD      r1,sp,#0x28
        0x00001a98:    2000        .       MOVS     r0,#0
        0x00001a9a:    9003        ..      STR      r0,[sp,#0xc]
        0x00001a9c:    8108        ..      STRH     r0,[r1,#8]
        0x00001a9e:    900b        ..      STR      r0,[sp,#0x2c]
        0x00001aa0:    900a        ..      STR      r0,[sp,#0x28]
        0x00001aa2:    a908        ..      ADD      r1,sp,#0x20
        0x00001aa4:    7188        .q      STRB     r0,[r1,#6]
        0x00001aa6:    8088        ..      STRH     r0,[r1,#4]
        0x00001aa8:    9008        ..      STR      r0,[sp,#0x20]
        0x00001aaa:    9007        ..      STR      r0,[sp,#0x1c]
        0x00001aac:    9006        ..      STR      r0,[sp,#0x18]
        0x00001aae:    980f        ..      LDR      r0,[sp,#0x3c]
        0x00001ab0:    990e        ..      LDR      r1,[sp,#0x38]
        0x00001ab2:    f7fefc10    ....    BL       __aeabi_fmul ; 0x2d6
        0x00001ab6:    9006        ..      STR      r0,[sp,#0x18]
        0x00001ab8:    980d        ..      LDR      r0,[sp,#0x34]
        0x00001aba:    7a80        .z      LDRB     r0,[r0,#0xa]
        0x00001abc:    9004        ..      STR      r0,[sp,#0x10]
        0x00001abe:    2804        .(      CMP      r0,#4
        0x00001ac0:    d874        t.      BHI      0x1bac ; APP_ShowTotal + 288
        0x00001ac2:    9904        ..      LDR      r1,[sp,#0x10]
        0x00001ac4:    008a        ..      LSLS     r2,r1,#2
        0x00001ac6:    a001        ..      ADR      r0,{pc}+6 ; 0x1acc
        0x00001ac8:    1880        ..      ADDS     r0,r0,r2
        0x00001aca:    4687        .F      MOV      pc,r0
        0x00001acc:    f000b808    ....    B.W      0x1ae0 ; APP_ShowTotal + 84
        0x00001ad0:    f000b81c    ....    B.W      0x1b0c ; APP_ShowTotal + 128
        0x00001ad4:    f000b82e    ....    B.W      0x1b34 ; APP_ShowTotal + 168
        0x00001ad8:    f000b840    ..@.    B.W      0x1b5c ; APP_ShowTotal + 208
        0x00001adc:    f000b852    ..R.    B.W      0x1b84 ; APP_ShowTotal + 248
        0x00001ae0:    9806        ..      LDR      r0,[sp,#0x18]
        0x00001ae2:    49cc        .I      LDR      r1,[pc,#816] ; [0x1e14] = 0x497423f0
        0x00001ae4:    f7fefcda    ....    BL       __aeabi_fcmple ; 0x49c
        0x00001ae8:    b918        ..      CBNZ     r0,0x1af2 ; APP_ShowTotal + 102
        0x00001aea:    e7ff        ..      B        0x1aec ; APP_ShowTotal + 96
        0x00001aec:    4844        DH      LDR      r0,[pc,#272] ; [0x1c00] = 0x4b18967f
        0x00001aee:    9006        ..      STR      r0,[sp,#0x18]
        0x00001af0:    e7ff        ..      B        0x1af2 ; APP_ShowTotal + 102
        0x00001af2:    9806        ..      LDR      r0,[sp,#0x18]
        0x00001af4:    f7fefd06    ....    BL       __aeabi_f2iz ; 0x504
        0x00001af8:    4602        .F      MOV      r2,r0
        0x00001afa:    49c7        .I      LDR      r1,[pc,#796] ; [0x1e18] = 0x7a15
        0x00001afc:    a80a        ..      ADD      r0,sp,#0x28
        0x00001afe:    f005f855    ..U.    BL       __0sprintf ; 0x6bac
        0x00001b02:    9007        ..      STR      r0,[sp,#0x1c]
        0x00001b04:    9807        ..      LDR      r0,[sp,#0x1c]
        0x00001b06:    1c40        @.      ADDS     r0,r0,#1
        0x00001b08:    9007        ..      STR      r0,[sp,#0x1c]
        0x00001b0a:    e04f        O.      B        0x1bac ; APP_ShowTotal + 288
        0x00001b0c:    9806        ..      LDR      r0,[sp,#0x18]
        0x00001b0e:    49bf        .I      LDR      r1,[pc,#764] ; [0x1e0c] = 0x47c34f80
        0x00001b10:    f7fefcc4    ....    BL       __aeabi_fcmple ; 0x49c
        0x00001b14:    b918        ..      CBNZ     r0,0x1b1e ; APP_ShowTotal + 146
        0x00001b16:    e7ff        ..      B        0x1b18 ; APP_ShowTotal + 140
        0x00001b18:    2000        .       MOVS     r0,#0
        0x00001b1a:    9006        ..      STR      r0,[sp,#0x18]
        0x00001b1c:    e7ff        ..      B        0x1b1e ; APP_ShowTotal + 146
        0x00001b1e:    9806        ..      LDR      r0,[sp,#0x18]
        0x00001b20:    f7fefd46    ..F.    BL       __aeabi_f2d ; 0x5b0
        0x00001b24:    4602        .F      MOV      r2,r0
        0x00001b26:    460b        .F      MOV      r3,r1
        0x00001b28:    49b9        .I      LDR      r1,[pc,#740] ; [0x1e10] = 0x7a18
        0x00001b2a:    a80a        ..      ADD      r0,sp,#0x28
        0x00001b2c:    f005f83e    ..>.    BL       __0sprintf ; 0x6bac
        0x00001b30:    9007        ..      STR      r0,[sp,#0x1c]
        0x00001b32:    e03b        ;.      B        0x1bac ; APP_ShowTotal + 288
        0x00001b34:    9806        ..      LDR      r0,[sp,#0x18]
        0x00001b36:    49b2        .I      LDR      r1,[pc,#712] ; [0x1e00] = 0x461c3c00
        0x00001b38:    f7fefcb0    ....    BL       __aeabi_fcmple ; 0x49c
        0x00001b3c:    b918        ..      CBNZ     r0,0x1b46 ; APP_ShowTotal + 186
        0x00001b3e:    e7ff        ..      B        0x1b40 ; APP_ShowTotal + 180
        0x00001b40:    2000        .       MOVS     r0,#0
        0x00001b42:    9006        ..      STR      r0,[sp,#0x18]
        0x00001b44:    e7ff        ..      B        0x1b46 ; APP_ShowTotal + 186
        0x00001b46:    9806        ..      LDR      r0,[sp,#0x18]
        0x00001b48:    f7fefd32    ..2.    BL       __aeabi_f2d ; 0x5b0
        0x00001b4c:    4602        .F      MOV      r2,r0
        0x00001b4e:    460b        .F      MOV      r3,r1
        0x00001b50:    49ad        .I      LDR      r1,[pc,#692] ; [0x1e08] = 0x7a1d
        0x00001b52:    a80a        ..      ADD      r0,sp,#0x28
        0x00001b54:    f005f82a    ..*.    BL       __0sprintf ; 0x6bac
        0x00001b58:    9007        ..      STR      r0,[sp,#0x1c]
        0x00001b5a:    e027        '.      B        0x1bac ; APP_ShowTotal + 288
        0x00001b5c:    9806        ..      LDR      r0,[sp,#0x18]
        0x00001b5e:    49a5        .I      LDR      r1,[pc,#660] ; [0x1df4] = 0x4479c000
        0x00001b60:    f7fefc9c    ....    BL       __aeabi_fcmple ; 0x49c
        0x00001b64:    b918        ..      CBNZ     r0,0x1b6e ; APP_ShowTotal + 226
        0x00001b66:    e7ff        ..      B        0x1b68 ; APP_ShowTotal + 220
        0x00001b68:    2000        .       MOVS     r0,#0
        0x00001b6a:    9006        ..      STR      r0,[sp,#0x18]
        0x00001b6c:    e7ff        ..      B        0x1b6e ; APP_ShowTotal + 226
        0x00001b6e:    9806        ..      LDR      r0,[sp,#0x18]
        0x00001b70:    f7fefd1e    ....    BL       __aeabi_f2d ; 0x5b0
        0x00001b74:    4602        .F      MOV      r2,r0
        0x00001b76:    460b        .F      MOV      r3,r1
        0x00001b78:    49a0        .I      LDR      r1,[pc,#640] ; [0x1dfc] = 0x7a22
        0x00001b7a:    a80a        ..      ADD      r0,sp,#0x28
        0x00001b7c:    f005f816    ....    BL       __0sprintf ; 0x6bac
        0x00001b80:    9007        ..      STR      r0,[sp,#0x1c]
        0x00001b82:    e013        ..      B        0x1bac ; APP_ShowTotal + 288
        0x00001b84:    9806        ..      LDR      r0,[sp,#0x18]
        0x00001b86:    4998        .I      LDR      r1,[pc,#608] ; [0x1de8] = 0x42c60000
        0x00001b88:    f7fefc88    ....    BL       __aeabi_fcmple ; 0x49c
        0x00001b8c:    b918        ..      CBNZ     r0,0x1b96 ; APP_ShowTotal + 266
        0x00001b8e:    e7ff        ..      B        0x1b90 ; APP_ShowTotal + 260
        0x00001b90:    2000        .       MOVS     r0,#0
        0x00001b92:    9006        ..      STR      r0,[sp,#0x18]
        0x00001b94:    e7ff        ..      B        0x1b96 ; APP_ShowTotal + 266
        0x00001b96:    9806        ..      LDR      r0,[sp,#0x18]
        0x00001b98:    f7fefd0a    ....    BL       __aeabi_f2d ; 0x5b0
        0x00001b9c:    4602        .F      MOV      r2,r0
        0x00001b9e:    460b        .F      MOV      r3,r1
        0x00001ba0:    4993        .I      LDR      r1,[pc,#588] ; [0x1df0] = 0x7a27
        0x00001ba2:    a80a        ..      ADD      r0,sp,#0x28
        0x00001ba4:    f005f802    ....    BL       __0sprintf ; 0x6bac
        0x00001ba8:    9007        ..      STR      r0,[sp,#0x1c]
        0x00001baa:    e7ff        ..      B        0x1bac ; APP_ShowTotal + 288
        0x00001bac:    2000        .       MOVS     r0,#0
        0x00001bae:    9005        ..      STR      r0,[sp,#0x14]
        0x00001bb0:    e7ff        ..      B        0x1bb2 ; APP_ShowTotal + 294
        0x00001bb2:    9805        ..      LDR      r0,[sp,#0x14]
        0x00001bb4:    9a07        ..      LDR      r2,[sp,#0x1c]
        0x00001bb6:    2107        .!      MOVS     r1,#7
        0x00001bb8:    1a89        ..      SUBS     r1,r1,r2
        0x00001bba:    4288        .B      CMP      r0,r1
        0x00001bbc:    da09        ..      BGE      0x1bd2 ; APP_ShowTotal + 326
        0x00001bbe:    e7ff        ..      B        0x1bc0 ; APP_ShowTotal + 308
        0x00001bc0:    9a05        ..      LDR      r2,[sp,#0x14]
        0x00001bc2:    a908        ..      ADD      r1,sp,#0x20
        0x00001bc4:    2020                MOVS     r0,#0x20
        0x00001bc6:    5488        .T      STRB     r0,[r1,r2]
        0x00001bc8:    e7ff        ..      B        0x1bca ; APP_ShowTotal + 318
        0x00001bca:    9805        ..      LDR      r0,[sp,#0x14]
        0x00001bcc:    1c40        @.      ADDS     r0,r0,#1
        0x00001bce:    9005        ..      STR      r0,[sp,#0x14]
        0x00001bd0:    e7ef        ..      B        0x1bb2 ; APP_ShowTotal + 294
        0x00001bd2:    9a07        ..      LDR      r2,[sp,#0x1c]
        0x00001bd4:    a808        ..      ADD      r0,sp,#0x20
        0x00001bd6:    9001        ..      STR      r0,[sp,#4]
        0x00001bd8:    a90a        ..      ADD      r1,sp,#0x28
        0x00001bda:    f7fefb0f    ....    BL       strncat ; 0x1fc
        0x00001bde:    9a01        ..      LDR      r2,[sp,#4]
        0x00001be0:    4808        .H      LDR      r0,[pc,#32] ; [0x1c04] = 0x200004f0
        0x00001be2:    9002        ..      STR      r0,[sp,#8]
        0x00001be4:    6800        .h      LDR      r0,[r0,#0]
        0x00001be6:    6a04        .j      LDR      r4,[r0,#0x20]
        0x00001be8:    9000        ..      STR      r0,[sp,#0]
        0x00001bea:    4b8d        .K      LDR      r3,[pc,#564] ; [0x1e20] = 0x20000018
        0x00001bec:    2100        .!      MOVS     r1,#0
        0x00001bee:    4608        .F      MOV      r0,r1
        0x00001bf0:    47a0        .G      BLX      r4
        0x00001bf2:    9802        ..      LDR      r0,[sp,#8]
        0x00001bf4:    6800        .h      LDR      r0,[r0,#0]
        0x00001bf6:    6901        .i      LDR      r1,[r0,#0x10]
        0x00001bf8:    4788        .G      BLX      r1
        0x00001bfa:    b010        ..      ADD      sp,sp,#0x40
        0x00001bfc:    bd10        ..      POP      {r4,pc}
        0x00001bfe:    46c0        .F      MOV      r8,r8
    $d.31
    __arm_cp.16_9
        0x00001c00:    4b18967f    ...K    DCD    1259902591
    __arm_cp.16_11
        0x00001c04:    200004f0    ...     DCD    536872176
    __arm_cp.16_12
        0x00001c08:    20000018    ...     DCD    536870936
    $t.38
    APP_Show_Weight
        0x00001c0c:    b510        ..      PUSH     {r4,lr}
        0x00001c0e:    b092        ..      SUB      sp,sp,#0x48
        0x00001c10:    9011        ..      STR      r0,[sp,#0x44]
        0x00001c12:    9110        ..      STR      r1,[sp,#0x40]
        0x00001c14:    a90d        ..      ADD      r1,sp,#0x34
        0x00001c16:    2000        .       MOVS     r0,#0
        0x00001c18:    9005        ..      STR      r0,[sp,#0x14]
        0x00001c1a:    8108        ..      STRH     r0,[r1,#8]
        0x00001c1c:    900e        ..      STR      r0,[sp,#0x38]
        0x00001c1e:    900d        ..      STR      r0,[sp,#0x34]
        0x00001c20:    a90c        ..      ADD      r1,sp,#0x30
        0x00001c22:    9106        ..      STR      r1,[sp,#0x18]
        0x00001c24:    7008        .p      STRB     r0,[r1,#0]
        0x00001c26:    a90a        ..      ADD      r1,sp,#0x28
        0x00001c28:    7188        .q      STRB     r0,[r1,#6]
        0x00001c2a:    8088        ..      STRH     r0,[r1,#4]
        0x00001c2c:    900a        ..      STR      r0,[sp,#0x28]
        0x00001c2e:    9009        ..      STR      r0,[sp,#0x24]
        0x00001c30:    9811        ..      LDR      r0,[sp,#0x44]
        0x00001c32:    9910        ..      LDR      r1,[sp,#0x40]
        0x00001c34:    f7fffd2c    ..,.    BL       APP_GetMeasure ; 0x1690
        0x00001c38:    9906        ..      LDR      r1,[sp,#0x18]
        0x00001c3a:    7008        .p      STRB     r0,[r1,#0]
        0x00001c3c:    9810        ..      LDR      r0,[sp,#0x40]
        0x00001c3e:    7a80        .z      LDRB     r0,[r0,#0xa]
        0x00001c40:    9007        ..      STR      r0,[sp,#0x1c]
        0x00001c42:    2804        .(      CMP      r0,#4
        0x00001c44:    d900        ..      BLS      0x1c48 ; APP_Show_Weight + 60
        0x00001c46:    e084        ..      B        0x1d52 ; APP_Show_Weight + 326
        0x00001c48:    9907        ..      LDR      r1,[sp,#0x1c]
        0x00001c4a:    008a        ..      LSLS     r2,r1,#2
        0x00001c4c:    a001        ..      ADR      r0,{pc}+8 ; 0x1c54
        0x00001c4e:    1880        ..      ADDS     r0,r0,r2
        0x00001c50:    4687        .F      MOV      pc,r0
        0x00001c52:    46c0        .F      MOV      r8,r8
        0x00001c54:    f000b808    ....    B.W      0x1c68 ; APP_Show_Weight + 92
        0x00001c58:    f000b81f    ....    B.W      0x1c9a ; APP_Show_Weight + 142
        0x00001c5c:    f000b834    ..4.    B.W      0x1cc8 ; APP_Show_Weight + 188
        0x00001c60:    f000b849    ..I.    B.W      0x1cf6 ; APP_Show_Weight + 234
        0x00001c64:    f000b85e    ..^.    B.W      0x1d24 ; APP_Show_Weight + 280
        0x00001c68:    9811        ..      LDR      r0,[sp,#0x44]
        0x00001c6a:    6800        .h      LDR      r0,[r0,#0]
        0x00001c6c:    4969        iI      LDR      r1,[pc,#420] ; [0x1e14] = 0x497423f0
        0x00001c6e:    f7fefc15    ....    BL       __aeabi_fcmple ; 0x49c
        0x00001c72:    b920         .      CBNZ     r0,0x1c7e ; APP_Show_Weight + 114
        0x00001c74:    e7ff        ..      B        0x1c76 ; APP_Show_Weight + 106
        0x00001c76:    9911        ..      LDR      r1,[sp,#0x44]
        0x00001c78:    4866        fH      LDR      r0,[pc,#408] ; [0x1e14] = 0x497423f0
        0x00001c7a:    6008        .`      STR      r0,[r1,#0]
        0x00001c7c:    e7ff        ..      B        0x1c7e ; APP_Show_Weight + 114
        0x00001c7e:    9811        ..      LDR      r0,[sp,#0x44]
        0x00001c80:    6800        .h      LDR      r0,[r0,#0]
        0x00001c82:    f7fefc3f    ..?.    BL       __aeabi_f2iz ; 0x504
        0x00001c86:    4602        .F      MOV      r2,r0
        0x00001c88:    4963        cI      LDR      r1,[pc,#396] ; [0x1e18] = 0x7a15
        0x00001c8a:    a80d        ..      ADD      r0,sp,#0x34
        0x00001c8c:    f004ff8e    ....    BL       __0sprintf ; 0x6bac
        0x00001c90:    9009        ..      STR      r0,[sp,#0x24]
        0x00001c92:    9809        ..      LDR      r0,[sp,#0x24]
        0x00001c94:    1c40        @.      ADDS     r0,r0,#1
        0x00001c96:    9009        ..      STR      r0,[sp,#0x24]
        0x00001c98:    e05b        [.      B        0x1d52 ; APP_Show_Weight + 326
        0x00001c9a:    9811        ..      LDR      r0,[sp,#0x44]
        0x00001c9c:    6800        .h      LDR      r0,[r0,#0]
        0x00001c9e:    495b        [I      LDR      r1,[pc,#364] ; [0x1e0c] = 0x47c34f80
        0x00001ca0:    f7fefbfc    ....    BL       __aeabi_fcmple ; 0x49c
        0x00001ca4:    b920         .      CBNZ     r0,0x1cb0 ; APP_Show_Weight + 164
        0x00001ca6:    e7ff        ..      B        0x1ca8 ; APP_Show_Weight + 156
        0x00001ca8:    9911        ..      LDR      r1,[sp,#0x44]
        0x00001caa:    4858        XH      LDR      r0,[pc,#352] ; [0x1e0c] = 0x47c34f80
        0x00001cac:    6008        .`      STR      r0,[r1,#0]
        0x00001cae:    e7ff        ..      B        0x1cb0 ; APP_Show_Weight + 164
        0x00001cb0:    9811        ..      LDR      r0,[sp,#0x44]
        0x00001cb2:    6800        .h      LDR      r0,[r0,#0]
        0x00001cb4:    f7fefc7c    ..|.    BL       __aeabi_f2d ; 0x5b0
        0x00001cb8:    4602        .F      MOV      r2,r0
        0x00001cba:    460b        .F      MOV      r3,r1
        0x00001cbc:    4954        TI      LDR      r1,[pc,#336] ; [0x1e10] = 0x7a18
        0x00001cbe:    a80d        ..      ADD      r0,sp,#0x34
        0x00001cc0:    f004ff74    ..t.    BL       __0sprintf ; 0x6bac
        0x00001cc4:    9009        ..      STR      r0,[sp,#0x24]
        0x00001cc6:    e044        D.      B        0x1d52 ; APP_Show_Weight + 326
        0x00001cc8:    9811        ..      LDR      r0,[sp,#0x44]
        0x00001cca:    6800        .h      LDR      r0,[r0,#0]
        0x00001ccc:    494c        LI      LDR      r1,[pc,#304] ; [0x1e00] = 0x461c3c00
        0x00001cce:    f7fefbe5    ....    BL       __aeabi_fcmple ; 0x49c
        0x00001cd2:    b920         .      CBNZ     r0,0x1cde ; APP_Show_Weight + 210
        0x00001cd4:    e7ff        ..      B        0x1cd6 ; APP_Show_Weight + 202
        0x00001cd6:    9911        ..      LDR      r1,[sp,#0x44]
        0x00001cd8:    484a        JH      LDR      r0,[pc,#296] ; [0x1e04] = 0x461c4000
        0x00001cda:    6008        .`      STR      r0,[r1,#0]
        0x00001cdc:    e7ff        ..      B        0x1cde ; APP_Show_Weight + 210
        0x00001cde:    9811        ..      LDR      r0,[sp,#0x44]
        0x00001ce0:    6800        .h      LDR      r0,[r0,#0]
        0x00001ce2:    f7fefc65    ..e.    BL       __aeabi_f2d ; 0x5b0
        0x00001ce6:    4602        .F      MOV      r2,r0
        0x00001ce8:    460b        .F      MOV      r3,r1
        0x00001cea:    4947        GI      LDR      r1,[pc,#284] ; [0x1e08] = 0x7a1d
        0x00001cec:    a80d        ..      ADD      r0,sp,#0x34
        0x00001cee:    f004ff5d    ..].    BL       __0sprintf ; 0x6bac
        0x00001cf2:    9009        ..      STR      r0,[sp,#0x24]
        0x00001cf4:    e02d        -.      B        0x1d52 ; APP_Show_Weight + 326
        0x00001cf6:    9811        ..      LDR      r0,[sp,#0x44]
        0x00001cf8:    6800        .h      LDR      r0,[r0,#0]
        0x00001cfa:    493e        >I      LDR      r1,[pc,#248] ; [0x1df4] = 0x4479c000
        0x00001cfc:    f7fefbce    ....    BL       __aeabi_fcmple ; 0x49c
        0x00001d00:    b920         .      CBNZ     r0,0x1d0c ; APP_Show_Weight + 256
        0x00001d02:    e7ff        ..      B        0x1d04 ; APP_Show_Weight + 248
        0x00001d04:    9911        ..      LDR      r1,[sp,#0x44]
        0x00001d06:    483c        <H      LDR      r0,[pc,#240] ; [0x1df8] = 0x4479fff0
        0x00001d08:    6008        .`      STR      r0,[r1,#0]
        0x00001d0a:    e7ff        ..      B        0x1d0c ; APP_Show_Weight + 256
        0x00001d0c:    9811        ..      LDR      r0,[sp,#0x44]
        0x00001d0e:    6800        .h      LDR      r0,[r0,#0]
        0x00001d10:    f7fefc4e    ..N.    BL       __aeabi_f2d ; 0x5b0
        0x00001d14:    4602        .F      MOV      r2,r0
        0x00001d16:    460b        .F      MOV      r3,r1
        0x00001d18:    4938        8I      LDR      r1,[pc,#224] ; [0x1dfc] = 0x7a22
        0x00001d1a:    a80d        ..      ADD      r0,sp,#0x34
        0x00001d1c:    f004ff46    ..F.    BL       __0sprintf ; 0x6bac
        0x00001d20:    9009        ..      STR      r0,[sp,#0x24]
        0x00001d22:    e016        ..      B        0x1d52 ; APP_Show_Weight + 326
        0x00001d24:    9811        ..      LDR      r0,[sp,#0x44]
        0x00001d26:    6800        .h      LDR      r0,[r0,#0]
        0x00001d28:    492f        /I      LDR      r1,[pc,#188] ; [0x1de8] = 0x42c60000
        0x00001d2a:    f7fefbb7    ....    BL       __aeabi_fcmple ; 0x49c
        0x00001d2e:    b920         .      CBNZ     r0,0x1d3a ; APP_Show_Weight + 302
        0x00001d30:    e7ff        ..      B        0x1d32 ; APP_Show_Weight + 294
        0x00001d32:    9911        ..      LDR      r1,[sp,#0x44]
        0x00001d34:    482d        -H      LDR      r0,[pc,#180] ; [0x1dec] = 0x42c7fff3
        0x00001d36:    6008        .`      STR      r0,[r1,#0]
        0x00001d38:    e7ff        ..      B        0x1d3a ; APP_Show_Weight + 302
        0x00001d3a:    9811        ..      LDR      r0,[sp,#0x44]
        0x00001d3c:    6800        .h      LDR      r0,[r0,#0]
        0x00001d3e:    f7fefc37    ..7.    BL       __aeabi_f2d ; 0x5b0
        0x00001d42:    4602        .F      MOV      r2,r0
        0x00001d44:    460b        .F      MOV      r3,r1
        0x00001d46:    492a        *I      LDR      r1,[pc,#168] ; [0x1df0] = 0x7a27
        0x00001d48:    a80d        ..      ADD      r0,sp,#0x34
        0x00001d4a:    f004ff2f    ../.    BL       __0sprintf ; 0x6bac
        0x00001d4e:    9009        ..      STR      r0,[sp,#0x24]
        0x00001d50:    e7ff        ..      B        0x1d52 ; APP_Show_Weight + 326
        0x00001d52:    2000        .       MOVS     r0,#0
        0x00001d54:    9008        ..      STR      r0,[sp,#0x20]
        0x00001d56:    e7ff        ..      B        0x1d58 ; APP_Show_Weight + 332
        0x00001d58:    9808        ..      LDR      r0,[sp,#0x20]
        0x00001d5a:    9a09        ..      LDR      r2,[sp,#0x24]
        0x00001d5c:    2107        .!      MOVS     r1,#7
        0x00001d5e:    1a89        ..      SUBS     r1,r1,r2
        0x00001d60:    4288        .B      CMP      r0,r1
        0x00001d62:    da09        ..      BGE      0x1d78 ; APP_Show_Weight + 364
        0x00001d64:    e7ff        ..      B        0x1d66 ; APP_Show_Weight + 346
        0x00001d66:    9a08        ..      LDR      r2,[sp,#0x20]
        0x00001d68:    a90a        ..      ADD      r1,sp,#0x28
        0x00001d6a:    2020                MOVS     r0,#0x20
        0x00001d6c:    5488        .T      STRB     r0,[r1,r2]
        0x00001d6e:    e7ff        ..      B        0x1d70 ; APP_Show_Weight + 356
        0x00001d70:    9808        ..      LDR      r0,[sp,#0x20]
        0x00001d72:    1c40        @.      ADDS     r0,r0,#1
        0x00001d74:    9008        ..      STR      r0,[sp,#0x20]
        0x00001d76:    e7ef        ..      B        0x1d58 ; APP_Show_Weight + 332
        0x00001d78:    9a09        ..      LDR      r2,[sp,#0x24]
        0x00001d7a:    a80a        ..      ADD      r0,sp,#0x28
        0x00001d7c:    9003        ..      STR      r0,[sp,#0xc]
        0x00001d7e:    a90d        ..      ADD      r1,sp,#0x34
        0x00001d80:    f7fefa3c    ..<.    BL       strncat ; 0x1fc
        0x00001d84:    9a03        ..      LDR      r2,[sp,#0xc]
        0x00001d86:    4825        %H      LDR      r0,[pc,#148] ; [0x1e1c] = 0x200004e8
        0x00001d88:    9004        ..      STR      r0,[sp,#0x10]
        0x00001d8a:    6800        .h      LDR      r0,[r0,#0]
        0x00001d8c:    6a04        .j      LDR      r4,[r0,#0x20]
        0x00001d8e:    9000        ..      STR      r0,[sp,#0]
        0x00001d90:    4b23        #K      LDR      r3,[pc,#140] ; [0x1e20] = 0x20000018
        0x00001d92:    2100        .!      MOVS     r1,#0
        0x00001d94:    4608        .F      MOV      r0,r1
        0x00001d96:    47a0        .G      BLX      r4
        0x00001d98:    9804        ..      LDR      r0,[sp,#0x10]
        0x00001d9a:    6800        .h      LDR      r0,[r0,#0]
        0x00001d9c:    6901        .i      LDR      r1,[r0,#0x10]
        0x00001d9e:    4788        .G      BLX      r1
        0x00001da0:    a80c        ..      ADD      r0,sp,#0x30
        0x00001da2:    7800        .x      LDRB     r0,[r0,#0]
        0x00001da4:    07c0        ..      LSLS     r0,r0,#31
        0x00001da6:    b160        `.      CBZ      r0,0x1dc2 ; APP_Show_Weight + 438
        0x00001da8:    e7ff        ..      B        0x1daa ; APP_Show_Weight + 414
        0x00001daa:    481c        .H      LDR      r0,[pc,#112] ; [0x1e1c] = 0x200004e8
        0x00001dac:    9002        ..      STR      r0,[sp,#8]
        0x00001dae:    6802        .h      LDR      r2,[r0,#0]
        0x00001db0:    6a93        .j      LDR      r3,[r2,#0x28]
        0x00001db2:    2010        .       MOVS     r0,#0x10
        0x00001db4:    2101        .!      MOVS     r1,#1
        0x00001db6:    4798        .G      BLX      r3
        0x00001db8:    9802        ..      LDR      r0,[sp,#8]
        0x00001dba:    6800        .h      LDR      r0,[r0,#0]
        0x00001dbc:    6901        .i      LDR      r1,[r0,#0x10]
        0x00001dbe:    4788        .G      BLX      r1
        0x00001dc0:    e00b        ..      B        0x1dda ; APP_Show_Weight + 462
        0x00001dc2:    4816        .H      LDR      r0,[pc,#88] ; [0x1e1c] = 0x200004e8
        0x00001dc4:    9001        ..      STR      r0,[sp,#4]
        0x00001dc6:    6802        .h      LDR      r2,[r0,#0]
        0x00001dc8:    6a93        .j      LDR      r3,[r2,#0x28]
        0x00001dca:    2010        .       MOVS     r0,#0x10
        0x00001dcc:    2100        .!      MOVS     r1,#0
        0x00001dce:    4798        .G      BLX      r3
        0x00001dd0:    9801        ..      LDR      r0,[sp,#4]
        0x00001dd2:    6800        .h      LDR      r0,[r0,#0]
        0x00001dd4:    6901        .i      LDR      r1,[r0,#0x10]
        0x00001dd6:    4788        .G      BLX      r1
        0x00001dd8:    e7ff        ..      B        0x1dda ; APP_Show_Weight + 462
        0x00001dda:    a80c        ..      ADD      r0,sp,#0x30
        0x00001ddc:    7800        .x      LDRB     r0,[r0,#0]
        0x00001dde:    2101        .!      MOVS     r1,#1
        0x00001de0:    4008        .@      ANDS     r0,r0,r1
        0x00001de2:    b012        ..      ADD      sp,sp,#0x48
        0x00001de4:    bd10        ..      POP      {r4,pc}
        0x00001de6:    46c0        .F      MOV      r8,r8
    $d.39
    __arm_cp.19_0
        0x00001de8:    42c60000    ...B    DCD    1120272384
    __arm_cp.19_1
        0x00001dec:    42c7fff3    ...B    DCD    1120403443
    __arm_cp.19_2
        0x00001df0:    00007a27    'z..    DCD    31271
    __arm_cp.19_3
        0x00001df4:    4479c000    ..yD    DCD    1148829696
    __arm_cp.19_4
        0x00001df8:    4479fff0    ..yD    DCD    1148846064
    __arm_cp.19_5
        0x00001dfc:    00007a22    "z..    DCD    31266
    __arm_cp.19_6
        0x00001e00:    461c3c00    .<.F    DCD    1176255488
    __arm_cp.19_7
        0x00001e04:    461c4000    .@.F    DCD    1176256512
    __arm_cp.19_8
        0x00001e08:    00007a1d    .z..    DCD    31261
    __arm_cp.19_9
        0x00001e0c:    47c34f80    .O.G    DCD    1203982208
    __arm_cp.19_10
        0x00001e10:    00007a18    .z..    DCD    31256
    __arm_cp.19_11
        0x00001e14:    497423f0    .#tI    DCD    1232348144
    __arm_cp.19_12
        0x00001e18:    00007a15    .z..    DCD    31253
    __arm_cp.19_13
        0x00001e1c:    200004e8    ...     DCD    536872168
    __arm_cp.19_14
        0x00001e20:    20000018    ...     DCD    536870936
    $t.34
    APP_StartScreen
        0x00001e24:    b510        ..      PUSH     {r4,lr}
        0x00001e26:    b0aa        ..      SUB      sp,sp,#0xa8
        0x00001e28:    9028        (.      STR      r0,[sp,#0xa0]
        0x00001e2a:    48fc        .H      LDR      r0,[pc,#1008] ; [0x221c] = 0x200004e8
        0x00001e2c:    901c        ..      STR      r0,[sp,#0x70]
        0x00001e2e:    6800        .h      LDR      r0,[r0,#0]
        0x00001e30:    6a04        .j      LDR      r4,[r0,#0x20]
        0x00001e32:    9000        ..      STR      r0,[sp,#0]
        0x00001e34:    4afa        .J      LDR      r2,[pc,#1000] ; [0x2220] = 0x7a0e
        0x00001e36:    9212        ..      STR      r2,[sp,#0x48]
        0x00001e38:    4bfa        .K      LDR      r3,[pc,#1000] ; [0x2224] = 0x20000018
        0x00001e3a:    9321        !.      STR      r3,[sp,#0x84]
        0x00001e3c:    2100        .!      MOVS     r1,#0
        0x00001e3e:    911f        ..      STR      r1,[sp,#0x7c]
        0x00001e40:    4608        .F      MOV      r0,r1
        0x00001e42:    47a0        .G      BLX      r4
        0x00001e44:    2001        .       MOVS     r0,#1
        0x00001e46:    901b        ..      STR      r0,[sp,#0x6c]
        0x00001e48:    f7fffbee    ....    BL       APP_All_Point_High ; 0x1628
        0x00001e4c:    981c        ..      LDR      r0,[sp,#0x70]
        0x00001e4e:    6800        .h      LDR      r0,[r0,#0]
        0x00001e50:    6901        .i      LDR      r1,[r0,#0x10]
        0x00001e52:    4788        .G      BLX      r1
        0x00001e54:    9a12        ..      LDR      r2,[sp,#0x48]
        0x00001e56:    991f        ..      LDR      r1,[sp,#0x7c]
        0x00001e58:    9b21        !.      LDR      r3,[sp,#0x84]
        0x00001e5a:    48f3        .H      LDR      r0,[pc,#972] ; [0x2228] = 0x200004ec
        0x00001e5c:    901e        ..      STR      r0,[sp,#0x78]
        0x00001e5e:    6800        .h      LDR      r0,[r0,#0]
        0x00001e60:    6a04        .j      LDR      r4,[r0,#0x20]
        0x00001e62:    9000        ..      STR      r0,[sp,#0]
        0x00001e64:    4608        .F      MOV      r0,r1
        0x00001e66:    47a0        .G      BLX      r4
        0x00001e68:    2002        .       MOVS     r0,#2
        0x00001e6a:    901d        ..      STR      r0,[sp,#0x74]
        0x00001e6c:    f7fffbdc    ....    BL       APP_All_Point_High ; 0x1628
        0x00001e70:    981e        ..      LDR      r0,[sp,#0x78]
        0x00001e72:    6800        .h      LDR      r0,[r0,#0]
        0x00001e74:    6901        .i      LDR      r1,[r0,#0x10]
        0x00001e76:    4788        .G      BLX      r1
        0x00001e78:    9a12        ..      LDR      r2,[sp,#0x48]
        0x00001e7a:    991f        ..      LDR      r1,[sp,#0x7c]
        0x00001e7c:    9b21        !.      LDR      r3,[sp,#0x84]
        0x00001e7e:    48eb        .H      LDR      r0,[pc,#940] ; [0x222c] = 0x200004f0
        0x00001e80:    9023        #.      STR      r0,[sp,#0x8c]
        0x00001e82:    6800        .h      LDR      r0,[r0,#0]
        0x00001e84:    6a04        .j      LDR      r4,[r0,#0x20]
        0x00001e86:    9000        ..      STR      r0,[sp,#0]
        0x00001e88:    4608        .F      MOV      r0,r1
        0x00001e8a:    47a0        .G      BLX      r4
        0x00001e8c:    2003        .       MOVS     r0,#3
        0x00001e8e:    9022        ".      STR      r0,[sp,#0x88]
        0x00001e90:    f7fffbca    ....    BL       APP_All_Point_High ; 0x1628
        0x00001e94:    9823        #.      LDR      r0,[sp,#0x8c]
        0x00001e96:    6800        .h      LDR      r0,[r0,#0]
        0x00001e98:    6901        .i      LDR      r1,[r0,#0x10]
        0x00001e9a:    4788        .G      BLX      r1
        0x00001e9c:    48e4        .H      LDR      r0,[pc,#912] ; [0x2230] = 0x30d40
        0x00001e9e:    9024        $.      STR      r0,[sp,#0x90]
        0x00001ea0:    f000fcb2    ....    BL       CLK_SysTickLongDelay ; 0x2808
        0x00001ea4:    981c        ..      LDR      r0,[sp,#0x70]
        0x00001ea6:    991f        ..      LDR      r1,[sp,#0x7c]
        0x00001ea8:    9b21        !.      LDR      r3,[sp,#0x84]
        0x00001eaa:    6800        .h      LDR      r0,[r0,#0]
        0x00001eac:    6a04        .j      LDR      r4,[r0,#0x20]
        0x00001eae:    9000        ..      STR      r0,[sp,#0]
        0x00001eb0:    4ae0        .J      LDR      r2,[pc,#896] ; [0x2234] = 0x7a07
        0x00001eb2:    9213        ..      STR      r2,[sp,#0x4c]
        0x00001eb4:    4608        .F      MOV      r0,r1
        0x00001eb6:    47a0        .G      BLX      r4
        0x00001eb8:    981b        ..      LDR      r0,[sp,#0x6c]
        0x00001eba:    f7fffbb5    ....    BL       APP_All_Point_High ; 0x1628
        0x00001ebe:    981c        ..      LDR      r0,[sp,#0x70]
        0x00001ec0:    6800        .h      LDR      r0,[r0,#0]
        0x00001ec2:    6901        .i      LDR      r1,[r0,#0x10]
        0x00001ec4:    4788        .G      BLX      r1
        0x00001ec6:    9a13        ..      LDR      r2,[sp,#0x4c]
        0x00001ec8:    981e        ..      LDR      r0,[sp,#0x78]
        0x00001eca:    991f        ..      LDR      r1,[sp,#0x7c]
        0x00001ecc:    9b21        !.      LDR      r3,[sp,#0x84]
        0x00001ece:    6800        .h      LDR      r0,[r0,#0]
        0x00001ed0:    6a04        .j      LDR      r4,[r0,#0x20]
        0x00001ed2:    9000        ..      STR      r0,[sp,#0]
        0x00001ed4:    4608        .F      MOV      r0,r1
        0x00001ed6:    47a0        .G      BLX      r4
        0x00001ed8:    981d        ..      LDR      r0,[sp,#0x74]
        0x00001eda:    f7fffba5    ....    BL       APP_All_Point_High ; 0x1628
        0x00001ede:    981e        ..      LDR      r0,[sp,#0x78]
        0x00001ee0:    6800        .h      LDR      r0,[r0,#0]
        0x00001ee2:    6901        .i      LDR      r1,[r0,#0x10]
        0x00001ee4:    4788        .G      BLX      r1
        0x00001ee6:    9a13        ..      LDR      r2,[sp,#0x4c]
        0x00001ee8:    991f        ..      LDR      r1,[sp,#0x7c]
        0x00001eea:    9b21        !.      LDR      r3,[sp,#0x84]
        0x00001eec:    9823        #.      LDR      r0,[sp,#0x8c]
        0x00001eee:    6800        .h      LDR      r0,[r0,#0]
        0x00001ef0:    6a04        .j      LDR      r4,[r0,#0x20]
        0x00001ef2:    9000        ..      STR      r0,[sp,#0]
        0x00001ef4:    4608        .F      MOV      r0,r1
        0x00001ef6:    47a0        .G      BLX      r4
        0x00001ef8:    9822        ".      LDR      r0,[sp,#0x88]
        0x00001efa:    f7fffb95    ....    BL       APP_All_Point_High ; 0x1628
        0x00001efe:    9823        #.      LDR      r0,[sp,#0x8c]
        0x00001f00:    6800        .h      LDR      r0,[r0,#0]
        0x00001f02:    6901        .i      LDR      r1,[r0,#0x10]
        0x00001f04:    4788        .G      BLX      r1
        0x00001f06:    9824        $.      LDR      r0,[sp,#0x90]
        0x00001f08:    f000fc7e    ..~.    BL       CLK_SysTickLongDelay ; 0x2808
        0x00001f0c:    981c        ..      LDR      r0,[sp,#0x70]
        0x00001f0e:    991f        ..      LDR      r1,[sp,#0x7c]
        0x00001f10:    9b21        !.      LDR      r3,[sp,#0x84]
        0x00001f12:    6800        .h      LDR      r0,[r0,#0]
        0x00001f14:    6a04        .j      LDR      r4,[r0,#0x20]
        0x00001f16:    9000        ..      STR      r0,[sp,#0]
        0x00001f18:    4ac7        .J      LDR      r2,[pc,#796] ; [0x2238] = 0x7a00
        0x00001f1a:    9214        ..      STR      r2,[sp,#0x50]
        0x00001f1c:    4608        .F      MOV      r0,r1
        0x00001f1e:    47a0        .G      BLX      r4
        0x00001f20:    981b        ..      LDR      r0,[sp,#0x6c]
        0x00001f22:    f7fffb81    ....    BL       APP_All_Point_High ; 0x1628
        0x00001f26:    981c        ..      LDR      r0,[sp,#0x70]
        0x00001f28:    6800        .h      LDR      r0,[r0,#0]
        0x00001f2a:    6901        .i      LDR      r1,[r0,#0x10]
        0x00001f2c:    4788        .G      BLX      r1
        0x00001f2e:    9a14        ..      LDR      r2,[sp,#0x50]
        0x00001f30:    981e        ..      LDR      r0,[sp,#0x78]
        0x00001f32:    991f        ..      LDR      r1,[sp,#0x7c]
        0x00001f34:    9b21        !.      LDR      r3,[sp,#0x84]
        0x00001f36:    6800        .h      LDR      r0,[r0,#0]
        0x00001f38:    6a04        .j      LDR      r4,[r0,#0x20]
        0x00001f3a:    9000        ..      STR      r0,[sp,#0]
        0x00001f3c:    4608        .F      MOV      r0,r1
        0x00001f3e:    47a0        .G      BLX      r4
        0x00001f40:    981d        ..      LDR      r0,[sp,#0x74]
        0x00001f42:    f7fffb71    ..q.    BL       APP_All_Point_High ; 0x1628
        0x00001f46:    981e        ..      LDR      r0,[sp,#0x78]
        0x00001f48:    6800        .h      LDR      r0,[r0,#0]
        0x00001f4a:    6901        .i      LDR      r1,[r0,#0x10]
        0x00001f4c:    4788        .G      BLX      r1
        0x00001f4e:    9a14        ..      LDR      r2,[sp,#0x50]
        0x00001f50:    991f        ..      LDR      r1,[sp,#0x7c]
        0x00001f52:    9b21        !.      LDR      r3,[sp,#0x84]
        0x00001f54:    9823        #.      LDR      r0,[sp,#0x8c]
        0x00001f56:    6800        .h      LDR      r0,[r0,#0]
        0x00001f58:    6a04        .j      LDR      r4,[r0,#0x20]
        0x00001f5a:    9000        ..      STR      r0,[sp,#0]
        0x00001f5c:    4608        .F      MOV      r0,r1
        0x00001f5e:    47a0        .G      BLX      r4
        0x00001f60:    9822        ".      LDR      r0,[sp,#0x88]
        0x00001f62:    f7fffb61    ..a.    BL       APP_All_Point_High ; 0x1628
        0x00001f66:    9823        #.      LDR      r0,[sp,#0x8c]
        0x00001f68:    6800        .h      LDR      r0,[r0,#0]
        0x00001f6a:    6901        .i      LDR      r1,[r0,#0x10]
        0x00001f6c:    4788        .G      BLX      r1
        0x00001f6e:    9824        $.      LDR      r0,[sp,#0x90]
        0x00001f70:    f000fc4a    ..J.    BL       CLK_SysTickLongDelay ; 0x2808
        0x00001f74:    981c        ..      LDR      r0,[sp,#0x70]
        0x00001f76:    991f        ..      LDR      r1,[sp,#0x7c]
        0x00001f78:    9b21        !.      LDR      r3,[sp,#0x84]
        0x00001f7a:    6800        .h      LDR      r0,[r0,#0]
        0x00001f7c:    6a04        .j      LDR      r4,[r0,#0x20]
        0x00001f7e:    9000        ..      STR      r0,[sp,#0]
        0x00001f80:    4aae        .J      LDR      r2,[pc,#696] ; [0x223c] = 0x79f9
        0x00001f82:    9215        ..      STR      r2,[sp,#0x54]
        0x00001f84:    4608        .F      MOV      r0,r1
        0x00001f86:    47a0        .G      BLX      r4
        0x00001f88:    981b        ..      LDR      r0,[sp,#0x6c]
        0x00001f8a:    f7fffb4d    ..M.    BL       APP_All_Point_High ; 0x1628
        0x00001f8e:    981c        ..      LDR      r0,[sp,#0x70]
        0x00001f90:    6800        .h      LDR      r0,[r0,#0]
        0x00001f92:    6901        .i      LDR      r1,[r0,#0x10]
        0x00001f94:    4788        .G      BLX      r1
        0x00001f96:    9a15        ..      LDR      r2,[sp,#0x54]
        0x00001f98:    981e        ..      LDR      r0,[sp,#0x78]
        0x00001f9a:    991f        ..      LDR      r1,[sp,#0x7c]
        0x00001f9c:    9b21        !.      LDR      r3,[sp,#0x84]
        0x00001f9e:    6800        .h      LDR      r0,[r0,#0]
        0x00001fa0:    6a04        .j      LDR      r4,[r0,#0x20]
        0x00001fa2:    9000        ..      STR      r0,[sp,#0]
        0x00001fa4:    4608        .F      MOV      r0,r1
        0x00001fa6:    47a0        .G      BLX      r4
        0x00001fa8:    981d        ..      LDR      r0,[sp,#0x74]
        0x00001faa:    f7fffb3d    ..=.    BL       APP_All_Point_High ; 0x1628
        0x00001fae:    981e        ..      LDR      r0,[sp,#0x78]
        0x00001fb0:    6800        .h      LDR      r0,[r0,#0]
        0x00001fb2:    6901        .i      LDR      r1,[r0,#0x10]
        0x00001fb4:    4788        .G      BLX      r1
        0x00001fb6:    9a15        ..      LDR      r2,[sp,#0x54]
        0x00001fb8:    991f        ..      LDR      r1,[sp,#0x7c]
        0x00001fba:    9b21        !.      LDR      r3,[sp,#0x84]
        0x00001fbc:    9823        #.      LDR      r0,[sp,#0x8c]
        0x00001fbe:    6800        .h      LDR      r0,[r0,#0]
        0x00001fc0:    6a04        .j      LDR      r4,[r0,#0x20]
        0x00001fc2:    9000        ..      STR      r0,[sp,#0]
        0x00001fc4:    4608        .F      MOV      r0,r1
        0x00001fc6:    47a0        .G      BLX      r4
        0x00001fc8:    9822        ".      LDR      r0,[sp,#0x88]
        0x00001fca:    f7fffb2d    ..-.    BL       APP_All_Point_High ; 0x1628
        0x00001fce:    9823        #.      LDR      r0,[sp,#0x8c]
        0x00001fd0:    6800        .h      LDR      r0,[r0,#0]
        0x00001fd2:    6901        .i      LDR      r1,[r0,#0x10]
        0x00001fd4:    4788        .G      BLX      r1
        0x00001fd6:    9824        $.      LDR      r0,[sp,#0x90]
        0x00001fd8:    f000fc16    ....    BL       CLK_SysTickLongDelay ; 0x2808
        0x00001fdc:    981c        ..      LDR      r0,[sp,#0x70]
        0x00001fde:    991f        ..      LDR      r1,[sp,#0x7c]
        0x00001fe0:    9b21        !.      LDR      r3,[sp,#0x84]
        0x00001fe2:    6800        .h      LDR      r0,[r0,#0]
        0x00001fe4:    6a04        .j      LDR      r4,[r0,#0x20]
        0x00001fe6:    9000        ..      STR      r0,[sp,#0]
        0x00001fe8:    4a95        .J      LDR      r2,[pc,#596] ; [0x2240] = 0x79f2
        0x00001fea:    9216        ..      STR      r2,[sp,#0x58]
        0x00001fec:    4608        .F      MOV      r0,r1
        0x00001fee:    47a0        .G      BLX      r4
        0x00001ff0:    981b        ..      LDR      r0,[sp,#0x6c]
        0x00001ff2:    f7fffb19    ....    BL       APP_All_Point_High ; 0x1628
        0x00001ff6:    981c        ..      LDR      r0,[sp,#0x70]
        0x00001ff8:    6800        .h      LDR      r0,[r0,#0]
        0x00001ffa:    6901        .i      LDR      r1,[r0,#0x10]
        0x00001ffc:    4788        .G      BLX      r1
        0x00001ffe:    9a16        ..      LDR      r2,[sp,#0x58]
        0x00002000:    981e        ..      LDR      r0,[sp,#0x78]
        0x00002002:    991f        ..      LDR      r1,[sp,#0x7c]
        0x00002004:    9b21        !.      LDR      r3,[sp,#0x84]
        0x00002006:    6800        .h      LDR      r0,[r0,#0]
        0x00002008:    6a04        .j      LDR      r4,[r0,#0x20]
        0x0000200a:    9000        ..      STR      r0,[sp,#0]
        0x0000200c:    4608        .F      MOV      r0,r1
        0x0000200e:    47a0        .G      BLX      r4
        0x00002010:    981d        ..      LDR      r0,[sp,#0x74]
        0x00002012:    f7fffb09    ....    BL       APP_All_Point_High ; 0x1628
        0x00002016:    981e        ..      LDR      r0,[sp,#0x78]
        0x00002018:    6800        .h      LDR      r0,[r0,#0]
        0x0000201a:    6901        .i      LDR      r1,[r0,#0x10]
        0x0000201c:    4788        .G      BLX      r1
        0x0000201e:    9a16        ..      LDR      r2,[sp,#0x58]
        0x00002020:    991f        ..      LDR      r1,[sp,#0x7c]
        0x00002022:    9b21        !.      LDR      r3,[sp,#0x84]
        0x00002024:    9823        #.      LDR      r0,[sp,#0x8c]
        0x00002026:    6800        .h      LDR      r0,[r0,#0]
        0x00002028:    6a04        .j      LDR      r4,[r0,#0x20]
        0x0000202a:    9000        ..      STR      r0,[sp,#0]
        0x0000202c:    4608        .F      MOV      r0,r1
        0x0000202e:    47a0        .G      BLX      r4
        0x00002030:    9822        ".      LDR      r0,[sp,#0x88]
        0x00002032:    f7fffaf9    ....    BL       APP_All_Point_High ; 0x1628
        0x00002036:    9823        #.      LDR      r0,[sp,#0x8c]
        0x00002038:    6800        .h      LDR      r0,[r0,#0]
        0x0000203a:    6901        .i      LDR      r1,[r0,#0x10]
        0x0000203c:    4788        .G      BLX      r1
        0x0000203e:    9824        $.      LDR      r0,[sp,#0x90]
        0x00002040:    f000fbe2    ....    BL       CLK_SysTickLongDelay ; 0x2808
        0x00002044:    981c        ..      LDR      r0,[sp,#0x70]
        0x00002046:    991f        ..      LDR      r1,[sp,#0x7c]
        0x00002048:    9b21        !.      LDR      r3,[sp,#0x84]
        0x0000204a:    6800        .h      LDR      r0,[r0,#0]
        0x0000204c:    6a04        .j      LDR      r4,[r0,#0x20]
        0x0000204e:    9000        ..      STR      r0,[sp,#0]
        0x00002050:    4afb        .J      LDR      r2,[pc,#1004] ; [0x2440] = 0x79eb
        0x00002052:    9217        ..      STR      r2,[sp,#0x5c]
        0x00002054:    4608        .F      MOV      r0,r1
        0x00002056:    47a0        .G      BLX      r4
        0x00002058:    981b        ..      LDR      r0,[sp,#0x6c]
        0x0000205a:    f7fffae5    ....    BL       APP_All_Point_High ; 0x1628
        0x0000205e:    981c        ..      LDR      r0,[sp,#0x70]
        0x00002060:    6800        .h      LDR      r0,[r0,#0]
        0x00002062:    6901        .i      LDR      r1,[r0,#0x10]
        0x00002064:    4788        .G      BLX      r1
        0x00002066:    9a17        ..      LDR      r2,[sp,#0x5c]
        0x00002068:    981e        ..      LDR      r0,[sp,#0x78]
        0x0000206a:    991f        ..      LDR      r1,[sp,#0x7c]
        0x0000206c:    9b21        !.      LDR      r3,[sp,#0x84]
        0x0000206e:    6800        .h      LDR      r0,[r0,#0]
        0x00002070:    6a04        .j      LDR      r4,[r0,#0x20]
        0x00002072:    9000        ..      STR      r0,[sp,#0]
        0x00002074:    4608        .F      MOV      r0,r1
        0x00002076:    47a0        .G      BLX      r4
        0x00002078:    981d        ..      LDR      r0,[sp,#0x74]
        0x0000207a:    f7fffad5    ....    BL       APP_All_Point_High ; 0x1628
        0x0000207e:    981e        ..      LDR      r0,[sp,#0x78]
        0x00002080:    6800        .h      LDR      r0,[r0,#0]
        0x00002082:    6901        .i      LDR      r1,[r0,#0x10]
        0x00002084:    4788        .G      BLX      r1
        0x00002086:    9a17        ..      LDR      r2,[sp,#0x5c]
        0x00002088:    991f        ..      LDR      r1,[sp,#0x7c]
        0x0000208a:    9b21        !.      LDR      r3,[sp,#0x84]
        0x0000208c:    9823        #.      LDR      r0,[sp,#0x8c]
        0x0000208e:    6800        .h      LDR      r0,[r0,#0]
        0x00002090:    6a04        .j      LDR      r4,[r0,#0x20]
        0x00002092:    9000        ..      STR      r0,[sp,#0]
        0x00002094:    4608        .F      MOV      r0,r1
        0x00002096:    47a0        .G      BLX      r4
        0x00002098:    9822        ".      LDR      r0,[sp,#0x88]
        0x0000209a:    f7fffac5    ....    BL       APP_All_Point_High ; 0x1628
        0x0000209e:    9823        #.      LDR      r0,[sp,#0x8c]
        0x000020a0:    6800        .h      LDR      r0,[r0,#0]
        0x000020a2:    6901        .i      LDR      r1,[r0,#0x10]
        0x000020a4:    4788        .G      BLX      r1
        0x000020a6:    9824        $.      LDR      r0,[sp,#0x90]
        0x000020a8:    f000fbae    ....    BL       CLK_SysTickLongDelay ; 0x2808
        0x000020ac:    981c        ..      LDR      r0,[sp,#0x70]
        0x000020ae:    991f        ..      LDR      r1,[sp,#0x7c]
        0x000020b0:    9b21        !.      LDR      r3,[sp,#0x84]
        0x000020b2:    6800        .h      LDR      r0,[r0,#0]
        0x000020b4:    6a04        .j      LDR      r4,[r0,#0x20]
        0x000020b6:    9000        ..      STR      r0,[sp,#0]
        0x000020b8:    4ae2        .J      LDR      r2,[pc,#904] ; [0x2444] = 0x79e4
        0x000020ba:    9218        ..      STR      r2,[sp,#0x60]
        0x000020bc:    4608        .F      MOV      r0,r1
        0x000020be:    47a0        .G      BLX      r4
        0x000020c0:    981b        ..      LDR      r0,[sp,#0x6c]
        0x000020c2:    f7fffab1    ....    BL       APP_All_Point_High ; 0x1628
        0x000020c6:    981c        ..      LDR      r0,[sp,#0x70]
        0x000020c8:    6800        .h      LDR      r0,[r0,#0]
        0x000020ca:    6901        .i      LDR      r1,[r0,#0x10]
        0x000020cc:    4788        .G      BLX      r1
        0x000020ce:    9a18        ..      LDR      r2,[sp,#0x60]
        0x000020d0:    981e        ..      LDR      r0,[sp,#0x78]
        0x000020d2:    991f        ..      LDR      r1,[sp,#0x7c]
        0x000020d4:    9b21        !.      LDR      r3,[sp,#0x84]
        0x000020d6:    6800        .h      LDR      r0,[r0,#0]
        0x000020d8:    6a04        .j      LDR      r4,[r0,#0x20]
        0x000020da:    9000        ..      STR      r0,[sp,#0]
        0x000020dc:    4608        .F      MOV      r0,r1
        0x000020de:    47a0        .G      BLX      r4
        0x000020e0:    981d        ..      LDR      r0,[sp,#0x74]
        0x000020e2:    f7fffaa1    ....    BL       APP_All_Point_High ; 0x1628
        0x000020e6:    981e        ..      LDR      r0,[sp,#0x78]
        0x000020e8:    6800        .h      LDR      r0,[r0,#0]
        0x000020ea:    6901        .i      LDR      r1,[r0,#0x10]
        0x000020ec:    4788        .G      BLX      r1
        0x000020ee:    9a18        ..      LDR      r2,[sp,#0x60]
        0x000020f0:    991f        ..      LDR      r1,[sp,#0x7c]
        0x000020f2:    9b21        !.      LDR      r3,[sp,#0x84]
        0x000020f4:    9823        #.      LDR      r0,[sp,#0x8c]
        0x000020f6:    6800        .h      LDR      r0,[r0,#0]
        0x000020f8:    6a04        .j      LDR      r4,[r0,#0x20]
        0x000020fa:    9000        ..      STR      r0,[sp,#0]
        0x000020fc:    4608        .F      MOV      r0,r1
        0x000020fe:    47a0        .G      BLX      r4
        0x00002100:    9822        ".      LDR      r0,[sp,#0x88]
        0x00002102:    f7fffa91    ....    BL       APP_All_Point_High ; 0x1628
        0x00002106:    9823        #.      LDR      r0,[sp,#0x8c]
        0x00002108:    6800        .h      LDR      r0,[r0,#0]
        0x0000210a:    6901        .i      LDR      r1,[r0,#0x10]
        0x0000210c:    4788        .G      BLX      r1
        0x0000210e:    9824        $.      LDR      r0,[sp,#0x90]
        0x00002110:    f000fb7a    ..z.    BL       CLK_SysTickLongDelay ; 0x2808
        0x00002114:    981c        ..      LDR      r0,[sp,#0x70]
        0x00002116:    991f        ..      LDR      r1,[sp,#0x7c]
        0x00002118:    9b21        !.      LDR      r3,[sp,#0x84]
        0x0000211a:    6800        .h      LDR      r0,[r0,#0]
        0x0000211c:    6a04        .j      LDR      r4,[r0,#0x20]
        0x0000211e:    9000        ..      STR      r0,[sp,#0]
        0x00002120:    4ac9        .J      LDR      r2,[pc,#804] ; [0x2448] = 0x79dd
        0x00002122:    9219        ..      STR      r2,[sp,#0x64]
        0x00002124:    4608        .F      MOV      r0,r1
        0x00002126:    47a0        .G      BLX      r4
        0x00002128:    981b        ..      LDR      r0,[sp,#0x6c]
        0x0000212a:    f7fffa7d    ..}.    BL       APP_All_Point_High ; 0x1628
        0x0000212e:    981c        ..      LDR      r0,[sp,#0x70]
        0x00002130:    6800        .h      LDR      r0,[r0,#0]
        0x00002132:    6901        .i      LDR      r1,[r0,#0x10]
        0x00002134:    4788        .G      BLX      r1
        0x00002136:    9a19        ..      LDR      r2,[sp,#0x64]
        0x00002138:    981e        ..      LDR      r0,[sp,#0x78]
        0x0000213a:    991f        ..      LDR      r1,[sp,#0x7c]
        0x0000213c:    9b21        !.      LDR      r3,[sp,#0x84]
        0x0000213e:    6800        .h      LDR      r0,[r0,#0]
        0x00002140:    6a04        .j      LDR      r4,[r0,#0x20]
        0x00002142:    9000        ..      STR      r0,[sp,#0]
        0x00002144:    4608        .F      MOV      r0,r1
        0x00002146:    47a0        .G      BLX      r4
        0x00002148:    981d        ..      LDR      r0,[sp,#0x74]
        0x0000214a:    f7fffa6d    ..m.    BL       APP_All_Point_High ; 0x1628
        0x0000214e:    981e        ..      LDR      r0,[sp,#0x78]
        0x00002150:    6800        .h      LDR      r0,[r0,#0]
        0x00002152:    6901        .i      LDR      r1,[r0,#0x10]
        0x00002154:    4788        .G      BLX      r1
        0x00002156:    9a19        ..      LDR      r2,[sp,#0x64]
        0x00002158:    991f        ..      LDR      r1,[sp,#0x7c]
        0x0000215a:    9b21        !.      LDR      r3,[sp,#0x84]
        0x0000215c:    9823        #.      LDR      r0,[sp,#0x8c]
        0x0000215e:    6800        .h      LDR      r0,[r0,#0]
        0x00002160:    6a04        .j      LDR      r4,[r0,#0x20]
        0x00002162:    9000        ..      STR      r0,[sp,#0]
        0x00002164:    4608        .F      MOV      r0,r1
        0x00002166:    47a0        .G      BLX      r4
        0x00002168:    9822        ".      LDR      r0,[sp,#0x88]
        0x0000216a:    f7fffa5d    ..].    BL       APP_All_Point_High ; 0x1628
        0x0000216e:    9823        #.      LDR      r0,[sp,#0x8c]
        0x00002170:    6800        .h      LDR      r0,[r0,#0]
        0x00002172:    6901        .i      LDR      r1,[r0,#0x10]
        0x00002174:    4788        .G      BLX      r1
        0x00002176:    9824        $.      LDR      r0,[sp,#0x90]
        0x00002178:    f000fb46    ..F.    BL       CLK_SysTickLongDelay ; 0x2808
        0x0000217c:    981c        ..      LDR      r0,[sp,#0x70]
        0x0000217e:    991f        ..      LDR      r1,[sp,#0x7c]
        0x00002180:    9b21        !.      LDR      r3,[sp,#0x84]
        0x00002182:    6800        .h      LDR      r0,[r0,#0]
        0x00002184:    6a04        .j      LDR      r4,[r0,#0x20]
        0x00002186:    9000        ..      STR      r0,[sp,#0]
        0x00002188:    4ab0        .J      LDR      r2,[pc,#704] ; [0x244c] = 0x79d6
        0x0000218a:    921a        ..      STR      r2,[sp,#0x68]
        0x0000218c:    4608        .F      MOV      r0,r1
        0x0000218e:    47a0        .G      BLX      r4
        0x00002190:    981b        ..      LDR      r0,[sp,#0x6c]
        0x00002192:    f7fffa49    ..I.    BL       APP_All_Point_High ; 0x1628
        0x00002196:    981c        ..      LDR      r0,[sp,#0x70]
        0x00002198:    6800        .h      LDR      r0,[r0,#0]
        0x0000219a:    6901        .i      LDR      r1,[r0,#0x10]
        0x0000219c:    4788        .G      BLX      r1
        0x0000219e:    9a1a        ..      LDR      r2,[sp,#0x68]
        0x000021a0:    981e        ..      LDR      r0,[sp,#0x78]
        0x000021a2:    991f        ..      LDR      r1,[sp,#0x7c]
        0x000021a4:    9b21        !.      LDR      r3,[sp,#0x84]
        0x000021a6:    6800        .h      LDR      r0,[r0,#0]
        0x000021a8:    6a04        .j      LDR      r4,[r0,#0x20]
        0x000021aa:    9000        ..      STR      r0,[sp,#0]
        0x000021ac:    4608        .F      MOV      r0,r1
        0x000021ae:    47a0        .G      BLX      r4
        0x000021b0:    981d        ..      LDR      r0,[sp,#0x74]
        0x000021b2:    f7fffa39    ..9.    BL       APP_All_Point_High ; 0x1628
        0x000021b6:    981e        ..      LDR      r0,[sp,#0x78]
        0x000021b8:    6800        .h      LDR      r0,[r0,#0]
        0x000021ba:    6901        .i      LDR      r1,[r0,#0x10]
        0x000021bc:    4788        .G      BLX      r1
        0x000021be:    9a1a        ..      LDR      r2,[sp,#0x68]
        0x000021c0:    991f        ..      LDR      r1,[sp,#0x7c]
        0x000021c2:    9b21        !.      LDR      r3,[sp,#0x84]
        0x000021c4:    9823        #.      LDR      r0,[sp,#0x8c]
        0x000021c6:    6800        .h      LDR      r0,[r0,#0]
        0x000021c8:    6a04        .j      LDR      r4,[r0,#0x20]
        0x000021ca:    9000        ..      STR      r0,[sp,#0]
        0x000021cc:    4608        .F      MOV      r0,r1
        0x000021ce:    47a0        .G      BLX      r4
        0x000021d0:    9822        ".      LDR      r0,[sp,#0x88]
        0x000021d2:    f7fffa29    ..).    BL       APP_All_Point_High ; 0x1628
        0x000021d6:    9823        #.      LDR      r0,[sp,#0x8c]
        0x000021d8:    6800        .h      LDR      r0,[r0,#0]
        0x000021da:    6901        .i      LDR      r1,[r0,#0x10]
        0x000021dc:    4788        .G      BLX      r1
        0x000021de:    9824        $.      LDR      r0,[sp,#0x90]
        0x000021e0:    f000fb12    ....    BL       CLK_SysTickLongDelay ; 0x2808
        0x000021e4:    981c        ..      LDR      r0,[sp,#0x70]
        0x000021e6:    991f        ..      LDR      r1,[sp,#0x7c]
        0x000021e8:    9b21        !.      LDR      r3,[sp,#0x84]
        0x000021ea:    6800        .h      LDR      r0,[r0,#0]
        0x000021ec:    6a04        .j      LDR      r4,[r0,#0x20]
        0x000021ee:    9000        ..      STR      r0,[sp,#0]
        0x000021f0:    4a97        .J      LDR      r2,[pc,#604] ; [0x2450] = 0x79cf
        0x000021f2:    9220         .      STR      r2,[sp,#0x80]
        0x000021f4:    4608        .F      MOV      r0,r1
        0x000021f6:    47a0        .G      BLX      r4
        0x000021f8:    981b        ..      LDR      r0,[sp,#0x6c]
        0x000021fa:    f7fffa15    ....    BL       APP_All_Point_High ; 0x1628
        0x000021fe:    981c        ..      LDR      r0,[sp,#0x70]
        0x00002200:    6800        .h      LDR      r0,[r0,#0]
        0x00002202:    6901        .i      LDR      r1,[r0,#0x10]
        0x00002204:    4788        .G      BLX      r1
        0x00002206:    981e        ..      LDR      r0,[sp,#0x78]
        0x00002208:    991f        ..      LDR      r1,[sp,#0x7c]
        0x0000220a:    9a20         .      LDR      r2,[sp,#0x80]
        0x0000220c:    9b21        !.      LDR      r3,[sp,#0x84]
        0x0000220e:    6800        .h      LDR      r0,[r0,#0]
        0x00002210:    6a04        .j      LDR      r4,[r0,#0x20]
        0x00002212:    9000        ..      STR      r0,[sp,#0]
        0x00002214:    4608        .F      MOV      r0,r1
        0x00002216:    47a0        .G      BLX      r4
        0x00002218:    981d        ..      LDR      r0,[sp,#0x74]
        0x0000221a:    e013        ..      B        0x2244 ; 0x2244
    $d.35
        0x0000221c:    200004e8    ...     DCD    536872168
    __arm_cp.18_23
        0x00002220:    00007a0e    .z..    DCD    31246
        0x00002224:    20000018    ...     DCD    536870936
        0x00002228:    200004ec    ...     DCD    536872172
        0x0000222c:    200004f0    ...     DCD    536872176
    __arm_cp.18_27
        0x00002230:    00030d40    @...    DCD    200000
    __arm_cp.18_28
        0x00002234:    00007a07    .z..    DCD    31239
    __arm_cp.18_29
        0x00002238:    00007a00    .z..    DCD    31232
    __arm_cp.18_30
        0x0000223c:    000079f9    .y..    DCD    31225
    __arm_cp.18_31
        0x00002240:    000079f2    .y..    DCD    31218
    $t.36
        0x00002244:    f7fff9f0    ....    BL       APP_All_Point_High ; 0x1628
        0x00002248:    981e        ..      LDR      r0,[sp,#0x78]
        0x0000224a:    6800        .h      LDR      r0,[r0,#0]
        0x0000224c:    6901        .i      LDR      r1,[r0,#0x10]
        0x0000224e:    4788        .G      BLX      r1
        0x00002250:    991f        ..      LDR      r1,[sp,#0x7c]
        0x00002252:    9a20         .      LDR      r2,[sp,#0x80]
        0x00002254:    9b21        !.      LDR      r3,[sp,#0x84]
        0x00002256:    9823        #.      LDR      r0,[sp,#0x8c]
        0x00002258:    6800        .h      LDR      r0,[r0,#0]
        0x0000225a:    6a04        .j      LDR      r4,[r0,#0x20]
        0x0000225c:    9000        ..      STR      r0,[sp,#0]
        0x0000225e:    4608        .F      MOV      r0,r1
        0x00002260:    47a0        .G      BLX      r4
        0x00002262:    9822        ".      LDR      r0,[sp,#0x88]
        0x00002264:    f7fff9e0    ....    BL       APP_All_Point_High ; 0x1628
        0x00002268:    9823        #.      LDR      r0,[sp,#0x8c]
        0x0000226a:    6800        .h      LDR      r0,[r0,#0]
        0x0000226c:    6901        .i      LDR      r1,[r0,#0x10]
        0x0000226e:    4788        .G      BLX      r1
        0x00002270:    9824        $.      LDR      r0,[sp,#0x90]
        0x00002272:    f000fac9    ....    BL       CLK_SysTickLongDelay ; 0x2808
        0x00002276:    9828        (.      LDR      r0,[sp,#0xa0]
        0x00002278:    7a80        .z      LDRB     r0,[r0,#0xa]
        0x0000227a:    9025        %.      STR      r0,[sp,#0x94]
        0x0000227c:    2804        .(      CMP      r0,#4
        0x0000227e:    d900        ..      BLS      0x2282 ; 0x2282
        0x00002280:    e0ac        ..      B        0x23dc ; 0x23dc
        0x00002282:    9925        %.      LDR      r1,[sp,#0x94]
        0x00002284:    008a        ..      LSLS     r2,r1,#2
        0x00002286:    a001        ..      ADR      r0,{pc}+6 ; 0x228c
        0x00002288:    1880        ..      ADDS     r0,r0,r2
        0x0000228a:    4687        .F      MOV      pc,r0
        0x0000228c:    f000b808    ....    B.W      0x22a0 ; 0x22a0
        0x00002290:    f000b825    ..%.    B.W      0x22de ; 0x22de
        0x00002294:    f000b845    ..E.    B.W      0x2322 ; 0x2322
        0x00002298:    f000b862    ..b.    B.W      0x2360 ; 0x2360
        0x0000229c:    f000b87f    ....    B.W      0x239e ; 0x239e
        0x000022a0:    4863        cH      LDR      r0,[pc,#396] ; [0x2430] = 0x200004e8
        0x000022a2:    6800        .h      LDR      r0,[r0,#0]
        0x000022a4:    6a04        .j      LDR      r4,[r0,#0x20]
        0x000022a6:    9000        ..      STR      r0,[sp,#0]
        0x000022a8:    4a6e        nJ      LDR      r2,[pc,#440] ; [0x2464] = 0x79a8
        0x000022aa:    9210        ..      STR      r2,[sp,#0x40]
        0x000022ac:    4b61        aK      LDR      r3,[pc,#388] ; [0x2434] = 0x20000018
        0x000022ae:    9311        ..      STR      r3,[sp,#0x44]
        0x000022b0:    2100        .!      MOVS     r1,#0
        0x000022b2:    910f        ..      STR      r1,[sp,#0x3c]
        0x000022b4:    4608        .F      MOV      r0,r1
        0x000022b6:    47a0        .G      BLX      r4
        0x000022b8:    990f        ..      LDR      r1,[sp,#0x3c]
        0x000022ba:    9a10        ..      LDR      r2,[sp,#0x40]
        0x000022bc:    9b11        ..      LDR      r3,[sp,#0x44]
        0x000022be:    485e        ^H      LDR      r0,[pc,#376] ; [0x2438] = 0x200004ec
        0x000022c0:    6800        .h      LDR      r0,[r0,#0]
        0x000022c2:    6a04        .j      LDR      r4,[r0,#0x20]
        0x000022c4:    9000        ..      STR      r0,[sp,#0]
        0x000022c6:    4608        .F      MOV      r0,r1
        0x000022c8:    47a0        .G      BLX      r4
        0x000022ca:    990f        ..      LDR      r1,[sp,#0x3c]
        0x000022cc:    9a10        ..      LDR      r2,[sp,#0x40]
        0x000022ce:    9b11        ..      LDR      r3,[sp,#0x44]
        0x000022d0:    485a        ZH      LDR      r0,[pc,#360] ; [0x243c] = 0x200004f0
        0x000022d2:    6800        .h      LDR      r0,[r0,#0]
        0x000022d4:    6a04        .j      LDR      r4,[r0,#0x20]
        0x000022d6:    9000        ..      STR      r0,[sp,#0]
        0x000022d8:    4608        .F      MOV      r0,r1
        0x000022da:    47a0        .G      BLX      r4
        0x000022dc:    e07e        ~.      B        0x23dc ; 0x23dc
        0x000022de:    4856        VH      LDR      r0,[pc,#344] ; [0x2438] = 0x200004ec
        0x000022e0:    900b        ..      STR      r0,[sp,#0x2c]
        0x000022e2:    6800        .h      LDR      r0,[r0,#0]
        0x000022e4:    6a04        .j      LDR      r4,[r0,#0x20]
        0x000022e6:    4852        RH      LDR      r0,[pc,#328] ; [0x2430] = 0x200004e8
        0x000022e8:    6800        .h      LDR      r0,[r0,#0]
        0x000022ea:    9000        ..      STR      r0,[sp,#0]
        0x000022ec:    4a5c        \J      LDR      r2,[pc,#368] ; [0x2460] = 0x79af
        0x000022ee:    920d        ..      STR      r2,[sp,#0x34]
        0x000022f0:    4b50        PK      LDR      r3,[pc,#320] ; [0x2434] = 0x20000018
        0x000022f2:    930e        ..      STR      r3,[sp,#0x38]
        0x000022f4:    2100        .!      MOVS     r1,#0
        0x000022f6:    910c        ..      STR      r1,[sp,#0x30]
        0x000022f8:    4608        .F      MOV      r0,r1
        0x000022fa:    47a0        .G      BLX      r4
        0x000022fc:    980b        ..      LDR      r0,[sp,#0x2c]
        0x000022fe:    990c        ..      LDR      r1,[sp,#0x30]
        0x00002300:    9a0d        ..      LDR      r2,[sp,#0x34]
        0x00002302:    9b0e        ..      LDR      r3,[sp,#0x38]
        0x00002304:    6800        .h      LDR      r0,[r0,#0]
        0x00002306:    6a04        .j      LDR      r4,[r0,#0x20]
        0x00002308:    9000        ..      STR      r0,[sp,#0]
        0x0000230a:    4608        .F      MOV      r0,r1
        0x0000230c:    47a0        .G      BLX      r4
        0x0000230e:    990c        ..      LDR      r1,[sp,#0x30]
        0x00002310:    9a0d        ..      LDR      r2,[sp,#0x34]
        0x00002312:    9b0e        ..      LDR      r3,[sp,#0x38]
        0x00002314:    4849        IH      LDR      r0,[pc,#292] ; [0x243c] = 0x200004f0
        0x00002316:    6800        .h      LDR      r0,[r0,#0]
        0x00002318:    6a04        .j      LDR      r4,[r0,#0x20]
        0x0000231a:    9000        ..      STR      r0,[sp,#0]
        0x0000231c:    4608        .F      MOV      r0,r1
        0x0000231e:    47a0        .G      BLX      r4
        0x00002320:    e05c        \.      B        0x23dc ; 0x23dc
        0x00002322:    4843        CH      LDR      r0,[pc,#268] ; [0x2430] = 0x200004e8
        0x00002324:    6800        .h      LDR      r0,[r0,#0]
        0x00002326:    6a04        .j      LDR      r4,[r0,#0x20]
        0x00002328:    9000        ..      STR      r0,[sp,#0]
        0x0000232a:    4a4c        LJ      LDR      r2,[pc,#304] ; [0x245c] = 0x79b7
        0x0000232c:    9209        ..      STR      r2,[sp,#0x24]
        0x0000232e:    4b41        AK      LDR      r3,[pc,#260] ; [0x2434] = 0x20000018
        0x00002330:    930a        ..      STR      r3,[sp,#0x28]
        0x00002332:    2100        .!      MOVS     r1,#0
        0x00002334:    9108        ..      STR      r1,[sp,#0x20]
        0x00002336:    4608        .F      MOV      r0,r1
        0x00002338:    47a0        .G      BLX      r4
        0x0000233a:    9908        ..      LDR      r1,[sp,#0x20]
        0x0000233c:    9a09        ..      LDR      r2,[sp,#0x24]
        0x0000233e:    9b0a        ..      LDR      r3,[sp,#0x28]
        0x00002340:    483d        =H      LDR      r0,[pc,#244] ; [0x2438] = 0x200004ec
        0x00002342:    6800        .h      LDR      r0,[r0,#0]
        0x00002344:    6a04        .j      LDR      r4,[r0,#0x20]
        0x00002346:    9000        ..      STR      r0,[sp,#0]
        0x00002348:    4608        .F      MOV      r0,r1
        0x0000234a:    47a0        .G      BLX      r4
        0x0000234c:    9908        ..      LDR      r1,[sp,#0x20]
        0x0000234e:    9a09        ..      LDR      r2,[sp,#0x24]
        0x00002350:    9b0a        ..      LDR      r3,[sp,#0x28]
        0x00002352:    483a        :H      LDR      r0,[pc,#232] ; [0x243c] = 0x200004f0
        0x00002354:    6800        .h      LDR      r0,[r0,#0]
        0x00002356:    6a04        .j      LDR      r4,[r0,#0x20]
        0x00002358:    9000        ..      STR      r0,[sp,#0]
        0x0000235a:    4608        .F      MOV      r0,r1
        0x0000235c:    47a0        .G      BLX      r4
        0x0000235e:    e03d        =.      B        0x23dc ; 0x23dc
        0x00002360:    4833        3H      LDR      r0,[pc,#204] ; [0x2430] = 0x200004e8
        0x00002362:    6800        .h      LDR      r0,[r0,#0]
        0x00002364:    6a04        .j      LDR      r4,[r0,#0x20]
        0x00002366:    9000        ..      STR      r0,[sp,#0]
        0x00002368:    4a3b        ;J      LDR      r2,[pc,#236] ; [0x2458] = 0x79bf
        0x0000236a:    9206        ..      STR      r2,[sp,#0x18]
        0x0000236c:    4b31        1K      LDR      r3,[pc,#196] ; [0x2434] = 0x20000018
        0x0000236e:    9307        ..      STR      r3,[sp,#0x1c]
        0x00002370:    2100        .!      MOVS     r1,#0
        0x00002372:    9105        ..      STR      r1,[sp,#0x14]
        0x00002374:    4608        .F      MOV      r0,r1
        0x00002376:    47a0        .G      BLX      r4
        0x00002378:    9905        ..      LDR      r1,[sp,#0x14]
        0x0000237a:    9a06        ..      LDR      r2,[sp,#0x18]
        0x0000237c:    9b07        ..      LDR      r3,[sp,#0x1c]
        0x0000237e:    482e        .H      LDR      r0,[pc,#184] ; [0x2438] = 0x200004ec
        0x00002380:    6800        .h      LDR      r0,[r0,#0]
        0x00002382:    6a04        .j      LDR      r4,[r0,#0x20]
        0x00002384:    9000        ..      STR      r0,[sp,#0]
        0x00002386:    4608        .F      MOV      r0,r1
        0x00002388:    47a0        .G      BLX      r4
        0x0000238a:    9905        ..      LDR      r1,[sp,#0x14]
        0x0000238c:    9a06        ..      LDR      r2,[sp,#0x18]
        0x0000238e:    9b07        ..      LDR      r3,[sp,#0x1c]
        0x00002390:    482a        *H      LDR      r0,[pc,#168] ; [0x243c] = 0x200004f0
        0x00002392:    6800        .h      LDR      r0,[r0,#0]
        0x00002394:    6a04        .j      LDR      r4,[r0,#0x20]
        0x00002396:    9000        ..      STR      r0,[sp,#0]
        0x00002398:    4608        .F      MOV      r0,r1
        0x0000239a:    47a0        .G      BLX      r4
        0x0000239c:    e01e        ..      B        0x23dc ; 0x23dc
        0x0000239e:    4824        $H      LDR      r0,[pc,#144] ; [0x2430] = 0x200004e8
        0x000023a0:    6800        .h      LDR      r0,[r0,#0]
        0x000023a2:    6a04        .j      LDR      r4,[r0,#0x20]
        0x000023a4:    9000        ..      STR      r0,[sp,#0]
        0x000023a6:    4a2b        +J      LDR      r2,[pc,#172] ; [0x2454] = 0x79c7
        0x000023a8:    9203        ..      STR      r2,[sp,#0xc]
        0x000023aa:    4b22        "K      LDR      r3,[pc,#136] ; [0x2434] = 0x20000018
        0x000023ac:    9304        ..      STR      r3,[sp,#0x10]
        0x000023ae:    2100        .!      MOVS     r1,#0
        0x000023b0:    9102        ..      STR      r1,[sp,#8]
        0x000023b2:    4608        .F      MOV      r0,r1
        0x000023b4:    47a0        .G      BLX      r4
        0x000023b6:    9902        ..      LDR      r1,[sp,#8]
        0x000023b8:    9a03        ..      LDR      r2,[sp,#0xc]
        0x000023ba:    9b04        ..      LDR      r3,[sp,#0x10]
        0x000023bc:    481e        .H      LDR      r0,[pc,#120] ; [0x2438] = 0x200004ec
        0x000023be:    6800        .h      LDR      r0,[r0,#0]
        0x000023c0:    6a04        .j      LDR      r4,[r0,#0x20]
        0x000023c2:    9000        ..      STR      r0,[sp,#0]
        0x000023c4:    4608        .F      MOV      r0,r1
        0x000023c6:    47a0        .G      BLX      r4
        0x000023c8:    9902        ..      LDR      r1,[sp,#8]
        0x000023ca:    9a03        ..      LDR      r2,[sp,#0xc]
        0x000023cc:    9b04        ..      LDR      r3,[sp,#0x10]
        0x000023ce:    481b        .H      LDR      r0,[pc,#108] ; [0x243c] = 0x200004f0
        0x000023d0:    6800        .h      LDR      r0,[r0,#0]
        0x000023d2:    6a04        .j      LDR      r4,[r0,#0x20]
        0x000023d4:    9000        ..      STR      r0,[sp,#0]
        0x000023d6:    4608        .F      MOV      r0,r1
        0x000023d8:    47a0        .G      BLX      r4
        0x000023da:    e7ff        ..      B        0x23dc ; 0x23dc
        0x000023dc:    4814        .H      LDR      r0,[pc,#80] ; [0x2430] = 0x200004e8
        0x000023de:    6800        .h      LDR      r0,[r0,#0]
        0x000023e0:    6901        .i      LDR      r1,[r0,#0x10]
        0x000023e2:    4788        .G      BLX      r1
        0x000023e4:    4814        .H      LDR      r0,[pc,#80] ; [0x2438] = 0x200004ec
        0x000023e6:    6800        .h      LDR      r0,[r0,#0]
        0x000023e8:    6901        .i      LDR      r1,[r0,#0x10]
        0x000023ea:    4788        .G      BLX      r1
        0x000023ec:    4813        .H      LDR      r0,[pc,#76] ; [0x243c] = 0x200004f0
        0x000023ee:    6800        .h      LDR      r0,[r0,#0]
        0x000023f0:    6901        .i      LDR      r1,[r0,#0x10]
        0x000023f2:    4788        .G      BLX      r1
        0x000023f4:    a827        '.      ADD      r0,sp,#0x9c
        0x000023f6:    9001        ..      STR      r0,[sp,#4]
        0x000023f8:    2100        .!      MOVS     r1,#0
        0x000023fa:    7001        .p      STRB     r1,[r0,#0]
        0x000023fc:    a826        &.      ADD      r0,sp,#0x98
        0x000023fe:    7001        .p      STRB     r1,[r0,#0]
        0x00002400:    4919        .I      LDR      r1,[pc,#100] ; [0x2468] = 0x200004e4
        0x00002402:    6809        .h      LDR      r1,[r1,#0]
        0x00002404:    6849        Ih      LDR      r1,[r1,#4]
        0x00002406:    4788        .G      BLX      r1
        0x00002408:    4601        .F      MOV      r1,r0
        0x0000240a:    9801        ..      LDR      r0,[sp,#4]
        0x0000240c:    7001        .p      STRB     r1,[r0,#0]
        0x0000240e:    7800        .x      LDRB     r0,[r0,#0]
        0x00002410:    2874        t(      CMP      r0,#0x74
        0x00002412:    d104        ..      BNE      0x241e ; 0x241e
        0x00002414:    e7ff        ..      B        0x2416 ; 0x2416
        0x00002416:    a929        ).      ADD      r1,sp,#0xa4
        0x00002418:    2001        .       MOVS     r0,#1
        0x0000241a:    7008        .p      STRB     r0,[r1,#0]
        0x0000241c:    e003        ..      B        0x2426 ; 0x2426
        0x0000241e:    a929        ).      ADD      r1,sp,#0xa4
        0x00002420:    2000        .       MOVS     r0,#0
        0x00002422:    7008        .p      STRB     r0,[r1,#0]
        0x00002424:    e7ff        ..      B        0x2426 ; 0x2426
        0x00002426:    a829        ).      ADD      r0,sp,#0xa4
        0x00002428:    7800        .x      LDRB     r0,[r0,#0]
        0x0000242a:    b02a        *.      ADD      sp,sp,#0xa8
        0x0000242c:    bd10        ..      POP      {r4,pc}
        0x0000242e:    46c0        .F      MOV      r8,r8
    $d.37
    __arm_cp.18_0
        0x00002430:    200004e8    ...     DCD    536872168
    __arm_cp.18_2
        0x00002434:    20000018    ...     DCD    536870936
    __arm_cp.18_3
        0x00002438:    200004ec    ...     DCD    536872172
    __arm_cp.18_4
        0x0000243c:    200004f0    ...     DCD    536872176
    __arm_cp.18_10
        0x00002440:    000079eb    .y..    DCD    31211
    __arm_cp.18_11
        0x00002444:    000079e4    .y..    DCD    31204
    __arm_cp.18_12
        0x00002448:    000079dd    .y..    DCD    31197
    __arm_cp.18_13
        0x0000244c:    000079d6    .y..    DCD    31190
    __arm_cp.18_14
        0x00002450:    000079cf    .y..    DCD    31183
    __arm_cp.18_15
        0x00002454:    000079c7    .y..    DCD    31175
    __arm_cp.18_16
        0x00002458:    000079bf    .y..    DCD    31167
    __arm_cp.18_17
        0x0000245c:    000079b7    .y..    DCD    31159
    __arm_cp.18_18
        0x00002460:    000079af    .y..    DCD    31151
    __arm_cp.18_19
        0x00002464:    000079a8    .y..    DCD    31144
    __arm_cp.18_20
        0x00002468:    200004e4    ...     DCD    536872164
    $t.40
    CLK_EnableModuleClock
        0x0000246c:    b084        ..      SUB      sp,sp,#0x10
        0x0000246e:    9003        ..      STR      r0,[sp,#0xc]
        0x00002470:    480b        .H      LDR      r0,[pc,#44] ; [0x24a0] = 0x75dc
        0x00002472:    6881        .h      LDR      r1,[r0,#8]
        0x00002474:    9102        ..      STR      r1,[sp,#8]
        0x00002476:    6841        Ah      LDR      r1,[r0,#4]
        0x00002478:    9101        ..      STR      r1,[sp,#4]
        0x0000247a:    6800        .h      LDR      r0,[r0,#0]
        0x0000247c:    9000        ..      STR      r0,[sp,#0]
        0x0000247e:    9803        ..      LDR      r0,[sp,#0xc]
        0x00002480:    221f        ."      MOVS     r2,#0x1f
        0x00002482:    4601        .F      MOV      r1,r0
        0x00002484:    4011        .@      ANDS     r1,r1,r2
        0x00002486:    2301        .#      MOVS     r3,#1
        0x00002488:    408b        .@      LSLS     r3,r3,r1
        0x0000248a:    0f80        ..      LSRS     r0,r0,#30
        0x0000248c:    0081        ..      LSLS     r1,r0,#2
        0x0000248e:    4668        hF      MOV      r0,sp
        0x00002490:    5841        AX      LDR      r1,[r0,r1]
        0x00002492:    4a04        .J      LDR      r2,[pc,#16] ; [0x24a4] = 0x40000204
        0x00002494:    5888        .X      LDR      r0,[r1,r2]
        0x00002496:    4318        .C      ORRS     r0,r0,r3
        0x00002498:    5088        .P      STR      r0,[r1,r2]
        0x0000249a:    b004        ..      ADD      sp,sp,#0x10
        0x0000249c:    4770        pG      BX       lr
        0x0000249e:    46c0        .F      MOV      r8,r8
    $d.41
    __arm_cp.20_0
        0x000024a0:    000075dc    .u..    DCD    30172
    __arm_cp.20_1
        0x000024a4:    40000204    ...@    DCD    1073742340
    $t.36
    CLK_EnableXtalRC
        0x000024a8:    b081        ..      SUB      sp,sp,#4
        0x000024aa:    9000        ..      STR      r0,[sp,#0]
        0x000024ac:    9a00        ..      LDR      r2,[sp,#0]
        0x000024ae:    498d        .I      LDR      r1,[pc,#564] ; [0x26e4] = 0x40000200
        0x000024b0:    6808        .h      LDR      r0,[r1,#0]
        0x000024b2:    4310        .C      ORRS     r0,r0,r2
        0x000024b4:    6008        .`      STR      r0,[r1,#0]
        0x000024b6:    b001        ..      ADD      sp,sp,#4
        0x000024b8:    4770        pG      BX       lr
        0x000024ba:    46c0        .F      MOV      r8,r8
    CLK_GetHCLKFreq
        0x000024bc:    b580        ..      PUSH     {r7,lr}
        0x000024be:    f002f8d3    ....    BL       SystemCoreClockUpdate ; 0x4668
        0x000024c2:    4843        CH      LDR      r0,[pc,#268] ; [0x25d0] = 0x20000014
        0x000024c4:    6800        .h      LDR      r0,[r0,#0]
        0x000024c6:    bd80        ..      POP      {r7,pc}
    CLK_GetPCLK0Freq
        0x000024c8:    b580        ..      PUSH     {r7,lr}
        0x000024ca:    b082        ..      SUB      sp,sp,#8
        0x000024cc:    f002f8cc    ....    BL       SystemCoreClockUpdate ; 0x4668
        0x000024d0:    483e        >H      LDR      r0,[pc,#248] ; [0x25cc] = 0x40000234
        0x000024d2:    6800        .h      LDR      r0,[r0,#0]
        0x000024d4:    2107        .!      MOVS     r1,#7
        0x000024d6:    4008        .@      ANDS     r0,r0,r1
        0x000024d8:    9000        ..      STR      r0,[sp,#0]
        0x000024da:    2805        .(      CMP      r0,#5
        0x000024dc:    d82d        -.      BHI      0x253a ; CLK_GetPCLK0Freq + 114
        0x000024de:    9900        ..      LDR      r1,[sp,#0]
        0x000024e0:    008a        ..      LSLS     r2,r1,#2
        0x000024e2:    a001        ..      ADR      r0,{pc}+6 ; 0x24e8
        0x000024e4:    1880        ..      ADDS     r0,r0,r2
        0x000024e6:    4687        .F      MOV      pc,r0
        0x000024e8:    f000b80a    ....    B.W      0x2500 ; CLK_GetPCLK0Freq + 56
        0x000024ec:    f000b80c    ....    B.W      0x2508 ; CLK_GetPCLK0Freq + 64
        0x000024f0:    f000b80f    ....    B.W      0x2512 ; CLK_GetPCLK0Freq + 74
        0x000024f4:    f000b812    ....    B.W      0x251c ; CLK_GetPCLK0Freq + 84
        0x000024f8:    f000b815    ....    B.W      0x2526 ; CLK_GetPCLK0Freq + 94
        0x000024fc:    f000b818    ....    B.W      0x2530 ; CLK_GetPCLK0Freq + 104
        0x00002500:    4833        3H      LDR      r0,[pc,#204] ; [0x25d0] = 0x20000014
        0x00002502:    6800        .h      LDR      r0,[r0,#0]
        0x00002504:    9001        ..      STR      r0,[sp,#4]
        0x00002506:    e01b        ..      B        0x2540 ; CLK_GetPCLK0Freq + 120
        0x00002508:    48f0        .H      LDR      r0,[pc,#960] ; [0x28cc] = 0x20000014
        0x0000250a:    6800        .h      LDR      r0,[r0,#0]
        0x0000250c:    0840        @.      LSRS     r0,r0,#1
        0x0000250e:    9001        ..      STR      r0,[sp,#4]
        0x00002510:    e016        ..      B        0x2540 ; CLK_GetPCLK0Freq + 120
        0x00002512:    48ee        .H      LDR      r0,[pc,#952] ; [0x28cc] = 0x20000014
        0x00002514:    6800        .h      LDR      r0,[r0,#0]
        0x00002516:    0880        ..      LSRS     r0,r0,#2
        0x00002518:    9001        ..      STR      r0,[sp,#4]
        0x0000251a:    e011        ..      B        0x2540 ; CLK_GetPCLK0Freq + 120
        0x0000251c:    48eb        .H      LDR      r0,[pc,#940] ; [0x28cc] = 0x20000014
        0x0000251e:    6800        .h      LDR      r0,[r0,#0]
        0x00002520:    08c0        ..      LSRS     r0,r0,#3
        0x00002522:    9001        ..      STR      r0,[sp,#4]
        0x00002524:    e00c        ..      B        0x2540 ; CLK_GetPCLK0Freq + 120
        0x00002526:    48e9        .H      LDR      r0,[pc,#932] ; [0x28cc] = 0x20000014
        0x00002528:    6800        .h      LDR      r0,[r0,#0]
        0x0000252a:    0900        ..      LSRS     r0,r0,#4
        0x0000252c:    9001        ..      STR      r0,[sp,#4]
        0x0000252e:    e007        ..      B        0x2540 ; CLK_GetPCLK0Freq + 120
        0x00002530:    48e6        .H      LDR      r0,[pc,#920] ; [0x28cc] = 0x20000014
        0x00002532:    6800        .h      LDR      r0,[r0,#0]
        0x00002534:    0940        @.      LSRS     r0,r0,#5
        0x00002536:    9001        ..      STR      r0,[sp,#4]
        0x00002538:    e002        ..      B        0x2540 ; CLK_GetPCLK0Freq + 120
        0x0000253a:    2000        .       MOVS     r0,#0
        0x0000253c:    9001        ..      STR      r0,[sp,#4]
        0x0000253e:    e7ff        ..      B        0x2540 ; CLK_GetPCLK0Freq + 120
        0x00002540:    9801        ..      LDR      r0,[sp,#4]
        0x00002542:    b002        ..      ADD      sp,sp,#8
        0x00002544:    bd80        ..      POP      {r7,pc}
        0x00002546:    46c0        .F      MOV      r8,r8
    CLK_GetPCLK1Freq
        0x00002548:    b580        ..      PUSH     {r7,lr}
        0x0000254a:    b082        ..      SUB      sp,sp,#8
        0x0000254c:    f002f88c    ....    BL       SystemCoreClockUpdate ; 0x4668
        0x00002550:    481e        .H      LDR      r0,[pc,#120] ; [0x25cc] = 0x40000234
        0x00002552:    6800        .h      LDR      r0,[r0,#0]
        0x00002554:    2170        p!      MOVS     r1,#0x70
        0x00002556:    4008        .@      ANDS     r0,r0,r1
        0x00002558:    9000        ..      STR      r0,[sp,#0]
        0x0000255a:    b1a0        ..      CBZ      r0,0x2586 ; CLK_GetPCLK1Freq + 62
        0x0000255c:    e7ff        ..      B        0x255e ; CLK_GetPCLK1Freq + 22
        0x0000255e:    9800        ..      LDR      r0,[sp,#0]
        0x00002560:    2810        .(      CMP      r0,#0x10
        0x00002562:    d014        ..      BEQ      0x258e ; CLK_GetPCLK1Freq + 70
        0x00002564:    e7ff        ..      B        0x2566 ; CLK_GetPCLK1Freq + 30
        0x00002566:    9800        ..      LDR      r0,[sp,#0]
        0x00002568:    2820         (      CMP      r0,#0x20
        0x0000256a:    d015        ..      BEQ      0x2598 ; CLK_GetPCLK1Freq + 80
        0x0000256c:    e7ff        ..      B        0x256e ; CLK_GetPCLK1Freq + 38
        0x0000256e:    9800        ..      LDR      r0,[sp,#0]
        0x00002570:    2830        0(      CMP      r0,#0x30
        0x00002572:    d016        ..      BEQ      0x25a2 ; CLK_GetPCLK1Freq + 90
        0x00002574:    e7ff        ..      B        0x2576 ; CLK_GetPCLK1Freq + 46
        0x00002576:    9800        ..      LDR      r0,[sp,#0]
        0x00002578:    2840        @(      CMP      r0,#0x40
        0x0000257a:    d017        ..      BEQ      0x25ac ; CLK_GetPCLK1Freq + 100
        0x0000257c:    e7ff        ..      B        0x257e ; CLK_GetPCLK1Freq + 54
        0x0000257e:    9800        ..      LDR      r0,[sp,#0]
        0x00002580:    2850        P(      CMP      r0,#0x50
        0x00002582:    d018        ..      BEQ      0x25b6 ; CLK_GetPCLK1Freq + 110
        0x00002584:    e01c        ..      B        0x25c0 ; CLK_GetPCLK1Freq + 120
        0x00002586:    48d1        .H      LDR      r0,[pc,#836] ; [0x28cc] = 0x20000014
        0x00002588:    6800        .h      LDR      r0,[r0,#0]
        0x0000258a:    9001        ..      STR      r0,[sp,#4]
        0x0000258c:    e01b        ..      B        0x25c6 ; CLK_GetPCLK1Freq + 126
        0x0000258e:    48cf        .H      LDR      r0,[pc,#828] ; [0x28cc] = 0x20000014
        0x00002590:    6800        .h      LDR      r0,[r0,#0]
        0x00002592:    0840        @.      LSRS     r0,r0,#1
        0x00002594:    9001        ..      STR      r0,[sp,#4]
        0x00002596:    e016        ..      B        0x25c6 ; CLK_GetPCLK1Freq + 126
        0x00002598:    48cc        .H      LDR      r0,[pc,#816] ; [0x28cc] = 0x20000014
        0x0000259a:    6800        .h      LDR      r0,[r0,#0]
        0x0000259c:    0880        ..      LSRS     r0,r0,#2
        0x0000259e:    9001        ..      STR      r0,[sp,#4]
        0x000025a0:    e011        ..      B        0x25c6 ; CLK_GetPCLK1Freq + 126
        0x000025a2:    48ca        .H      LDR      r0,[pc,#808] ; [0x28cc] = 0x20000014
        0x000025a4:    6800        .h      LDR      r0,[r0,#0]
        0x000025a6:    08c0        ..      LSRS     r0,r0,#3
        0x000025a8:    9001        ..      STR      r0,[sp,#4]
        0x000025aa:    e00c        ..      B        0x25c6 ; CLK_GetPCLK1Freq + 126
        0x000025ac:    48c7        .H      LDR      r0,[pc,#796] ; [0x28cc] = 0x20000014
        0x000025ae:    6800        .h      LDR      r0,[r0,#0]
        0x000025b0:    0900        ..      LSRS     r0,r0,#4
        0x000025b2:    9001        ..      STR      r0,[sp,#4]
        0x000025b4:    e007        ..      B        0x25c6 ; CLK_GetPCLK1Freq + 126
        0x000025b6:    48c5        .H      LDR      r0,[pc,#788] ; [0x28cc] = 0x20000014
        0x000025b8:    6800        .h      LDR      r0,[r0,#0]
        0x000025ba:    0940        @.      LSRS     r0,r0,#5
        0x000025bc:    9001        ..      STR      r0,[sp,#4]
        0x000025be:    e002        ..      B        0x25c6 ; CLK_GetPCLK1Freq + 126
        0x000025c0:    2000        .       MOVS     r0,#0
        0x000025c2:    9001        ..      STR      r0,[sp,#4]
        0x000025c4:    e7ff        ..      B        0x25c6 ; CLK_GetPCLK1Freq + 126
        0x000025c6:    9801        ..      LDR      r0,[sp,#4]
        0x000025c8:    b002        ..      ADD      sp,sp,#8
        0x000025ca:    bd80        ..      POP      {r7,pc}
    $d.15
    __arm_cp.7_0
        0x000025cc:    40000234    4..@    DCD    1073742388
    __arm_cp.7_1
        0x000025d0:    20000014    ...     DCD    536870932
    $t.20
    CLK_GetPLLClockFreq
        0x000025d4:    b087        ..      SUB      sp,sp,#0x1c
        0x000025d6:    2000        .       MOVS     r0,#0
        0x000025d8:    9006        ..      STR      r0,[sp,#0x18]
        0x000025da:    4826        &H      LDR      r0,[pc,#152] ; [0x2674] = 0x40000240
        0x000025dc:    6800        .h      LDR      r0,[r0,#0]
        0x000025de:    9005        ..      STR      r0,[sp,#0x14]
        0x000025e0:    a805        ..      ADD      r0,sp,#0x14
        0x000025e2:    7880        .x      LDRB     r0,[r0,#2]
        0x000025e4:    2105        .!      MOVS     r1,#5
        0x000025e6:    4208        .B      TST      r0,r1
        0x000025e8:    d140        @.      BNE      0x266c ; CLK_GetPLLClockFreq + 152
        0x000025ea:    e7ff        ..      B        0x25ec ; CLK_GetPLLClockFreq + 24
        0x000025ec:    a805        ..      ADD      r0,sp,#0x14
        0x000025ee:    7880        .x      LDRB     r0,[r0,#2]
        0x000025f0:    06c0        ..      LSLS     r0,r0,#27
        0x000025f2:    0f80        ..      LSRS     r0,r0,#30
        0x000025f4:    b170        p.      CBZ      r0,0x2614 ; CLK_GetPLLClockFreq + 64
        0x000025f6:    e7ff        ..      B        0x25f8 ; CLK_GetPLLClockFreq + 36
        0x000025f8:    9805        ..      LDR      r0,[sp,#0x14]
        0x000025fa:    2103        .!      MOVS     r1,#3
        0x000025fc:    04c9        ..      LSLS     r1,r1,#19
        0x000025fe:    4008        .@      ANDS     r0,r0,r1
        0x00002600:    4288        .B      CMP      r0,r1
        0x00002602:    d103        ..      BNE      0x260c ; CLK_GetPLLClockFreq + 56
        0x00002604:    e7ff        ..      B        0x2606 ; CLK_GetPLLClockFreq + 50
        0x00002606:    481e        .H      LDR      r0,[pc,#120] ; [0x2680] = 0x3d8600
        0x00002608:    9004        ..      STR      r0,[sp,#0x10]
        0x0000260a:    e002        ..      B        0x2612 ; CLK_GetPLLClockFreq + 62
        0x0000260c:    481b        .H      LDR      r0,[pc,#108] ; [0x267c] = 0xb71b00
        0x0000260e:    9004        ..      STR      r0,[sp,#0x10]
        0x00002610:    e7ff        ..      B        0x2612 ; CLK_GetPLLClockFreq + 62
        0x00002612:    e002        ..      B        0x261a ; CLK_GetPLLClockFreq + 70
        0x00002614:    4818        .H      LDR      r0,[pc,#96] ; [0x2678] = 0x16e3600
        0x00002616:    9004        ..      STR      r0,[sp,#0x10]
        0x00002618:    e7ff        ..      B        0x261a ; CLK_GetPLLClockFreq + 70
        0x0000261a:    a805        ..      ADD      r0,sp,#0x14
        0x0000261c:    7880        .x      LDRB     r0,[r0,#2]
        0x0000261e:    0780        ..      LSLS     r0,r0,#30
        0x00002620:    2800        .(      CMP      r0,#0
        0x00002622:    d503        ..      BPL      0x262c ; CLK_GetPLLClockFreq + 88
        0x00002624:    e7ff        ..      B        0x2626 ; CLK_GetPLLClockFreq + 82
        0x00002626:    9804        ..      LDR      r0,[sp,#0x10]
        0x00002628:    9006        ..      STR      r0,[sp,#0x18]
        0x0000262a:    e01e        ..      B        0x266a ; CLK_GetPLLClockFreq + 150
        0x0000262c:    4815        .H      LDR      r0,[pc,#84] ; [0x2684] = 0x4040201
        0x0000262e:    9000        ..      STR      r0,[sp,#0]
        0x00002630:    a805        ..      ADD      r0,sp,#0x14
        0x00002632:    8800        ..      LDRH     r0,[r0,#0]
        0x00002634:    0b81        ..      LSRS     r1,r0,#14
        0x00002636:    4668        hF      MOV      r0,sp
        0x00002638:    1840        @.      ADDS     r0,r0,r1
        0x0000263a:    7800        .x      LDRB     r0,[r0,#0]
        0x0000263c:    9001        ..      STR      r0,[sp,#4]
        0x0000263e:    9805        ..      LDR      r0,[sp,#0x14]
        0x00002640:    213f        ?!      MOVS     r1,#0x3f
        0x00002642:    4008        .@      ANDS     r0,r0,r1
        0x00002644:    9003        ..      STR      r0,[sp,#0xc]
        0x00002646:    9805        ..      LDR      r0,[sp,#0x14]
        0x00002648:    f6416100    A..a    MOVW     r1,#0x1e00
        0x0000264c:    4008        .@      ANDS     r0,r0,r1
        0x0000264e:    0a40        @.      LSRS     r0,r0,#9
        0x00002650:    9002        ..      STR      r0,[sp,#8]
        0x00002652:    9804        ..      LDR      r0,[sp,#0x10]
        0x00002654:    0881        ..      LSRS     r1,r0,#2
        0x00002656:    9803        ..      LDR      r0,[sp,#0xc]
        0x00002658:    4348        HC      MULS     r0,r1,r0
        0x0000265a:    9a02        ..      LDR      r2,[sp,#8]
        0x0000265c:    9901        ..      LDR      r1,[sp,#4]
        0x0000265e:    4351        QC      MULS     r1,r2,r1
        0x00002660:    fbb0f0f1    ....    UDIV     r0,r0,r1
        0x00002664:    0080        ..      LSLS     r0,r0,#2
        0x00002666:    9006        ..      STR      r0,[sp,#0x18]
        0x00002668:    e7ff        ..      B        0x266a ; CLK_GetPLLClockFreq + 150
        0x0000266a:    e7ff        ..      B        0x266c ; CLK_GetPLLClockFreq + 152
        0x0000266c:    9806        ..      LDR      r0,[sp,#0x18]
        0x0000266e:    b007        ..      ADD      sp,sp,#0x1c
        0x00002670:    4770        pG      BX       lr
        0x00002672:    46c0        .F      MOV      r8,r8
    $d.21
    __arm_cp.10_0
        0x00002674:    40000240    @..@    DCD    1073742400
    __arm_cp.10_1
        0x00002678:    016e3600    .6n.    DCD    24000000
    __arm_cp.10_2
        0x0000267c:    00b71b00    ....    DCD    12000000
    __arm_cp.10_3
        0x00002680:    003d8600    ..=.    DCD    4032000
    __arm_cp.10_4
        0x00002684:    04040201    ....    DCD    67371521
    $t.28
    CLK_SetHCLK
        0x00002688:    b510        ..      PUSH     {r4,lr}
        0x0000268a:    b084        ..      SUB      sp,sp,#0x10
        0x0000268c:    9003        ..      STR      r0,[sp,#0xc]
        0x0000268e:    9102        ..      STR      r1,[sp,#8]
        0x00002690:    4890        .H      LDR      r0,[pc,#576] ; [0x28d4] = 0x40000250
        0x00002692:    6801        .h      LDR      r1,[r0,#0]
        0x00002694:    2010        .       MOVS     r0,#0x10
        0x00002696:    4001        .@      ANDS     r1,r1,r0
        0x00002698:    9101        ..      STR      r1,[sp,#4]
        0x0000269a:    4a12        .J      LDR      r2,[pc,#72] ; [0x26e4] = 0x40000200
        0x0000269c:    6811        .h      LDR      r1,[r2,#0]
        0x0000269e:    2304        .#      MOVS     r3,#4
        0x000026a0:    4319        .C      ORRS     r1,r1,r3
        0x000026a2:    6011        .`      STR      r1,[r2,#0]
        0x000026a4:    f000f8ec    ....    BL       CLK_WaitClockReady ; 0x2880
        0x000026a8:    493a        :I      LDR      r1,[pc,#232] ; [0x2794] = 0x40000210
        0x000026aa:    6808        .h      LDR      r0,[r1,#0]
        0x000026ac:    2207        ."      MOVS     r2,#7
        0x000026ae:    4310        .C      ORRS     r0,r0,r2
        0x000026b0:    6008        .`      STR      r0,[r1,#0]
        0x000026b2:    4b36        6K      LDR      r3,[pc,#216] ; [0x278c] = 0x40000220
        0x000026b4:    6818        .h      LDR      r0,[r3,#0]
        0x000026b6:    240f        .$      MOVS     r4,#0xf
        0x000026b8:    43a0        .C      BICS     r0,r0,r4
        0x000026ba:    9c02        ..      LDR      r4,[sp,#8]
        0x000026bc:    4320         C      ORRS     r0,r0,r4
        0x000026be:    6018        .`      STR      r0,[r3,#0]
        0x000026c0:    6808        .h      LDR      r0,[r1,#0]
        0x000026c2:    4390        .C      BICS     r0,r0,r2
        0x000026c4:    9a03        ..      LDR      r2,[sp,#0xc]
        0x000026c6:    4310        .C      ORRS     r0,r0,r2
        0x000026c8:    6008        .`      STR      r0,[r1,#0]
        0x000026ca:    f001ffcd    ....    BL       SystemCoreClockUpdate ; 0x4668
        0x000026ce:    9801        ..      LDR      r0,[sp,#4]
        0x000026d0:    b930        0.      CBNZ     r0,0x26e0 ; CLK_SetHCLK + 88
        0x000026d2:    e7ff        ..      B        0x26d4 ; CLK_SetHCLK + 76
        0x000026d4:    4903        .I      LDR      r1,[pc,#12] ; [0x26e4] = 0x40000200
        0x000026d6:    6808        .h      LDR      r0,[r1,#0]
        0x000026d8:    2204        ."      MOVS     r2,#4
        0x000026da:    4390        .C      BICS     r0,r0,r2
        0x000026dc:    6008        .`      STR      r0,[r1,#0]
        0x000026de:    e7ff        ..      B        0x26e0 ; CLK_SetHCLK + 88
        0x000026e0:    b004        ..      ADD      sp,sp,#0x10
        0x000026e2:    bd10        ..      POP      {r4,pc}
    $d.29
    __arm_cp.14_1
        0x000026e4:    40000200    ...@    DCD    1073742336
    $t.32
    CLK_SetModuleClock
        0x000026e8:    b08d        ..      SUB      sp,sp,#0x34
        0x000026ea:    900c        ..      STR      r0,[sp,#0x30]
        0x000026ec:    910b        ..      STR      r1,[sp,#0x2c]
        0x000026ee:    920a        ..      STR      r2,[sp,#0x28]
        0x000026f0:    980c        ..      LDR      r0,[sp,#0x30]
        0x000026f2:    0a80        ..      LSRS     r0,r0,#10
        0x000026f4:    0600        ..      LSLS     r0,r0,#24
        0x000026f6:    b300        ..      CBZ      r0,0x273a ; CLK_SetModuleClock + 82
        0x000026f8:    e7ff        ..      B        0x26fa ; CLK_SetModuleClock + 18
        0x000026fa:    4823        #H      LDR      r0,[pc,#140] ; [0x2788] = 0x7600
        0x000026fc:    68c1        .h      LDR      r1,[r0,#0xc]
        0x000026fe:    9108        ..      STR      r1,[sp,#0x20]
        0x00002700:    6881        .h      LDR      r1,[r0,#8]
        0x00002702:    9107        ..      STR      r1,[sp,#0x1c]
        0x00002704:    6841        Ah      LDR      r1,[r0,#4]
        0x00002706:    9106        ..      STR      r1,[sp,#0x18]
        0x00002708:    6800        .h      LDR      r0,[r0,#0]
        0x0000270a:    9005        ..      STR      r0,[sp,#0x14]
        0x0000270c:    a80c        ..      ADD      r0,sp,#0x30
        0x0000270e:    8841        A.      LDRH     r1,[r0,#2]
        0x00002710:    200c        .       MOVS     r0,#0xc
        0x00002712:    4001        .@      ANDS     r1,r1,r0
        0x00002714:    a805        ..      ADD      r0,sp,#0x14
        0x00002716:    5840        @X      LDR      r0,[r0,r1]
        0x00002718:    491c        .I      LDR      r1,[pc,#112] ; [0x278c] = 0x40000220
        0x0000271a:    1840        @.      ADDS     r0,r0,r1
        0x0000271c:    9009        ..      STR      r0,[sp,#0x24]
        0x0000271e:    9809        ..      LDR      r0,[sp,#0x24]
        0x00002720:    6800        .h      LDR      r0,[r0,#0]
        0x00002722:    9a0c        ..      LDR      r2,[sp,#0x30]
        0x00002724:    0a91        ..      LSRS     r1,r2,#10
        0x00002726:    b2c9        ..      UXTB     r1,r1
        0x00002728:    0592        ..      LSLS     r2,r2,#22
        0x0000272a:    0ed2        ..      LSRS     r2,r2,#27
        0x0000272c:    4091        .@      LSLS     r1,r1,r2
        0x0000272e:    4388        .C      BICS     r0,r0,r1
        0x00002730:    990a        ..      LDR      r1,[sp,#0x28]
        0x00002732:    4308        .C      ORRS     r0,r0,r1
        0x00002734:    9909        ..      LDR      r1,[sp,#0x24]
        0x00002736:    6008        .`      STR      r0,[r1,#0]
        0x00002738:    e7ff        ..      B        0x273a ; CLK_SetModuleClock + 82
        0x0000273a:    980c        ..      LDR      r0,[sp,#0x30]
        0x0000273c:    0100        ..      LSLS     r0,r0,#4
        0x0000273e:    0f40        @.      LSRS     r0,r0,#29
        0x00002740:    b300        ..      CBZ      r0,0x2784 ; CLK_SetModuleClock + 156
        0x00002742:    e7ff        ..      B        0x2744 ; CLK_SetModuleClock + 92
        0x00002744:    4812        .H      LDR      r0,[pc,#72] ; [0x2790] = 0x7610
        0x00002746:    68c1        .h      LDR      r1,[r0,#0xc]
        0x00002748:    9103        ..      STR      r1,[sp,#0xc]
        0x0000274a:    6881        .h      LDR      r1,[r0,#8]
        0x0000274c:    9102        ..      STR      r1,[sp,#8]
        0x0000274e:    6841        Ah      LDR      r1,[r0,#4]
        0x00002750:    9101        ..      STR      r1,[sp,#4]
        0x00002752:    6800        .h      LDR      r0,[r0,#0]
        0x00002754:    9000        ..      STR      r0,[sp,#0]
        0x00002756:    980c        ..      LDR      r0,[sp,#0x30]
        0x00002758:    0e81        ..      LSRS     r1,r0,#26
        0x0000275a:    200c        .       MOVS     r0,#0xc
        0x0000275c:    4001        .@      ANDS     r1,r1,r0
        0x0000275e:    4668        hF      MOV      r0,sp
        0x00002760:    5840        @X      LDR      r0,[r0,r1]
        0x00002762:    490c        .I      LDR      r1,[pc,#48] ; [0x2794] = 0x40000210
        0x00002764:    1840        @.      ADDS     r0,r0,r1
        0x00002766:    9004        ..      STR      r0,[sp,#0x10]
        0x00002768:    9804        ..      LDR      r0,[sp,#0x10]
        0x0000276a:    6800        .h      LDR      r0,[r0,#0]
        0x0000276c:    9a0c        ..      LDR      r2,[sp,#0x30]
        0x0000276e:    0111        ..      LSLS     r1,r2,#4
        0x00002770:    0f49        I.      LSRS     r1,r1,#29
        0x00002772:    01d2        ..      LSLS     r2,r2,#7
        0x00002774:    0ed2        ..      LSRS     r2,r2,#27
        0x00002776:    4091        .@      LSLS     r1,r1,r2
        0x00002778:    4388        .C      BICS     r0,r0,r1
        0x0000277a:    990b        ..      LDR      r1,[sp,#0x2c]
        0x0000277c:    4308        .C      ORRS     r0,r0,r1
        0x0000277e:    9904        ..      LDR      r1,[sp,#0x10]
        0x00002780:    6008        .`      STR      r0,[r1,#0]
        0x00002782:    e7ff        ..      B        0x2784 ; CLK_SetModuleClock + 156
        0x00002784:    b00d        ..      ADD      sp,sp,#0x34
        0x00002786:    4770        pG      BX       lr
    $d.33
    __arm_cp.16_0
        0x00002788:    00007600    .v..    DCD    30208
    __arm_cp.16_1
        0x0000278c:    40000220     ..@    DCD    1073742368
    __arm_cp.16_2
        0x00002790:    00007610    .v..    DCD    30224
    __arm_cp.16_3
        0x00002794:    40000210    ...@    DCD    1073742352
    $t.12
    CLK_SysTickDelay
        0x00002798:    b081        ..      SUB      sp,sp,#4
        0x0000279a:    9000        ..      STR      r0,[sp,#0]
        0x0000279c:    9900        ..      LDR      r1,[sp,#0]
        0x0000279e:    4834        4H      LDR      r0,[pc,#208] ; [0x2870] = 0x2000000c
        0x000027a0:    6800        .h      LDR      r0,[r0,#0]
        0x000027a2:    4348        HC      MULS     r0,r1,r0
        0x000027a4:    4933        3I      LDR      r1,[pc,#204] ; [0x2874] = 0xe000e014
        0x000027a6:    6008        .`      STR      r0,[r1,#0]
        0x000027a8:    4933        3I      LDR      r1,[pc,#204] ; [0x2878] = 0xe000e018
        0x000027aa:    2000        .       MOVS     r0,#0
        0x000027ac:    6008        .`      STR      r0,[r1,#0]
        0x000027ae:    4933        3I      LDR      r1,[pc,#204] ; [0x287c] = 0xe000e010
        0x000027b0:    2005        .       MOVS     r0,#5
        0x000027b2:    6008        .`      STR      r0,[r1,#0]
        0x000027b4:    e7ff        ..      B        0x27b6 ; CLK_SysTickDelay + 30
        0x000027b6:    4831        1H      LDR      r0,[pc,#196] ; [0x287c] = 0xe000e010
        0x000027b8:    6800        .h      LDR      r0,[r0,#0]
        0x000027ba:    03c0        ..      LSLS     r0,r0,#15
        0x000027bc:    2800        .(      CMP      r0,#0
        0x000027be:    d401        ..      BMI      0x27c4 ; CLK_SysTickDelay + 44
        0x000027c0:    e7ff        ..      B        0x27c2 ; CLK_SysTickDelay + 42
        0x000027c2:    e7f8        ..      B        0x27b6 ; CLK_SysTickDelay + 30
        0x000027c4:    492d        -I      LDR      r1,[pc,#180] ; [0x287c] = 0xe000e010
        0x000027c6:    2000        .       MOVS     r0,#0
        0x000027c8:    6008        .`      STR      r0,[r1,#0]
        0x000027ca:    b001        ..      ADD      sp,sp,#4
        0x000027cc:    4770        pG      BX       lr
        0x000027ce:    46c0        .F      MOV      r8,r8
    CLK_SysTickDelay
        0x000027d0:    b081        ..      SUB      sp,sp,#4
        0x000027d2:    9000        ..      STR      r0,[sp,#0]
        0x000027d4:    9900        ..      LDR      r1,[sp,#0]
        0x000027d6:    4826        &H      LDR      r0,[pc,#152] ; [0x2870] = 0x2000000c
        0x000027d8:    6800        .h      LDR      r0,[r0,#0]
        0x000027da:    4348        HC      MULS     r0,r1,r0
        0x000027dc:    4925        %I      LDR      r1,[pc,#148] ; [0x2874] = 0xe000e014
        0x000027de:    6008        .`      STR      r0,[r1,#0]
        0x000027e0:    4925        %I      LDR      r1,[pc,#148] ; [0x2878] = 0xe000e018
        0x000027e2:    2000        .       MOVS     r0,#0
        0x000027e4:    6008        .`      STR      r0,[r1,#0]
        0x000027e6:    4925        %I      LDR      r1,[pc,#148] ; [0x287c] = 0xe000e010
        0x000027e8:    2005        .       MOVS     r0,#5
        0x000027ea:    6008        .`      STR      r0,[r1,#0]
        0x000027ec:    e7ff        ..      B        0x27ee ; CLK_SysTickDelay + 30
        0x000027ee:    4823        #H      LDR      r0,[pc,#140] ; [0x287c] = 0xe000e010
        0x000027f0:    6800        .h      LDR      r0,[r0,#0]
        0x000027f2:    03c0        ..      LSLS     r0,r0,#15
        0x000027f4:    2800        .(      CMP      r0,#0
        0x000027f6:    d401        ..      BMI      0x27fc ; CLK_SysTickDelay + 44
        0x000027f8:    e7ff        ..      B        0x27fa ; CLK_SysTickDelay + 42
        0x000027fa:    e7f8        ..      B        0x27ee ; CLK_SysTickDelay + 30
        0x000027fc:    491f        .I      LDR      r1,[pc,#124] ; [0x287c] = 0xe000e010
        0x000027fe:    2000        .       MOVS     r0,#0
        0x00002800:    6008        .`      STR      r0,[r1,#0]
        0x00002802:    b001        ..      ADD      sp,sp,#4
        0x00002804:    4770        pG      BX       lr
        0x00002806:    46c0        .F      MOV      r8,r8
    CLK_SysTickLongDelay
        0x00002808:    b082        ..      SUB      sp,sp,#8
        0x0000280a:    9001        ..      STR      r0,[sp,#4]
        0x0000280c:    4817        .H      LDR      r0,[pc,#92] ; [0x286c] = 0x55555
        0x0000280e:    9000        ..      STR      r0,[sp,#0]
        0x00002810:    e7ff        ..      B        0x2812 ; CLK_SysTickLongDelay + 10
        0x00002812:    9801        ..      LDR      r0,[sp,#4]
        0x00002814:    9900        ..      LDR      r1,[sp,#0]
        0x00002816:    4288        .B      CMP      r0,r1
        0x00002818:    d905        ..      BLS      0x2826 ; CLK_SysTickLongDelay + 30
        0x0000281a:    e7ff        ..      B        0x281c ; CLK_SysTickLongDelay + 20
        0x0000281c:    9900        ..      LDR      r1,[sp,#0]
        0x0000281e:    9801        ..      LDR      r0,[sp,#4]
        0x00002820:    1a40        @.      SUBS     r0,r0,r1
        0x00002822:    9001        ..      STR      r0,[sp,#4]
        0x00002824:    e004        ..      B        0x2830 ; CLK_SysTickLongDelay + 40
        0x00002826:    9801        ..      LDR      r0,[sp,#4]
        0x00002828:    9000        ..      STR      r0,[sp,#0]
        0x0000282a:    2000        .       MOVS     r0,#0
        0x0000282c:    9001        ..      STR      r0,[sp,#4]
        0x0000282e:    e7ff        ..      B        0x2830 ; CLK_SysTickLongDelay + 40
        0x00002830:    9900        ..      LDR      r1,[sp,#0]
        0x00002832:    480f        .H      LDR      r0,[pc,#60] ; [0x2870] = 0x2000000c
        0x00002834:    6800        .h      LDR      r0,[r0,#0]
        0x00002836:    4348        HC      MULS     r0,r1,r0
        0x00002838:    490e        .I      LDR      r1,[pc,#56] ; [0x2874] = 0xe000e014
        0x0000283a:    6008        .`      STR      r0,[r1,#0]
        0x0000283c:    490e        .I      LDR      r1,[pc,#56] ; [0x2878] = 0xe000e018
        0x0000283e:    2000        .       MOVS     r0,#0
        0x00002840:    6008        .`      STR      r0,[r1,#0]
        0x00002842:    490e        .I      LDR      r1,[pc,#56] ; [0x287c] = 0xe000e010
        0x00002844:    2005        .       MOVS     r0,#5
        0x00002846:    6008        .`      STR      r0,[r1,#0]
        0x00002848:    e7ff        ..      B        0x284a ; CLK_SysTickLongDelay + 66
        0x0000284a:    480c        .H      LDR      r0,[pc,#48] ; [0x287c] = 0xe000e010
        0x0000284c:    6800        .h      LDR      r0,[r0,#0]
        0x0000284e:    03c0        ..      LSLS     r0,r0,#15
        0x00002850:    2800        .(      CMP      r0,#0
        0x00002852:    d401        ..      BMI      0x2858 ; CLK_SysTickLongDelay + 80
        0x00002854:    e7ff        ..      B        0x2856 ; CLK_SysTickLongDelay + 78
        0x00002856:    e7f8        ..      B        0x284a ; CLK_SysTickLongDelay + 66
        0x00002858:    4908        .I      LDR      r1,[pc,#32] ; [0x287c] = 0xe000e010
        0x0000285a:    2000        .       MOVS     r0,#0
        0x0000285c:    6008        .`      STR      r0,[r1,#0]
        0x0000285e:    e7ff        ..      B        0x2860 ; CLK_SysTickLongDelay + 88
        0x00002860:    9801        ..      LDR      r0,[sp,#4]
        0x00002862:    2800        .(      CMP      r0,#0
        0x00002864:    d1d5        ..      BNE      0x2812 ; CLK_SysTickLongDelay + 10
        0x00002866:    e7ff        ..      B        0x2868 ; CLK_SysTickLongDelay + 96
        0x00002868:    b002        ..      ADD      sp,sp,#8
        0x0000286a:    4770        pG      BX       lr
    $d.43
    __arm_cp.21_0
        0x0000286c:    00055555    UU..    DCD    349525
    __arm_cp.21_1
        0x00002870:    2000000c    ...     DCD    536870924
    __arm_cp.21_2
        0x00002874:    e000e014    ....    DCD    3758153748
    __arm_cp.21_3
        0x00002878:    e000e018    ....    DCD    3758153752
    __arm_cp.21_4
        0x0000287c:    e000e010    ....    DCD    3758153744
    $t.26
    CLK_WaitClockReady
        0x00002880:    b083        ..      SUB      sp,sp,#0xc
        0x00002882:    9002        ..      STR      r0,[sp,#8]
        0x00002884:    48d3        .H      LDR      r0,[pc,#844] ; [0x2bd4] = 0x20000014
        0x00002886:    6800        .h      LDR      r0,[r0,#0]
        0x00002888:    9001        ..      STR      r0,[sp,#4]
        0x0000288a:    2001        .       MOVS     r0,#1
        0x0000288c:    9000        ..      STR      r0,[sp,#0]
        0x0000288e:    4910        .I      LDR      r1,[pc,#64] ; [0x28d0] = 0x200004b0
        0x00002890:    2000        .       MOVS     r0,#0
        0x00002892:    6008        .`      STR      r0,[r1,#0]
        0x00002894:    e7ff        ..      B        0x2896 ; CLK_WaitClockReady + 22
        0x00002896:    480f        .H      LDR      r0,[pc,#60] ; [0x28d4] = 0x40000250
        0x00002898:    6800        .h      LDR      r0,[r0,#0]
        0x0000289a:    9902        ..      LDR      r1,[sp,#8]
        0x0000289c:    4008        .@      ANDS     r0,r0,r1
        0x0000289e:    4288        .B      CMP      r0,r1
        0x000028a0:    d009        ..      BEQ      0x28b6 ; CLK_WaitClockReady + 54
        0x000028a2:    e7ff        ..      B        0x28a4 ; CLK_WaitClockReady + 36
        0x000028a4:    9801        ..      LDR      r0,[sp,#4]
        0x000028a6:    1e40        @.      SUBS     r0,r0,#1
        0x000028a8:    9001        ..      STR      r0,[sp,#4]
        0x000028aa:    b918        ..      CBNZ     r0,0x28b4 ; CLK_WaitClockReady + 52
        0x000028ac:    e7ff        ..      B        0x28ae ; CLK_WaitClockReady + 46
        0x000028ae:    2000        .       MOVS     r0,#0
        0x000028b0:    9000        ..      STR      r0,[sp,#0]
        0x000028b2:    e000        ..      B        0x28b6 ; CLK_WaitClockReady + 54
        0x000028b4:    e7ef        ..      B        0x2896 ; CLK_WaitClockReady + 22
        0x000028b6:    9801        ..      LDR      r0,[sp,#4]
        0x000028b8:    b928        (.      CBNZ     r0,0x28c6 ; CLK_WaitClockReady + 70
        0x000028ba:    e7ff        ..      B        0x28bc ; CLK_WaitClockReady + 60
        0x000028bc:    4904        .I      LDR      r1,[pc,#16] ; [0x28d0] = 0x200004b0
        0x000028be:    2000        .       MOVS     r0,#0
        0x000028c0:    43c0        .C      MVNS     r0,r0
        0x000028c2:    6008        .`      STR      r0,[r1,#0]
        0x000028c4:    e7ff        ..      B        0x28c6 ; CLK_WaitClockReady + 70
        0x000028c6:    9800        ..      LDR      r0,[sp,#0]
        0x000028c8:    b003        ..      ADD      sp,sp,#0xc
        0x000028ca:    4770        pG      BX       lr
    $d.27
    __arm_cp.13_0
        0x000028cc:    20000014    ...     DCD    536870932
    __arm_cp.13_1
        0x000028d0:    200004b0    ...     DCD    536872112
    __arm_cp.13_2
        0x000028d4:    40000250    P..@    DCD    1073742416
    $t.0
    Clock_Init
        0x000028d8:    b580        ..      PUSH     {r7,lr}
        0x000028da:    b088        ..      SUB      sp,sp,#0x20
        0x000028dc:    482a        *H      LDR      r0,[pc,#168] ; [0x2988] = 0x8000d
        0x000028de:    f7fffde3    ....    BL       CLK_EnableXtalRC ; 0x24a8
        0x000028e2:    2059        Y       MOVS     r0,#0x59
        0x000028e4:    f7ffffcc    ....    BL       CLK_WaitClockReady ; 0x2880
        0x000028e8:    2100        .!      MOVS     r1,#0
        0x000028ea:    9107        ..      STR      r1,[sp,#0x1c]
        0x000028ec:    4608        .F      MOV      r0,r1
        0x000028ee:    f7fffecb    ....    BL       CLK_SetHCLK ; 0x2688
        0x000028f2:    9807        ..      LDR      r0,[sp,#0x1c]
        0x000028f4:    4925        %I      LDR      r1,[pc,#148] ; [0x298c] = 0x40000234
        0x000028f6:    6008        .`      STR      r0,[r1,#0]
        0x000028f8:    200f        .       MOVS     r0,#0xf
        0x000028fa:    f7fffdb7    ....    BL       CLK_EnableModuleClock ; 0x246c
        0x000028fe:    4824        $H      LDR      r0,[pc,#144] ; [0x2990] = 0x40000009
        0x00002900:    f7fffdb4    ....    BL       CLK_EnableModuleClock ; 0x246c
        0x00002904:    2002        .       MOVS     r0,#2
        0x00002906:    f7fffdb1    ....    BL       CLK_EnableModuleClock ; 0x246c
        0x0000290a:    4822        "H      LDR      r0,[pc,#136] ; [0x2994] = 0x6640000d
        0x0000290c:    9001        ..      STR      r0,[sp,#4]
        0x0000290e:    f7fffdad    ....    BL       CLK_EnableModuleClock ; 0x246c
        0x00002912:    4821        !H      LDR      r0,[pc,#132] ; [0x2998] = 0x5e800002
        0x00002914:    9002        ..      STR      r0,[sp,#8]
        0x00002916:    f7fffda9    ....    BL       CLK_EnableModuleClock ; 0x246c
        0x0000291a:    4820         H      LDR      r0,[pc,#128] ; [0x299c] = 0x5ec00003
        0x0000291c:    9003        ..      STR      r0,[sp,#0xc]
        0x0000291e:    f7fffda5    ....    BL       CLK_EnableModuleClock ; 0x246c
        0x00002922:    481f        .H      LDR      r0,[pc,#124] ; [0x29a0] = 0x7f8c3c12
        0x00002924:    9004        ..      STR      r0,[sp,#0x10]
        0x00002926:    f7fffda1    ....    BL       CLK_EnableModuleClock ; 0x246c
        0x0000292a:    202b        +       MOVS     r0,#0x2b
        0x0000292c:    0640        @.      LSLS     r0,r0,#25
        0x0000292e:    9005        ..      STR      r0,[sp,#0x14]
        0x00002930:    f7fffd9c    ....    BL       CLK_EnableModuleClock ; 0x246c
        0x00002934:    481b        .H      LDR      r0,[pc,#108] ; [0x29a4] = 0x56200000
        0x00002936:    9006        ..      STR      r0,[sp,#0x18]
        0x00002938:    f7fffd98    ....    BL       CLK_EnableModuleClock ; 0x246c
        0x0000293c:    9801        ..      LDR      r0,[sp,#4]
        0x0000293e:    9a07        ..      LDR      r2,[sp,#0x1c]
        0x00002940:    2120         !      MOVS     r1,#0x20
        0x00002942:    f7fffed1    ....    BL       CLK_SetModuleClock ; 0x26e8
        0x00002946:    9802        ..      LDR      r0,[sp,#8]
        0x00002948:    9a07        ..      LDR      r2,[sp,#0x1c]
        0x0000294a:    f2407100    @..q    MOVW     r1,#0x700
        0x0000294e:    f7fffecb    ....    BL       CLK_SetModuleClock ; 0x26e8
        0x00002952:    9803        ..      LDR      r0,[sp,#0xc]
        0x00002954:    9a07        ..      LDR      r2,[sp,#0x1c]
        0x00002956:    f2470100    G...    MOVW     r1,#0x7000
        0x0000295a:    f7fffec5    ....    BL       CLK_SetModuleClock ; 0x26e8
        0x0000295e:    9804        ..      LDR      r0,[sp,#0x10]
        0x00002960:    9a07        ..      LDR      r2,[sp,#0x1c]
        0x00002962:    2101        .!      MOVS     r1,#1
        0x00002964:    0689        ..      LSLS     r1,r1,#26
        0x00002966:    f7fffebf    ....    BL       CLK_SetModuleClock ; 0x26e8
        0x0000296a:    9805        ..      LDR      r0,[sp,#0x14]
        0x0000296c:    9a07        ..      LDR      r2,[sp,#0x1c]
        0x0000296e:    2103        .!      MOVS     r1,#3
        0x00002970:    f7fffeba    ....    BL       CLK_SetModuleClock ; 0x26e8
        0x00002974:    9806        ..      LDR      r0,[sp,#0x18]
        0x00002976:    9a07        ..      LDR      r2,[sp,#0x1c]
        0x00002978:    2108        .!      MOVS     r1,#8
        0x0000297a:    f7fffeb5    ....    BL       CLK_SetModuleClock ; 0x26e8
        0x0000297e:    f001fe73    ..s.    BL       SystemCoreClockUpdate ; 0x4668
        0x00002982:    b008        ..      ADD      sp,sp,#0x20
        0x00002984:    bd80        ..      POP      {r7,pc}
        0x00002986:    46c0        .F      MOV      r8,r8
    $d.1
    __arm_cp.0_0
        0x00002988:    0008000d    ....    DCD    524301
    __arm_cp.0_1
        0x0000298c:    40000234    4..@    DCD    1073742388
    __arm_cp.0_2
        0x00002990:    40000009    ...@    DCD    1073741833
    __arm_cp.0_3
        0x00002994:    6640000d    ..@f    DCD    1715470349
    __arm_cp.0_4
        0x00002998:    5e800002    ...^    DCD    1585446914
    __arm_cp.0_5
        0x0000299c:    5ec00003    ...^    DCD    1589641219
    __arm_cp.0_6
        0x000029a0:    7f8c3c12    .<..    DCD    2139896850
    __arm_cp.0_7
        0x000029a4:    56200000    .. V    DCD    1444937728
    $t.6
    Down
        0x000029a8:    b580        ..      PUSH     {r7,lr}
        0x000029aa:    b082        ..      SUB      sp,sp,#8
        0x000029ac:    9001        ..      STR      r0,[sp,#4]
        0x000029ae:    9801        ..      LDR      r0,[sp,#4]
        0x000029b0:    6800        .h      LDR      r0,[r0,#0]
        0x000029b2:    6900        .i      LDR      r0,[r0,#0x10]
        0x000029b4:    b148        H.      CBZ      r0,0x29ca ; Down + 34
        0x000029b6:    e7ff        ..      B        0x29b8 ; Down + 16
        0x000029b8:    9901        ..      LDR      r1,[sp,#4]
        0x000029ba:    6808        .h      LDR      r0,[r1,#0]
        0x000029bc:    6900        .i      LDR      r0,[r0,#0x10]
        0x000029be:    6008        .`      STR      r0,[r1,#0]
        0x000029c0:    9801        ..      LDR      r0,[sp,#4]
        0x000029c2:    6800        .h      LDR      r0,[r0,#0]
        0x000029c4:    6800        .h      LDR      r0,[r0,#0]
        0x000029c6:    4780        .G      BLX      r0
        0x000029c8:    e7ff        ..      B        0x29ca ; Down + 34
        0x000029ca:    b002        ..      ADD      sp,sp,#8
        0x000029cc:    bd80        ..      POP      {r7,pc}
    DumpStack
        0x000029ce:    b081        ..      SUB      sp,sp,#4
        0x000029d0:    9000        ..      STR      r0,[sp,#0]
        0x000029d2:    b001        ..      ADD      sp,sp,#4
        0x000029d4:    4770        pG      BX       lr
        0x000029d6:    0000        ..      MOVS     r0,r0
    EINT0_IRQHandler
        0x000029d8:    b580        ..      PUSH     {r7,lr}
        0x000029da:    48b3        .H      LDR      r0,[pc,#716] ; [0x2ca8] = 0x40004060
        0x000029dc:    6800        .h      LDR      r0,[r0,#0]
        0x000029de:    0680        ..      LSLS     r0,r0,#26
        0x000029e0:    2800        .(      CMP      r0,#0
        0x000029e2:    d507        ..      BPL      0x29f4 ; EINT0_IRQHandler + 28
        0x000029e4:    e7ff        ..      B        0x29e6 ; EINT0_IRQHandler + 14
        0x000029e6:    49b0        .I      LDR      r1,[pc,#704] ; [0x2ca8] = 0x40004060
        0x000029e8:    2020                MOVS     r0,#0x20
        0x000029ea:    6008        .`      STR      r0,[r1,#0]
        0x000029ec:    4802        .H      LDR      r0,[pc,#8] ; [0x29f8] = 0x790a
        0x000029ee:    f004f8cd    ....    BL       __0printf ; 0x6b8c
        0x000029f2:    e7ff        ..      B        0x29f4 ; EINT0_IRQHandler + 28
        0x000029f4:    bd80        ..      POP      {r7,pc}
        0x000029f6:    46c0        .F      MOV      r8,r8
    $d.7
    __arm_cp.3_1
        0x000029f8:    0000790a    .y..    DCD    30986
    $t.8
    EINT1_IRQHandler
        0x000029fc:    b580        ..      PUSH     {r7,lr}
        0x000029fe:    48aa        .H      LDR      r0,[pc,#680] ; [0x2ca8] = 0x40004060
        0x00002a00:    6800        .h      LDR      r0,[r0,#0]
        0x00002a02:    06c0        ..      LSLS     r0,r0,#27
        0x00002a04:    2800        .(      CMP      r0,#0
        0x00002a06:    d507        ..      BPL      0x2a18 ; EINT1_IRQHandler + 28
        0x00002a08:    e7ff        ..      B        0x2a0a ; EINT1_IRQHandler + 14
        0x00002a0a:    49a7        .I      LDR      r1,[pc,#668] ; [0x2ca8] = 0x40004060
        0x00002a0c:    2010        .       MOVS     r0,#0x10
        0x00002a0e:    6008        .`      STR      r0,[r1,#0]
        0x00002a10:    4802        .H      LDR      r0,[pc,#8] ; [0x2a1c] = 0x7920
        0x00002a12:    f004f8bb    ....    BL       __0printf ; 0x6b8c
        0x00002a16:    e7ff        ..      B        0x2a18 ; EINT1_IRQHandler + 28
        0x00002a18:    bd80        ..      POP      {r7,pc}
        0x00002a1a:    46c0        .F      MOV      r8,r8
    $d.9
    __arm_cp.4_1
        0x00002a1c:    00007920     y..    DCD    31008
    $t.10
    EINT3_IRQHandler
        0x00002a20:    b580        ..      PUSH     {r7,lr}
        0x00002a22:    48a1        .H      LDR      r0,[pc,#644] ; [0x2ca8] = 0x40004060
        0x00002a24:    6800        .h      LDR      r0,[r0,#0]
        0x00002a26:    0740        @.      LSLS     r0,r0,#29
        0x00002a28:    2800        .(      CMP      r0,#0
        0x00002a2a:    d507        ..      BPL      0x2a3c ; EINT3_IRQHandler + 28
        0x00002a2c:    e7ff        ..      B        0x2a2e ; EINT3_IRQHandler + 14
        0x00002a2e:    499e        .I      LDR      r1,[pc,#632] ; [0x2ca8] = 0x40004060
        0x00002a30:    2004        .       MOVS     r0,#4
        0x00002a32:    6008        .`      STR      r0,[r1,#0]
        0x00002a34:    4802        .H      LDR      r0,[pc,#8] ; [0x2a40] = 0x7936
        0x00002a36:    f004f8a9    ....    BL       __0printf ; 0x6b8c
        0x00002a3a:    e7ff        ..      B        0x2a3c ; EINT3_IRQHandler + 28
        0x00002a3c:    bd80        ..      POP      {r7,pc}
        0x00002a3e:    46c0        .F      MOV      r8,r8
    $d.11
    __arm_cp.5_1
        0x00002a40:    00007936    6y..    DCD    31030
    $t.3
    Enter
        0x00002a44:    b580        ..      PUSH     {r7,lr}
        0x00002a46:    b082        ..      SUB      sp,sp,#8
        0x00002a48:    9001        ..      STR      r0,[sp,#4]
        0x00002a4a:    9801        ..      LDR      r0,[sp,#4]
        0x00002a4c:    6800        .h      LDR      r0,[r0,#0]
        0x00002a4e:    6840        @h      LDR      r0,[r0,#4]
        0x00002a50:    b148        H.      CBZ      r0,0x2a66 ; Enter + 34
        0x00002a52:    e7ff        ..      B        0x2a54 ; Enter + 16
        0x00002a54:    9901        ..      LDR      r1,[sp,#4]
        0x00002a56:    6808        .h      LDR      r0,[r1,#0]
        0x00002a58:    6840        @h      LDR      r0,[r0,#4]
        0x00002a5a:    6008        .`      STR      r0,[r1,#0]
        0x00002a5c:    9801        ..      LDR      r0,[sp,#4]
        0x00002a5e:    6800        .h      LDR      r0,[r0,#0]
        0x00002a60:    6800        .h      LDR      r0,[r0,#0]
        0x00002a62:    4780        .G      BLX      r0
        0x00002a64:    e7ff        ..      B        0x2a66 ; Enter + 34
        0x00002a66:    b002        ..      ADD      sp,sp,#8
        0x00002a68:    bd80        ..      POP      {r7,pc}
    Exit
        0x00002a6a:    b580        ..      PUSH     {r7,lr}
        0x00002a6c:    b082        ..      SUB      sp,sp,#8
        0x00002a6e:    9001        ..      STR      r0,[sp,#4]
        0x00002a70:    9801        ..      LDR      r0,[sp,#4]
        0x00002a72:    6800        .h      LDR      r0,[r0,#0]
        0x00002a74:    6880        .h      LDR      r0,[r0,#8]
        0x00002a76:    b148        H.      CBZ      r0,0x2a8c ; Exit + 34
        0x00002a78:    e7ff        ..      B        0x2a7a ; Exit + 16
        0x00002a7a:    9901        ..      LDR      r1,[sp,#4]
        0x00002a7c:    6808        .h      LDR      r0,[r1,#0]
        0x00002a7e:    6880        .h      LDR      r0,[r0,#8]
        0x00002a80:    6008        .`      STR      r0,[r1,#0]
        0x00002a82:    9801        ..      LDR      r0,[sp,#4]
        0x00002a84:    6800        .h      LDR      r0,[r0,#0]
        0x00002a86:    6800        .h      LDR      r0,[r0,#0]
        0x00002a88:    4780        .G      BLX      r0
        0x00002a8a:    e7ff        ..      B        0x2a8c ; Exit + 34
        0x00002a8c:    b002        ..      ADD      sp,sp,#8
        0x00002a8e:    bd80        ..      POP      {r7,pc}
    FMC_Close
        0x00002a90:    4931        1I      LDR      r1,[pc,#196] ; [0x2b58] = 0x4000c000
        0x00002a92:    6808        .h      LDR      r0,[r1,#0]
        0x00002a94:    2201        ."      MOVS     r2,#1
        0x00002a96:    4390        .C      BICS     r0,r0,r2
        0x00002a98:    6008        .`      STR      r0,[r1,#0]
        0x00002a9a:    4770        pG      BX       lr
    FMC_Erase
        0x00002a9c:    b085        ..      SUB      sp,sp,#0x14
        0x00002a9e:    9003        ..      STR      r0,[sp,#0xc]
        0x00002aa0:    2000        .       MOVS     r0,#0
        0x00002aa2:    9002        ..      STR      r0,[sp,#8]
        0x00002aa4:    496e        nI      LDR      r1,[pc,#440] ; [0x2c60] = 0x200004b4
        0x00002aa6:    6008        .`      STR      r0,[r1,#0]
        0x00002aa8:    496e        nI      LDR      r1,[pc,#440] ; [0x2c64] = 0x4000c00c
        0x00002aaa:    2022        "       MOVS     r0,#0x22
        0x00002aac:    6008        .`      STR      r0,[r1,#0]
        0x00002aae:    9803        ..      LDR      r0,[sp,#0xc]
        0x00002ab0:    496d        mI      LDR      r1,[pc,#436] ; [0x2c68] = 0x4000c004
        0x00002ab2:    6008        .`      STR      r0,[r1,#0]
        0x00002ab4:    496e        nI      LDR      r1,[pc,#440] ; [0x2c70] = 0x4000c010
        0x00002ab6:    2001        .       MOVS     r0,#1
        0x00002ab8:    6008        .`      STR      r0,[r1,#0]
        0x00002aba:    486e        nH      LDR      r0,[pc,#440] ; [0x2c74] = 0x20000014
        0x00002abc:    6800        .h      LDR      r0,[r0,#0]
        0x00002abe:    210a        .!      MOVS     r1,#0xa
        0x00002ac0:    fbb0f0f1    ....    UDIV     r0,r0,r1
        0x00002ac4:    0080        ..      LSLS     r0,r0,#2
        0x00002ac6:    9001        ..      STR      r0,[sp,#4]
        0x00002ac8:    e7ff        ..      B        0x2aca ; FMC_Erase + 46
        0x00002aca:    9901        ..      LDR      r1,[sp,#4]
        0x00002acc:    1e48        H.      SUBS     r0,r1,#1
        0x00002ace:    9001        ..      STR      r0,[sp,#4]
        0x00002ad0:    2000        .       MOVS     r0,#0
        0x00002ad2:    2901        .)      CMP      r1,#1
        0x00002ad4:    9000        ..      STR      r0,[sp,#0]
        0x00002ad6:    db06        ..      BLT      0x2ae6 ; FMC_Erase + 74
        0x00002ad8:    e7ff        ..      B        0x2ada ; FMC_Erase + 62
        0x00002ada:    4865        eH      LDR      r0,[pc,#404] ; [0x2c70] = 0x4000c010
        0x00002adc:    6800        .h      LDR      r0,[r0,#0]
        0x00002ade:    2101        .!      MOVS     r1,#1
        0x00002ae0:    4008        .@      ANDS     r0,r0,r1
        0x00002ae2:    9000        ..      STR      r0,[sp,#0]
        0x00002ae4:    e7ff        ..      B        0x2ae6 ; FMC_Erase + 74
        0x00002ae6:    9800        ..      LDR      r0,[sp,#0]
        0x00002ae8:    07c0        ..      LSLS     r0,r0,#31
        0x00002aea:    b108        ..      CBZ      r0,0x2af0 ; FMC_Erase + 84
        0x00002aec:    e7ff        ..      B        0x2aee ; FMC_Erase + 82
        0x00002aee:    e7ec        ..      B        0x2aca ; FMC_Erase + 46
        0x00002af0:    9801        ..      LDR      r0,[sp,#4]
        0x00002af2:    2800        .(      CMP      r0,#0
        0x00002af4:    dc06        ..      BGT      0x2b04 ; FMC_Erase + 104
        0x00002af6:    e7ff        ..      B        0x2af8 ; FMC_Erase + 92
        0x00002af8:    4959        YI      LDR      r1,[pc,#356] ; [0x2c60] = 0x200004b4
        0x00002afa:    2000        .       MOVS     r0,#0
        0x00002afc:    43c0        .C      MVNS     r0,r0
        0x00002afe:    6008        .`      STR      r0,[r1,#0]
        0x00002b00:    9004        ..      STR      r0,[sp,#0x10]
        0x00002b02:    e015        ..      B        0x2b30 ; FMC_Erase + 148
        0x00002b04:    4814        .H      LDR      r0,[pc,#80] ; [0x2b58] = 0x4000c000
        0x00002b06:    6800        .h      LDR      r0,[r0,#0]
        0x00002b08:    0640        @.      LSLS     r0,r0,#25
        0x00002b0a:    2800        .(      CMP      r0,#0
        0x00002b0c:    d50d        ..      BPL      0x2b2a ; FMC_Erase + 142
        0x00002b0e:    e7ff        ..      B        0x2b10 ; FMC_Erase + 116
        0x00002b10:    4911        .I      LDR      r1,[pc,#68] ; [0x2b58] = 0x4000c000
        0x00002b12:    6808        .h      LDR      r0,[r1,#0]
        0x00002b14:    2240        @"      MOVS     r2,#0x40
        0x00002b16:    4310        .C      ORRS     r0,r0,r2
        0x00002b18:    6008        .`      STR      r0,[r1,#0]
        0x00002b1a:    4951        QI      LDR      r1,[pc,#324] ; [0x2c60] = 0x200004b4
        0x00002b1c:    2002        .       MOVS     r0,#2
        0x00002b1e:    43c0        .C      MVNS     r0,r0
        0x00002b20:    6008        .`      STR      r0,[r1,#0]
        0x00002b22:    2000        .       MOVS     r0,#0
        0x00002b24:    43c0        .C      MVNS     r0,r0
        0x00002b26:    9002        ..      STR      r0,[sp,#8]
        0x00002b28:    e7ff        ..      B        0x2b2a ; FMC_Erase + 142
        0x00002b2a:    9802        ..      LDR      r0,[sp,#8]
        0x00002b2c:    9004        ..      STR      r0,[sp,#0x10]
        0x00002b2e:    e7ff        ..      B        0x2b30 ; FMC_Erase + 148
        0x00002b30:    9804        ..      LDR      r0,[sp,#0x10]
        0x00002b32:    b005        ..      ADD      sp,sp,#0x14
        0x00002b34:    4770        pG      BX       lr
        0x00002b36:    46c0        .F      MOV      r8,r8
    FMC_Init
        0x00002b38:    b580        ..      PUSH     {r7,lr}
        0x00002b3a:    f000f807    ....    BL       FMC_Open ; 0x2b4c
        0x00002b3e:    4906        .I      LDR      r1,[pc,#24] ; [0x2b58] = 0x4000c000
        0x00002b40:    6808        .h      LDR      r0,[r1,#0]
        0x00002b42:    2210        ."      MOVS     r2,#0x10
        0x00002b44:    4310        .C      ORRS     r0,r0,r2
        0x00002b46:    6008        .`      STR      r0,[r1,#0]
        0x00002b48:    bd80        ..      POP      {r7,pc}
        0x00002b4a:    46c0        .F      MOV      r8,r8
    FMC_Open
        0x00002b4c:    4902        .I      LDR      r1,[pc,#8] ; [0x2b58] = 0x4000c000
        0x00002b4e:    6808        .h      LDR      r0,[r1,#0]
        0x00002b50:    2201        ."      MOVS     r2,#1
        0x00002b52:    4310        .C      ORRS     r0,r0,r2
        0x00002b54:    6008        .`      STR      r0,[r1,#0]
        0x00002b56:    4770        pG      BX       lr
    $d.7
    __arm_cp.3_0
        0x00002b58:    4000c000    ...@    DCD    1073790976
    $t.10
    FMC_Read
        0x00002b5c:    b084        ..      SUB      sp,sp,#0x10
        0x00002b5e:    9002        ..      STR      r0,[sp,#8]
        0x00002b60:    493f        ?I      LDR      r1,[pc,#252] ; [0x2c60] = 0x200004b4
        0x00002b62:    2000        .       MOVS     r0,#0
        0x00002b64:    6008        .`      STR      r0,[r1,#0]
        0x00002b66:    493f        ?I      LDR      r1,[pc,#252] ; [0x2c64] = 0x4000c00c
        0x00002b68:    6008        .`      STR      r0,[r1,#0]
        0x00002b6a:    9902        ..      LDR      r1,[sp,#8]
        0x00002b6c:    4a3e        >J      LDR      r2,[pc,#248] ; [0x2c68] = 0x4000c004
        0x00002b6e:    6011        .`      STR      r1,[r2,#0]
        0x00002b70:    493e        >I      LDR      r1,[pc,#248] ; [0x2c6c] = 0x4000c008
        0x00002b72:    6008        .`      STR      r0,[r1,#0]
        0x00002b74:    493e        >I      LDR      r1,[pc,#248] ; [0x2c70] = 0x4000c010
        0x00002b76:    2001        .       MOVS     r0,#1
        0x00002b78:    6008        .`      STR      r0,[r1,#0]
        0x00002b7a:    483e        >H      LDR      r0,[pc,#248] ; [0x2c74] = 0x20000014
        0x00002b7c:    6800        .h      LDR      r0,[r0,#0]
        0x00002b7e:    210a        .!      MOVS     r1,#0xa
        0x00002b80:    fbb0f0f1    ....    UDIV     r0,r0,r1
        0x00002b84:    0040        @.      LSLS     r0,r0,#1
        0x00002b86:    9001        ..      STR      r0,[sp,#4]
        0x00002b88:    e7ff        ..      B        0x2b8a ; FMC_Read + 46
        0x00002b8a:    9901        ..      LDR      r1,[sp,#4]
        0x00002b8c:    1e48        H.      SUBS     r0,r1,#1
        0x00002b8e:    9001        ..      STR      r0,[sp,#4]
        0x00002b90:    2000        .       MOVS     r0,#0
        0x00002b92:    2901        .)      CMP      r1,#1
        0x00002b94:    9000        ..      STR      r0,[sp,#0]
        0x00002b96:    db06        ..      BLT      0x2ba6 ; FMC_Read + 74
        0x00002b98:    e7ff        ..      B        0x2b9a ; FMC_Read + 62
        0x00002b9a:    4835        5H      LDR      r0,[pc,#212] ; [0x2c70] = 0x4000c010
        0x00002b9c:    6800        .h      LDR      r0,[r0,#0]
        0x00002b9e:    2101        .!      MOVS     r1,#1
        0x00002ba0:    4008        .@      ANDS     r0,r0,r1
        0x00002ba2:    9000        ..      STR      r0,[sp,#0]
        0x00002ba4:    e7ff        ..      B        0x2ba6 ; FMC_Read + 74
        0x00002ba6:    9800        ..      LDR      r0,[sp,#0]
        0x00002ba8:    07c0        ..      LSLS     r0,r0,#31
        0x00002baa:    b108        ..      CBZ      r0,0x2bb0 ; FMC_Read + 84
        0x00002bac:    e7ff        ..      B        0x2bae ; FMC_Read + 82
        0x00002bae:    e7ec        ..      B        0x2b8a ; FMC_Read + 46
        0x00002bb0:    9801        ..      LDR      r0,[sp,#4]
        0x00002bb2:    2800        .(      CMP      r0,#0
        0x00002bb4:    dc06        ..      BGT      0x2bc4 ; FMC_Read + 104
        0x00002bb6:    e7ff        ..      B        0x2bb8 ; FMC_Read + 92
        0x00002bb8:    4929        )I      LDR      r1,[pc,#164] ; [0x2c60] = 0x200004b4
        0x00002bba:    2000        .       MOVS     r0,#0
        0x00002bbc:    43c0        .C      MVNS     r0,r0
        0x00002bbe:    6008        .`      STR      r0,[r1,#0]
        0x00002bc0:    9003        ..      STR      r0,[sp,#0xc]
        0x00002bc2:    e003        ..      B        0x2bcc ; FMC_Read + 112
        0x00002bc4:    4829        )H      LDR      r0,[pc,#164] ; [0x2c6c] = 0x4000c008
        0x00002bc6:    6800        .h      LDR      r0,[r0,#0]
        0x00002bc8:    9003        ..      STR      r0,[sp,#0xc]
        0x00002bca:    e7ff        ..      B        0x2bcc ; FMC_Read + 112
        0x00002bcc:    9803        ..      LDR      r0,[sp,#0xc]
        0x00002bce:    b004        ..      ADD      sp,sp,#0x10
        0x00002bd0:    4770        pG      BX       lr
        0x00002bd2:    46c0        .F      MOV      r8,r8
    $d.11
    __arm_cp.5_5
        0x00002bd4:    20000014    ...     DCD    536870932
    $t.13
    FMC_Write
        0x00002bd8:    b084        ..      SUB      sp,sp,#0x10
        0x00002bda:    9003        ..      STR      r0,[sp,#0xc]
        0x00002bdc:    9102        ..      STR      r1,[sp,#8]
        0x00002bde:    4920         I      LDR      r1,[pc,#128] ; [0x2c60] = 0x200004b4
        0x00002be0:    2000        .       MOVS     r0,#0
        0x00002be2:    6008        .`      STR      r0,[r1,#0]
        0x00002be4:    491f        .I      LDR      r1,[pc,#124] ; [0x2c64] = 0x4000c00c
        0x00002be6:    2021        !       MOVS     r0,#0x21
        0x00002be8:    6008        .`      STR      r0,[r1,#0]
        0x00002bea:    9803        ..      LDR      r0,[sp,#0xc]
        0x00002bec:    491e        .I      LDR      r1,[pc,#120] ; [0x2c68] = 0x4000c004
        0x00002bee:    6008        .`      STR      r0,[r1,#0]
        0x00002bf0:    9802        ..      LDR      r0,[sp,#8]
        0x00002bf2:    491e        .I      LDR      r1,[pc,#120] ; [0x2c6c] = 0x4000c008
        0x00002bf4:    6008        .`      STR      r0,[r1,#0]
        0x00002bf6:    491e        .I      LDR      r1,[pc,#120] ; [0x2c70] = 0x4000c010
        0x00002bf8:    2001        .       MOVS     r0,#1
        0x00002bfa:    6008        .`      STR      r0,[r1,#0]
        0x00002bfc:    481d        .H      LDR      r0,[pc,#116] ; [0x2c74] = 0x20000014
        0x00002bfe:    6800        .h      LDR      r0,[r0,#0]
        0x00002c00:    210a        .!      MOVS     r1,#0xa
        0x00002c02:    fbb0f0f1    ....    UDIV     r0,r0,r1
        0x00002c06:    0040        @.      LSLS     r0,r0,#1
        0x00002c08:    9001        ..      STR      r0,[sp,#4]
        0x00002c0a:    e7ff        ..      B        0x2c0c ; FMC_Write + 52
        0x00002c0c:    9901        ..      LDR      r1,[sp,#4]
        0x00002c0e:    1e48        H.      SUBS     r0,r1,#1
        0x00002c10:    9001        ..      STR      r0,[sp,#4]
        0x00002c12:    2000        .       MOVS     r0,#0
        0x00002c14:    2901        .)      CMP      r1,#1
        0x00002c16:    9000        ..      STR      r0,[sp,#0]
        0x00002c18:    db06        ..      BLT      0x2c28 ; FMC_Write + 80
        0x00002c1a:    e7ff        ..      B        0x2c1c ; FMC_Write + 68
        0x00002c1c:    4814        .H      LDR      r0,[pc,#80] ; [0x2c70] = 0x4000c010
        0x00002c1e:    6800        .h      LDR      r0,[r0,#0]
        0x00002c20:    2101        .!      MOVS     r1,#1
        0x00002c22:    4008        .@      ANDS     r0,r0,r1
        0x00002c24:    9000        ..      STR      r0,[sp,#0]
        0x00002c26:    e7ff        ..      B        0x2c28 ; FMC_Write + 80
        0x00002c28:    9800        ..      LDR      r0,[sp,#0]
        0x00002c2a:    07c0        ..      LSLS     r0,r0,#31
        0x00002c2c:    b108        ..      CBZ      r0,0x2c32 ; FMC_Write + 90
        0x00002c2e:    e7ff        ..      B        0x2c30 ; FMC_Write + 88
        0x00002c30:    e7ec        ..      B        0x2c0c ; FMC_Write + 52
        0x00002c32:    9801        ..      LDR      r0,[sp,#4]
        0x00002c34:    2800        .(      CMP      r0,#0
        0x00002c36:    dc05        ..      BGT      0x2c44 ; FMC_Write + 108
        0x00002c38:    e7ff        ..      B        0x2c3a ; FMC_Write + 98
        0x00002c3a:    4909        .I      LDR      r1,[pc,#36] ; [0x2c60] = 0x200004b4
        0x00002c3c:    2000        .       MOVS     r0,#0
        0x00002c3e:    43c0        .C      MVNS     r0,r0
        0x00002c40:    6008        .`      STR      r0,[r1,#0]
        0x00002c42:    e7ff        ..      B        0x2c44 ; FMC_Write + 108
        0x00002c44:    480c        .H      LDR      r0,[pc,#48] ; [0x2c78] = 0x4000c040
        0x00002c46:    6800        .h      LDR      r0,[r0,#0]
        0x00002c48:    0640        @.      LSLS     r0,r0,#25
        0x00002c4a:    2800        .(      CMP      r0,#0
        0x00002c4c:    d505        ..      BPL      0x2c5a ; FMC_Write + 130
        0x00002c4e:    e7ff        ..      B        0x2c50 ; FMC_Write + 120
        0x00002c50:    4903        .I      LDR      r1,[pc,#12] ; [0x2c60] = 0x200004b4
        0x00002c52:    2002        .       MOVS     r0,#2
        0x00002c54:    43c0        .C      MVNS     r0,r0
        0x00002c56:    6008        .`      STR      r0,[r1,#0]
        0x00002c58:    e7ff        ..      B        0x2c5a ; FMC_Write + 130
        0x00002c5a:    b004        ..      ADD      sp,sp,#0x10
        0x00002c5c:    4770        pG      BX       lr
        0x00002c5e:    46c0        .F      MOV      r8,r8
    $d.14
    __arm_cp.7_0
        0x00002c60:    200004b4    ...     DCD    536872116
    __arm_cp.7_1
        0x00002c64:    4000c00c    ...@    DCD    1073790988
    __arm_cp.7_2
        0x00002c68:    4000c004    ...@    DCD    1073790980
    __arm_cp.7_3
        0x00002c6c:    4000c008    ...@    DCD    1073790984
    __arm_cp.7_4
        0x00002c70:    4000c010    ...@    DCD    1073790992
    __arm_cp.7_5
        0x00002c74:    20000014    ...     DCD    536870932
    __arm_cp.7_6
        0x00002c78:    4000c040    @..@    DCD    1073791040
    $t.0
    GPB_IRQHandler
        0x00002c7c:    b580        ..      PUSH     {r7,lr}
        0x00002c7e:    480a        .H      LDR      r0,[pc,#40] ; [0x2ca8] = 0x40004060
        0x00002c80:    6800        .h      LDR      r0,[r0,#0]
        0x00002c82:    0740        @.      LSLS     r0,r0,#29
        0x00002c84:    2800        .(      CMP      r0,#0
        0x00002c86:    d507        ..      BPL      0x2c98 ; GPB_IRQHandler + 28
        0x00002c88:    e7ff        ..      B        0x2c8a ; GPB_IRQHandler + 14
        0x00002c8a:    4907        .I      LDR      r1,[pc,#28] ; [0x2ca8] = 0x40004060
        0x00002c8c:    2004        .       MOVS     r0,#4
        0x00002c8e:    6008        .`      STR      r0,[r1,#0]
        0x00002c90:    4806        .H      LDR      r0,[pc,#24] ; [0x2cac] = 0x7974
        0x00002c92:    f003ff7b    ..{.    BL       __0printf ; 0x6b8c
        0x00002c96:    e006        ..      B        0x2ca6 ; GPB_IRQHandler + 42
        0x00002c98:    4903        .I      LDR      r1,[pc,#12] ; [0x2ca8] = 0x40004060
        0x00002c9a:    6808        .h      LDR      r0,[r1,#0]
        0x00002c9c:    6008        .`      STR      r0,[r1,#0]
        0x00002c9e:    481d        .H      LDR      r0,[pc,#116] ; [0x2d14] = 0x7988
        0x00002ca0:    f003ff74    ..t.    BL       __0printf ; 0x6b8c
        0x00002ca4:    e7ff        ..      B        0x2ca6 ; GPB_IRQHandler + 42
        0x00002ca6:    bd80        ..      POP      {r7,pc}
    $d.1
    __arm_cp.0_0
        0x00002ca8:    40004060    `@.@    DCD    1073758304
    __arm_cp.0_2
        0x00002cac:    00007974    ty..    DCD    31092
    $t.2
    GPC_IRQHandler
        0x00002cb0:    b580        ..      PUSH     {r7,lr}
        0x00002cb2:    480a        .H      LDR      r0,[pc,#40] ; [0x2cdc] = 0x400040a0
        0x00002cb4:    6800        .h      LDR      r0,[r0,#0]
        0x00002cb6:    07c0        ..      LSLS     r0,r0,#31
        0x00002cb8:    b138        8.      CBZ      r0,0x2cca ; GPC_IRQHandler + 26
        0x00002cba:    e7ff        ..      B        0x2cbc ; GPC_IRQHandler + 12
        0x00002cbc:    4907        .I      LDR      r1,[pc,#28] ; [0x2cdc] = 0x400040a0
        0x00002cbe:    2001        .       MOVS     r0,#1
        0x00002cc0:    6008        .`      STR      r0,[r1,#0]
        0x00002cc2:    4807        .H      LDR      r0,[pc,#28] ; [0x2ce0] = 0x794c
        0x00002cc4:    f003ff62    ..b.    BL       __0printf ; 0x6b8c
        0x00002cc8:    e006        ..      B        0x2cd8 ; GPC_IRQHandler + 40
        0x00002cca:    4904        .I      LDR      r1,[pc,#16] ; [0x2cdc] = 0x400040a0
        0x00002ccc:    6808        .h      LDR      r0,[r1,#0]
        0x00002cce:    6008        .`      STR      r0,[r1,#0]
        0x00002cd0:    4810        .H      LDR      r0,[pc,#64] ; [0x2d14] = 0x7988
        0x00002cd2:    f003ff5b    ..[.    BL       __0printf ; 0x6b8c
        0x00002cd6:    e7ff        ..      B        0x2cd8 ; GPC_IRQHandler + 40
        0x00002cd8:    bd80        ..      POP      {r7,pc}
        0x00002cda:    46c0        .F      MOV      r8,r8
    $d.3
    __arm_cp.1_0
        0x00002cdc:    400040a0    .@.@    DCD    1073758368
    __arm_cp.1_2
        0x00002ce0:    0000794c    Ly..    DCD    31052
    $t.4
    GPD_IRQHandler
        0x00002ce4:    b580        ..      PUSH     {r7,lr}
        0x00002ce6:    480a        .H      LDR      r0,[pc,#40] ; [0x2d10] = 0x400040e0
        0x00002ce8:    6800        .h      LDR      r0,[r0,#0]
        0x00002cea:    07c0        ..      LSLS     r0,r0,#31
        0x00002cec:    b138        8.      CBZ      r0,0x2cfe ; GPD_IRQHandler + 26
        0x00002cee:    e7ff        ..      B        0x2cf0 ; GPD_IRQHandler + 12
        0x00002cf0:    4907        .I      LDR      r1,[pc,#28] ; [0x2d10] = 0x400040e0
        0x00002cf2:    2001        .       MOVS     r0,#1
        0x00002cf4:    6008        .`      STR      r0,[r1,#0]
        0x00002cf6:    4808        .H      LDR      r0,[pc,#32] ; [0x2d18] = 0x7960
        0x00002cf8:    f003ff48    ..H.    BL       __0printf ; 0x6b8c
        0x00002cfc:    e006        ..      B        0x2d0c ; GPD_IRQHandler + 40
        0x00002cfe:    4904        .I      LDR      r1,[pc,#16] ; [0x2d10] = 0x400040e0
        0x00002d00:    6808        .h      LDR      r0,[r1,#0]
        0x00002d02:    6008        .`      STR      r0,[r1,#0]
        0x00002d04:    4803        .H      LDR      r0,[pc,#12] ; [0x2d14] = 0x7988
        0x00002d06:    f003ff41    ..A.    BL       __0printf ; 0x6b8c
        0x00002d0a:    e7ff        ..      B        0x2d0c ; GPD_IRQHandler + 40
        0x00002d0c:    bd80        ..      POP      {r7,pc}
        0x00002d0e:    46c0        .F      MOV      r8,r8
    $d.5
    __arm_cp.2_0
        0x00002d10:    400040e0    .@.@    DCD    1073758432
    __arm_cp.2_1
        0x00002d14:    00007988    .y..    DCD    31112
    __arm_cp.2_2
        0x00002d18:    00007960    `y..    DCD    31072
    $t.2
    GPIO_Init
        0x00002d1c:    b570        p.      PUSH     {r4-r6,lr}
        0x00002d1e:    b086        ..      SUB      sp,sp,#0x18
        0x00002d20:    2000        .       MOVS     r0,#0
        0x00002d22:    9001        ..      STR      r0,[sp,#4]
        0x00002d24:    9005        ..      STR      r0,[sp,#0x14]
        0x00002d26:    4a45        EJ      LDR      r2,[pc,#276] ; [0x2e3c] = 0x40004000
        0x00002d28:    4945        EI      LDR      r1,[pc,#276] ; [0x2e40] = 0x5540
        0x00002d2a:    6011        .`      STR      r1,[r2,#0]
        0x00002d2c:    4945        EI      LDR      r1,[pc,#276] ; [0x2e44] = 0x40004004
        0x00002d2e:    6008        .`      STR      r0,[r1,#0]
        0x00002d30:    4a45        EJ      LDR      r2,[pc,#276] ; [0x2e48] = 0x40004008
        0x00002d32:    4946        FI      LDR      r1,[pc,#280] ; [0x2e4c] = 0x10f8
        0x00002d34:    6011        .`      STR      r1,[r2,#0]
        0x00002d36:    4946        FI      LDR      r1,[pc,#280] ; [0x2e50] = 0x4000400c
        0x00002d38:    6008        .`      STR      r0,[r1,#0]
        0x00002d3a:    4946        FI      LDR      r1,[pc,#280] ; [0x2e54] = 0x40004014
        0x00002d3c:    6008        .`      STR      r0,[r1,#0]
        0x00002d3e:    4946        FI      LDR      r1,[pc,#280] ; [0x2e58] = 0x40004018
        0x00002d40:    6008        .`      STR      r0,[r1,#0]
        0x00002d42:    4a46        FJ      LDR      r2,[pc,#280] ; [0x2e5c] = 0x4000401c
        0x00002d44:    6010        .`      STR      r0,[r2,#0]
        0x00002d46:    6811        .h      LDR      r1,[r2,#0]
        0x00002d48:    6011        .`      STR      r1,[r2,#0]
        0x00002d4a:    4945        EI      LDR      r1,[pc,#276] ; [0x2e60] = 0x40004028
        0x00002d4c:    6008        .`      STR      r0,[r1,#0]
        0x00002d4e:    2201        ."      MOVS     r2,#1
        0x00002d50:    9203        ..      STR      r2,[sp,#0xc]
        0x00002d52:    0651        Q.      LSLS     r1,r2,#25
        0x00002d54:    4b43        CK      LDR      r3,[pc,#268] ; [0x2e64] = 0x40004030
        0x00002d56:    6019        .`      STR      r1,[r3,#0]
        0x00002d58:    4b43        CK      LDR      r3,[pc,#268] ; [0x2e68] = 0x40004040
        0x00002d5a:    4944        DI      LDR      r1,[pc,#272] ; [0x2e6c] = 0x54510
        0x00002d5c:    6019        .`      STR      r1,[r3,#0]
        0x00002d5e:    4944        DI      LDR      r1,[pc,#272] ; [0x2e70] = 0x40004044
        0x00002d60:    6008        .`      STR      r0,[r1,#0]
        0x00002d62:    4b44        DK      LDR      r3,[pc,#272] ; [0x2e74] = 0x40004048
        0x00002d64:    f24031b4    @..1    MOVW     r1,#0x3b4
        0x00002d68:    6019        .`      STR      r1,[r3,#0]
        0x00002d6a:    4943        CI      LDR      r1,[pc,#268] ; [0x2e78] = 0x4000404c
        0x00002d6c:    6008        .`      STR      r0,[r1,#0]
        0x00002d6e:    4943        CI      LDR      r1,[pc,#268] ; [0x2e7c] = 0x40004054
        0x00002d70:    6008        .`      STR      r0,[r1,#0]
        0x00002d72:    4943        CI      LDR      r1,[pc,#268] ; [0x2e80] = 0x40004058
        0x00002d74:    6008        .`      STR      r0,[r1,#0]
        0x00002d76:    4b43        CK      LDR      r3,[pc,#268] ; [0x2e84] = 0x4000405c
        0x00002d78:    6018        .`      STR      r0,[r3,#0]
        0x00002d7a:    6819        .h      LDR      r1,[r3,#0]
        0x00002d7c:    6019        .`      STR      r1,[r3,#0]
        0x00002d7e:    4942        BI      LDR      r1,[pc,#264] ; [0x2e88] = 0x40004068
        0x00002d80:    6008        .`      STR      r0,[r1,#0]
        0x00002d82:    4942        BI      LDR      r1,[pc,#264] ; [0x2e8c] = 0x40004070
        0x00002d84:    6008        .`      STR      r0,[r1,#0]
        0x00002d86:    4942        BI      LDR      r1,[pc,#264] ; [0x2e90] = 0x40004440
        0x00002d88:    9104        ..      STR      r1,[sp,#0x10]
        0x00002d8a:    6808        .h      LDR      r0,[r1,#0]
        0x00002d8c:    0456        V.      LSLS     r6,r2,#17
        0x00002d8e:    43b0        .C      BICS     r0,r0,r6
        0x00002d90:    6008        .`      STR      r0,[r1,#0]
        0x00002d92:    2011        .       MOVS     r0,#0x11
        0x00002d94:    f001ff10    ....    BL       __NVIC_EnableIRQ ; 0x4bb8
        0x00002d98:    200a        .       MOVS     r0,#0xa
        0x00002d9a:    9002        ..      STR      r0,[sp,#8]
        0x00002d9c:    f001ff0c    ....    BL       __NVIC_EnableIRQ ; 0x4bb8
        0x00002da0:    200b        .       MOVS     r0,#0xb
        0x00002da2:    f001ff09    ....    BL       __NVIC_EnableIRQ ; 0x4bb8
        0x00002da6:    200d        .       MOVS     r0,#0xd
        0x00002da8:    f001ff06    ....    BL       __NVIC_EnableIRQ ; 0x4bb8
        0x00002dac:    9801        ..      LDR      r0,[sp,#4]
        0x00002dae:    9a03        ..      LDR      r2,[sp,#0xc]
        0x00002db0:    9904        ..      LDR      r1,[sp,#0x10]
        0x00002db2:    4c38        8L      LDR      r4,[pc,#224] ; [0x2e94] = 0x40004080
        0x00002db4:    4b38        8K      LDR      r3,[pc,#224] ; [0x2e98] = 0x1010
        0x00002db6:    6023        #`      STR      r3,[r4,#0]
        0x00002db8:    4b38        8K      LDR      r3,[pc,#224] ; [0x2e9c] = 0x40004084
        0x00002dba:    6018        .`      STR      r0,[r3,#0]
        0x00002dbc:    4c38        8L      LDR      r4,[pc,#224] ; [0x2ea0] = 0x40004088
        0x00002dbe:    235f        _#      MOVS     r3,#0x5f
        0x00002dc0:    6023        #`      STR      r3,[r4,#0]
        0x00002dc2:    4b38        8K      LDR      r3,[pc,#224] ; [0x2ea4] = 0x4000408c
        0x00002dc4:    6018        .`      STR      r0,[r3,#0]
        0x00002dc6:    4b38        8K      LDR      r3,[pc,#224] ; [0x2ea8] = 0x40004094
        0x00002dc8:    6018        .`      STR      r0,[r3,#0]
        0x00002dca:    4b38        8K      LDR      r3,[pc,#224] ; [0x2eac] = 0x40004098
        0x00002dcc:    6018        .`      STR      r0,[r3,#0]
        0x00002dce:    4c38        8L      LDR      r4,[pc,#224] ; [0x2eb0] = 0x4000409c
        0x00002dd0:    6020         `      STR      r0,[r4,#0]
        0x00002dd2:    6823        #h      LDR      r3,[r4,#0]
        0x00002dd4:    0415        ..      LSLS     r5,r2,#16
        0x00002dd6:    432b        +C      ORRS     r3,r3,r5
        0x00002dd8:    6023        #`      STR      r3,[r4,#0]
        0x00002dda:    4b36        6K      LDR      r3,[pc,#216] ; [0x2eb4] = 0x400040a8
        0x00002ddc:    6018        .`      STR      r0,[r3,#0]
        0x00002dde:    4b36        6K      LDR      r3,[pc,#216] ; [0x2eb8] = 0x400040b0
        0x00002de0:    4836        6H      LDR      r0,[pc,#216] ; [0x2ebc] = 0x28a
        0x00002de2:    6018        .`      STR      r0,[r3,#0]
        0x00002de4:    6808        .h      LDR      r0,[r1,#0]
        0x00002de6:    0492        ..      LSLS     r2,r2,#18
        0x00002de8:    4390        .C      BICS     r0,r0,r2
        0x00002dea:    6008        .`      STR      r0,[r1,#0]
        0x00002dec:    2012        .       MOVS     r0,#0x12
        0x00002dee:    f001fee3    ....    BL       __NVIC_EnableIRQ ; 0x4bb8
        0x00002df2:    9b01        ..      LDR      r3,[sp,#4]
        0x00002df4:    9802        ..      LDR      r0,[sp,#8]
        0x00002df6:    9a03        ..      LDR      r2,[sp,#0xc]
        0x00002df8:    9904        ..      LDR      r1,[sp,#0x10]
        0x00002dfa:    4d31        1M      LDR      r5,[pc,#196] ; [0x2ec0] = 0x400040c0
        0x00002dfc:    2450        P$      MOVS     r4,#0x50
        0x00002dfe:    602c        ,`      STR      r4,[r5,#0]
        0x00002e00:    4c30        0L      LDR      r4,[pc,#192] ; [0x2ec4] = 0x400040c4
        0x00002e02:    6023        #`      STR      r3,[r4,#0]
        0x00002e04:    4d30        0M      LDR      r5,[pc,#192] ; [0x2ec8] = 0x400040c8
        0x00002e06:    240f        .$      MOVS     r4,#0xf
        0x00002e08:    602c        ,`      STR      r4,[r5,#0]
        0x00002e0a:    4c30        0L      LDR      r4,[pc,#192] ; [0x2ecc] = 0x400040cc
        0x00002e0c:    6023        #`      STR      r3,[r4,#0]
        0x00002e0e:    4d30        0M      LDR      r5,[pc,#192] ; [0x2ed0] = 0x400040d4
        0x00002e10:    2402        .$      MOVS     r4,#2
        0x00002e12:    602c        ,`      STR      r4,[r5,#0]
        0x00002e14:    4c2f        /L      LDR      r4,[pc,#188] ; [0x2ed4] = 0x400040d8
        0x00002e16:    6023        #`      STR      r3,[r4,#0]
        0x00002e18:    4d2f        /M      LDR      r5,[pc,#188] ; [0x2ed8] = 0x400040dc
        0x00002e1a:    602b        +`      STR      r3,[r5,#0]
        0x00002e1c:    682c        ,h      LDR      r4,[r5,#0]
        0x00002e1e:    4334        4C      ORRS     r4,r4,r6
        0x00002e20:    602c        ,`      STR      r4,[r5,#0]
        0x00002e22:    4c2e        .L      LDR      r4,[pc,#184] ; [0x2edc] = 0x400040e8
        0x00002e24:    6023        #`      STR      r3,[r4,#0]
        0x00002e26:    4b2e        .K      LDR      r3,[pc,#184] ; [0x2ee0] = 0x400040f0
        0x00002e28:    6018        .`      STR      r0,[r3,#0]
        0x00002e2a:    6808        .h      LDR      r0,[r1,#0]
        0x00002e2c:    04d2        ..      LSLS     r2,r2,#19
        0x00002e2e:    4390        .C      BICS     r0,r0,r2
        0x00002e30:    6008        .`      STR      r0,[r1,#0]
        0x00002e32:    2013        .       MOVS     r0,#0x13
        0x00002e34:    f001fec0    ....    BL       __NVIC_EnableIRQ ; 0x4bb8
        0x00002e38:    b006        ..      ADD      sp,sp,#0x18
        0x00002e3a:    bd70        p.      POP      {r4-r6,pc}
    $d.3
    __arm_cp.1_0
        0x00002e3c:    40004000    .@.@    DCD    1073758208
    __arm_cp.1_1
        0x00002e40:    00005540    @U..    DCD    21824
    __arm_cp.1_2
        0x00002e44:    40004004    .@.@    DCD    1073758212
    __arm_cp.1_3
        0x00002e48:    40004008    .@.@    DCD    1073758216
    __arm_cp.1_4
        0x00002e4c:    000010f8    ....    DCD    4344
    __arm_cp.1_5
        0x00002e50:    4000400c    .@.@    DCD    1073758220
    __arm_cp.1_6
        0x00002e54:    40004014    .@.@    DCD    1073758228
    __arm_cp.1_7
        0x00002e58:    40004018    .@.@    DCD    1073758232
    __arm_cp.1_8
        0x00002e5c:    4000401c    .@.@    DCD    1073758236
    __arm_cp.1_9
        0x00002e60:    40004028    (@.@    DCD    1073758248
    __arm_cp.1_10
        0x00002e64:    40004030    0@.@    DCD    1073758256
    __arm_cp.1_11
        0x00002e68:    40004040    @@.@    DCD    1073758272
    __arm_cp.1_12
        0x00002e6c:    00054510    .E..    DCD    345360
    __arm_cp.1_13
        0x00002e70:    40004044    D@.@    DCD    1073758276
    __arm_cp.1_14
        0x00002e74:    40004048    H@.@    DCD    1073758280
    __arm_cp.1_15
        0x00002e78:    4000404c    L@.@    DCD    1073758284
    __arm_cp.1_16
        0x00002e7c:    40004054    T@.@    DCD    1073758292
    __arm_cp.1_17
        0x00002e80:    40004058    X@.@    DCD    1073758296
    __arm_cp.1_18
        0x00002e84:    4000405c    \@.@    DCD    1073758300
    __arm_cp.1_19
        0x00002e88:    40004068    h@.@    DCD    1073758312
    __arm_cp.1_20
        0x00002e8c:    40004070    p@.@    DCD    1073758320
    __arm_cp.1_21
        0x00002e90:    40004440    @D.@    DCD    1073759296
    __arm_cp.1_22
        0x00002e94:    40004080    .@.@    DCD    1073758336
    __arm_cp.1_23
        0x00002e98:    00001010    ....    DCD    4112
    __arm_cp.1_24
        0x00002e9c:    40004084    .@.@    DCD    1073758340
    __arm_cp.1_25
        0x00002ea0:    40004088    .@.@    DCD    1073758344
    __arm_cp.1_26
        0x00002ea4:    4000408c    .@.@    DCD    1073758348
    __arm_cp.1_27
        0x00002ea8:    40004094    .@.@    DCD    1073758356
    __arm_cp.1_28
        0x00002eac:    40004098    .@.@    DCD    1073758360
    __arm_cp.1_29
        0x00002eb0:    4000409c    .@.@    DCD    1073758364
    __arm_cp.1_30
        0x00002eb4:    400040a8    .@.@    DCD    1073758376
    __arm_cp.1_31
        0x00002eb8:    400040b0    .@.@    DCD    1073758384
    __arm_cp.1_32
        0x00002ebc:    0000028a    ....    DCD    650
    __arm_cp.1_33
        0x00002ec0:    400040c0    .@.@    DCD    1073758400
    __arm_cp.1_34
        0x00002ec4:    400040c4    .@.@    DCD    1073758404
    __arm_cp.1_35
        0x00002ec8:    400040c8    .@.@    DCD    1073758408
    __arm_cp.1_36
        0x00002ecc:    400040cc    .@.@    DCD    1073758412
    __arm_cp.1_37
        0x00002ed0:    400040d4    .@.@    DCD    1073758420
    __arm_cp.1_38
        0x00002ed4:    400040d8    .@.@    DCD    1073758424
    __arm_cp.1_39
        0x00002ed8:    400040dc    .@.@    DCD    1073758428
    __arm_cp.1_40
        0x00002edc:    400040e8    .@.@    DCD    1073758440
    __arm_cp.1_41
        0x00002ee0:    400040f0    .@.@    DCD    1073758448
    $t.7
    GetChar
        0x00002ee4:    e7ff        ..      B        0x2ee6 ; GetChar + 2
        0x00002ee6:    4805        .H      LDR      r0,[pc,#20] ; [0x2efc] = 0x40072018
        0x00002ee8:    6800        .h      LDR      r0,[r0,#0]
        0x00002eea:    0440        @.      LSLS     r0,r0,#17
        0x00002eec:    2800        .(      CMP      r0,#0
        0x00002eee:    d404        ..      BMI      0x2efa ; GetChar + 22
        0x00002ef0:    e7ff        ..      B        0x2ef2 ; GetChar + 14
        0x00002ef2:    4803        .H      LDR      r0,[pc,#12] ; [0x2f00] = 0x40072000
        0x00002ef4:    6800        .h      LDR      r0,[r0,#0]
        0x00002ef6:    b2c0        ..      UXTB     r0,r0
        0x00002ef8:    4770        pG      BX       lr
        0x00002efa:    e7f4        ..      B        0x2ee6 ; GetChar + 2
    $d.8
    __arm_cp.5_0
        0x00002efc:    40072018    . .@    DCD    1074208792
    __arm_cp.5_1
        0x00002f00:    40072000    . .@    DCD    1074208768
    $t.6
    I2C1_Init
        0x00002f04:    b580        ..      PUSH     {r7,lr}
        0x00002f06:    481a        .H      LDR      r0,[pc,#104] ; [0x2f70] = 0x40081000
        0x00002f08:    4901        .I      LDR      r1,[pc,#4] ; [0x2f10] = 0x61a80
        0x00002f0a:    f000f803    ....    BL       I2C_Open ; 0x2f14
        0x00002f0e:    bd80        ..      POP      {r7,pc}
    $d.7
    __arm_cp.3_1
        0x00002f10:    00061a80    ....    DCD    400000
    $t.0
    I2C_Open
        0x00002f14:    b580        ..      PUSH     {r7,lr}
        0x00002f16:    b084        ..      SUB      sp,sp,#0x10
        0x00002f18:    9003        ..      STR      r0,[sp,#0xc]
        0x00002f1a:    9102        ..      STR      r1,[sp,#8]
        0x00002f1c:    9803        ..      LDR      r0,[sp,#0xc]
        0x00002f1e:    4914        .I      LDR      r1,[pc,#80] ; [0x2f70] = 0x40081000
        0x00002f20:    4288        .B      CMP      r0,r1
        0x00002f22:    d104        ..      BNE      0x2f2e ; I2C_Open + 26
        0x00002f24:    e7ff        ..      B        0x2f26 ; I2C_Open + 18
        0x00002f26:    f7fffb0f    ....    BL       CLK_GetPCLK1Freq ; 0x2548
        0x00002f2a:    9000        ..      STR      r0,[sp,#0]
        0x00002f2c:    e003        ..      B        0x2f36 ; I2C_Open + 34
        0x00002f2e:    f7fffacb    ....    BL       CLK_GetPCLK0Freq ; 0x24c8
        0x00002f32:    9000        ..      STR      r0,[sp,#0]
        0x00002f34:    e7ff        ..      B        0x2f36 ; I2C_Open + 34
        0x00002f36:    9a00        ..      LDR      r2,[sp,#0]
        0x00002f38:    210a        .!      MOVS     r1,#0xa
        0x00002f3a:    4608        .F      MOV      r0,r1
        0x00002f3c:    4350        PC      MULS     r0,r2,r0
        0x00002f3e:    9a02        ..      LDR      r2,[sp,#8]
        0x00002f40:    0092        ..      LSLS     r2,r2,#2
        0x00002f42:    fbb0f0f2    ....    UDIV     r0,r0,r2
        0x00002f46:    1d40        @.      ADDS     r0,r0,#5
        0x00002f48:    fbb0f0f1    ....    UDIV     r0,r0,r1
        0x00002f4c:    1e40        @.      SUBS     r0,r0,#1
        0x00002f4e:    9001        ..      STR      r0,[sp,#4]
        0x00002f50:    9801        ..      LDR      r0,[sp,#4]
        0x00002f52:    9903        ..      LDR      r1,[sp,#0xc]
        0x00002f54:    6108        .a      STR      r0,[r1,#0x10]
        0x00002f56:    9903        ..      LDR      r1,[sp,#0xc]
        0x00002f58:    6808        .h      LDR      r0,[r1,#0]
        0x00002f5a:    2240        @"      MOVS     r2,#0x40
        0x00002f5c:    4310        .C      ORRS     r0,r0,r2
        0x00002f5e:    6008        .`      STR      r0,[r1,#0]
        0x00002f60:    9800        ..      LDR      r0,[sp,#0]
        0x00002f62:    9901        ..      LDR      r1,[sp,#4]
        0x00002f64:    0089        ..      LSLS     r1,r1,#2
        0x00002f66:    1d09        ..      ADDS     r1,r1,#4
        0x00002f68:    fbb0f0f1    ....    UDIV     r0,r0,r1
        0x00002f6c:    b004        ..      ADD      sp,sp,#0x10
        0x00002f6e:    bd80        ..      POP      {r7,pc}
    $d.1
    __arm_cp.0_0
        0x00002f70:    40081000    ...@    DCD    1074270208
    $t.48
    I2C_ReadByteOneReg
        0x00002f74:    b08a        ..      SUB      sp,sp,#0x28
        0x00002f76:    9009        ..      STR      r0,[sp,#0x24]
        0x00002f78:    a808        ..      ADD      r0,sp,#0x20
        0x00002f7a:    7001        .p      STRB     r1,[r0,#0]
        0x00002f7c:    a807        ..      ADD      r0,sp,#0x1c
        0x00002f7e:    7002        .p      STRB     r2,[r0,#0]
        0x00002f80:    a906        ..      ADD      r1,sp,#0x18
        0x00002f82:    2001        .       MOVS     r0,#1
        0x00002f84:    7008        .p      STRB     r0,[r1,#0]
        0x00002f86:    a905        ..      ADD      r1,sp,#0x14
        0x00002f88:    2000        .       MOVS     r0,#0
        0x00002f8a:    7008        .p      STRB     r0,[r1,#0]
        0x00002f8c:    a904        ..      ADD      r1,sp,#0x10
        0x00002f8e:    7008        .p      STRB     r0,[r1,#0]
        0x00002f90:    a903        ..      ADD      r1,sp,#0xc
        0x00002f92:    7008        .p      STRB     r0,[r1,#0]
        0x00002f94:    499f        .I      LDR      r1,[pc,#636] ; [0x3214] = 0x200004b8
        0x00002f96:    6008        .`      STR      r0,[r1,#0]
        0x00002f98:    9809        ..      LDR      r0,[sp,#0x24]
        0x00002f9a:    6800        .h      LDR      r0,[r0,#0]
        0x00002f9c:    2120         !      MOVS     r1,#0x20
        0x00002f9e:    4308        .C      ORRS     r0,r0,r1
        0x00002fa0:    2108        .!      MOVS     r1,#8
        0x00002fa2:    4388        .C      BICS     r0,r0,r1
        0x00002fa4:    9909        ..      LDR      r1,[sp,#0x24]
        0x00002fa6:    6008        .`      STR      r0,[r1,#0]
        0x00002fa8:    e7ff        ..      B        0x2faa ; I2C_ReadByteOneReg + 54
        0x00002faa:    a806        ..      ADD      r0,sp,#0x18
        0x00002fac:    7801        .x      LDRB     r1,[r0,#0]
        0x00002fae:    2000        .       MOVS     r0,#0
        0x00002fb0:    9001        ..      STR      r0,[sp,#4]
        0x00002fb2:    b131        1.      CBZ      r1,0x2fc2 ; I2C_ReadByteOneReg + 78
        0x00002fb4:    e7ff        ..      B        0x2fb6 ; I2C_ReadByteOneReg + 66
        0x00002fb6:    a805        ..      ADD      r0,sp,#0x14
        0x00002fb8:    7800        .x      LDRB     r0,[r0,#0]
        0x00002fba:    4241        AB      RSBS     r1,r0,#0
        0x00002fbc:    4148        HA      ADCS     r0,r0,r1
        0x00002fbe:    9001        ..      STR      r0,[sp,#4]
        0x00002fc0:    e7ff        ..      B        0x2fc2 ; I2C_ReadByteOneReg + 78
        0x00002fc2:    9801        ..      LDR      r0,[sp,#4]
        0x00002fc4:    07c0        ..      LSLS     r0,r0,#31
        0x00002fc6:    b900        ..      CBNZ     r0,0x2fca ; I2C_ReadByteOneReg + 86
        0x00002fc8:    e117        ..      B        0x31fa ; I2C_ReadByteOneReg + 646
        0x00002fca:    4893        .H      LDR      r0,[pc,#588] ; [0x3218] = 0x20000014
        0x00002fcc:    6800        .h      LDR      r0,[r0,#0]
        0x00002fce:    9002        ..      STR      r0,[sp,#8]
        0x00002fd0:    e7ff        ..      B        0x2fd2 ; I2C_ReadByteOneReg + 94
        0x00002fd2:    9809        ..      LDR      r0,[sp,#0x24]
        0x00002fd4:    6800        .h      LDR      r0,[r0,#0]
        0x00002fd6:    0700        ..      LSLS     r0,r0,#28
        0x00002fd8:    2800        .(      CMP      r0,#0
        0x00002fda:    d40c        ..      BMI      0x2ff6 ; I2C_ReadByteOneReg + 130
        0x00002fdc:    e7ff        ..      B        0x2fde ; I2C_ReadByteOneReg + 106
        0x00002fde:    9802        ..      LDR      r0,[sp,#8]
        0x00002fe0:    1e40        @.      SUBS     r0,r0,#1
        0x00002fe2:    9002        ..      STR      r0,[sp,#8]
        0x00002fe4:    9802        ..      LDR      r0,[sp,#8]
        0x00002fe6:    b928        (.      CBNZ     r0,0x2ff4 ; I2C_ReadByteOneReg + 128
        0x00002fe8:    e7ff        ..      B        0x2fea ; I2C_ReadByteOneReg + 118
        0x00002fea:    498a        .I      LDR      r1,[pc,#552] ; [0x3214] = 0x200004b8
        0x00002fec:    2000        .       MOVS     r0,#0
        0x00002fee:    43c0        .C      MVNS     r0,r0
        0x00002ff0:    6008        .`      STR      r0,[r1,#0]
        0x00002ff2:    e000        ..      B        0x2ff6 ; I2C_ReadByteOneReg + 130
        0x00002ff4:    e7ed        ..      B        0x2fd2 ; I2C_ReadByteOneReg + 94
        0x00002ff6:    9809        ..      LDR      r0,[sp,#0x24]
        0x00002ff8:    68c0        .h      LDR      r0,[r0,#0xc]
        0x00002ffa:    3808        .8      SUBS     r0,r0,#8
        0x00002ffc:    9000        ..      STR      r0,[sp,#0]
        0x00002ffe:    2850        P(      CMP      r0,#0x50
        0x00003000:    d900        ..      BLS      0x3004 ; I2C_ReadByteOneReg + 144
        0x00003002:    e0e1        ..      B        0x31c8 ; I2C_ReadByteOneReg + 596
        0x00003004:    9900        ..      LDR      r1,[sp,#0]
        0x00003006:    008a        ..      LSLS     r2,r1,#2
        0x00003008:    a001        ..      ADR      r0,{pc}+8 ; 0x3010
        0x0000300a:    1880        ..      ADDS     r0,r0,r2
        0x0000300c:    4687        .F      MOV      pc,r0
        0x0000300e:    46c0        .F      MOV      r8,r8
        0x00003010:    f000b8a0    ....    B.W      0x3154 ; I2C_ReadByteOneReg + 480
        0x00003014:    f000b8d8    ....    B.W      0x31c8 ; I2C_ReadByteOneReg + 596
        0x00003018:    f000b8d6    ....    B.W      0x31c8 ; I2C_ReadByteOneReg + 596
        0x0000301c:    f000b8d4    ....    B.W      0x31c8 ; I2C_ReadByteOneReg + 596
        0x00003020:    f000b8d2    ....    B.W      0x31c8 ; I2C_ReadByteOneReg + 596
        0x00003024:    f000b8d0    ....    B.W      0x31c8 ; I2C_ReadByteOneReg + 596
        0x00003028:    f000b8ce    ....    B.W      0x31c8 ; I2C_ReadByteOneReg + 596
        0x0000302c:    f000b8cc    ....    B.W      0x31c8 ; I2C_ReadByteOneReg + 596
        0x00003030:    f000b8a9    ....    B.W      0x3186 ; I2C_ReadByteOneReg + 530
        0x00003034:    f000b8c8    ....    B.W      0x31c8 ; I2C_ReadByteOneReg + 596
        0x00003038:    f000b8c6    ....    B.W      0x31c8 ; I2C_ReadByteOneReg + 596
        0x0000303c:    f000b8c4    ....    B.W      0x31c8 ; I2C_ReadByteOneReg + 596
        0x00003040:    f000b8c2    ....    B.W      0x31c8 ; I2C_ReadByteOneReg + 596
        0x00003044:    f000b8c0    ....    B.W      0x31c8 ; I2C_ReadByteOneReg + 596
        0x00003048:    f000b8be    ....    B.W      0x31c8 ; I2C_ReadByteOneReg + 596
        0x0000304c:    f000b8bc    ....    B.W      0x31c8 ; I2C_ReadByteOneReg + 596
        0x00003050:    f000b889    ....    B.W      0x3166 ; I2C_ReadByteOneReg + 498
        0x00003054:    f000b8b8    ....    B.W      0x31c8 ; I2C_ReadByteOneReg + 596
        0x00003058:    f000b8b6    ....    B.W      0x31c8 ; I2C_ReadByteOneReg + 596
        0x0000305c:    f000b8b4    ....    B.W      0x31c8 ; I2C_ReadByteOneReg + 596
        0x00003060:    f000b8b2    ....    B.W      0x31c8 ; I2C_ReadByteOneReg + 596
        0x00003064:    f000b8b0    ....    B.W      0x31c8 ; I2C_ReadByteOneReg + 596
        0x00003068:    f000b8ae    ....    B.W      0x31c8 ; I2C_ReadByteOneReg + 596
        0x0000306c:    f000b8ac    ....    B.W      0x31c8 ; I2C_ReadByteOneReg + 596
        0x00003070:    f000b87e    ..~.    B.W      0x3170 ; I2C_ReadByteOneReg + 508
        0x00003074:    f000b8a8    ....    B.W      0x31c8 ; I2C_ReadByteOneReg + 596
        0x00003078:    f000b8a6    ....    B.W      0x31c8 ; I2C_ReadByteOneReg + 596
        0x0000307c:    f000b8a4    ....    B.W      0x31c8 ; I2C_ReadByteOneReg + 596
        0x00003080:    f000b8a2    ....    B.W      0x31c8 ; I2C_ReadByteOneReg + 596
        0x00003084:    f000b8a0    ....    B.W      0x31c8 ; I2C_ReadByteOneReg + 596
        0x00003088:    f000b89e    ....    B.W      0x31c8 ; I2C_ReadByteOneReg + 596
        0x0000308c:    f000b89c    ....    B.W      0x31c8 ; I2C_ReadByteOneReg + 596
        0x00003090:    f000b875    ..u.    B.W      0x317e ; I2C_ReadByteOneReg + 522
        0x00003094:    f000b898    ....    B.W      0x31c8 ; I2C_ReadByteOneReg + 596
        0x00003098:    f000b896    ....    B.W      0x31c8 ; I2C_ReadByteOneReg + 596
        0x0000309c:    f000b894    ....    B.W      0x31c8 ; I2C_ReadByteOneReg + 596
        0x000030a0:    f000b892    ....    B.W      0x31c8 ; I2C_ReadByteOneReg + 596
        0x000030a4:    f000b890    ....    B.W      0x31c8 ; I2C_ReadByteOneReg + 596
        0x000030a8:    f000b88e    ....    B.W      0x31c8 ; I2C_ReadByteOneReg + 596
        0x000030ac:    f000b88c    ....    B.W      0x31c8 ; I2C_ReadByteOneReg + 596
        0x000030b0:    f000b85e    ..^.    B.W      0x3170 ; I2C_ReadByteOneReg + 508
        0x000030b4:    f000b888    ....    B.W      0x31c8 ; I2C_ReadByteOneReg + 596
        0x000030b8:    f000b886    ....    B.W      0x31c8 ; I2C_ReadByteOneReg + 596
        0x000030bc:    f000b884    ....    B.W      0x31c8 ; I2C_ReadByteOneReg + 596
        0x000030c0:    f000b882    ....    B.W      0x31c8 ; I2C_ReadByteOneReg + 596
        0x000030c4:    f000b880    ....    B.W      0x31c8 ; I2C_ReadByteOneReg + 596
        0x000030c8:    f000b87e    ..~.    B.W      0x31c8 ; I2C_ReadByteOneReg + 596
        0x000030cc:    f000b87c    ..|.    B.W      0x31c8 ; I2C_ReadByteOneReg + 596
        0x000030d0:    f000b879    ..y.    B.W      0x31c6 ; I2C_ReadByteOneReg + 594
        0x000030d4:    f000b878    ..x.    B.W      0x31c8 ; I2C_ReadByteOneReg + 596
        0x000030d8:    f000b876    ..v.    B.W      0x31c8 ; I2C_ReadByteOneReg + 596
        0x000030dc:    f000b874    ..t.    B.W      0x31c8 ; I2C_ReadByteOneReg + 596
        0x000030e0:    f000b872    ..r.    B.W      0x31c8 ; I2C_ReadByteOneReg + 596
        0x000030e4:    f000b870    ..p.    B.W      0x31c8 ; I2C_ReadByteOneReg + 596
        0x000030e8:    f000b86e    ..n.    B.W      0x31c8 ; I2C_ReadByteOneReg + 596
        0x000030ec:    f000b86c    ..l.    B.W      0x31c8 ; I2C_ReadByteOneReg + 596
        0x000030f0:    f000b853    ..S.    B.W      0x319a ; I2C_ReadByteOneReg + 550
        0x000030f4:    f000b868    ..h.    B.W      0x31c8 ; I2C_ReadByteOneReg + 596
        0x000030f8:    f000b866    ..f.    B.W      0x31c8 ; I2C_ReadByteOneReg + 596
        0x000030fc:    f000b864    ..d.    B.W      0x31c8 ; I2C_ReadByteOneReg + 596
        0x00003100:    f000b862    ..b.    B.W      0x31c8 ; I2C_ReadByteOneReg + 596
        0x00003104:    f000b860    ..`.    B.W      0x31c8 ; I2C_ReadByteOneReg + 596
        0x00003108:    f000b85e    ..^.    B.W      0x31c8 ; I2C_ReadByteOneReg + 596
        0x0000310c:    f000b85c    ..\.    B.W      0x31c8 ; I2C_ReadByteOneReg + 596
        0x00003110:    f000b847    ..G.    B.W      0x31a2 ; I2C_ReadByteOneReg + 558
        0x00003114:    f000b858    ..X.    B.W      0x31c8 ; I2C_ReadByteOneReg + 596
        0x00003118:    f000b856    ..V.    B.W      0x31c8 ; I2C_ReadByteOneReg + 596
        0x0000311c:    f000b854    ..T.    B.W      0x31c8 ; I2C_ReadByteOneReg + 596
        0x00003120:    f000b852    ..R.    B.W      0x31c8 ; I2C_ReadByteOneReg + 596
        0x00003124:    f000b850    ..P.    B.W      0x31c8 ; I2C_ReadByteOneReg + 596
        0x00003128:    f000b84e    ..N.    B.W      0x31c8 ; I2C_ReadByteOneReg + 596
        0x0000312c:    f000b84c    ..L.    B.W      0x31c8 ; I2C_ReadByteOneReg + 596
        0x00003130:    f000b84a    ..J.    B.W      0x31c8 ; I2C_ReadByteOneReg + 596
        0x00003134:    f000b848    ..H.    B.W      0x31c8 ; I2C_ReadByteOneReg + 596
        0x00003138:    f000b846    ..F.    B.W      0x31c8 ; I2C_ReadByteOneReg + 596
        0x0000313c:    f000b844    ..D.    B.W      0x31c8 ; I2C_ReadByteOneReg + 596
        0x00003140:    f000b842    ..B.    B.W      0x31c8 ; I2C_ReadByteOneReg + 596
        0x00003144:    f000b840    ..@.    B.W      0x31c8 ; I2C_ReadByteOneReg + 596
        0x00003148:    f000b83e    ..>.    B.W      0x31c8 ; I2C_ReadByteOneReg + 596
        0x0000314c:    f000b83c    ..<.    B.W      0x31c8 ; I2C_ReadByteOneReg + 596
        0x00003150:    f000b82e    ....    B.W      0x31b0 ; I2C_ReadByteOneReg + 572
        0x00003154:    9808        ..      LDR      r0,[sp,#0x20]
        0x00003156:    0640        @.      LSLS     r0,r0,#25
        0x00003158:    0e00        ..      LSRS     r0,r0,#24
        0x0000315a:    9909        ..      LDR      r1,[sp,#0x24]
        0x0000315c:    6088        .`      STR      r0,[r1,#8]
        0x0000315e:    a903        ..      ADD      r1,sp,#0xc
        0x00003160:    2008        .       MOVS     r0,#8
        0x00003162:    7008        .p      STRB     r0,[r1,#0]
        0x00003164:    e03f        ?.      B        0x31e6 ; I2C_ReadByteOneReg + 626
        0x00003166:    a807        ..      ADD      r0,sp,#0x1c
        0x00003168:    7800        .x      LDRB     r0,[r0,#0]
        0x0000316a:    9909        ..      LDR      r1,[sp,#0x24]
        0x0000316c:    6088        .`      STR      r0,[r1,#8]
        0x0000316e:    e03a        :.      B        0x31e6 ; I2C_ReadByteOneReg + 626
        0x00003170:    a903        ..      ADD      r1,sp,#0xc
        0x00003172:    2018        .       MOVS     r0,#0x18
        0x00003174:    7008        .p      STRB     r0,[r1,#0]
        0x00003176:    a905        ..      ADD      r1,sp,#0x14
        0x00003178:    2001        .       MOVS     r0,#1
        0x0000317a:    7008        .p      STRB     r0,[r1,#0]
        0x0000317c:    e033        3.      B        0x31e6 ; I2C_ReadByteOneReg + 626
        0x0000317e:    a903        ..      ADD      r1,sp,#0xc
        0x00003180:    2028        (       MOVS     r0,#0x28
        0x00003182:    7008        .p      STRB     r0,[r1,#0]
        0x00003184:    e02f        /.      B        0x31e6 ; I2C_ReadByteOneReg + 626
        0x00003186:    9808        ..      LDR      r0,[sp,#0x20]
        0x00003188:    0040        @.      LSLS     r0,r0,#1
        0x0000318a:    1c40        @.      ADDS     r0,r0,#1
        0x0000318c:    b2c0        ..      UXTB     r0,r0
        0x0000318e:    9909        ..      LDR      r1,[sp,#0x24]
        0x00003190:    6088        .`      STR      r0,[r1,#8]
        0x00003192:    a903        ..      ADD      r1,sp,#0xc
        0x00003194:    2008        .       MOVS     r0,#8
        0x00003196:    7008        .p      STRB     r0,[r1,#0]
        0x00003198:    e025        %.      B        0x31e6 ; I2C_ReadByteOneReg + 626
        0x0000319a:    a903        ..      ADD      r1,sp,#0xc
        0x0000319c:    2008        .       MOVS     r0,#8
        0x0000319e:    7008        .p      STRB     r0,[r1,#0]
        0x000031a0:    e021        !.      B        0x31e6 ; I2C_ReadByteOneReg + 626
        0x000031a2:    a903        ..      ADD      r1,sp,#0xc
        0x000031a4:    2018        .       MOVS     r0,#0x18
        0x000031a6:    7008        .p      STRB     r0,[r1,#0]
        0x000031a8:    a905        ..      ADD      r1,sp,#0x14
        0x000031aa:    2001        .       MOVS     r0,#1
        0x000031ac:    7008        .p      STRB     r0,[r1,#0]
        0x000031ae:    e01a        ..      B        0x31e6 ; I2C_ReadByteOneReg + 626
        0x000031b0:    9809        ..      LDR      r0,[sp,#0x24]
        0x000031b2:    6880        .h      LDR      r0,[r0,#8]
        0x000031b4:    a904        ..      ADD      r1,sp,#0x10
        0x000031b6:    7008        .p      STRB     r0,[r1,#0]
        0x000031b8:    a903        ..      ADD      r1,sp,#0xc
        0x000031ba:    2018        .       MOVS     r0,#0x18
        0x000031bc:    7008        .p      STRB     r0,[r1,#0]
        0x000031be:    a906        ..      ADD      r1,sp,#0x18
        0x000031c0:    2000        .       MOVS     r0,#0
        0x000031c2:    7008        .p      STRB     r0,[r1,#0]
        0x000031c4:    e00f        ..      B        0x31e6 ; I2C_ReadByteOneReg + 626
        0x000031c6:    e7ff        ..      B        0x31c8 ; I2C_ReadByteOneReg + 596
        0x000031c8:    9809        ..      LDR      r0,[sp,#0x24]
        0x000031ca:    6800        .h      LDR      r0,[r0,#0]
        0x000031cc:    2118        .!      MOVS     r1,#0x18
        0x000031ce:    4308        .C      ORRS     r0,r0,r1
        0x000031d0:    2124        $!      MOVS     r1,#0x24
        0x000031d2:    4388        .C      BICS     r0,r0,r1
        0x000031d4:    9909        ..      LDR      r1,[sp,#0x24]
        0x000031d6:    6008        .`      STR      r0,[r1,#0]
        0x000031d8:    a903        ..      ADD      r1,sp,#0xc
        0x000031da:    2008        .       MOVS     r0,#8
        0x000031dc:    7008        .p      STRB     r0,[r1,#0]
        0x000031de:    a905        ..      ADD      r1,sp,#0x14
        0x000031e0:    2001        .       MOVS     r0,#1
        0x000031e2:    7008        .p      STRB     r0,[r1,#0]
        0x000031e4:    e7ff        ..      B        0x31e6 ; I2C_ReadByteOneReg + 626
        0x000031e6:    9809        ..      LDR      r0,[sp,#0x24]
        0x000031e8:    6800        .h      LDR      r0,[r0,#0]
        0x000031ea:    213c        <!      MOVS     r1,#0x3c
        0x000031ec:    4388        .C      BICS     r0,r0,r1
        0x000031ee:    a903        ..      ADD      r1,sp,#0xc
        0x000031f0:    7809        .x      LDRB     r1,[r1,#0]
        0x000031f2:    4308        .C      ORRS     r0,r0,r1
        0x000031f4:    9909        ..      LDR      r1,[sp,#0x24]
        0x000031f6:    6008        .`      STR      r0,[r1,#0]
        0x000031f8:    e6d7        ..      B        0x2faa ; I2C_ReadByteOneReg + 54
        0x000031fa:    a805        ..      ADD      r0,sp,#0x14
        0x000031fc:    7800        .x      LDRB     r0,[r0,#0]
        0x000031fe:    b120         .      CBZ      r0,0x320a ; I2C_ReadByteOneReg + 662
        0x00003200:    e7ff        ..      B        0x3202 ; I2C_ReadByteOneReg + 654
        0x00003202:    a904        ..      ADD      r1,sp,#0x10
        0x00003204:    2000        .       MOVS     r0,#0
        0x00003206:    7008        .p      STRB     r0,[r1,#0]
        0x00003208:    e7ff        ..      B        0x320a ; I2C_ReadByteOneReg + 662
        0x0000320a:    a804        ..      ADD      r0,sp,#0x10
        0x0000320c:    7800        .x      LDRB     r0,[r0,#0]
        0x0000320e:    b00a        ..      ADD      sp,sp,#0x28
        0x00003210:    4770        pG      BX       lr
        0x00003212:    46c0        .F      MOV      r8,r8
    $d.49
    __arm_cp.36_0
        0x00003214:    200004b8    ...     DCD    536872120
    __arm_cp.36_1
        0x00003218:    20000014    ...     DCD    536870932
    $t.36
    I2C_WriteByteOneReg
        0x0000321c:    b510        ..      PUSH     {r4,lr}
        0x0000321e:    b08b        ..      SUB      sp,sp,#0x2c
        0x00003220:    900a        ..      STR      r0,[sp,#0x28]
        0x00003222:    a809        ..      ADD      r0,sp,#0x24
        0x00003224:    7001        .p      STRB     r1,[r0,#0]
        0x00003226:    a808        ..      ADD      r0,sp,#0x20
        0x00003228:    7002        .p      STRB     r2,[r0,#0]
        0x0000322a:    a807        ..      ADD      r0,sp,#0x1c
        0x0000322c:    7003        .p      STRB     r3,[r0,#0]
        0x0000322e:    a906        ..      ADD      r1,sp,#0x18
        0x00003230:    2001        .       MOVS     r0,#1
        0x00003232:    7008        .p      STRB     r0,[r1,#0]
        0x00003234:    a905        ..      ADD      r1,sp,#0x14
        0x00003236:    2000        .       MOVS     r0,#0
        0x00003238:    7008        .p      STRB     r0,[r1,#0]
        0x0000323a:    a904        ..      ADD      r1,sp,#0x10
        0x0000323c:    7008        .p      STRB     r0,[r1,#0]
        0x0000323e:    9003        ..      STR      r0,[sp,#0xc]
        0x00003240:    4974        tI      LDR      r1,[pc,#464] ; [0x3414] = 0x200004b8
        0x00003242:    6008        .`      STR      r0,[r1,#0]
        0x00003244:    980a        ..      LDR      r0,[sp,#0x28]
        0x00003246:    6800        .h      LDR      r0,[r0,#0]
        0x00003248:    2120         !      MOVS     r1,#0x20
        0x0000324a:    4308        .C      ORRS     r0,r0,r1
        0x0000324c:    2108        .!      MOVS     r1,#8
        0x0000324e:    4388        .C      BICS     r0,r0,r1
        0x00003250:    990a        ..      LDR      r1,[sp,#0x28]
        0x00003252:    6008        .`      STR      r0,[r1,#0]
        0x00003254:    e7ff        ..      B        0x3256 ; I2C_WriteByteOneReg + 58
        0x00003256:    a806        ..      ADD      r0,sp,#0x18
        0x00003258:    7801        .x      LDRB     r1,[r0,#0]
        0x0000325a:    2000        .       MOVS     r0,#0
        0x0000325c:    9001        ..      STR      r0,[sp,#4]
        0x0000325e:    b131        1.      CBZ      r1,0x326e ; I2C_WriteByteOneReg + 82
        0x00003260:    e7ff        ..      B        0x3262 ; I2C_WriteByteOneReg + 70
        0x00003262:    a805        ..      ADD      r0,sp,#0x14
        0x00003264:    7800        .x      LDRB     r0,[r0,#0]
        0x00003266:    4241        AB      RSBS     r1,r0,#0
        0x00003268:    4148        HA      ADCS     r0,r0,r1
        0x0000326a:    9001        ..      STR      r0,[sp,#4]
        0x0000326c:    e7ff        ..      B        0x326e ; I2C_WriteByteOneReg + 82
        0x0000326e:    9801        ..      LDR      r0,[sp,#4]
        0x00003270:    07c0        ..      LSLS     r0,r0,#31
        0x00003272:    b900        ..      CBNZ     r0,0x3276 ; I2C_WriteByteOneReg + 90
        0x00003274:    e0c6        ..      B        0x3404 ; I2C_WriteByteOneReg + 488
        0x00003276:    4868        hH      LDR      r0,[pc,#416] ; [0x3418] = 0x20000014
        0x00003278:    6800        .h      LDR      r0,[r0,#0]
        0x0000327a:    9002        ..      STR      r0,[sp,#8]
        0x0000327c:    e7ff        ..      B        0x327e ; I2C_WriteByteOneReg + 98
        0x0000327e:    980a        ..      LDR      r0,[sp,#0x28]
        0x00003280:    6800        .h      LDR      r0,[r0,#0]
        0x00003282:    0700        ..      LSLS     r0,r0,#28
        0x00003284:    2800        .(      CMP      r0,#0
        0x00003286:    d40c        ..      BMI      0x32a2 ; I2C_WriteByteOneReg + 134
        0x00003288:    e7ff        ..      B        0x328a ; I2C_WriteByteOneReg + 110
        0x0000328a:    9802        ..      LDR      r0,[sp,#8]
        0x0000328c:    1e40        @.      SUBS     r0,r0,#1
        0x0000328e:    9002        ..      STR      r0,[sp,#8]
        0x00003290:    9802        ..      LDR      r0,[sp,#8]
        0x00003292:    b928        (.      CBNZ     r0,0x32a0 ; I2C_WriteByteOneReg + 132
        0x00003294:    e7ff        ..      B        0x3296 ; I2C_WriteByteOneReg + 122
        0x00003296:    495f        _I      LDR      r1,[pc,#380] ; [0x3414] = 0x200004b8
        0x00003298:    2000        .       MOVS     r0,#0
        0x0000329a:    43c0        .C      MVNS     r0,r0
        0x0000329c:    6008        .`      STR      r0,[r1,#0]
        0x0000329e:    e000        ..      B        0x32a2 ; I2C_WriteByteOneReg + 134
        0x000032a0:    e7ed        ..      B        0x327e ; I2C_WriteByteOneReg + 98
        0x000032a2:    980a        ..      LDR      r0,[sp,#0x28]
        0x000032a4:    68c0        .h      LDR      r0,[r0,#0xc]
        0x000032a6:    3808        .8      SUBS     r0,r0,#8
        0x000032a8:    9000        ..      STR      r0,[sp,#0]
        0x000032aa:    2830        0(      CMP      r0,#0x30
        0x000032ac:    d900        ..      BLS      0x32b0 ; I2C_WriteByteOneReg + 148
        0x000032ae:    e090        ..      B        0x33d2 ; I2C_WriteByteOneReg + 438
        0x000032b0:    9900        ..      LDR      r1,[sp,#0]
        0x000032b2:    008a        ..      LSLS     r2,r1,#2
        0x000032b4:    a001        ..      ADR      r0,{pc}+8 ; 0x32bc
        0x000032b6:    1880        ..      ADDS     r0,r0,r2
        0x000032b8:    4687        .F      MOV      pc,r0
        0x000032ba:    46c0        .F      MOV      r8,r8
        0x000032bc:    f000b860    ..`.    B.W      0x3380 ; I2C_WriteByteOneReg + 356
        0x000032c0:    f000b887    ....    B.W      0x33d2 ; I2C_WriteByteOneReg + 438
        0x000032c4:    f000b885    ....    B.W      0x33d2 ; I2C_WriteByteOneReg + 438
        0x000032c8:    f000b883    ....    B.W      0x33d2 ; I2C_WriteByteOneReg + 438
        0x000032cc:    f000b881    ....    B.W      0x33d2 ; I2C_WriteByteOneReg + 438
        0x000032d0:    f000b87f    ....    B.W      0x33d2 ; I2C_WriteByteOneReg + 438
        0x000032d4:    f000b87d    ..}.    B.W      0x33d2 ; I2C_WriteByteOneReg + 438
        0x000032d8:    f000b87b    ..{.    B.W      0x33d2 ; I2C_WriteByteOneReg + 438
        0x000032dc:    f000b879    ..y.    B.W      0x33d2 ; I2C_WriteByteOneReg + 438
        0x000032e0:    f000b877    ..w.    B.W      0x33d2 ; I2C_WriteByteOneReg + 438
        0x000032e4:    f000b875    ..u.    B.W      0x33d2 ; I2C_WriteByteOneReg + 438
        0x000032e8:    f000b873    ..s.    B.W      0x33d2 ; I2C_WriteByteOneReg + 438
        0x000032ec:    f000b871    ..q.    B.W      0x33d2 ; I2C_WriteByteOneReg + 438
        0x000032f0:    f000b86f    ..o.    B.W      0x33d2 ; I2C_WriteByteOneReg + 438
        0x000032f4:    f000b86d    ..m.    B.W      0x33d2 ; I2C_WriteByteOneReg + 438
        0x000032f8:    f000b86b    ..k.    B.W      0x33d2 ; I2C_WriteByteOneReg + 438
        0x000032fc:    f000b849    ..I.    B.W      0x3392 ; I2C_WriteByteOneReg + 374
        0x00003300:    f000b867    ..g.    B.W      0x33d2 ; I2C_WriteByteOneReg + 438
        0x00003304:    f000b865    ..e.    B.W      0x33d2 ; I2C_WriteByteOneReg + 438
        0x00003308:    f000b863    ..c.    B.W      0x33d2 ; I2C_WriteByteOneReg + 438
        0x0000330c:    f000b861    ..a.    B.W      0x33d2 ; I2C_WriteByteOneReg + 438
        0x00003310:    f000b85f    .._.    B.W      0x33d2 ; I2C_WriteByteOneReg + 438
        0x00003314:    f000b85d    ..].    B.W      0x33d2 ; I2C_WriteByteOneReg + 438
        0x00003318:    f000b85b    ..[.    B.W      0x33d2 ; I2C_WriteByteOneReg + 438
        0x0000331c:    f000b83e    ..>.    B.W      0x339c ; I2C_WriteByteOneReg + 384
        0x00003320:    f000b857    ..W.    B.W      0x33d2 ; I2C_WriteByteOneReg + 438
        0x00003324:    f000b855    ..U.    B.W      0x33d2 ; I2C_WriteByteOneReg + 438
        0x00003328:    f000b853    ..S.    B.W      0x33d2 ; I2C_WriteByteOneReg + 438
        0x0000332c:    f000b851    ..Q.    B.W      0x33d2 ; I2C_WriteByteOneReg + 438
        0x00003330:    f000b84f    ..O.    B.W      0x33d2 ; I2C_WriteByteOneReg + 438
        0x00003334:    f000b84d    ..M.    B.W      0x33d2 ; I2C_WriteByteOneReg + 438
        0x00003338:    f000b84b    ..K.    B.W      0x33d2 ; I2C_WriteByteOneReg + 438
        0x0000333c:    f000b835    ..5.    B.W      0x33aa ; I2C_WriteByteOneReg + 398
        0x00003340:    f000b847    ..G.    B.W      0x33d2 ; I2C_WriteByteOneReg + 438
        0x00003344:    f000b845    ..E.    B.W      0x33d2 ; I2C_WriteByteOneReg + 438
        0x00003348:    f000b843    ..C.    B.W      0x33d2 ; I2C_WriteByteOneReg + 438
        0x0000334c:    f000b841    ..A.    B.W      0x33d2 ; I2C_WriteByteOneReg + 438
        0x00003350:    f000b83f    ..?.    B.W      0x33d2 ; I2C_WriteByteOneReg + 438
        0x00003354:    f000b83d    ..=.    B.W      0x33d2 ; I2C_WriteByteOneReg + 438
        0x00003358:    f000b83b    ..;.    B.W      0x33d2 ; I2C_WriteByteOneReg + 438
        0x0000335c:    f000b81e    ....    B.W      0x339c ; I2C_WriteByteOneReg + 384
        0x00003360:    f000b837    ..7.    B.W      0x33d2 ; I2C_WriteByteOneReg + 438
        0x00003364:    f000b835    ..5.    B.W      0x33d2 ; I2C_WriteByteOneReg + 438
        0x00003368:    f000b833    ..3.    B.W      0x33d2 ; I2C_WriteByteOneReg + 438
        0x0000336c:    f000b831    ..1.    B.W      0x33d2 ; I2C_WriteByteOneReg + 438
        0x00003370:    f000b82f    ../.    B.W      0x33d2 ; I2C_WriteByteOneReg + 438
        0x00003374:    f000b82d    ..-.    B.W      0x33d2 ; I2C_WriteByteOneReg + 438
        0x00003378:    f000b82b    ..+.    B.W      0x33d2 ; I2C_WriteByteOneReg + 438
        0x0000337c:    f000b828    ..(.    B.W      0x33d0 ; I2C_WriteByteOneReg + 436
        0x00003380:    9809        ..      LDR      r0,[sp,#0x24]
        0x00003382:    0640        @.      LSLS     r0,r0,#25
        0x00003384:    0e00        ..      LSRS     r0,r0,#24
        0x00003386:    990a        ..      LDR      r1,[sp,#0x28]
        0x00003388:    6088        .`      STR      r0,[r1,#8]
        0x0000338a:    a904        ..      ADD      r1,sp,#0x10
        0x0000338c:    2008        .       MOVS     r0,#8
        0x0000338e:    7008        .p      STRB     r0,[r1,#0]
        0x00003390:    e02e        ..      B        0x33f0 ; I2C_WriteByteOneReg + 468
        0x00003392:    a808        ..      ADD      r0,sp,#0x20
        0x00003394:    7800        .x      LDRB     r0,[r0,#0]
        0x00003396:    990a        ..      LDR      r1,[sp,#0x28]
        0x00003398:    6088        .`      STR      r0,[r1,#8]
        0x0000339a:    e029        ).      B        0x33f0 ; I2C_WriteByteOneReg + 468
        0x0000339c:    a904        ..      ADD      r1,sp,#0x10
        0x0000339e:    2018        .       MOVS     r0,#0x18
        0x000033a0:    7008        .p      STRB     r0,[r1,#0]
        0x000033a2:    a905        ..      ADD      r1,sp,#0x14
        0x000033a4:    2001        .       MOVS     r0,#1
        0x000033a6:    7008        .p      STRB     r0,[r1,#0]
        0x000033a8:    e022        ".      B        0x33f0 ; I2C_WriteByteOneReg + 468
        0x000033aa:    9803        ..      LDR      r0,[sp,#0xc]
        0x000033ac:    b940        @.      CBNZ     r0,0x33c0 ; I2C_WriteByteOneReg + 420
        0x000033ae:    e7ff        ..      B        0x33b0 ; I2C_WriteByteOneReg + 404
        0x000033b0:    a807        ..      ADD      r0,sp,#0x1c
        0x000033b2:    7800        .x      LDRB     r0,[r0,#0]
        0x000033b4:    990a        ..      LDR      r1,[sp,#0x28]
        0x000033b6:    6088        .`      STR      r0,[r1,#8]
        0x000033b8:    9803        ..      LDR      r0,[sp,#0xc]
        0x000033ba:    1c40        @.      ADDS     r0,r0,#1
        0x000033bc:    9003        ..      STR      r0,[sp,#0xc]
        0x000033be:    e006        ..      B        0x33ce ; I2C_WriteByteOneReg + 434
        0x000033c0:    a904        ..      ADD      r1,sp,#0x10
        0x000033c2:    2018        .       MOVS     r0,#0x18
        0x000033c4:    7008        .p      STRB     r0,[r1,#0]
        0x000033c6:    a906        ..      ADD      r1,sp,#0x18
        0x000033c8:    2000        .       MOVS     r0,#0
        0x000033ca:    7008        .p      STRB     r0,[r1,#0]
        0x000033cc:    e7ff        ..      B        0x33ce ; I2C_WriteByteOneReg + 434
        0x000033ce:    e00f        ..      B        0x33f0 ; I2C_WriteByteOneReg + 468
        0x000033d0:    e7ff        ..      B        0x33d2 ; I2C_WriteByteOneReg + 438
        0x000033d2:    980a        ..      LDR      r0,[sp,#0x28]
        0x000033d4:    6800        .h      LDR      r0,[r0,#0]
        0x000033d6:    2118        .!      MOVS     r1,#0x18
        0x000033d8:    4308        .C      ORRS     r0,r0,r1
        0x000033da:    2124        $!      MOVS     r1,#0x24
        0x000033dc:    4388        .C      BICS     r0,r0,r1
        0x000033de:    990a        ..      LDR      r1,[sp,#0x28]
        0x000033e0:    6008        .`      STR      r0,[r1,#0]
        0x000033e2:    a904        ..      ADD      r1,sp,#0x10
        0x000033e4:    2008        .       MOVS     r0,#8
        0x000033e6:    7008        .p      STRB     r0,[r1,#0]
        0x000033e8:    a905        ..      ADD      r1,sp,#0x14
        0x000033ea:    2001        .       MOVS     r0,#1
        0x000033ec:    7008        .p      STRB     r0,[r1,#0]
        0x000033ee:    e7ff        ..      B        0x33f0 ; I2C_WriteByteOneReg + 468
        0x000033f0:    980a        ..      LDR      r0,[sp,#0x28]
        0x000033f2:    6800        .h      LDR      r0,[r0,#0]
        0x000033f4:    213c        <!      MOVS     r1,#0x3c
        0x000033f6:    4388        .C      BICS     r0,r0,r1
        0x000033f8:    a904        ..      ADD      r1,sp,#0x10
        0x000033fa:    7809        .x      LDRB     r1,[r1,#0]
        0x000033fc:    4308        .C      ORRS     r0,r0,r1
        0x000033fe:    990a        ..      LDR      r1,[sp,#0x28]
        0x00003400:    6008        .`      STR      r0,[r1,#0]
        0x00003402:    e728        (.      B        0x3256 ; I2C_WriteByteOneReg + 58
        0x00003404:    a805        ..      ADD      r0,sp,#0x14
        0x00003406:    7800        .x      LDRB     r0,[r0,#0]
        0x00003408:    a906        ..      ADD      r1,sp,#0x18
        0x0000340a:    7809        .x      LDRB     r1,[r1,#0]
        0x0000340c:    4308        .C      ORRS     r0,r0,r1
        0x0000340e:    b00b        ..      ADD      sp,sp,#0x2c
        0x00003410:    bd10        ..      POP      {r4,pc}
        0x00003412:    46c0        .F      MOV      r8,r8
    $d.37
    __arm_cp.30_0
        0x00003414:    200004b8    ...     DCD    536872120
    __arm_cp.30_1
        0x00003418:    20000014    ...     DCD    536870932
    $t.2
    Init
        0x0000341c:    b082        ..      SUB      sp,sp,#8
        0x0000341e:    aa01        ..      ADD      r2,sp,#4
        0x00003420:    7010        .p      STRB     r0,[r2,#0]
        0x00003422:    4668        hF      MOV      r0,sp
        0x00003424:    7001        .p      STRB     r1,[r0,#0]
        0x00003426:    9801        ..      LDR      r0,[sp,#4]
        0x00003428:    4902        .I      LDR      r1,[pc,#8] ; [0x3434] = 0x20000038
        0x0000342a:    7008        .p      STRB     r0,[r1,#0]
        0x0000342c:    9800        ..      LDR      r0,[sp,#0]
        0x0000342e:    7048        Hp      STRB     r0,[r1,#1]
        0x00003430:    b002        ..      ADD      sp,sp,#8
        0x00003432:    4770        pG      BX       lr
    $d.3
    __arm_cp.1_0
        0x00003434:    20000038    8..     DCD    536870968
    $t.12
    InitFactorySetting
        0x00003438:    b580        ..      PUSH     {r7,lr}
        0x0000343a:    b082        ..      SUB      sp,sp,#8
        0x0000343c:    9001        ..      STR      r0,[sp,#4]
        0x0000343e:    9901        ..      LDR      r1,[sp,#4]
        0x00003440:    2000        .       MOVS     r0,#0
        0x00003442:    7208        .r      STRB     r0,[r1,#8]
        0x00003444:    9901        ..      LDR      r1,[sp,#4]
        0x00003446:    7248        Hr      STRB     r0,[r1,#9]
        0x00003448:    9a01        ..      LDR      r2,[sp,#4]
        0x0000344a:    2101        .!      MOVS     r1,#1
        0x0000344c:    7291        .r      STRB     r1,[r2,#0xa]
        0x0000344e:    9a01        ..      LDR      r2,[sp,#4]
        0x00003450:    72d0        .r      STRB     r0,[r2,#0xb]
        0x00003452:    9a01        ..      LDR      r2,[sp,#4]
        0x00003454:    7311        .s      STRB     r1,[r2,#0xc]
        0x00003456:    9901        ..      LDR      r1,[sp,#4]
        0x00003458:    7348        Hs      STRB     r0,[r1,#0xd]
        0x0000345a:    9901        ..      LDR      r1,[sp,#4]
        0x0000345c:    7388        .s      STRB     r0,[r1,#0xe]
        0x0000345e:    9a01        ..      LDR      r2,[sp,#4]
        0x00003460:    4907        .I      LDR      r1,[pc,#28] ; [0x3480] = 0x12d687
        0x00003462:    6111        .a      STR      r1,[r2,#0x10]
        0x00003464:    9a01        ..      LDR      r2,[sp,#4]
        0x00003466:    4907        .I      LDR      r1,[pc,#28] ; [0x3484] = 0x411c9fbe
        0x00003468:    6151        Qa      STR      r1,[r2,#0x14]
        0x0000346a:    9a01        ..      LDR      r2,[sp,#4]
        0x0000346c:    4906        .I      LDR      r1,[pc,#24] ; [0x3488] = 0x447a0000
        0x0000346e:    6011        .`      STR      r1,[r2,#0]
        0x00003470:    9901        ..      LDR      r1,[sp,#4]
        0x00003472:    6048        H`      STR      r0,[r1,#4]
        0x00003474:    9801        ..      LDR      r0,[sp,#4]
        0x00003476:    f003fb57    ..W.    BL       writeFlashMemoryInformation ; 0x6b28
        0x0000347a:    b002        ..      ADD      sp,sp,#8
        0x0000347c:    bd80        ..      POP      {r7,pc}
        0x0000347e:    46c0        .F      MOV      r8,r8
    $d.13
    __arm_cp.6_0
        0x00003480:    0012d687    ....    DCD    1234567
    __arm_cp.6_1
        0x00003484:    411c9fbe    ...A    DCD    1092394942
    __arm_cp.6_2
        0x00003488:    447a0000    ..zD    DCD    1148846080
    $t.101
    Menu_Init
        0x0000348c:    b5f0        ..      PUSH     {r4-r7,lr}
        0x0000348e:    b0af        ..      SUB      sp,sp,#0xbc
        0x00003490:    2300        .#      MOVS     r3,#0
        0x00003492:    932d        -.      STR      r3,[sp,#0xb4]
        0x00003494:    9301        ..      STR      r3,[sp,#4]
        0x00003496:    9300        ..      STR      r3,[sp,#0]
        0x00003498:    48ef        .H      LDR      r0,[pc,#956] ; [0x3858] = 0x20000500
        0x0000349a:    9005        ..      STR      r0,[sp,#0x14]
        0x0000349c:    49ef        .I      LDR      r1,[pc,#956] ; [0x385c] = 0x6591
        0x0000349e:    4af0        .J      LDR      r2,[pc,#960] ; [0x3860] = 0x20000118
        0x000034a0:    9207        ..      STR      r2,[sp,#0x1c]
        0x000034a2:    f001fbbc    ....    BL       build ; 0x4c1e
        0x000034a6:    9b05        ..      LDR      r3,[sp,#0x14]
        0x000034a8:    9807        ..      LDR      r0,[sp,#0x1c]
        0x000034aa:    49ee        .I      LDR      r1,[pc,#952] ; [0x3864] = 0x2000017c
        0x000034ac:    910d        ..      STR      r1,[sp,#0x34]
        0x000034ae:    9101        ..      STR      r1,[sp,#4]
        0x000034b0:    49ed        .I      LDR      r1,[pc,#948] ; [0x3868] = 0x20000168
        0x000034b2:    9104        ..      STR      r1,[sp,#0x10]
        0x000034b4:    9100        ..      STR      r1,[sp,#0]
        0x000034b6:    49ed        .I      LDR      r1,[pc,#948] ; [0x386c] = 0x5b79
        0x000034b8:    4aed        .J      LDR      r2,[pc,#948] ; [0x3870] = 0x2000012c
        0x000034ba:    9206        ..      STR      r2,[sp,#0x18]
        0x000034bc:    f001fbaf    ....    BL       build ; 0x4c1e
        0x000034c0:    9b05        ..      LDR      r3,[sp,#0x14]
        0x000034c2:    9907        ..      LDR      r1,[sp,#0x1c]
        0x000034c4:    980d        ..      LDR      r0,[sp,#0x34]
        0x000034c6:    4aeb        .J      LDR      r2,[pc,#940] ; [0x3874] = 0x200001f4
        0x000034c8:    9212        ..      STR      r2,[sp,#0x48]
        0x000034ca:    9201        ..      STR      r2,[sp,#4]
        0x000034cc:    9100        ..      STR      r1,[sp,#0]
        0x000034ce:    49ea        .I      LDR      r1,[pc,#936] ; [0x3878] = 0x684d
        0x000034d0:    4aea        .J      LDR      r2,[pc,#936] ; [0x387c] = 0x200001a4
        0x000034d2:    9209        ..      STR      r2,[sp,#0x24]
        0x000034d4:    f001fba3    ....    BL       build ; 0x4c1e
        0x000034d8:    9b05        ..      LDR      r3,[sp,#0x14]
        0x000034da:    990d        ..      LDR      r1,[sp,#0x34]
        0x000034dc:    9812        ..      LDR      r0,[sp,#0x48]
        0x000034de:    4ae8        .J      LDR      r2,[pc,#928] ; [0x3880] = 0x2000026c
        0x000034e0:    9218        ..      STR      r2,[sp,#0x60]
        0x000034e2:    9201        ..      STR      r2,[sp,#4]
        0x000034e4:    9100        ..      STR      r1,[sp,#0]
        0x000034e6:    49e7        .I      LDR      r1,[pc,#924] ; [0x3884] = 0x5c09
        0x000034e8:    4fe7        .O      LDR      r7,[pc,#924] ; [0x3888] = 0x2000021c
        0x000034ea:    463a        :F      MOV      r2,r7
        0x000034ec:    f001fb97    ....    BL       build ; 0x4c1e
        0x000034f0:    9b05        ..      LDR      r3,[sp,#0x14]
        0x000034f2:    9912        ..      LDR      r1,[sp,#0x48]
        0x000034f4:    9818        ..      LDR      r0,[sp,#0x60]
        0x000034f6:    4ae5        .J      LDR      r2,[pc,#916] ; [0x388c] = 0x200002f8
        0x000034f8:    921c        ..      STR      r2,[sp,#0x70]
        0x000034fa:    9201        ..      STR      r2,[sp,#4]
        0x000034fc:    9100        ..      STR      r1,[sp,#0]
        0x000034fe:    49e4        .I      LDR      r1,[pc,#912] ; [0x3890] = 0x5d01
        0x00003500:    4ee4        .N      LDR      r6,[pc,#912] ; [0x3894] = 0x20000294
        0x00003502:    4632        2F      MOV      r2,r6
        0x00003504:    f001fb8b    ....    BL       build ; 0x4c1e
        0x00003508:    9b05        ..      LDR      r3,[sp,#0x14]
        0x0000350a:    9918        ..      LDR      r1,[sp,#0x60]
        0x0000350c:    981c        ..      LDR      r0,[sp,#0x70]
        0x0000350e:    4ae2        .J      LDR      r2,[pc,#904] ; [0x3898] = 0x2000035c
        0x00003510:    9220         .      STR      r2,[sp,#0x80]
        0x00003512:    9201        ..      STR      r2,[sp,#4]
        0x00003514:    9100        ..      STR      r1,[sp,#0]
        0x00003516:    49e1        .I      LDR      r1,[pc,#900] ; [0x389c] = 0x6469
        0x00003518:    4ae1        .J      LDR      r2,[pc,#900] ; [0x38a0] = 0x20000320
        0x0000351a:    9219        ..      STR      r2,[sp,#0x64]
        0x0000351c:    f001fb7f    ....    BL       build ; 0x4c1e
        0x00003520:    9b05        ..      LDR      r3,[sp,#0x14]
        0x00003522:    991c        ..      LDR      r1,[sp,#0x70]
        0x00003524:    9820         .      LDR      r0,[sp,#0x80]
        0x00003526:    4adf        .J      LDR      r2,[pc,#892] ; [0x38a4] = 0x200003ac
        0x00003528:    9225        %.      STR      r2,[sp,#0x94]
        0x0000352a:    9201        ..      STR      r2,[sp,#4]
        0x0000352c:    9100        ..      STR      r1,[sp,#0]
        0x0000352e:    49de        .I      LDR      r1,[pc,#888] ; [0x38a8] = 0x69d9
        0x00003530:    4dde        .M      LDR      r5,[pc,#888] ; [0x38ac] = 0x20000370
        0x00003532:    462a        *F      MOV      r2,r5
        0x00003534:    f001fb73    ..s.    BL       build ; 0x4c1e
        0x00003538:    9b05        ..      LDR      r3,[sp,#0x14]
        0x0000353a:    9920         .      LDR      r1,[sp,#0x80]
        0x0000353c:    9825        %.      LDR      r0,[sp,#0x94]
        0x0000353e:    4adc        .J      LDR      r2,[pc,#880] ; [0x38b0] = 0x20000424
        0x00003540:    9229        ).      STR      r2,[sp,#0xa4]
        0x00003542:    9201        ..      STR      r2,[sp,#4]
        0x00003544:    9100        ..      STR      r1,[sp,#0]
        0x00003546:    49db        .I      LDR      r1,[pc,#876] ; [0x38b4] = 0x6605
        0x00003548:    4cdb        .L      LDR      r4,[pc,#876] ; [0x38b8] = 0x200003d4
        0x0000354a:    4622        "F      MOV      r2,r4
        0x0000354c:    f001fb67    ..g.    BL       build ; 0x4c1e
        0x00003550:    9b05        ..      LDR      r3,[sp,#0x14]
        0x00003552:    9925        %.      LDR      r1,[sp,#0x94]
        0x00003554:    9829        ).      LDR      r0,[sp,#0xa4]
        0x00003556:    4ad9        .J      LDR      r2,[pc,#868] ; [0x38bc] = 0x20000474
        0x00003558:    9203        ..      STR      r2,[sp,#0xc]
        0x0000355a:    9201        ..      STR      r2,[sp,#4]
        0x0000355c:    9100        ..      STR      r1,[sp,#0]
        0x0000355e:    49d8        .I      LDR      r1,[pc,#864] ; [0x38c0] = 0x670d
        0x00003560:    4ad8        .J      LDR      r2,[pc,#864] ; [0x38c4] = 0x2000044c
        0x00003562:    9226        &.      STR      r2,[sp,#0x98]
        0x00003564:    f001fb5b    ..[.    BL       build ; 0x4c1e
        0x00003568:    9b05        ..      LDR      r3,[sp,#0x14]
        0x0000356a:    9929        ).      LDR      r1,[sp,#0xa4]
        0x0000356c:    9a2d        -.      LDR      r2,[sp,#0xb4]
        0x0000356e:    48d6        .H      LDR      r0,[pc,#856] ; [0x38c8] = 0x20000488
        0x00003570:    902b        +.      STR      r0,[sp,#0xac]
        0x00003572:    9001        ..      STR      r0,[sp,#4]
        0x00003574:    9803        ..      LDR      r0,[sp,#0xc]
        0x00003576:    9100        ..      STR      r1,[sp,#0]
        0x00003578:    49d4        .I      LDR      r1,[pc,#848] ; [0x38cc] = 0x6375
        0x0000357a:    f001fb50    ..P.    BL       build ; 0x4c1e
        0x0000357e:    9903        ..      LDR      r1,[sp,#0xc]
        0x00003580:    9b05        ..      LDR      r3,[sp,#0x14]
        0x00003582:    982b        +.      LDR      r0,[sp,#0xac]
        0x00003584:    4ad2        .J      LDR      r2,[pc,#840] ; [0x38d0] = 0x20000140
        0x00003586:    922e        ..      STR      r2,[sp,#0xb8]
        0x00003588:    9201        ..      STR      r2,[sp,#4]
        0x0000358a:    9100        ..      STR      r1,[sp,#0]
        0x0000358c:    49d1        .I      LDR      r1,[pc,#836] ; [0x38d4] = 0x6525
        0x0000358e:    4ad2        .J      LDR      r2,[pc,#840] ; [0x38d8] = 0x2000049c
        0x00003590:    922a        *.      STR      r2,[sp,#0xa8]
        0x00003592:    f001fb44    ..D.    BL       build ; 0x4c1e
        0x00003596:    9a04        ..      LDR      r2,[sp,#0x10]
        0x00003598:    9b05        ..      LDR      r3,[sp,#0x14]
        0x0000359a:    992b        +.      LDR      r1,[sp,#0xac]
        0x0000359c:    982e        ..      LDR      r0,[sp,#0xb8]
        0x0000359e:    9201        ..      STR      r2,[sp,#4]
        0x000035a0:    9100        ..      STR      r1,[sp,#0]
        0x000035a2:    49ce        .I      LDR      r1,[pc,#824] ; [0x38dc] = 0x67d9
        0x000035a4:    4ace        .J      LDR      r2,[pc,#824] ; [0x38e0] = 0x20000154
        0x000035a6:    922c        ,.      STR      r2,[sp,#0xb0]
        0x000035a8:    f001fb39    ..9.    BL       build ; 0x4c1e
        0x000035ac:    9804        ..      LDR      r0,[sp,#0x10]
        0x000035ae:    9b05        ..      LDR      r3,[sp,#0x14]
        0x000035b0:    9907        ..      LDR      r1,[sp,#0x1c]
        0x000035b2:    9a2d        -.      LDR      r2,[sp,#0xb4]
        0x000035b4:    9101        ..      STR      r1,[sp,#4]
        0x000035b6:    992e        ..      LDR      r1,[sp,#0xb8]
        0x000035b8:    9100        ..      STR      r1,[sp,#0]
        0x000035ba:    49ca        .I      LDR      r1,[pc,#808] ; [0x38e4] = 0x6965
        0x000035bc:    f001fb2f    ../.    BL       build ; 0x4c1e
        0x000035c0:    9806        ..      LDR      r0,[sp,#0x18]
        0x000035c2:    9b07        ..      LDR      r3,[sp,#0x1c]
        0x000035c4:    9a2d        -.      LDR      r2,[sp,#0xb4]
        0x000035c6:    9201        ..      STR      r2,[sp,#4]
        0x000035c8:    9200        ..      STR      r2,[sp,#0]
        0x000035ca:    49c7        .I      LDR      r1,[pc,#796] ; [0x38e8] = 0x54f1
        0x000035cc:    f001fb27    ..'.    BL       build ; 0x4c1e
        0x000035d0:    9809        ..      LDR      r0,[sp,#0x24]
        0x000035d2:    9b0d        ..      LDR      r3,[sp,#0x34]
        0x000035d4:    49c5        .I      LDR      r1,[pc,#788] ; [0x38ec] = 0x200001b8
        0x000035d6:    9108        ..      STR      r1,[sp,#0x20]
        0x000035d8:    9101        ..      STR      r1,[sp,#4]
        0x000035da:    49c5        .I      LDR      r1,[pc,#788] ; [0x38f0] = 0x200001e0
        0x000035dc:    910b        ..      STR      r1,[sp,#0x2c]
        0x000035de:    9100        ..      STR      r1,[sp,#0]
        0x000035e0:    49c4        .I      LDR      r1,[pc,#784] ; [0x38f4] = 0x5e5d
        0x000035e2:    4ac5        .J      LDR      r2,[pc,#788] ; [0x38f8] = 0x20000190
        0x000035e4:    920c        ..      STR      r2,[sp,#0x30]
        0x000035e6:    f001fb1a    ....    BL       build ; 0x4c1e
        0x000035ea:    9909        ..      LDR      r1,[sp,#0x24]
        0x000035ec:    9a0c        ..      LDR      r2,[sp,#0x30]
        0x000035ee:    9b0d        ..      LDR      r3,[sp,#0x34]
        0x000035f0:    48c2        .H      LDR      r0,[pc,#776] ; [0x38fc] = 0x200001cc
        0x000035f2:    900a        ..      STR      r0,[sp,#0x28]
        0x000035f4:    9001        ..      STR      r0,[sp,#4]
        0x000035f6:    9808        ..      LDR      r0,[sp,#0x20]
        0x000035f8:    9100        ..      STR      r1,[sp,#0]
        0x000035fa:    49c1        .I      LDR      r1,[pc,#772] ; [0x3900] = 0x5e91
        0x000035fc:    f001fb0f    ....    BL       build ; 0x4c1e
        0x00003600:    9908        ..      LDR      r1,[sp,#0x20]
        0x00003602:    980b        ..      LDR      r0,[sp,#0x2c]
        0x00003604:    9a0c        ..      LDR      r2,[sp,#0x30]
        0x00003606:    9b0d        ..      LDR      r3,[sp,#0x34]
        0x00003608:    9001        ..      STR      r0,[sp,#4]
        0x0000360a:    980a        ..      LDR      r0,[sp,#0x28]
        0x0000360c:    9100        ..      STR      r1,[sp,#0]
        0x0000360e:    49bd        .I      LDR      r1,[pc,#756] ; [0x3904] = 0x5ec1
        0x00003610:    f001fb05    ....    BL       build ; 0x4c1e
        0x00003614:    9a09        ..      LDR      r2,[sp,#0x24]
        0x00003616:    990a        ..      LDR      r1,[sp,#0x28]
        0x00003618:    980b        ..      LDR      r0,[sp,#0x2c]
        0x0000361a:    9b0d        ..      LDR      r3,[sp,#0x34]
        0x0000361c:    9201        ..      STR      r2,[sp,#4]
        0x0000361e:    9a0c        ..      LDR      r2,[sp,#0x30]
        0x00003620:    9100        ..      STR      r1,[sp,#0]
        0x00003622:    49b9        .I      LDR      r1,[pc,#740] ; [0x3908] = 0x5ef1
        0x00003624:    f001fafb    ....    BL       build ; 0x4c1e
        0x00003628:    980c        ..      LDR      r0,[sp,#0x30]
        0x0000362a:    9b0d        ..      LDR      r3,[sp,#0x34]
        0x0000362c:    9a2d        -.      LDR      r2,[sp,#0xb4]
        0x0000362e:    9201        ..      STR      r2,[sp,#4]
        0x00003630:    9200        ..      STR      r2,[sp,#0]
        0x00003632:    49b6        .I      LDR      r1,[pc,#728] ; [0x390c] = 0x552d
        0x00003634:    f001faf3    ....    BL       build ; 0x4c1e
        0x00003638:    9b12        ..      LDR      r3,[sp,#0x48]
        0x0000363a:    48b5        .H      LDR      r0,[pc,#724] ; [0x3910] = 0x20000230
        0x0000363c:    900e        ..      STR      r0,[sp,#0x38]
        0x0000363e:    9001        ..      STR      r0,[sp,#4]
        0x00003640:    48b4        .H      LDR      r0,[pc,#720] ; [0x3914] = 0x20000258
        0x00003642:    9010        ..      STR      r0,[sp,#0x40]
        0x00003644:    9000        ..      STR      r0,[sp,#0]
        0x00003646:    49b4        .I      LDR      r1,[pc,#720] ; [0x3918] = 0x5f29
        0x00003648:    4ab4        .J      LDR      r2,[pc,#720] ; [0x391c] = 0x20000208
        0x0000364a:    9211        ..      STR      r2,[sp,#0x44]
        0x0000364c:    4638        8F      MOV      r0,r7
        0x0000364e:    f001fae6    ....    BL       build ; 0x4c1e
        0x00003652:    980e        ..      LDR      r0,[sp,#0x38]
        0x00003654:    9a11        ..      LDR      r2,[sp,#0x44]
        0x00003656:    9b12        ..      LDR      r3,[sp,#0x48]
        0x00003658:    49b1        .I      LDR      r1,[pc,#708] ; [0x3920] = 0x20000244
        0x0000365a:    910f        ..      STR      r1,[sp,#0x3c]
        0x0000365c:    9101        ..      STR      r1,[sp,#4]
        0x0000365e:    9700        ..      STR      r7,[sp,#0]
        0x00003660:    49b0        .I      LDR      r1,[pc,#704] ; [0x3924] = 0x5f61
        0x00003662:    f001fadc    ....    BL       build ; 0x4c1e
        0x00003666:    990e        ..      LDR      r1,[sp,#0x38]
        0x00003668:    9810        ..      LDR      r0,[sp,#0x40]
        0x0000366a:    9a11        ..      LDR      r2,[sp,#0x44]
        0x0000366c:    9b12        ..      LDR      r3,[sp,#0x48]
        0x0000366e:    9001        ..      STR      r0,[sp,#4]
        0x00003670:    980f        ..      LDR      r0,[sp,#0x3c]
        0x00003672:    9100        ..      STR      r1,[sp,#0]
        0x00003674:    49ac        .I      LDR      r1,[pc,#688] ; [0x3928] = 0x5f95
        0x00003676:    f001fad2    ....    BL       build ; 0x4c1e
        0x0000367a:    990f        ..      LDR      r1,[sp,#0x3c]
        0x0000367c:    9810        ..      LDR      r0,[sp,#0x40]
        0x0000367e:    9a11        ..      LDR      r2,[sp,#0x44]
        0x00003680:    9b12        ..      LDR      r3,[sp,#0x48]
        0x00003682:    9701        ..      STR      r7,[sp,#4]
        0x00003684:    9100        ..      STR      r1,[sp,#0]
        0x00003686:    49a9        .I      LDR      r1,[pc,#676] ; [0x392c] = 0x5fc9
        0x00003688:    f001fac9    ....    BL       build ; 0x4c1e
        0x0000368c:    9811        ..      LDR      r0,[sp,#0x44]
        0x0000368e:    9b12        ..      LDR      r3,[sp,#0x48]
        0x00003690:    9a2d        -.      LDR      r2,[sp,#0xb4]
        0x00003692:    9201        ..      STR      r2,[sp,#4]
        0x00003694:    9200        ..      STR      r2,[sp,#0]
        0x00003696:    49a6        .I      LDR      r1,[pc,#664] ; [0x3930] = 0x5561
        0x00003698:    f001fac1    ....    BL       build ; 0x4c1e
        0x0000369c:    9b18        ..      LDR      r3,[sp,#0x60]
        0x0000369e:    48a5        .H      LDR      r0,[pc,#660] ; [0x3934] = 0x200002a8
        0x000036a0:    9013        ..      STR      r0,[sp,#0x4c]
        0x000036a2:    9001        ..      STR      r0,[sp,#4]
        0x000036a4:    4fa4        .O      LDR      r7,[pc,#656] ; [0x3938] = 0x200002e4
        0x000036a6:    9716        ..      STR      r7,[sp,#0x58]
        0x000036a8:    9700        ..      STR      r7,[sp,#0]
        0x000036aa:    49a4        .I      LDR      r1,[pc,#656] ; [0x393c] = 0x5ffd
        0x000036ac:    4aa4        .J      LDR      r2,[pc,#656] ; [0x3940] = 0x20000280
        0x000036ae:    9217        ..      STR      r2,[sp,#0x5c]
        0x000036b0:    4630        0F      MOV      r0,r6
        0x000036b2:    f001fab4    ....    BL       build ; 0x4c1e
        0x000036b6:    9813        ..      LDR      r0,[sp,#0x4c]
        0x000036b8:    9a17        ..      LDR      r2,[sp,#0x5c]
        0x000036ba:    9b18        ..      LDR      r3,[sp,#0x60]
        0x000036bc:    49a1        .I      LDR      r1,[pc,#644] ; [0x3944] = 0x200002bc
        0x000036be:    9114        ..      STR      r1,[sp,#0x50]
        0x000036c0:    9101        ..      STR      r1,[sp,#4]
        0x000036c2:    9600        ..      STR      r6,[sp,#0]
        0x000036c4:    49a0        .I      LDR      r1,[pc,#640] ; [0x3948] = 0x6031
        0x000036c6:    f001faaa    ....    BL       build ; 0x4c1e
        0x000036ca:    9913        ..      LDR      r1,[sp,#0x4c]
        0x000036cc:    9a17        ..      LDR      r2,[sp,#0x5c]
        0x000036ce:    9b18        ..      LDR      r3,[sp,#0x60]
        0x000036d0:    489e        .H      LDR      r0,[pc,#632] ; [0x394c] = 0x200002d0
        0x000036d2:    9015        ..      STR      r0,[sp,#0x54]
        0x000036d4:    9001        ..      STR      r0,[sp,#4]
        0x000036d6:    9814        ..      LDR      r0,[sp,#0x50]
        0x000036d8:    9100        ..      STR      r1,[sp,#0]
        0x000036da:    499d        .I      LDR      r1,[pc,#628] ; [0x3950] = 0x6061
        0x000036dc:    f001fa9f    ....    BL       build ; 0x4c1e
        0x000036e0:    9914        ..      LDR      r1,[sp,#0x50]
        0x000036e2:    9815        ..      LDR      r0,[sp,#0x54]
        0x000036e4:    9a17        ..      LDR      r2,[sp,#0x5c]
        0x000036e6:    9b18        ..      LDR      r3,[sp,#0x60]
        0x000036e8:    9701        ..      STR      r7,[sp,#4]
        0x000036ea:    9100        ..      STR      r1,[sp,#0]
        0x000036ec:    4999        .I      LDR      r1,[pc,#612] ; [0x3954] = 0x6095
        0x000036ee:    f001fa96    ....    BL       build ; 0x4c1e
        0x000036f2:    9915        ..      LDR      r1,[sp,#0x54]
        0x000036f4:    9816        ..      LDR      r0,[sp,#0x58]
        0x000036f6:    9a17        ..      LDR      r2,[sp,#0x5c]
        0x000036f8:    9b18        ..      LDR      r3,[sp,#0x60]
        0x000036fa:    9601        ..      STR      r6,[sp,#4]
        0x000036fc:    9100        ..      STR      r1,[sp,#0]
        0x000036fe:    4996        .I      LDR      r1,[pc,#600] ; [0x3958] = 0x60c9
        0x00003700:    f001fa8d    ....    BL       build ; 0x4c1e
        0x00003704:    9817        ..      LDR      r0,[sp,#0x5c]
        0x00003706:    9b18        ..      LDR      r3,[sp,#0x60]
        0x00003708:    9a2d        -.      LDR      r2,[sp,#0xb4]
        0x0000370a:    9201        ..      STR      r2,[sp,#4]
        0x0000370c:    9200        ..      STR      r2,[sp,#0]
        0x0000370e:    4993        .I      LDR      r1,[pc,#588] ; [0x395c] = 0x5595
        0x00003710:    f001fa85    ....    BL       build ; 0x4c1e
        0x00003714:    9819        ..      LDR      r0,[sp,#0x64]
        0x00003716:    9b1c        ..      LDR      r3,[sp,#0x70]
        0x00003718:    4991        .I      LDR      r1,[pc,#580] ; [0x3960] = 0x20000334
        0x0000371a:    911a        ..      STR      r1,[sp,#0x68]
        0x0000371c:    9101        ..      STR      r1,[sp,#4]
        0x0000371e:    9100        ..      STR      r1,[sp,#0]
        0x00003720:    4990        .I      LDR      r1,[pc,#576] ; [0x3964] = 0x60fd
        0x00003722:    4a91        .J      LDR      r2,[pc,#580] ; [0x3968] = 0x2000030c
        0x00003724:    921b        ..      STR      r2,[sp,#0x6c]
        0x00003726:    f001fa7a    ..z.    BL       build ; 0x4c1e
        0x0000372a:    9919        ..      LDR      r1,[sp,#0x64]
        0x0000372c:    981a        ..      LDR      r0,[sp,#0x68]
        0x0000372e:    9a1b        ..      LDR      r2,[sp,#0x6c]
        0x00003730:    9b1c        ..      LDR      r3,[sp,#0x70]
        0x00003732:    9101        ..      STR      r1,[sp,#4]
        0x00003734:    9100        ..      STR      r1,[sp,#0]
        0x00003736:    498d        .I      LDR      r1,[pc,#564] ; [0x396c] = 0x6131
        0x00003738:    f001fa71    ..q.    BL       build ; 0x4c1e
        0x0000373c:    981b        ..      LDR      r0,[sp,#0x6c]
        0x0000373e:    9b1c        ..      LDR      r3,[sp,#0x70]
        0x00003740:    9a2d        -.      LDR      r2,[sp,#0xb4]
        0x00003742:    9201        ..      STR      r2,[sp,#4]
        0x00003744:    9200        ..      STR      r2,[sp,#0]
        0x00003746:    498a        .I      LDR      r1,[pc,#552] ; [0x3970] = 0x55c9
        0x00003748:    f001fa69    ..i.    BL       build ; 0x4c1e
        0x0000374c:    9b20         .      LDR      r3,[sp,#0x80]
        0x0000374e:    4889        .H      LDR      r0,[pc,#548] ; [0x3974] = 0x20000384
        0x00003750:    901d        ..      STR      r0,[sp,#0x74]
        0x00003752:    9001        ..      STR      r0,[sp,#4]
        0x00003754:    4888        .H      LDR      r0,[pc,#544] ; [0x3978] = 0x20000398
        0x00003756:    901e        ..      STR      r0,[sp,#0x78]
        0x00003758:    9000        ..      STR      r0,[sp,#0]
        0x0000375a:    4988        .I      LDR      r1,[pc,#544] ; [0x397c] = 0x6165
        0x0000375c:    4a88        .J      LDR      r2,[pc,#544] ; [0x3980] = 0x20000348
        0x0000375e:    921f        ..      STR      r2,[sp,#0x7c]
        0x00003760:    4628        (F      MOV      r0,r5
        0x00003762:    f001fa5c    ..\.    BL       build ; 0x4c1e
        0x00003766:    981d        ..      LDR      r0,[sp,#0x74]
        0x00003768:    991e        ..      LDR      r1,[sp,#0x78]
        0x0000376a:    9a1f        ..      LDR      r2,[sp,#0x7c]
        0x0000376c:    9b20         .      LDR      r3,[sp,#0x80]
        0x0000376e:    9101        ..      STR      r1,[sp,#4]
        0x00003770:    9500        ..      STR      r5,[sp,#0]
        0x00003772:    4984        .I      LDR      r1,[pc,#528] ; [0x3984] = 0x61a1
        0x00003774:    f001fa53    ..S.    BL       build ; 0x4c1e
        0x00003778:    991d        ..      LDR      r1,[sp,#0x74]
        0x0000377a:    981e        ..      LDR      r0,[sp,#0x78]
        0x0000377c:    9a1f        ..      LDR      r2,[sp,#0x7c]
        0x0000377e:    9b20         .      LDR      r3,[sp,#0x80]
        0x00003780:    9501        ..      STR      r5,[sp,#4]
        0x00003782:    9100        ..      STR      r1,[sp,#0]
        0x00003784:    4980        .I      LDR      r1,[pc,#512] ; [0x3988] = 0x61d9
        0x00003786:    f001fa4a    ..J.    BL       build ; 0x4c1e
        0x0000378a:    981f        ..      LDR      r0,[sp,#0x7c]
        0x0000378c:    9b20         .      LDR      r3,[sp,#0x80]
        0x0000378e:    9a2d        -.      LDR      r2,[sp,#0xb4]
        0x00003790:    9201        ..      STR      r2,[sp,#4]
        0x00003792:    9200        ..      STR      r2,[sp,#0]
        0x00003794:    497d        }I      LDR      r1,[pc,#500] ; [0x398c] = 0x55fd
        0x00003796:    f001fa42    ..B.    BL       build ; 0x4c1e
        0x0000379a:    9b25        %.      LDR      r3,[sp,#0x94]
        0x0000379c:    487c        |H      LDR      r0,[pc,#496] ; [0x3990] = 0x200003e8
        0x0000379e:    9021        !.      STR      r0,[sp,#0x84]
        0x000037a0:    9001        ..      STR      r0,[sp,#4]
        0x000037a2:    4d7c        |M      LDR      r5,[pc,#496] ; [0x3994] = 0x20000410
        0x000037a4:    9523        #.      STR      r5,[sp,#0x8c]
        0x000037a6:    9500        ..      STR      r5,[sp,#0]
        0x000037a8:    497b        {I      LDR      r1,[pc,#492] ; [0x3998] = 0x6215
        0x000037aa:    4a7c        |J      LDR      r2,[pc,#496] ; [0x399c] = 0x200003c0
        0x000037ac:    9224        $.      STR      r2,[sp,#0x90]
        0x000037ae:    4620         F      MOV      r0,r4
        0x000037b0:    f001fa35    ..5.    BL       build ; 0x4c1e
        0x000037b4:    9821        !.      LDR      r0,[sp,#0x84]
        0x000037b6:    9a24        $.      LDR      r2,[sp,#0x90]
        0x000037b8:    9b25        %.      LDR      r3,[sp,#0x94]
        0x000037ba:    4979        yI      LDR      r1,[pc,#484] ; [0x39a0] = 0x200003fc
        0x000037bc:    9122        ".      STR      r1,[sp,#0x88]
        0x000037be:    9101        ..      STR      r1,[sp,#4]
        0x000037c0:    9400        ..      STR      r4,[sp,#0]
        0x000037c2:    4978        xI      LDR      r1,[pc,#480] ; [0x39a4] = 0x6251
        0x000037c4:    f001fa2b    ..+.    BL       build ; 0x4c1e
        0x000037c8:    9921        !.      LDR      r1,[sp,#0x84]
        0x000037ca:    9822        ".      LDR      r0,[sp,#0x88]
        0x000037cc:    9a24        $.      LDR      r2,[sp,#0x90]
        0x000037ce:    9b25        %.      LDR      r3,[sp,#0x94]
        0x000037d0:    9501        ..      STR      r5,[sp,#4]
        0x000037d2:    9100        ..      STR      r1,[sp,#0]
        0x000037d4:    4974        tI      LDR      r1,[pc,#464] ; [0x39a8] = 0x6289
        0x000037d6:    f001fa22    ..".    BL       build ; 0x4c1e
        0x000037da:    9922        ".      LDR      r1,[sp,#0x88]
        0x000037dc:    9823        #.      LDR      r0,[sp,#0x8c]
        0x000037de:    9a24        $.      LDR      r2,[sp,#0x90]
        0x000037e0:    9b25        %.      LDR      r3,[sp,#0x94]
        0x000037e2:    9401        ..      STR      r4,[sp,#4]
        0x000037e4:    9100        ..      STR      r1,[sp,#0]
        0x000037e6:    4971        qI      LDR      r1,[pc,#452] ; [0x39ac] = 0x62c1
        0x000037e8:    f001fa19    ....    BL       build ; 0x4c1e
        0x000037ec:    9824        $.      LDR      r0,[sp,#0x90]
        0x000037ee:    9b25        %.      LDR      r3,[sp,#0x94]
        0x000037f0:    9a2d        -.      LDR      r2,[sp,#0xb4]
        0x000037f2:    9201        ..      STR      r2,[sp,#4]
        0x000037f4:    9200        ..      STR      r2,[sp,#0]
        0x000037f6:    496e        nI      LDR      r1,[pc,#440] ; [0x39b0] = 0x5631
        0x000037f8:    f001fa11    ....    BL       build ; 0x4c1e
        0x000037fc:    9826        &.      LDR      r0,[sp,#0x98]
        0x000037fe:    9b29        ).      LDR      r3,[sp,#0xa4]
        0x00003800:    496c        lI      LDR      r1,[pc,#432] ; [0x39b4] = 0x20000460
        0x00003802:    9127        '.      STR      r1,[sp,#0x9c]
        0x00003804:    9101        ..      STR      r1,[sp,#4]
        0x00003806:    9100        ..      STR      r1,[sp,#0]
        0x00003808:    496b        kI      LDR      r1,[pc,#428] ; [0x39b8] = 0x62fd
        0x0000380a:    4a6c        lJ      LDR      r2,[pc,#432] ; [0x39bc] = 0x20000438
        0x0000380c:    9228        (.      STR      r2,[sp,#0xa0]
        0x0000380e:    f001fa06    ....    BL       build ; 0x4c1e
        0x00003812:    9926        &.      LDR      r1,[sp,#0x98]
        0x00003814:    9827        '.      LDR      r0,[sp,#0x9c]
        0x00003816:    9a28        (.      LDR      r2,[sp,#0xa0]
        0x00003818:    9b29        ).      LDR      r3,[sp,#0xa4]
        0x0000381a:    9101        ..      STR      r1,[sp,#4]
        0x0000381c:    9100        ..      STR      r1,[sp,#0]
        0x0000381e:    4968        hI      LDR      r1,[pc,#416] ; [0x39c0] = 0x6339
        0x00003820:    f001f9fd    ....    BL       build ; 0x4c1e
        0x00003824:    9828        (.      LDR      r0,[sp,#0xa0]
        0x00003826:    9b29        ).      LDR      r3,[sp,#0xa4]
        0x00003828:    9a2d        -.      LDR      r2,[sp,#0xb4]
        0x0000382a:    9201        ..      STR      r2,[sp,#4]
        0x0000382c:    9200        ..      STR      r2,[sp,#0]
        0x0000382e:    4965        eI      LDR      r1,[pc,#404] ; [0x39c4] = 0x5665
        0x00003830:    f001f9f5    ....    BL       build ; 0x4c1e
        0x00003834:    982a        *.      LDR      r0,[sp,#0xa8]
        0x00003836:    9b2b        +.      LDR      r3,[sp,#0xac]
        0x00003838:    9a2d        -.      LDR      r2,[sp,#0xb4]
        0x0000383a:    9201        ..      STR      r2,[sp,#4]
        0x0000383c:    9200        ..      STR      r2,[sp,#0]
        0x0000383e:    4962        bI      LDR      r1,[pc,#392] ; [0x39c8] = 0x63e1
        0x00003840:    f001f9ed    ....    BL       build ; 0x4c1e
        0x00003844:    982c        ,.      LDR      r0,[sp,#0xb0]
        0x00003846:    9a2d        -.      LDR      r2,[sp,#0xb4]
        0x00003848:    9b2e        ..      LDR      r3,[sp,#0xb8]
        0x0000384a:    9201        ..      STR      r2,[sp,#4]
        0x0000384c:    9200        ..      STR      r2,[sp,#0]
        0x0000384e:    495f        _I      LDR      r1,[pc,#380] ; [0x39cc] = 0x5e31
        0x00003850:    f001f9e5    ....    BL       build ; 0x4c1e
        0x00003854:    b02f        /.      ADD      sp,sp,#0xbc
        0x00003856:    bdf0        ..      POP      {r4-r7,pc}
    $d.102
    __arm_cp.53_0
        0x00003858:    20000500    ...     DCD    536872192
    __arm_cp.53_1
        0x0000385c:    00006591    .e..    DCD    26001
    __arm_cp.53_2
        0x00003860:    20000118    ...     DCD    536871192
    __arm_cp.53_3
        0x00003864:    2000017c    |..     DCD    536871292
    __arm_cp.53_4
        0x00003868:    20000168    h..     DCD    536871272
    __arm_cp.53_5
        0x0000386c:    00005b79    y[..    DCD    23417
    __arm_cp.53_6
        0x00003870:    2000012c    ,..     DCD    536871212
    __arm_cp.53_7
        0x00003874:    200001f4    ...     DCD    536871412
    __arm_cp.53_8
        0x00003878:    0000684d    Mh..    DCD    26701
    __arm_cp.53_9
        0x0000387c:    200001a4    ...     DCD    536871332
    __arm_cp.53_10
        0x00003880:    2000026c    l..     DCD    536871532
    __arm_cp.53_11
        0x00003884:    00005c09    .\..    DCD    23561
    __arm_cp.53_12
        0x00003888:    2000021c    ...     DCD    536871452
    __arm_cp.53_13
        0x0000388c:    200002f8    ...     DCD    536871672
    __arm_cp.53_14
        0x00003890:    00005d01    .]..    DCD    23809
    __arm_cp.53_15
        0x00003894:    20000294    ...     DCD    536871572
    __arm_cp.53_16
        0x00003898:    2000035c    \..     DCD    536871772
    __arm_cp.53_17
        0x0000389c:    00006469    id..    DCD    25705
    __arm_cp.53_18
        0x000038a0:    20000320     ..     DCD    536871712
    __arm_cp.53_19
        0x000038a4:    200003ac    ...     DCD    536871852
    __arm_cp.53_20
        0x000038a8:    000069d9    .i..    DCD    27097
    __arm_cp.53_21
        0x000038ac:    20000370    p..     DCD    536871792
    __arm_cp.53_22
        0x000038b0:    20000424    $..     DCD    536871972
    __arm_cp.53_23
        0x000038b4:    00006605    .f..    DCD    26117
    __arm_cp.53_24
        0x000038b8:    200003d4    ...     DCD    536871892
    __arm_cp.53_25
        0x000038bc:    20000474    t..     DCD    536872052
    __arm_cp.53_26
        0x000038c0:    0000670d    .g..    DCD    26381
    __arm_cp.53_27
        0x000038c4:    2000044c    L..     DCD    536872012
    __arm_cp.53_28
        0x000038c8:    20000488    ...     DCD    536872072
    __arm_cp.53_29
        0x000038cc:    00006375    uc..    DCD    25461
    __arm_cp.53_30
        0x000038d0:    20000140    @..     DCD    536871232
    __arm_cp.53_31
        0x000038d4:    00006525    %e..    DCD    25893
    __arm_cp.53_32
        0x000038d8:    2000049c    ...     DCD    536872092
    __arm_cp.53_33
        0x000038dc:    000067d9    .g..    DCD    26585
    __arm_cp.53_34
        0x000038e0:    20000154    T..     DCD    536871252
    __arm_cp.53_35
        0x000038e4:    00006965    ei..    DCD    26981
    __arm_cp.53_36
        0x000038e8:    000054f1    .T..    DCD    21745
    __arm_cp.53_37
        0x000038ec:    200001b8    ...     DCD    536871352
    __arm_cp.53_38
        0x000038f0:    200001e0    ...     DCD    536871392
    __arm_cp.53_39
        0x000038f4:    00005e5d    ]^..    DCD    24157
    __arm_cp.53_40
        0x000038f8:    20000190    ...     DCD    536871312
    __arm_cp.53_41
        0x000038fc:    200001cc    ...     DCD    536871372
    __arm_cp.53_42
        0x00003900:    00005e91    .^..    DCD    24209
    __arm_cp.53_43
        0x00003904:    00005ec1    .^..    DCD    24257
    __arm_cp.53_44
        0x00003908:    00005ef1    .^..    DCD    24305
    __arm_cp.53_45
        0x0000390c:    0000552d    -U..    DCD    21805
    __arm_cp.53_46
        0x00003910:    20000230    0..     DCD    536871472
    __arm_cp.53_47
        0x00003914:    20000258    X..     DCD    536871512
    __arm_cp.53_48
        0x00003918:    00005f29    )_..    DCD    24361
    __arm_cp.53_49
        0x0000391c:    20000208    ...     DCD    536871432
    __arm_cp.53_50
        0x00003920:    20000244    D..     DCD    536871492
    __arm_cp.53_51
        0x00003924:    00005f61    a_..    DCD    24417
    __arm_cp.53_52
        0x00003928:    00005f95    ._..    DCD    24469
    __arm_cp.53_53
        0x0000392c:    00005fc9    ._..    DCD    24521
    __arm_cp.53_54
        0x00003930:    00005561    aU..    DCD    21857
    __arm_cp.53_55
        0x00003934:    200002a8    ...     DCD    536871592
    __arm_cp.53_56
        0x00003938:    200002e4    ...     DCD    536871652
    __arm_cp.53_57
        0x0000393c:    00005ffd    ._..    DCD    24573
    __arm_cp.53_58
        0x00003940:    20000280    ...     DCD    536871552
    __arm_cp.53_59
        0x00003944:    200002bc    ...     DCD    536871612
    __arm_cp.53_60
        0x00003948:    00006031    1`..    DCD    24625
    __arm_cp.53_61
        0x0000394c:    200002d0    ...     DCD    536871632
    __arm_cp.53_62
        0x00003950:    00006061    a`..    DCD    24673
    __arm_cp.53_63
        0x00003954:    00006095    .`..    DCD    24725
    __arm_cp.53_64
        0x00003958:    000060c9    .`..    DCD    24777
    __arm_cp.53_65
        0x0000395c:    00005595    .U..    DCD    21909
    __arm_cp.53_66
        0x00003960:    20000334    4..     DCD    536871732
    __arm_cp.53_67
        0x00003964:    000060fd    .`..    DCD    24829
    __arm_cp.53_68
        0x00003968:    2000030c    ...     DCD    536871692
    __arm_cp.53_69
        0x0000396c:    00006131    1a..    DCD    24881
    __arm_cp.53_70
        0x00003970:    000055c9    .U..    DCD    21961
    __arm_cp.53_71
        0x00003974:    20000384    ...     DCD    536871812
    __arm_cp.53_72
        0x00003978:    20000398    ...     DCD    536871832
    __arm_cp.53_73
        0x0000397c:    00006165    ea..    DCD    24933
    __arm_cp.53_74
        0x00003980:    20000348    H..     DCD    536871752
    __arm_cp.53_75
        0x00003984:    000061a1    .a..    DCD    24993
    __arm_cp.53_76
        0x00003988:    000061d9    .a..    DCD    25049
    __arm_cp.53_77
        0x0000398c:    000055fd    .U..    DCD    22013
    __arm_cp.53_78
        0x00003990:    200003e8    ...     DCD    536871912
    __arm_cp.53_79
        0x00003994:    20000410    ...     DCD    536871952
    __arm_cp.53_80
        0x00003998:    00006215    .b..    DCD    25109
    __arm_cp.53_81
        0x0000399c:    200003c0    ...     DCD    536871872
    __arm_cp.53_82
        0x000039a0:    200003fc    ...     DCD    536871932
    __arm_cp.53_83
        0x000039a4:    00006251    Qb..    DCD    25169
    __arm_cp.53_84
        0x000039a8:    00006289    .b..    DCD    25225
    __arm_cp.53_85
        0x000039ac:    000062c1    .b..    DCD    25281
    __arm_cp.53_86
        0x000039b0:    00005631    1V..    DCD    22065
    __arm_cp.53_87
        0x000039b4:    20000460    `..     DCD    536872032
    __arm_cp.53_88
        0x000039b8:    000062fd    .b..    DCD    25341
    __arm_cp.53_89
        0x000039bc:    20000438    8..     DCD    536871992
    __arm_cp.53_90
        0x000039c0:    00006339    9c..    DCD    25401
    __arm_cp.53_91
        0x000039c4:    00005665    eV..    DCD    22117
    __arm_cp.53_92
        0x000039c8:    000063e1    .c..    DCD    25569
    __arm_cp.53_93
        0x000039cc:    00005e31    1^..    DCD    24113
    $t.27
    NAU7802_available
        0x000039d0:    b580        ..      PUSH     {r7,lr}
        0x000039d2:    2005        .       MOVS     r0,#5
        0x000039d4:    2100        .!      MOVS     r1,#0
        0x000039d6:    f000f911    ....    BL       NAU7802_getBit ; 0x3bfc
        0x000039da:    bd80        ..      POP      {r7,pc}
    NAU7802_begin
        0x000039dc:    b580        ..      PUSH     {r7,lr}
        0x000039de:    b086        ..      SUB      sp,sp,#0x18
        0x000039e0:    f000f99c    ....    BL       NAU7802_isConnected ; 0x3d1c
        0x000039e4:    b948        H.      CBNZ     r0,0x39fa ; NAU7802_begin + 30
        0x000039e6:    e7ff        ..      B        0x39e8 ; NAU7802_begin + 12
        0x000039e8:    f000f998    ....    BL       NAU7802_isConnected ; 0x3d1c
        0x000039ec:    b920         .      CBNZ     r0,0x39f8 ; NAU7802_begin + 28
        0x000039ee:    e7ff        ..      B        0x39f0 ; NAU7802_begin + 20
        0x000039f0:    a905        ..      ADD      r1,sp,#0x14
        0x000039f2:    2000        .       MOVS     r0,#0
        0x000039f4:    7008        .p      STRB     r0,[r1,#0]
        0x000039f6:    e04b        K.      B        0x3a90 ; NAU7802_begin + 180
        0x000039f8:    e7ff        ..      B        0x39fa ; NAU7802_begin + 30
        0x000039fa:    a904        ..      ADD      r1,sp,#0x10
        0x000039fc:    9103        ..      STR      r1,[sp,#0xc]
        0x000039fe:    2001        .       MOVS     r0,#1
        0x00003a00:    9002        ..      STR      r0,[sp,#8]
        0x00003a02:    7008        .p      STRB     r0,[r1,#0]
        0x00003a04:    f000f9c7    ....    BL       NAU7802_reset ; 0x3d96
        0x00003a08:    9903        ..      LDR      r1,[sp,#0xc]
        0x00003a0a:    4602        .F      MOV      r2,r0
        0x00003a0c:    7808        .x      LDRB     r0,[r1,#0]
        0x00003a0e:    4010        .@      ANDS     r0,r0,r2
        0x00003a10:    7008        .p      STRB     r0,[r1,#0]
        0x00003a12:    f000f992    ....    BL       NAU7802_powerUp ; 0x3d3a
        0x00003a16:    9903        ..      LDR      r1,[sp,#0xc]
        0x00003a18:    4602        .F      MOV      r2,r0
        0x00003a1a:    7808        .x      LDRB     r0,[r1,#0]
        0x00003a1c:    4010        .@      ANDS     r0,r0,r2
        0x00003a1e:    7008        .p      STRB     r0,[r1,#0]
        0x00003a20:    2004        .       MOVS     r0,#4
        0x00003a22:    f000fa37    ..7.    BL       NAU7802_setLDO ; 0x3e94
        0x00003a26:    9903        ..      LDR      r1,[sp,#0xc]
        0x00003a28:    4602        .F      MOV      r2,r0
        0x00003a2a:    7808        .x      LDRB     r0,[r1,#0]
        0x00003a2c:    4010        .@      ANDS     r0,r0,r2
        0x00003a2e:    7008        .p      STRB     r0,[r1,#0]
        0x00003a30:    2007        .       MOVS     r0,#7
        0x00003a32:    9001        ..      STR      r0,[sp,#4]
        0x00003a34:    f000fa00    ....    BL       NAU7802_setGain ; 0x3e38
        0x00003a38:    9903        ..      LDR      r1,[sp,#0xc]
        0x00003a3a:    4602        .F      MOV      r2,r0
        0x00003a3c:    7808        .x      LDRB     r0,[r1,#0]
        0x00003a3e:    4010        .@      ANDS     r0,r0,r2
        0x00003a40:    7008        .p      STRB     r0,[r1,#0]
        0x00003a42:    2002        .       MOVS     r0,#2
        0x00003a44:    f000fa60    ..`.    BL       NAU7802_setSampleRate ; 0x3f08
        0x00003a48:    9903        ..      LDR      r1,[sp,#0xc]
        0x00003a4a:    4602        .F      MOV      r2,r0
        0x00003a4c:    7808        .x      LDRB     r0,[r1,#0]
        0x00003a4e:    4010        .@      ANDS     r0,r0,r2
        0x00003a50:    7008        .p      STRB     r0,[r1,#0]
        0x00003a52:    2015        .       MOVS     r0,#0x15
        0x00003a54:    2130        0!      MOVS     r1,#0x30
        0x00003a56:    f000fa45    ..E.    BL       NAU7802_setRegister ; 0x3ee4
        0x00003a5a:    9a03        ..      LDR      r2,[sp,#0xc]
        0x00003a5c:    4603        .F      MOV      r3,r0
        0x00003a5e:    9801        ..      LDR      r0,[sp,#4]
        0x00003a60:    7811        .x      LDRB     r1,[r2,#0]
        0x00003a62:    4019        .@      ANDS     r1,r1,r3
        0x00003a64:    7011        .p      STRB     r1,[r2,#0]
        0x00003a66:    211c        .!      MOVS     r1,#0x1c
        0x00003a68:    f000f9a6    ....    BL       NAU7802_setBit ; 0x3db8
        0x00003a6c:    9903        ..      LDR      r1,[sp,#0xc]
        0x00003a6e:    4602        .F      MOV      r2,r0
        0x00003a70:    7808        .x      LDRB     r0,[r1,#0]
        0x00003a72:    4010        .@      ANDS     r0,r0,r2
        0x00003a74:    7008        .p      STRB     r0,[r1,#0]
        0x00003a76:    f000f857    ..W.    BL       NAU7802_calibrateAFE ; 0x3b28
        0x00003a7a:    9902        ..      LDR      r1,[sp,#8]
        0x00003a7c:    4603        .F      MOV      r3,r0
        0x00003a7e:    9803        ..      LDR      r0,[sp,#0xc]
        0x00003a80:    7802        .x      LDRB     r2,[r0,#0]
        0x00003a82:    401a        .@      ANDS     r2,r2,r3
        0x00003a84:    7002        .p      STRB     r2,[r0,#0]
        0x00003a86:    7800        .x      LDRB     r0,[r0,#0]
        0x00003a88:    4008        .@      ANDS     r0,r0,r1
        0x00003a8a:    a905        ..      ADD      r1,sp,#0x14
        0x00003a8c:    7008        .p      STRB     r0,[r1,#0]
        0x00003a8e:    e7ff        ..      B        0x3a90 ; NAU7802_begin + 180
        0x00003a90:    a805        ..      ADD      r0,sp,#0x14
        0x00003a92:    7800        .x      LDRB     r0,[r0,#0]
        0x00003a94:    b006        ..      ADD      sp,sp,#0x18
        0x00003a96:    bd80        ..      POP      {r7,pc}
    NAU7802_beginCalibrateAFE
        0x00003a98:    b580        ..      PUSH     {r7,lr}
        0x00003a9a:    2102        .!      MOVS     r1,#2
        0x00003a9c:    4608        .F      MOV      r0,r1
        0x00003a9e:    f000f98b    ....    BL       NAU7802_setBit ; 0x3db8
        0x00003aa2:    bd80        ..      POP      {r7,pc}
    NAU7802_calAFEStatus
        0x00003aa4:    b580        ..      PUSH     {r7,lr}
        0x00003aa6:    b082        ..      SUB      sp,sp,#8
        0x00003aa8:    2102        .!      MOVS     r1,#2
        0x00003aaa:    4608        .F      MOV      r0,r1
        0x00003aac:    f000f8a6    ....    BL       NAU7802_getBit ; 0x3bfc
        0x00003ab0:    b120         .      CBZ      r0,0x3abc ; NAU7802_calAFEStatus + 24
        0x00003ab2:    e7ff        ..      B        0x3ab4 ; NAU7802_calAFEStatus + 16
        0x00003ab4:    a901        ..      ADD      r1,sp,#4
        0x00003ab6:    2001        .       MOVS     r0,#1
        0x00003ab8:    7008        .p      STRB     r0,[r1,#0]
        0x00003aba:    e00d        ..      B        0x3ad8 ; NAU7802_calAFEStatus + 52
        0x00003abc:    2003        .       MOVS     r0,#3
        0x00003abe:    2102        .!      MOVS     r1,#2
        0x00003ac0:    f000f89c    ....    BL       NAU7802_getBit ; 0x3bfc
        0x00003ac4:    b120         .      CBZ      r0,0x3ad0 ; NAU7802_calAFEStatus + 44
        0x00003ac6:    e7ff        ..      B        0x3ac8 ; NAU7802_calAFEStatus + 36
        0x00003ac8:    a901        ..      ADD      r1,sp,#4
        0x00003aca:    2002        .       MOVS     r0,#2
        0x00003acc:    7008        .p      STRB     r0,[r1,#0]
        0x00003ace:    e003        ..      B        0x3ad8 ; NAU7802_calAFEStatus + 52
        0x00003ad0:    a901        ..      ADD      r1,sp,#4
        0x00003ad2:    2000        .       MOVS     r0,#0
        0x00003ad4:    7008        .p      STRB     r0,[r1,#0]
        0x00003ad6:    e7ff        ..      B        0x3ad8 ; NAU7802_calAFEStatus + 52
        0x00003ad8:    a801        ..      ADD      r0,sp,#4
        0x00003ada:    7800        .x      LDRB     r0,[r0,#0]
        0x00003adc:    b002        ..      ADD      sp,sp,#8
        0x00003ade:    bd80        ..      POP      {r7,pc}
    NAU7802_calculateCalibrationFactor
        0x00003ae0:    b580        ..      PUSH     {r7,lr}
        0x00003ae2:    b084        ..      SUB      sp,sp,#0x10
        0x00003ae4:    9003        ..      STR      r0,[sp,#0xc]
        0x00003ae6:    a802        ..      ADD      r0,sp,#8
        0x00003ae8:    7001        .p      STRB     r1,[r0,#0]
        0x00003aea:    7800        .x      LDRB     r0,[r0,#0]
        0x00003aec:    f000f840    ..@.    BL       NAU7802_getAverage ; 0x3b70
        0x00003af0:    9001        ..      STR      r0,[sp,#4]
        0x00003af2:    9801        ..      LDR      r0,[sp,#4]
        0x00003af4:    4988        .I      LDR      r1,[pc,#544] ; [0x3d18] = 0x200000f8
        0x00003af6:    6809        .h      LDR      r1,[r1,#0]
        0x00003af8:    1a40        @.      SUBS     r0,r0,r1
        0x00003afa:    f7fcfcdd    ....    BL       __aeabi_i2f ; 0x4b8
        0x00003afe:    9903        ..      LDR      r1,[sp,#0xc]
        0x00003b00:    f7fcfc26    ..&.    BL       __aeabi_fdiv ; 0x350
        0x00003b04:    9000        ..      STR      r0,[sp,#0]
        0x00003b06:    9800        ..      LDR      r0,[sp,#0]
        0x00003b08:    f000f972    ..r.    BL       NAU7802_setCalibrationFactor ; 0x3df0
        0x00003b0c:    b004        ..      ADD      sp,sp,#0x10
        0x00003b0e:    bd80        ..      POP      {r7,pc}
    NAU7802_calculateZeroOffset
        0x00003b10:    b580        ..      PUSH     {r7,lr}
        0x00003b12:    b082        ..      SUB      sp,sp,#8
        0x00003b14:    4601        .F      MOV      r1,r0
        0x00003b16:    a801        ..      ADD      r0,sp,#4
        0x00003b18:    7001        .p      STRB     r1,[r0,#0]
        0x00003b1a:    7800        .x      LDRB     r0,[r0,#0]
        0x00003b1c:    f000f828    ..(.    BL       NAU7802_getAverage ; 0x3b70
        0x00003b20:    f000fa16    ....    BL       NAU7802_setZeroOffset ; 0x3f50
        0x00003b24:    b002        ..      ADD      sp,sp,#8
        0x00003b26:    bd80        ..      POP      {r7,pc}
    NAU7802_calibrateAFE
        0x00003b28:    b580        ..      PUSH     {r7,lr}
        0x00003b2a:    f7ffffb5    ....    BL       NAU7802_beginCalibrateAFE ; 0x3a98
        0x00003b2e:    f24070d0    @..p    MOVW     r0,#0x7d0
        0x00003b32:    f000fa17    ....    BL       NAU7802_waitForCalibrateAFE ; 0x3f64
        0x00003b36:    bd80        ..      POP      {r7,pc}
    NAU7802_clearBit
        0x00003b38:    b580        ..      PUSH     {r7,lr}
        0x00003b3a:    b086        ..      SUB      sp,sp,#0x18
        0x00003b3c:    aa05        ..      ADD      r2,sp,#0x14
        0x00003b3e:    9201        ..      STR      r2,[sp,#4]
        0x00003b40:    7010        .p      STRB     r0,[r2,#0]
        0x00003b42:    a804        ..      ADD      r0,sp,#0x10
        0x00003b44:    9002        ..      STR      r0,[sp,#8]
        0x00003b46:    7001        .p      STRB     r1,[r0,#0]
        0x00003b48:    7800        .x      LDRB     r0,[r0,#0]
        0x00003b4a:    f000f89d    ....    BL       NAU7802_getRegister ; 0x3c88
        0x00003b4e:    9a01        ..      LDR      r2,[sp,#4]
        0x00003b50:    4603        .F      MOV      r3,r0
        0x00003b52:    9802        ..      LDR      r0,[sp,#8]
        0x00003b54:    a903        ..      ADD      r1,sp,#0xc
        0x00003b56:    700b        .p      STRB     r3,[r1,#0]
        0x00003b58:    7812        .x      LDRB     r2,[r2,#0]
        0x00003b5a:    2301        .#      MOVS     r3,#1
        0x00003b5c:    4093        .@      LSLS     r3,r3,r2
        0x00003b5e:    9a03        ..      LDR      r2,[sp,#0xc]
        0x00003b60:    439a        .C      BICS     r2,r2,r3
        0x00003b62:    700a        .p      STRB     r2,[r1,#0]
        0x00003b64:    7800        .x      LDRB     r0,[r0,#0]
        0x00003b66:    7809        .x      LDRB     r1,[r1,#0]
        0x00003b68:    f000f9bc    ....    BL       NAU7802_setRegister ; 0x3ee4
        0x00003b6c:    b006        ..      ADD      sp,sp,#0x18
        0x00003b6e:    bd80        ..      POP      {r7,pc}
    NAU7802_getAverage
        0x00003b70:    b580        ..      PUSH     {r7,lr}
        0x00003b72:    b086        ..      SUB      sp,sp,#0x18
        0x00003b74:    a904        ..      ADD      r1,sp,#0x10
        0x00003b76:    7008        .p      STRB     r0,[r1,#0]
        0x00003b78:    2000        .       MOVS     r0,#0
        0x00003b7a:    9003        ..      STR      r0,[sp,#0xc]
        0x00003b7c:    a902        ..      ADD      r1,sp,#8
        0x00003b7e:    7008        .p      STRB     r0,[r1,#0]
        0x00003b80:    f001fdbc    ....    BL       millis ; 0x56fc
        0x00003b84:    9001        ..      STR      r0,[sp,#4]
        0x00003b86:    e7ff        ..      B        0x3b88 ; NAU7802_getAverage + 24
        0x00003b88:    f7ffff22    ..".    BL       NAU7802_available ; 0x39d0
        0x00003b8c:    b190        ..      CBZ      r0,0x3bb4 ; NAU7802_getAverage + 68
        0x00003b8e:    e7ff        ..      B        0x3b90 ; NAU7802_getAverage + 32
        0x00003b90:    f000f852    ..R.    BL       NAU7802_getReading ; 0x3c38
        0x00003b94:    4601        .F      MOV      r1,r0
        0x00003b96:    9803        ..      LDR      r0,[sp,#0xc]
        0x00003b98:    1840        @.      ADDS     r0,r0,r1
        0x00003b9a:    9003        ..      STR      r0,[sp,#0xc]
        0x00003b9c:    9802        ..      LDR      r0,[sp,#8]
        0x00003b9e:    1c40        @.      ADDS     r0,r0,#1
        0x00003ba0:    a902        ..      ADD      r1,sp,#8
        0x00003ba2:    7008        .p      STRB     r0,[r1,#0]
        0x00003ba4:    b2c0        ..      UXTB     r0,r0
        0x00003ba6:    a904        ..      ADD      r1,sp,#0x10
        0x00003ba8:    7809        .x      LDRB     r1,[r1,#0]
        0x00003baa:    4288        .B      CMP      r0,r1
        0x00003bac:    d101        ..      BNE      0x3bb2 ; NAU7802_getAverage + 66
        0x00003bae:    e7ff        ..      B        0x3bb0 ; NAU7802_getAverage + 64
        0x00003bb0:    e015        ..      B        0x3bde ; NAU7802_getAverage + 110
        0x00003bb2:    e7ff        ..      B        0x3bb4 ; NAU7802_getAverage + 68
        0x00003bb4:    f001fda2    ....    BL       millis ; 0x56fc
        0x00003bb8:    4602        .F      MOV      r2,r0
        0x00003bba:    4608        .F      MOV      r0,r1
        0x00003bbc:    9b01        ..      LDR      r3,[sp,#4]
        0x00003bbe:    2100        .!      MOVS     r1,#0
        0x00003bc0:    1ad2        ..      SUBS     r2,r2,r3
        0x00003bc2:    4188        .A      SBCS     r0,r0,r1
        0x00003bc4:    4b0c        .K      LDR      r3,[pc,#48] ; [0x3bf8] = 0x7d1
        0x00003bc6:    1ad2        ..      SUBS     r2,r2,r3
        0x00003bc8:    4188        .A      SBCS     r0,r0,r1
        0x00003bca:    db03        ..      BLT      0x3bd4 ; NAU7802_getAverage + 100
        0x00003bcc:    e7ff        ..      B        0x3bce ; NAU7802_getAverage + 94
        0x00003bce:    2000        .       MOVS     r0,#0
        0x00003bd0:    9005        ..      STR      r0,[sp,#0x14]
        0x00003bd2:    e00d        ..      B        0x3bf0 ; NAU7802_getAverage + 128
        0x00003bd4:    f24030e8    @..0    MOVW     r0,#0x3e8
        0x00003bd8:    f7fefdfa    ....    BL       CLK_SysTickDelay ; 0x27d0
        0x00003bdc:    e7d4        ..      B        0x3b88 ; NAU7802_getAverage + 24
        0x00003bde:    a804        ..      ADD      r0,sp,#0x10
        0x00003be0:    7801        .x      LDRB     r1,[r0,#0]
        0x00003be2:    9803        ..      LDR      r0,[sp,#0xc]
        0x00003be4:    fb90f0f1    ....    SDIV     r0,r0,r1
        0x00003be8:    9003        ..      STR      r0,[sp,#0xc]
        0x00003bea:    9803        ..      LDR      r0,[sp,#0xc]
        0x00003bec:    9005        ..      STR      r0,[sp,#0x14]
        0x00003bee:    e7ff        ..      B        0x3bf0 ; NAU7802_getAverage + 128
        0x00003bf0:    9805        ..      LDR      r0,[sp,#0x14]
        0x00003bf2:    b006        ..      ADD      sp,sp,#0x18
        0x00003bf4:    bd80        ..      POP      {r7,pc}
        0x00003bf6:    46c0        .F      MOV      r8,r8
    $d.3
    __arm_cp.1_0
        0x00003bf8:    000007d1    ....    DCD    2001
    $t.20
    NAU7802_getBit
        0x00003bfc:    b580        ..      PUSH     {r7,lr}
        0x00003bfe:    b084        ..      SUB      sp,sp,#0x10
        0x00003c00:    aa03        ..      ADD      r2,sp,#0xc
        0x00003c02:    9200        ..      STR      r2,[sp,#0]
        0x00003c04:    7010        .p      STRB     r0,[r2,#0]
        0x00003c06:    a802        ..      ADD      r0,sp,#8
        0x00003c08:    7001        .p      STRB     r1,[r0,#0]
        0x00003c0a:    7800        .x      LDRB     r0,[r0,#0]
        0x00003c0c:    f000f83c    ..<.    BL       NAU7802_getRegister ; 0x3c88
        0x00003c10:    9900        ..      LDR      r1,[sp,#0]
        0x00003c12:    4602        .F      MOV      r2,r0
        0x00003c14:    a801        ..      ADD      r0,sp,#4
        0x00003c16:    7002        .p      STRB     r2,[r0,#0]
        0x00003c18:    7809        .x      LDRB     r1,[r1,#0]
        0x00003c1a:    2201        ."      MOVS     r2,#1
        0x00003c1c:    408a        .@      LSLS     r2,r2,r1
        0x00003c1e:    9901        ..      LDR      r1,[sp,#4]
        0x00003c20:    4011        .@      ANDS     r1,r1,r2
        0x00003c22:    7001        .p      STRB     r1,[r0,#0]
        0x00003c24:    7800        .x      LDRB     r0,[r0,#0]
        0x00003c26:    1e41        A.      SUBS     r1,r0,#1
        0x00003c28:    4188        .A      SBCS     r0,r0,r1
        0x00003c2a:    b004        ..      ADD      sp,sp,#0x10
        0x00003c2c:    bd80        ..      POP      {r7,pc}
        0x00003c2e:    0000        ..      MOVS     r0,r0
    NAU7802_getCalibrationFactor
        0x00003c30:    4873        sH      LDR      r0,[pc,#460] ; [0x3e00] = 0x20000090
        0x00003c32:    6800        .h      LDR      r0,[r0,#0]
        0x00003c34:    4770        pG      BX       lr
        0x00003c36:    46c0        .F      MOV      r8,r8
    NAU7802_getReading
        0x00003c38:    b580        ..      PUSH     {r7,lr}
        0x00003c3a:    b086        ..      SUB      sp,sp,#0x18
        0x00003c3c:    48b1        .H      LDR      r0,[pc,#708] ; [0x3f04] = 0x40081000
        0x00003c3e:    9002        ..      STR      r0,[sp,#8]
        0x00003c40:    212a        *!      MOVS     r1,#0x2a
        0x00003c42:    9101        ..      STR      r1,[sp,#4]
        0x00003c44:    2212        ."      MOVS     r2,#0x12
        0x00003c46:    f7fff995    ....    BL       I2C_ReadByteOneReg ; 0x2f74
        0x00003c4a:    9901        ..      LDR      r1,[sp,#4]
        0x00003c4c:    4602        .F      MOV      r2,r0
        0x00003c4e:    9802        ..      LDR      r0,[sp,#8]
        0x00003c50:    0412        ..      LSLS     r2,r2,#16
        0x00003c52:    9205        ..      STR      r2,[sp,#0x14]
        0x00003c54:    2213        ."      MOVS     r2,#0x13
        0x00003c56:    f7fff98d    ....    BL       I2C_ReadByteOneReg ; 0x2f74
        0x00003c5a:    9901        ..      LDR      r1,[sp,#4]
        0x00003c5c:    4602        .F      MOV      r2,r0
        0x00003c5e:    9802        ..      LDR      r0,[sp,#8]
        0x00003c60:    0213        ..      LSLS     r3,r2,#8
        0x00003c62:    9a05        ..      LDR      r2,[sp,#0x14]
        0x00003c64:    431a        .C      ORRS     r2,r2,r3
        0x00003c66:    9205        ..      STR      r2,[sp,#0x14]
        0x00003c68:    2214        ."      MOVS     r2,#0x14
        0x00003c6a:    f7fff983    ....    BL       I2C_ReadByteOneReg ; 0x2f74
        0x00003c6e:    4601        .F      MOV      r1,r0
        0x00003c70:    9805        ..      LDR      r0,[sp,#0x14]
        0x00003c72:    4308        .C      ORRS     r0,r0,r1
        0x00003c74:    9005        ..      STR      r0,[sp,#0x14]
        0x00003c76:    9805        ..      LDR      r0,[sp,#0x14]
        0x00003c78:    0200        ..      LSLS     r0,r0,#8
        0x00003c7a:    9004        ..      STR      r0,[sp,#0x10]
        0x00003c7c:    9804        ..      LDR      r0,[sp,#0x10]
        0x00003c7e:    1200        ..      ASRS     r0,r0,#8
        0x00003c80:    9003        ..      STR      r0,[sp,#0xc]
        0x00003c82:    9803        ..      LDR      r0,[sp,#0xc]
        0x00003c84:    b006        ..      ADD      sp,sp,#0x18
        0x00003c86:    bd80        ..      POP      {r7,pc}
    NAU7802_getRegister
        0x00003c88:    b580        ..      PUSH     {r7,lr}
        0x00003c8a:    b082        ..      SUB      sp,sp,#8
        0x00003c8c:    4601        .F      MOV      r1,r0
        0x00003c8e:    a801        ..      ADD      r0,sp,#4
        0x00003c90:    7001        .p      STRB     r1,[r0,#0]
        0x00003c92:    7802        .x      LDRB     r2,[r0,#0]
        0x00003c94:    489b        .H      LDR      r0,[pc,#620] ; [0x3f04] = 0x40081000
        0x00003c96:    212a        *!      MOVS     r1,#0x2a
        0x00003c98:    f7fff96c    ..l.    BL       I2C_ReadByteOneReg ; 0x2f74
        0x00003c9c:    b002        ..      ADD      sp,sp,#8
        0x00003c9e:    bd80        ..      POP      {r7,pc}
    NAU7802_getRevisionCode
        0x00003ca0:    b580        ..      PUSH     {r7,lr}
        0x00003ca2:    b082        ..      SUB      sp,sp,#8
        0x00003ca4:    201f        .       MOVS     r0,#0x1f
        0x00003ca6:    f7ffffef    ....    BL       NAU7802_getRegister ; 0x3c88
        0x00003caa:    4601        .F      MOV      r1,r0
        0x00003cac:    a801        ..      ADD      r0,sp,#4
        0x00003cae:    7001        .p      STRB     r1,[r0,#0]
        0x00003cb0:    7800        .x      LDRB     r0,[r0,#0]
        0x00003cb2:    210f        .!      MOVS     r1,#0xf
        0x00003cb4:    4008        .@      ANDS     r0,r0,r1
        0x00003cb6:    b002        ..      ADD      sp,sp,#8
        0x00003cb8:    bd80        ..      POP      {r7,pc}
        0x00003cba:    0000        ..      MOVS     r0,r0
    NAU7802_getWeight
        0x00003cbc:    b580        ..      PUSH     {r7,lr}
        0x00003cbe:    b086        ..      SUB      sp,sp,#0x18
        0x00003cc0:    aa05        ..      ADD      r2,sp,#0x14
        0x00003cc2:    9201        ..      STR      r2,[sp,#4]
        0x00003cc4:    7010        .p      STRB     r0,[r2,#0]
        0x00003cc6:    a804        ..      ADD      r0,sp,#0x10
        0x00003cc8:    7001        .p      STRB     r1,[r0,#0]
        0x00003cca:    7800        .x      LDRB     r0,[r0,#0]
        0x00003ccc:    f7ffff50    ..P.    BL       NAU7802_getAverage ; 0x3b70
        0x00003cd0:    4601        .F      MOV      r1,r0
        0x00003cd2:    9801        ..      LDR      r0,[sp,#4]
        0x00003cd4:    9103        ..      STR      r1,[sp,#0xc]
        0x00003cd6:    7800        .x      LDRB     r0,[r0,#0]
        0x00003cd8:    07c0        ..      LSLS     r0,r0,#31
        0x00003cda:    b958        X.      CBNZ     r0,0x3cf4 ; NAU7802_getWeight + 56
        0x00003cdc:    e7ff        ..      B        0x3cde ; NAU7802_getWeight + 34
        0x00003cde:    9803        ..      LDR      r0,[sp,#0xc]
        0x00003ce0:    499f        .I      LDR      r1,[pc,#636] ; [0x3f60] = 0x200000f8
        0x00003ce2:    6809        .h      LDR      r1,[r1,#0]
        0x00003ce4:    4288        .B      CMP      r0,r1
        0x00003ce6:    da04        ..      BGE      0x3cf2 ; NAU7802_getWeight + 54
        0x00003ce8:    e7ff        ..      B        0x3cea ; NAU7802_getWeight + 46
        0x00003cea:    489d        .H      LDR      r0,[pc,#628] ; [0x3f60] = 0x200000f8
        0x00003cec:    6800        .h      LDR      r0,[r0,#0]
        0x00003cee:    9003        ..      STR      r0,[sp,#0xc]
        0x00003cf0:    e7ff        ..      B        0x3cf2 ; NAU7802_getWeight + 54
        0x00003cf2:    e7ff        ..      B        0x3cf4 ; NAU7802_getWeight + 56
        0x00003cf4:    9803        ..      LDR      r0,[sp,#0xc]
        0x00003cf6:    499a        .I      LDR      r1,[pc,#616] ; [0x3f60] = 0x200000f8
        0x00003cf8:    6809        .h      LDR      r1,[r1,#0]
        0x00003cfa:    1a40        @.      SUBS     r0,r0,r1
        0x00003cfc:    f7fcfbdc    ....    BL       __aeabi_i2f ; 0x4b8
        0x00003d00:    493f        ?I      LDR      r1,[pc,#252] ; [0x3e00] = 0x20000090
        0x00003d02:    6809        .h      LDR      r1,[r1,#0]
        0x00003d04:    f7fcfb24    ..$.    BL       __aeabi_fdiv ; 0x350
        0x00003d08:    9002        ..      STR      r0,[sp,#8]
        0x00003d0a:    9802        ..      LDR      r0,[sp,#8]
        0x00003d0c:    b006        ..      ADD      sp,sp,#0x18
        0x00003d0e:    bd80        ..      POP      {r7,pc}
    NAU7802_getZeroOffset
        0x00003d10:    4893        .H      LDR      r0,[pc,#588] ; [0x3f60] = 0x200000f8
        0x00003d12:    6800        .h      LDR      r0,[r0,#0]
        0x00003d14:    4770        pG      BX       lr
        0x00003d16:    46c0        .F      MOV      r8,r8
    $d.40
    __arm_cp.29_0
        0x00003d18:    200000f8    ...     DCD    536871160
    $t.26
    NAU7802_isConnected
        0x00003d1c:    2001        .       MOVS     r0,#1
        0x00003d1e:    4770        pG      BX       lr
    NAU7802_powerDown
        0x00003d20:    b580        ..      PUSH     {r7,lr}
        0x00003d22:    b082        ..      SUB      sp,sp,#8
        0x00003d24:    2001        .       MOVS     r0,#1
        0x00003d26:    2100        .!      MOVS     r1,#0
        0x00003d28:    9101        ..      STR      r1,[sp,#4]
        0x00003d2a:    f7ffff05    ....    BL       NAU7802_clearBit ; 0x3b38
        0x00003d2e:    9901        ..      LDR      r1,[sp,#4]
        0x00003d30:    2002        .       MOVS     r0,#2
        0x00003d32:    f7ffff01    ....    BL       NAU7802_clearBit ; 0x3b38
        0x00003d36:    b002        ..      ADD      sp,sp,#8
        0x00003d38:    bd80        ..      POP      {r7,pc}
    NAU7802_powerUp
        0x00003d3a:    b580        ..      PUSH     {r7,lr}
        0x00003d3c:    b084        ..      SUB      sp,sp,#0x10
        0x00003d3e:    2001        .       MOVS     r0,#1
        0x00003d40:    2100        .!      MOVS     r1,#0
        0x00003d42:    9101        ..      STR      r1,[sp,#4]
        0x00003d44:    f000f838    ..8.    BL       NAU7802_setBit ; 0x3db8
        0x00003d48:    9901        ..      LDR      r1,[sp,#4]
        0x00003d4a:    2002        .       MOVS     r0,#2
        0x00003d4c:    f000f834    ..4.    BL       NAU7802_setBit ; 0x3db8
        0x00003d50:    9801        ..      LDR      r0,[sp,#4]
        0x00003d52:    a902        ..      ADD      r1,sp,#8
        0x00003d54:    7008        .p      STRB     r0,[r1,#0]
        0x00003d56:    e7ff        ..      B        0x3d58 ; NAU7802_powerUp + 30
        0x00003d58:    2003        .       MOVS     r0,#3
        0x00003d5a:    2100        .!      MOVS     r1,#0
        0x00003d5c:    f7ffff4e    ..N.    BL       NAU7802_getBit ; 0x3bfc
        0x00003d60:    b108        ..      CBZ      r0,0x3d66 ; NAU7802_powerUp + 44
        0x00003d62:    e7ff        ..      B        0x3d64 ; NAU7802_powerUp + 42
        0x00003d64:    e00f        ..      B        0x3d86 ; NAU7802_powerUp + 76
        0x00003d66:    f24030e8    @..0    MOVW     r0,#0x3e8
        0x00003d6a:    f7fefd31    ..1.    BL       CLK_SysTickDelay ; 0x27d0
        0x00003d6e:    aa02        ..      ADD      r2,sp,#8
        0x00003d70:    7810        .x      LDRB     r0,[r2,#0]
        0x00003d72:    1c41        A.      ADDS     r1,r0,#1
        0x00003d74:    7011        .p      STRB     r1,[r2,#0]
        0x00003d76:    2865        e(      CMP      r0,#0x65
        0x00003d78:    db04        ..      BLT      0x3d84 ; NAU7802_powerUp + 74
        0x00003d7a:    e7ff        ..      B        0x3d7c ; NAU7802_powerUp + 66
        0x00003d7c:    a903        ..      ADD      r1,sp,#0xc
        0x00003d7e:    2000        .       MOVS     r0,#0
        0x00003d80:    7008        .p      STRB     r0,[r1,#0]
        0x00003d82:    e004        ..      B        0x3d8e ; NAU7802_powerUp + 84
        0x00003d84:    e7e8        ..      B        0x3d58 ; NAU7802_powerUp + 30
        0x00003d86:    a903        ..      ADD      r1,sp,#0xc
        0x00003d88:    2001        .       MOVS     r0,#1
        0x00003d8a:    7008        .p      STRB     r0,[r1,#0]
        0x00003d8c:    e7ff        ..      B        0x3d8e ; NAU7802_powerUp + 84
        0x00003d8e:    a803        ..      ADD      r0,sp,#0xc
        0x00003d90:    7800        .x      LDRB     r0,[r0,#0]
        0x00003d92:    b004        ..      ADD      sp,sp,#0x10
        0x00003d94:    bd80        ..      POP      {r7,pc}
    NAU7802_reset
        0x00003d96:    b580        ..      PUSH     {r7,lr}
        0x00003d98:    b082        ..      SUB      sp,sp,#8
        0x00003d9a:    2100        .!      MOVS     r1,#0
        0x00003d9c:    9101        ..      STR      r1,[sp,#4]
        0x00003d9e:    4608        .F      MOV      r0,r1
        0x00003da0:    f000f80a    ....    BL       NAU7802_setBit ; 0x3db8
        0x00003da4:    f24030e8    @..0    MOVW     r0,#0x3e8
        0x00003da8:    f7fefd12    ....    BL       CLK_SysTickDelay ; 0x27d0
        0x00003dac:    9901        ..      LDR      r1,[sp,#4]
        0x00003dae:    4608        .F      MOV      r0,r1
        0x00003db0:    f7fffec2    ....    BL       NAU7802_clearBit ; 0x3b38
        0x00003db4:    b002        ..      ADD      sp,sp,#8
        0x00003db6:    bd80        ..      POP      {r7,pc}
    NAU7802_setBit
        0x00003db8:    b580        ..      PUSH     {r7,lr}
        0x00003dba:    b086        ..      SUB      sp,sp,#0x18
        0x00003dbc:    aa05        ..      ADD      r2,sp,#0x14
        0x00003dbe:    9201        ..      STR      r2,[sp,#4]
        0x00003dc0:    7010        .p      STRB     r0,[r2,#0]
        0x00003dc2:    a804        ..      ADD      r0,sp,#0x10
        0x00003dc4:    9002        ..      STR      r0,[sp,#8]
        0x00003dc6:    7001        .p      STRB     r1,[r0,#0]
        0x00003dc8:    7800        .x      LDRB     r0,[r0,#0]
        0x00003dca:    f7ffff5d    ..].    BL       NAU7802_getRegister ; 0x3c88
        0x00003dce:    9a01        ..      LDR      r2,[sp,#4]
        0x00003dd0:    4603        .F      MOV      r3,r0
        0x00003dd2:    9802        ..      LDR      r0,[sp,#8]
        0x00003dd4:    a903        ..      ADD      r1,sp,#0xc
        0x00003dd6:    700b        .p      STRB     r3,[r1,#0]
        0x00003dd8:    7812        .x      LDRB     r2,[r2,#0]
        0x00003dda:    2301        .#      MOVS     r3,#1
        0x00003ddc:    4093        .@      LSLS     r3,r3,r2
        0x00003dde:    9a03        ..      LDR      r2,[sp,#0xc]
        0x00003de0:    431a        .C      ORRS     r2,r2,r3
        0x00003de2:    700a        .p      STRB     r2,[r1,#0]
        0x00003de4:    7800        .x      LDRB     r0,[r0,#0]
        0x00003de6:    7809        .x      LDRB     r1,[r1,#0]
        0x00003de8:    f000f87c    ..|.    BL       NAU7802_setRegister ; 0x3ee4
        0x00003dec:    b006        ..      ADD      sp,sp,#0x18
        0x00003dee:    bd80        ..      POP      {r7,pc}
    NAU7802_setCalibrationFactor
        0x00003df0:    b081        ..      SUB      sp,sp,#4
        0x00003df2:    9000        ..      STR      r0,[sp,#0]
        0x00003df4:    9800        ..      LDR      r0,[sp,#0]
        0x00003df6:    4902        .I      LDR      r1,[pc,#8] ; [0x3e00] = 0x20000090
        0x00003df8:    6008        .`      STR      r0,[r1,#0]
        0x00003dfa:    b001        ..      ADD      sp,sp,#4
        0x00003dfc:    4770        pG      BX       lr
        0x00003dfe:    46c0        .F      MOV      r8,r8
    $d.10
    __arm_cp.5_0
        0x00003e00:    20000090    ...     DCD    536871056
    $t.16
    NAU7802_setChannel
        0x00003e04:    b580        ..      PUSH     {r7,lr}
        0x00003e06:    b082        ..      SUB      sp,sp,#8
        0x00003e08:    4601        .F      MOV      r1,r0
        0x00003e0a:    4668        hF      MOV      r0,sp
        0x00003e0c:    7001        .p      STRB     r1,[r0,#0]
        0x00003e0e:    7800        .x      LDRB     r0,[r0,#0]
        0x00003e10:    b938        8.      CBNZ     r0,0x3e22 ; NAU7802_setChannel + 30
        0x00003e12:    e7ff        ..      B        0x3e14 ; NAU7802_setChannel + 16
        0x00003e14:    2007        .       MOVS     r0,#7
        0x00003e16:    2102        .!      MOVS     r1,#2
        0x00003e18:    f7fffe8e    ....    BL       NAU7802_clearBit ; 0x3b38
        0x00003e1c:    a901        ..      ADD      r1,sp,#4
        0x00003e1e:    7008        .p      STRB     r0,[r1,#0]
        0x00003e20:    e006        ..      B        0x3e30 ; NAU7802_setChannel + 44
        0x00003e22:    2007        .       MOVS     r0,#7
        0x00003e24:    2102        .!      MOVS     r1,#2
        0x00003e26:    f7ffffc7    ....    BL       NAU7802_setBit ; 0x3db8
        0x00003e2a:    a901        ..      ADD      r1,sp,#4
        0x00003e2c:    7008        .p      STRB     r0,[r1,#0]
        0x00003e2e:    e7ff        ..      B        0x3e30 ; NAU7802_setChannel + 44
        0x00003e30:    a801        ..      ADD      r0,sp,#4
        0x00003e32:    7800        .x      LDRB     r0,[r0,#0]
        0x00003e34:    b002        ..      ADD      sp,sp,#8
        0x00003e36:    bd80        ..      POP      {r7,pc}
    NAU7802_setGain
        0x00003e38:    b580        ..      PUSH     {r7,lr}
        0x00003e3a:    b084        ..      SUB      sp,sp,#0x10
        0x00003e3c:    4601        .F      MOV      r1,r0
        0x00003e3e:    a803        ..      ADD      r0,sp,#0xc
        0x00003e40:    7001        .p      STRB     r1,[r0,#0]
        0x00003e42:    7800        .x      LDRB     r0,[r0,#0]
        0x00003e44:    2808        .(      CMP      r0,#8
        0x00003e46:    db04        ..      BLT      0x3e52 ; NAU7802_setGain + 26
        0x00003e48:    e7ff        ..      B        0x3e4a ; NAU7802_setGain + 18
        0x00003e4a:    a903        ..      ADD      r1,sp,#0xc
        0x00003e4c:    2007        .       MOVS     r0,#7
        0x00003e4e:    7008        .p      STRB     r0,[r1,#0]
        0x00003e50:    e7ff        ..      B        0x3e52 ; NAU7802_setGain + 26
        0x00003e52:    2001        .       MOVS     r0,#1
        0x00003e54:    9001        ..      STR      r0,[sp,#4]
        0x00003e56:    f7ffff17    ....    BL       NAU7802_getRegister ; 0x3c88
        0x00003e5a:    4602        .F      MOV      r2,r0
        0x00003e5c:    9801        ..      LDR      r0,[sp,#4]
        0x00003e5e:    a902        ..      ADD      r1,sp,#8
        0x00003e60:    700a        .p      STRB     r2,[r1,#0]
        0x00003e62:    780a        .x      LDRB     r2,[r1,#0]
        0x00003e64:    23f8        .#      MOVS     r3,#0xf8
        0x00003e66:    401a        .@      ANDS     r2,r2,r3
        0x00003e68:    700a        .p      STRB     r2,[r1,#0]
        0x00003e6a:    9b03        ..      LDR      r3,[sp,#0xc]
        0x00003e6c:    9a02        ..      LDR      r2,[sp,#8]
        0x00003e6e:    431a        .C      ORRS     r2,r2,r3
        0x00003e70:    700a        .p      STRB     r2,[r1,#0]
        0x00003e72:    7809        .x      LDRB     r1,[r1,#0]
        0x00003e74:    f000f836    ..6.    BL       NAU7802_setRegister ; 0x3ee4
        0x00003e78:    b004        ..      ADD      sp,sp,#0x10
        0x00003e7a:    bd80        ..      POP      {r7,pc}
    NAU7802_setIntPolarityHigh
        0x00003e7c:    b580        ..      PUSH     {r7,lr}
        0x00003e7e:    2007        .       MOVS     r0,#7
        0x00003e80:    2101        .!      MOVS     r1,#1
        0x00003e82:    f7fffe59    ..Y.    BL       NAU7802_clearBit ; 0x3b38
        0x00003e86:    bd80        ..      POP      {r7,pc}
    NAU7802_setIntPolarityLow
        0x00003e88:    b580        ..      PUSH     {r7,lr}
        0x00003e8a:    2007        .       MOVS     r0,#7
        0x00003e8c:    2101        .!      MOVS     r1,#1
        0x00003e8e:    f7ffff93    ....    BL       NAU7802_setBit ; 0x3db8
        0x00003e92:    bd80        ..      POP      {r7,pc}
    NAU7802_setLDO
        0x00003e94:    b580        ..      PUSH     {r7,lr}
        0x00003e96:    b084        ..      SUB      sp,sp,#0x10
        0x00003e98:    4601        .F      MOV      r1,r0
        0x00003e9a:    a803        ..      ADD      r0,sp,#0xc
        0x00003e9c:    7001        .p      STRB     r1,[r0,#0]
        0x00003e9e:    7800        .x      LDRB     r0,[r0,#0]
        0x00003ea0:    2808        .(      CMP      r0,#8
        0x00003ea2:    db04        ..      BLT      0x3eae ; NAU7802_setLDO + 26
        0x00003ea4:    e7ff        ..      B        0x3ea6 ; NAU7802_setLDO + 18
        0x00003ea6:    a903        ..      ADD      r1,sp,#0xc
        0x00003ea8:    2007        .       MOVS     r0,#7
        0x00003eaa:    7008        .p      STRB     r0,[r1,#0]
        0x00003eac:    e7ff        ..      B        0x3eae ; NAU7802_setLDO + 26
        0x00003eae:    2001        .       MOVS     r0,#1
        0x00003eb0:    9001        ..      STR      r0,[sp,#4]
        0x00003eb2:    f7fffee9    ....    BL       NAU7802_getRegister ; 0x3c88
        0x00003eb6:    4602        .F      MOV      r2,r0
        0x00003eb8:    9801        ..      LDR      r0,[sp,#4]
        0x00003eba:    a902        ..      ADD      r1,sp,#8
        0x00003ebc:    700a        .p      STRB     r2,[r1,#0]
        0x00003ebe:    780a        .x      LDRB     r2,[r1,#0]
        0x00003ec0:    23c7        .#      MOVS     r3,#0xc7
        0x00003ec2:    401a        .@      ANDS     r2,r2,r3
        0x00003ec4:    700a        .p      STRB     r2,[r1,#0]
        0x00003ec6:    9a03        ..      LDR      r2,[sp,#0xc]
        0x00003ec8:    00d3        ..      LSLS     r3,r2,#3
        0x00003eca:    9a02        ..      LDR      r2,[sp,#8]
        0x00003ecc:    431a        .C      ORRS     r2,r2,r3
        0x00003ece:    700a        .p      STRB     r2,[r1,#0]
        0x00003ed0:    7809        .x      LDRB     r1,[r1,#0]
        0x00003ed2:    f000f807    ....    BL       NAU7802_setRegister ; 0x3ee4
        0x00003ed6:    2007        .       MOVS     r0,#7
        0x00003ed8:    2100        .!      MOVS     r1,#0
        0x00003eda:    f7ffff6d    ..m.    BL       NAU7802_setBit ; 0x3db8
        0x00003ede:    b004        ..      ADD      sp,sp,#0x10
        0x00003ee0:    bd80        ..      POP      {r7,pc}
        0x00003ee2:    0000        ..      MOVS     r0,r0
    NAU7802_setRegister
        0x00003ee4:    b580        ..      PUSH     {r7,lr}
        0x00003ee6:    b082        ..      SUB      sp,sp,#8
        0x00003ee8:    460a        .F      MOV      r2,r1
        0x00003eea:    a901        ..      ADD      r1,sp,#4
        0x00003eec:    7008        .p      STRB     r0,[r1,#0]
        0x00003eee:    4668        hF      MOV      r0,sp
        0x00003ef0:    7002        .p      STRB     r2,[r0,#0]
        0x00003ef2:    780a        .x      LDRB     r2,[r1,#0]
        0x00003ef4:    7803        .x      LDRB     r3,[r0,#0]
        0x00003ef6:    4803        .H      LDR      r0,[pc,#12] ; [0x3f04] = 0x40081000
        0x00003ef8:    212a        *!      MOVS     r1,#0x2a
        0x00003efa:    f7fff98f    ....    BL       I2C_WriteByteOneReg ; 0x321c
        0x00003efe:    2001        .       MOVS     r0,#1
        0x00003f00:    b002        ..      ADD      sp,sp,#8
        0x00003f02:    bd80        ..      POP      {r7,pc}
    $d.24
    __arm_cp.16_0
        0x00003f04:    40081000    ...@    DCD    1074270208
    $t.15
    NAU7802_setSampleRate
        0x00003f08:    b580        ..      PUSH     {r7,lr}
        0x00003f0a:    b084        ..      SUB      sp,sp,#0x10
        0x00003f0c:    4601        .F      MOV      r1,r0
        0x00003f0e:    a803        ..      ADD      r0,sp,#0xc
        0x00003f10:    7001        .p      STRB     r1,[r0,#0]
        0x00003f12:    7800        .x      LDRB     r0,[r0,#0]
        0x00003f14:    2808        .(      CMP      r0,#8
        0x00003f16:    db04        ..      BLT      0x3f22 ; NAU7802_setSampleRate + 26
        0x00003f18:    e7ff        ..      B        0x3f1a ; NAU7802_setSampleRate + 18
        0x00003f1a:    a903        ..      ADD      r1,sp,#0xc
        0x00003f1c:    2007        .       MOVS     r0,#7
        0x00003f1e:    7008        .p      STRB     r0,[r1,#0]
        0x00003f20:    e7ff        ..      B        0x3f22 ; NAU7802_setSampleRate + 26
        0x00003f22:    2002        .       MOVS     r0,#2
        0x00003f24:    9001        ..      STR      r0,[sp,#4]
        0x00003f26:    f7fffeaf    ....    BL       NAU7802_getRegister ; 0x3c88
        0x00003f2a:    4602        .F      MOV      r2,r0
        0x00003f2c:    9801        ..      LDR      r0,[sp,#4]
        0x00003f2e:    a902        ..      ADD      r1,sp,#8
        0x00003f30:    700a        .p      STRB     r2,[r1,#0]
        0x00003f32:    780a        .x      LDRB     r2,[r1,#0]
        0x00003f34:    238f        .#      MOVS     r3,#0x8f
        0x00003f36:    401a        .@      ANDS     r2,r2,r3
        0x00003f38:    700a        .p      STRB     r2,[r1,#0]
        0x00003f3a:    9a03        ..      LDR      r2,[sp,#0xc]
        0x00003f3c:    0113        ..      LSLS     r3,r2,#4
        0x00003f3e:    9a02        ..      LDR      r2,[sp,#8]
        0x00003f40:    431a        .C      ORRS     r2,r2,r3
        0x00003f42:    700a        .p      STRB     r2,[r1,#0]
        0x00003f44:    7809        .x      LDRB     r1,[r1,#0]
        0x00003f46:    f7ffffcd    ....    BL       NAU7802_setRegister ; 0x3ee4
        0x00003f4a:    b004        ..      ADD      sp,sp,#0x10
        0x00003f4c:    bd80        ..      POP      {r7,pc}
        0x00003f4e:    0000        ..      MOVS     r0,r0
    NAU7802_setZeroOffset
        0x00003f50:    b081        ..      SUB      sp,sp,#4
        0x00003f52:    9000        ..      STR      r0,[sp,#0]
        0x00003f54:    9800        ..      LDR      r0,[sp,#0]
        0x00003f56:    4902        .I      LDR      r1,[pc,#8] ; [0x3f60] = 0x200000f8
        0x00003f58:    6008        .`      STR      r0,[r1,#0]
        0x00003f5a:    b001        ..      ADD      sp,sp,#4
        0x00003f5c:    4770        pG      BX       lr
        0x00003f5e:    46c0        .F      MOV      r8,r8
    $d.6
    __arm_cp.3_0
        0x00003f60:    200000f8    ...     DCD    536871160
    $t.17
    NAU7802_waitForCalibrateAFE
        0x00003f64:    b580        ..      PUSH     {r7,lr}
        0x00003f66:    b084        ..      SUB      sp,sp,#0x10
        0x00003f68:    9002        ..      STR      r0,[sp,#8]
        0x00003f6a:    f001fbc7    ....    BL       millis ; 0x56fc
        0x00003f6e:    9001        ..      STR      r0,[sp,#4]
        0x00003f70:    e7ff        ..      B        0x3f72 ; NAU7802_waitForCalibrateAFE + 14
        0x00003f72:    f7fffd97    ....    BL       NAU7802_calAFEStatus ; 0x3aa4
        0x00003f76:    4669        iF      MOV      r1,sp
        0x00003f78:    7008        .p      STRB     r0,[r1,#0]
        0x00003f7a:    2801        .(      CMP      r0,#1
        0x00003f7c:    d115        ..      BNE      0x3faa ; NAU7802_waitForCalibrateAFE + 70
        0x00003f7e:    e7ff        ..      B        0x3f80 ; NAU7802_waitForCalibrateAFE + 28
        0x00003f80:    9802        ..      LDR      r0,[sp,#8]
        0x00003f82:    b168        h.      CBZ      r0,0x3fa0 ; NAU7802_waitForCalibrateAFE + 60
        0x00003f84:    e7ff        ..      B        0x3f86 ; NAU7802_waitForCalibrateAFE + 34
        0x00003f86:    f001fbb9    ....    BL       millis ; 0x56fc
        0x00003f8a:    4602        .F      MOV      r2,r0
        0x00003f8c:    9b01        ..      LDR      r3,[sp,#4]
        0x00003f8e:    2000        .       MOVS     r0,#0
        0x00003f90:    1ad3        ..      SUBS     r3,r2,r3
        0x00003f92:    4181        .A      SBCS     r1,r1,r0
        0x00003f94:    9a02        ..      LDR      r2,[sp,#8]
        0x00003f96:    1ad2        ..      SUBS     r2,r2,r3
        0x00003f98:    4188        .A      SBCS     r0,r0,r1
        0x00003f9a:    da01        ..      BGE      0x3fa0 ; NAU7802_waitForCalibrateAFE + 60
        0x00003f9c:    e7ff        ..      B        0x3f9e ; NAU7802_waitForCalibrateAFE + 58
        0x00003f9e:    e004        ..      B        0x3faa ; NAU7802_waitForCalibrateAFE + 70
        0x00003fa0:    f24030e8    @..0    MOVW     r0,#0x3e8
        0x00003fa4:    f7fefc14    ....    BL       CLK_SysTickDelay ; 0x27d0
        0x00003fa8:    e7e3        ..      B        0x3f72 ; NAU7802_waitForCalibrateAFE + 14
        0x00003faa:    4668        hF      MOV      r0,sp
        0x00003fac:    7800        .x      LDRB     r0,[r0,#0]
        0x00003fae:    b920         .      CBNZ     r0,0x3fba ; NAU7802_waitForCalibrateAFE + 86
        0x00003fb0:    e7ff        ..      B        0x3fb2 ; NAU7802_waitForCalibrateAFE + 78
        0x00003fb2:    a903        ..      ADD      r1,sp,#0xc
        0x00003fb4:    2001        .       MOVS     r0,#1
        0x00003fb6:    7008        .p      STRB     r0,[r1,#0]
        0x00003fb8:    e003        ..      B        0x3fc2 ; NAU7802_waitForCalibrateAFE + 94
        0x00003fba:    a903        ..      ADD      r1,sp,#0xc
        0x00003fbc:    2000        .       MOVS     r0,#0
        0x00003fbe:    7008        .p      STRB     r0,[r1,#0]
        0x00003fc0:    e7ff        ..      B        0x3fc2 ; NAU7802_waitForCalibrateAFE + 94
        0x00003fc2:    a803        ..      ADD      r0,sp,#0xc
        0x00003fc4:    7800        .x      LDRB     r0,[r0,#0]
        0x00003fc6:    b004        ..      ADD      sp,sp,#0x10
        0x00003fc8:    bd80        ..      POP      {r7,pc}
    Periph_Init
        0x00003fca:    b580        ..      PUSH     {r7,lr}
        0x00003fcc:    f000fc98    ....    BL       UART2_Init ; 0x4900
        0x00003fd0:    f7fefea4    ....    BL       GPIO_Init ; 0x2d1c
        0x00003fd4:    f7feff96    ....    BL       I2C1_Init ; 0x2f04
        0x00003fd8:    f000f8ee    ....    BL       SPII2S0_Init ; 0x41b8
        0x00003fdc:    f000fba2    ....    BL       TIMER0_Init ; 0x4724
        0x00003fe0:    f000fbb0    ....    BL       TIMER1_Init ; 0x4744
        0x00003fe4:    f000fdbe    ....    BL       WDT_Init ; 0x4b64
        0x00003fe8:    f7fefda6    ....    BL       FMC_Init ; 0x2b38
        0x00003fec:    bd80        ..      POP      {r7,pc}
        0x00003fee:    0000        ..      MOVS     r0,r0
    Pin_Init
        0x00003ff0:    2101        .!      MOVS     r1,#1
        0x00003ff2:    0588        ..      LSLS     r0,r1,#22
        0x00003ff4:    4a0b        .J      LDR      r2,[pc,#44] ; [0x4024] = 0x40000034
        0x00003ff6:    6010        .`      STR      r0,[r2,#0]
        0x00003ff8:    4a0b        .J      LDR      r2,[pc,#44] ; [0x4028] = 0x40000030
        0x00003ffa:    480c        .H      LDR      r0,[pc,#48] ; [0x402c] = 0x444
        0x00003ffc:    6010        .`      STR      r0,[r2,#0]
        0x00003ffe:    4a0c        .J      LDR      r2,[pc,#48] ; [0x4030] = 0x4000003c
        0x00004000:    2000        .       MOVS     r0,#0
        0x00004002:    6010        .`      STR      r0,[r2,#0]
        0x00004004:    4b0b        .K      LDR      r3,[pc,#44] ; [0x4034] = 0x40000038
        0x00004006:    4a0c        .J      LDR      r2,[pc,#48] ; [0x4038] = 0x4007
        0x00004008:    601a        .`      STR      r2,[r3,#0]
        0x0000400a:    4a0c        .J      LDR      r2,[pc,#48] ; [0x403c] = 0x40000044
        0x0000400c:    6010        .`      STR      r0,[r2,#0]
        0x0000400e:    05c9        ..      LSLS     r1,r1,#23
        0x00004010:    4a0b        .J      LDR      r2,[pc,#44] ; [0x4040] = 0x40000040
        0x00004012:    6011        .`      STR      r1,[r2,#0]
        0x00004014:    490b        .I      LDR      r1,[pc,#44] ; [0x4044] = 0x4000004c
        0x00004016:    6008        .`      STR      r0,[r1,#0]
        0x00004018:    490b        .I      LDR      r1,[pc,#44] ; [0x4048] = 0x40000048
        0x0000401a:    6008        .`      STR      r0,[r1,#0]
        0x0000401c:    490b        .I      LDR      r1,[pc,#44] ; [0x404c] = 0x40000058
        0x0000401e:    480c        .H      LDR      r0,[pc,#48] ; [0x4050] = 0xaaee
        0x00004020:    6008        .`      STR      r0,[r1,#0]
        0x00004022:    4770        pG      BX       lr
    $d.1
    __arm_cp.0_0
        0x00004024:    40000034    4..@    DCD    1073741876
    __arm_cp.0_1
        0x00004028:    40000030    0..@    DCD    1073741872
    __arm_cp.0_2
        0x0000402c:    00000444    D...    DCD    1092
    __arm_cp.0_3
        0x00004030:    4000003c    <..@    DCD    1073741884
    __arm_cp.0_4
        0x00004034:    40000038    8..@    DCD    1073741880
    __arm_cp.0_5
        0x00004038:    00004007    .@..    DCD    16391
    __arm_cp.0_6
        0x0000403c:    40000044    D..@    DCD    1073741892
    __arm_cp.0_7
        0x00004040:    40000040    @..@    DCD    1073741888
    __arm_cp.0_8
        0x00004044:    4000004c    L..@    DCD    1073741900
    __arm_cp.0_9
        0x00004048:    40000048    H..@    DCD    1073741896
    __arm_cp.0_10
        0x0000404c:    40000058    X..@    DCD    1073741912
    __arm_cp.0_11
        0x00004050:    0000aaee    ....    DCD    43758
    $t.1
    ProcessHardFault
        0x00004054:    b580        ..      PUSH     {r7,lr}
        0x00004056:    b086        ..      SUB      sp,sp,#0x18
        0x00004058:    9004        ..      STR      r0,[sp,#0x10]
        0x0000405a:    9103        ..      STR      r1,[sp,#0xc]
        0x0000405c:    9202        ..      STR      r2,[sp,#8]
        0x0000405e:    a804        ..      ADD      r0,sp,#0x10
        0x00004060:    7800        .x      LDRB     r0,[r0,#0]
        0x00004062:    0740        @.      LSLS     r0,r0,#29
        0x00004064:    2800        .(      CMP      r0,#0
        0x00004066:    d503        ..      BPL      0x4070 ; ProcessHardFault + 28
        0x00004068:    e7ff        ..      B        0x406a ; ProcessHardFault + 22
        0x0000406a:    9802        ..      LDR      r0,[sp,#8]
        0x0000406c:    9001        ..      STR      r0,[sp,#4]
        0x0000406e:    e002        ..      B        0x4076 ; ProcessHardFault + 34
        0x00004070:    9803        ..      LDR      r0,[sp,#0xc]
        0x00004072:    9001        ..      STR      r0,[sp,#4]
        0x00004074:    e7ff        ..      B        0x4076 ; ProcessHardFault + 34
        0x00004076:    9801        ..      LDR      r0,[sp,#4]
        0x00004078:    6980        .i      LDR      r0,[r0,#0x18]
        0x0000407a:    8800        ..      LDRH     r0,[r0,#0]
        0x0000407c:    9000        ..      STR      r0,[sp,#0]
        0x0000407e:    9800        ..      LDR      r0,[sp,#0]
        0x00004080:    4910        .I      LDR      r1,[pc,#64] ; [0x40c4] = 0xbeab
        0x00004082:    4288        .B      CMP      r0,r1
        0x00004084:    d10a        ..      BNE      0x409c ; ProcessHardFault + 72
        0x00004086:    e7ff        ..      B        0x4088 ; ProcessHardFault + 52
        0x00004088:    4910        .I      LDR      r1,[pc,#64] ; [0x40cc] = 0x20000020
        0x0000408a:    2000        .       MOVS     r0,#0
        0x0000408c:    6008        .`      STR      r0,[r1,#0]
        0x0000408e:    9901        ..      LDR      r1,[sp,#4]
        0x00004090:    6988        .i      LDR      r0,[r1,#0x18]
        0x00004092:    1c80        ..      ADDS     r0,r0,#2
        0x00004094:    6188        .a      STR      r0,[r1,#0x18]
        0x00004096:    9804        ..      LDR      r0,[sp,#0x10]
        0x00004098:    9005        ..      STR      r0,[sp,#0x14]
        0x0000409a:    e010        ..      B        0x40be ; ProcessHardFault + 106
        0x0000409c:    480a        .H      LDR      r0,[pc,#40] ; [0x40c8] = 0x78c0
        0x0000409e:    f002fd75    ..u.    BL       __0printf ; 0x6b8c
        0x000040a2:    9801        ..      LDR      r0,[sp,#4]
        0x000040a4:    f7fefc93    ....    BL       DumpStack ; 0x29ce
        0x000040a8:    e7ff        ..      B        0x40aa ; ProcessHardFault + 86
        0x000040aa:    9801        ..      LDR      r0,[sp,#4]
        0x000040ac:    6800        .h      LDR      r0,[r0,#0]
        0x000040ae:    2101        .!      MOVS     r1,#1
        0x000040b0:    4308        .C      ORRS     r0,r0,r1
        0x000040b2:    b108        ..      CBZ      r0,0x40b8 ; ProcessHardFault + 100
        0x000040b4:    e7ff        ..      B        0x40b6 ; ProcessHardFault + 98
        0x000040b6:    e7f8        ..      B        0x40aa ; ProcessHardFault + 86
        0x000040b8:    9804        ..      LDR      r0,[sp,#0x10]
        0x000040ba:    9005        ..      STR      r0,[sp,#0x14]
        0x000040bc:    e7ff        ..      B        0x40be ; ProcessHardFault + 106
        0x000040be:    9805        ..      LDR      r0,[sp,#0x14]
        0x000040c0:    b006        ..      ADD      sp,sp,#0x18
        0x000040c2:    bd80        ..      POP      {r7,pc}
    $d.2
    __arm_cp.1_0
        0x000040c4:    0000beab    ....    DCD    48811
    __arm_cp.1_1
        0x000040c8:    000078c0    .x..    DCD    30912
    __arm_cp.1_2
        0x000040cc:    20000020     ..     DCD    536870944
    $t.2
    SCREEN_1_AIP_A0Pin
        0x000040d0:    b081        ..      SUB      sp,sp,#4
        0x000040d2:    4601        .F      MOV      r1,r0
        0x000040d4:    4668        hF      MOV      r0,sp
        0x000040d6:    7001        .p      STRB     r1,[r0,#0]
        0x000040d8:    7800        .x      LDRB     r0,[r0,#0]
        0x000040da:    4902        .I      LDR      r1,[pc,#8] ; [0x40e4] = 0x4000480c
        0x000040dc:    6008        .`      STR      r0,[r1,#0]
        0x000040de:    b001        ..      ADD      sp,sp,#4
        0x000040e0:    4770        pG      BX       lr
        0x000040e2:    46c0        .F      MOV      r8,r8
    $d.3
    __arm_cp.1_0
        0x000040e4:    4000480c    .H.@    DCD    1073760268
    $t.6
    SCREEN_1_AIP_CSPin
        0x000040e8:    b081        ..      SUB      sp,sp,#4
        0x000040ea:    4601        .F      MOV      r1,r0
        0x000040ec:    4668        hF      MOV      r0,sp
        0x000040ee:    7001        .p      STRB     r1,[r0,#0]
        0x000040f0:    7800        .x      LDRB     r0,[r0,#0]
        0x000040f2:    4902        .I      LDR      r1,[pc,#8] ; [0x40fc] = 0x40004810
        0x000040f4:    6008        .`      STR      r0,[r1,#0]
        0x000040f6:    b001        ..      ADD      sp,sp,#4
        0x000040f8:    4770        pG      BX       lr
        0x000040fa:    46c0        .F      MOV      r8,r8
    $d.7
    __arm_cp.3_0
        0x000040fc:    40004810    .H.@    DCD    1073760272
    $t.4
    SCREEN_1_AIP_ResetPin
        0x00004100:    b081        ..      SUB      sp,sp,#4
        0x00004102:    4601        .F      MOV      r1,r0
        0x00004104:    4668        hF      MOV      r0,sp
        0x00004106:    7001        .p      STRB     r1,[r0,#0]
        0x00004108:    7800        .x      LDRB     r0,[r0,#0]
        0x0000410a:    4902        .I      LDR      r1,[pc,#8] ; [0x4114] = 0x40004814
        0x0000410c:    6008        .`      STR      r0,[r1,#0]
        0x0000410e:    b001        ..      ADD      sp,sp,#4
        0x00004110:    4770        pG      BX       lr
        0x00004112:    46c0        .F      MOV      r8,r8
    $d.5
    __arm_cp.2_0
        0x00004114:    40004814    .H.@    DCD    1073760276
    $t.8
    SCREEN_2_AIP_A0Pin
        0x00004118:    b081        ..      SUB      sp,sp,#4
        0x0000411a:    4601        .F      MOV      r1,r0
        0x0000411c:    4668        hF      MOV      r0,sp
        0x0000411e:    7001        .p      STRB     r1,[r0,#0]
        0x00004120:    7800        .x      LDRB     r0,[r0,#0]
        0x00004122:    4902        .I      LDR      r1,[pc,#8] ; [0x412c] = 0x40004854
        0x00004124:    6008        .`      STR      r0,[r1,#0]
        0x00004126:    b001        ..      ADD      sp,sp,#4
        0x00004128:    4770        pG      BX       lr
        0x0000412a:    46c0        .F      MOV      r8,r8
    $d.9
    __arm_cp.4_0
        0x0000412c:    40004854    TH.@    DCD    1073760340
    $t.12
    SCREEN_2_AIP_CSPin
        0x00004130:    b081        ..      SUB      sp,sp,#4
        0x00004132:    4601        .F      MOV      r1,r0
        0x00004134:    4668        hF      MOV      r0,sp
        0x00004136:    7001        .p      STRB     r1,[r0,#0]
        0x00004138:    7800        .x      LDRB     r0,[r0,#0]
        0x0000413a:    4902        .I      LDR      r1,[pc,#8] ; [0x4144] = 0x40004850
        0x0000413c:    6008        .`      STR      r0,[r1,#0]
        0x0000413e:    b001        ..      ADD      sp,sp,#4
        0x00004140:    4770        pG      BX       lr
        0x00004142:    46c0        .F      MOV      r8,r8
    $d.13
    __arm_cp.6_0
        0x00004144:    40004850    PH.@    DCD    1073760336
    $t.10
    SCREEN_2_AIP_ResetPin
        0x00004148:    b081        ..      SUB      sp,sp,#4
        0x0000414a:    4601        .F      MOV      r1,r0
        0x0000414c:    4668        hF      MOV      r0,sp
        0x0000414e:    7001        .p      STRB     r1,[r0,#0]
        0x00004150:    7800        .x      LDRB     r0,[r0,#0]
        0x00004152:    4902        .I      LDR      r1,[pc,#8] ; [0x415c] = 0x40004848
        0x00004154:    6008        .`      STR      r0,[r1,#0]
        0x00004156:    b001        ..      ADD      sp,sp,#4
        0x00004158:    4770        pG      BX       lr
        0x0000415a:    46c0        .F      MOV      r8,r8
    $d.11
    __arm_cp.5_0
        0x0000415c:    40004848    HH.@    DCD    1073760328
    $t.14
    SCREEN_3_AIP_A0Pin
        0x00004160:    b081        ..      SUB      sp,sp,#4
        0x00004162:    4601        .F      MOV      r1,r0
        0x00004164:    4668        hF      MOV      r0,sp
        0x00004166:    7001        .p      STRB     r1,[r0,#0]
        0x00004168:    7800        .x      LDRB     r0,[r0,#0]
        0x0000416a:    4902        .I      LDR      r1,[pc,#8] ; [0x4174] = 0x40004860
        0x0000416c:    6008        .`      STR      r0,[r1,#0]
        0x0000416e:    b001        ..      ADD      sp,sp,#4
        0x00004170:    4770        pG      BX       lr
        0x00004172:    46c0        .F      MOV      r8,r8
    $d.15
    __arm_cp.7_0
        0x00004174:    40004860    `H.@    DCD    1073760352
    $t.18
    SCREEN_3_AIP_CSPin
        0x00004178:    b081        ..      SUB      sp,sp,#4
        0x0000417a:    4601        .F      MOV      r1,r0
        0x0000417c:    4668        hF      MOV      r0,sp
        0x0000417e:    7001        .p      STRB     r1,[r0,#0]
        0x00004180:    7800        .x      LDRB     r0,[r0,#0]
        0x00004182:    4902        .I      LDR      r1,[pc,#8] ; [0x418c] = 0x40004864
        0x00004184:    6008        .`      STR      r0,[r1,#0]
        0x00004186:    b001        ..      ADD      sp,sp,#4
        0x00004188:    4770        pG      BX       lr
        0x0000418a:    46c0        .F      MOV      r8,r8
    $d.19
    __arm_cp.9_0
        0x0000418c:    40004864    dH.@    DCD    1073760356
    $t.16
    SCREEN_3_AIP_ResetPin
        0x00004190:    b081        ..      SUB      sp,sp,#4
        0x00004192:    4601        .F      MOV      r1,r0
        0x00004194:    4668        hF      MOV      r0,sp
        0x00004196:    7001        .p      STRB     r1,[r0,#0]
        0x00004198:    7800        .x      LDRB     r0,[r0,#0]
        0x0000419a:    4902        .I      LDR      r1,[pc,#8] ; [0x41a4] = 0x4000485c
        0x0000419c:    6008        .`      STR      r0,[r1,#0]
        0x0000419e:    b001        ..      ADD      sp,sp,#4
        0x000041a0:    4770        pG      BX       lr
        0x000041a2:    46c0        .F      MOV      r8,r8
    $d.17
    __arm_cp.8_0
        0x000041a4:    4000485c    \H.@    DCD    1073760348
    $t.0
    SH_Return
        0x000041a8:    b083        ..      SUB      sp,sp,#0xc
        0x000041aa:    9002        ..      STR      r0,[sp,#8]
        0x000041ac:    9101        ..      STR      r1,[sp,#4]
        0x000041ae:    9200        ..      STR      r2,[sp,#0]
        0x000041b0:    2000        .       MOVS     r0,#0
        0x000041b2:    b003        ..      ADD      sp,sp,#0xc
        0x000041b4:    4770        pG      BX       lr
        0x000041b6:    0000        ..      MOVS     r0,r0
    SPII2S0_Init
        0x000041b8:    b510        ..      PUSH     {r4,lr}
        0x000041ba:    b084        ..      SUB      sp,sp,#0x10
        0x000041bc:    480d        .H      LDR      r0,[pc,#52] ; [0x41f4] = 0x1e8480
        0x000041be:    9000        ..      STR      r0,[sp,#0]
        0x000041c0:    489f        .H      LDR      r0,[pc,#636] ; [0x4440] = 0x40061000
        0x000041c2:    9003        ..      STR      r0,[sp,#0xc]
        0x000041c4:    2100        .!      MOVS     r1,#0
        0x000041c6:    9102        ..      STR      r1,[sp,#8]
        0x000041c8:    220c        ."      MOVS     r2,#0xc
        0x000041ca:    2308        .#      MOVS     r3,#8
        0x000041cc:    f000f816    ....    BL       SPI_Open ; 0x41fc
        0x000041d0:    9a02        ..      LDR      r2,[sp,#8]
        0x000041d2:    9803        ..      LDR      r0,[sp,#0xc]
        0x000041d4:    4b08        .K      LDR      r3,[pc,#32] ; [0x41f8] = 0x40061008
        0x000041d6:    6819        .h      LDR      r1,[r3,#0]
        0x000041d8:    2404        .$      MOVS     r4,#4
        0x000041da:    43a1        .C      BICS     r1,r1,r4
        0x000041dc:    6019        .`      STR      r1,[r3,#0]
        0x000041de:    6801        .h      LDR      r1,[r0,#0]
        0x000041e0:    f2420300    B...    MOVW     r3,#0x2000
        0x000041e4:    4399        .C      BICS     r1,r1,r3
        0x000041e6:    6001        .`      STR      r1,[r0,#0]
        0x000041e8:    4611        .F      MOV      r1,r2
        0x000041ea:    f000f937    ..7.    BL       SPI_SetFIFO ; 0x445c
        0x000041ee:    b004        ..      ADD      sp,sp,#0x10
        0x000041f0:    bd10        ..      POP      {r4,pc}
        0x000041f2:    46c0        .F      MOV      r8,r8
    $d.9
    __arm_cp.4_0
        0x000041f4:    001e8480    ....    DCD    2000000
    __arm_cp.4_2
        0x000041f8:    40061008    ...@    DCD    1074139144
    $t.0
    SPI_Open
        0x000041fc:    b510        ..      PUSH     {r4,lr}
        0x000041fe:    b088        ..      SUB      sp,sp,#0x20
        0x00004200:    9c0a        ..      LDR      r4,[sp,#0x28]
        0x00004202:    9007        ..      STR      r0,[sp,#0x1c]
        0x00004204:    9106        ..      STR      r1,[sp,#0x18]
        0x00004206:    9205        ..      STR      r2,[sp,#0x14]
        0x00004208:    9304        ..      STR      r3,[sp,#0x10]
        0x0000420a:    2000        .       MOVS     r0,#0
        0x0000420c:    9003        ..      STR      r0,[sp,#0xc]
        0x0000420e:    9000        ..      STR      r0,[sp,#0]
        0x00004210:    9907        ..      LDR      r1,[sp,#0x1c]
        0x00004212:    6e08        .n      LDR      r0,[r1,#0x60]
        0x00004214:    2201        ."      MOVS     r2,#1
        0x00004216:    4390        .C      BICS     r0,r0,r2
        0x00004218:    6608        .f      STR      r0,[r1,#0x60]
        0x0000421a:    9804        ..      LDR      r0,[sp,#0x10]
        0x0000421c:    2820         (      CMP      r0,#0x20
        0x0000421e:    d103        ..      BNE      0x4228 ; SPI_Open + 44
        0x00004220:    e7ff        ..      B        0x4222 ; SPI_Open + 38
        0x00004222:    2000        .       MOVS     r0,#0
        0x00004224:    9004        ..      STR      r0,[sp,#0x10]
        0x00004226:    e7ff        ..      B        0x4228 ; SPI_Open + 44
        0x00004228:    f7fef948    ..H.    BL       CLK_GetHCLKFreq ; 0x24bc
        0x0000422c:    9001        ..      STR      r0,[sp,#4]
        0x0000422e:    9806        ..      LDR      r0,[sp,#0x18]
        0x00004230:    b100        ..      CBZ      r0,0x4234 ; SPI_Open + 56
        0x00004232:    e0d1        ..      B        0x43d8 ; SPI_Open + 476
        0x00004234:    9907        ..      LDR      r1,[sp,#0x1c]
        0x00004236:    2000        .       MOVS     r0,#0
        0x00004238:    6088        .`      STR      r0,[r1,#8]
        0x0000423a:    9806        ..      LDR      r0,[sp,#0x18]
        0x0000423c:    9904        ..      LDR      r1,[sp,#0x10]
        0x0000423e:    0209        ..      LSLS     r1,r1,#8
        0x00004240:    4308        .C      ORRS     r0,r0,r1
        0x00004242:    9905        ..      LDR      r1,[sp,#0x14]
        0x00004244:    4308        .C      ORRS     r0,r0,r1
        0x00004246:    2101        .!      MOVS     r1,#1
        0x00004248:    4308        .C      ORRS     r0,r0,r1
        0x0000424a:    9907        ..      LDR      r1,[sp,#0x1c]
        0x0000424c:    6008        .`      STR      r0,[r1,#0]
        0x0000424e:    980a        ..      LDR      r0,[sp,#0x28]
        0x00004250:    9901        ..      LDR      r1,[sp,#4]
        0x00004252:    4288        .B      CMP      r0,r1
        0x00004254:    d31c        ..      BCC      0x4290 ; SPI_Open + 148
        0x00004256:    e7ff        ..      B        0x4258 ; SPI_Open + 92
        0x00004258:    9807        ..      LDR      r0,[sp,#0x1c]
        0x0000425a:    4979        yI      LDR      r1,[pc,#484] ; [0x4440] = 0x40061000
        0x0000425c:    4288        .B      CMP      r0,r1
        0x0000425e:    d108        ..      BNE      0x4272 ; SPI_Open + 118
        0x00004260:    e7ff        ..      B        0x4262 ; SPI_Open + 102
        0x00004262:    4979        yI      LDR      r1,[pc,#484] ; [0x4448] = 0x40000218
        0x00004264:    6808        .h      LDR      r0,[r1,#0]
        0x00004266:    2220         "      MOVS     r2,#0x20
        0x00004268:    4310        .C      ORRS     r0,r0,r2
        0x0000426a:    2210        ."      MOVS     r2,#0x10
        0x0000426c:    4390        .C      BICS     r0,r0,r2
        0x0000426e:    6008        .`      STR      r0,[r1,#0]
        0x00004270:    e00d        ..      B        0x428e ; SPI_Open + 146
        0x00004272:    9807        ..      LDR      r0,[sp,#0x1c]
        0x00004274:    4973        sI      LDR      r1,[pc,#460] ; [0x4444] = 0x40062000
        0x00004276:    4288        .B      CMP      r0,r1
        0x00004278:    d108        ..      BNE      0x428c ; SPI_Open + 144
        0x0000427a:    e7ff        ..      B        0x427c ; SPI_Open + 128
        0x0000427c:    4972        rI      LDR      r1,[pc,#456] ; [0x4448] = 0x40000218
        0x0000427e:    6808        .h      LDR      r0,[r1,#0]
        0x00004280:    2280        ."      MOVS     r2,#0x80
        0x00004282:    4310        .C      ORRS     r0,r0,r2
        0x00004284:    2240        @"      MOVS     r2,#0x40
        0x00004286:    4390        .C      BICS     r0,r0,r2
        0x00004288:    6008        .`      STR      r0,[r1,#0]
        0x0000428a:    e7ff        ..      B        0x428c ; SPI_Open + 144
        0x0000428c:    e7ff        ..      B        0x428e ; SPI_Open + 146
        0x0000428e:    e7ff        ..      B        0x4290 ; SPI_Open + 148
        0x00004290:    9807        ..      LDR      r0,[sp,#0x1c]
        0x00004292:    496b        kI      LDR      r1,[pc,#428] ; [0x4440] = 0x40061000
        0x00004294:    4288        .B      CMP      r0,r1
        0x00004296:    d125        %.      BNE      0x42e4 ; SPI_Open + 232
        0x00004298:    e7ff        ..      B        0x429a ; SPI_Open + 158
        0x0000429a:    486b        kH      LDR      r0,[pc,#428] ; [0x4448] = 0x40000218
        0x0000429c:    6800        .h      LDR      r0,[r0,#0]
        0x0000429e:    0680        ..      LSLS     r0,r0,#26
        0x000042a0:    0f80        ..      LSRS     r0,r0,#30
        0x000042a2:    b918        ..      CBNZ     r0,0x42ac ; SPI_Open + 176
        0x000042a4:    e7ff        ..      B        0x42a6 ; SPI_Open + 170
        0x000042a6:    486a        jH      LDR      r0,[pc,#424] ; [0x4450] = 0x16e3600
        0x000042a8:    9003        ..      STR      r0,[sp,#0xc]
        0x000042aa:    e01a        ..      B        0x42e2 ; SPI_Open + 230
        0x000042ac:    4866        fH      LDR      r0,[pc,#408] ; [0x4448] = 0x40000218
        0x000042ae:    6800        .h      LDR      r0,[r0,#0]
        0x000042b0:    2130        0!      MOVS     r1,#0x30
        0x000042b2:    4008        .@      ANDS     r0,r0,r1
        0x000042b4:    2810        .(      CMP      r0,#0x10
        0x000042b6:    d104        ..      BNE      0x42c2 ; SPI_Open + 198
        0x000042b8:    e7ff        ..      B        0x42ba ; SPI_Open + 190
        0x000042ba:    f7fef98b    ....    BL       CLK_GetPLLClockFreq ; 0x25d4
        0x000042be:    9003        ..      STR      r0,[sp,#0xc]
        0x000042c0:    e00e        ..      B        0x42e0 ; SPI_Open + 228
        0x000042c2:    4861        aH      LDR      r0,[pc,#388] ; [0x4448] = 0x40000218
        0x000042c4:    6800        .h      LDR      r0,[r0,#0]
        0x000042c6:    2130        0!      MOVS     r1,#0x30
        0x000042c8:    4008        .@      ANDS     r0,r0,r1
        0x000042ca:    2820         (      CMP      r0,#0x20
        0x000042cc:    d104        ..      BNE      0x42d8 ; SPI_Open + 220
        0x000042ce:    e7ff        ..      B        0x42d0 ; SPI_Open + 212
        0x000042d0:    f7fef93a    ..:.    BL       CLK_GetPCLK1Freq ; 0x2548
        0x000042d4:    9003        ..      STR      r0,[sp,#0xc]
        0x000042d6:    e002        ..      B        0x42de ; SPI_Open + 226
        0x000042d8:    485c        \H      LDR      r0,[pc,#368] ; [0x444c] = 0x2dc6c00
        0x000042da:    9003        ..      STR      r0,[sp,#0xc]
        0x000042dc:    e7ff        ..      B        0x42de ; SPI_Open + 226
        0x000042de:    e7ff        ..      B        0x42e0 ; SPI_Open + 228
        0x000042e0:    e7ff        ..      B        0x42e2 ; SPI_Open + 230
        0x000042e2:    e02a        *.      B        0x433a ; SPI_Open + 318
        0x000042e4:    9807        ..      LDR      r0,[sp,#0x1c]
        0x000042e6:    4957        WI      LDR      r1,[pc,#348] ; [0x4444] = 0x40062000
        0x000042e8:    4288        .B      CMP      r0,r1
        0x000042ea:    d125        %.      BNE      0x4338 ; SPI_Open + 316
        0x000042ec:    e7ff        ..      B        0x42ee ; SPI_Open + 242
        0x000042ee:    4856        VH      LDR      r0,[pc,#344] ; [0x4448] = 0x40000218
        0x000042f0:    6800        .h      LDR      r0,[r0,#0]
        0x000042f2:    0600        ..      LSLS     r0,r0,#24
        0x000042f4:    0f80        ..      LSRS     r0,r0,#30
        0x000042f6:    b918        ..      CBNZ     r0,0x4300 ; SPI_Open + 260
        0x000042f8:    e7ff        ..      B        0x42fa ; SPI_Open + 254
        0x000042fa:    4855        UH      LDR      r0,[pc,#340] ; [0x4450] = 0x16e3600
        0x000042fc:    9003        ..      STR      r0,[sp,#0xc]
        0x000042fe:    e01a        ..      B        0x4336 ; SPI_Open + 314
        0x00004300:    4851        QH      LDR      r0,[pc,#324] ; [0x4448] = 0x40000218
        0x00004302:    6800        .h      LDR      r0,[r0,#0]
        0x00004304:    21c0        .!      MOVS     r1,#0xc0
        0x00004306:    4008        .@      ANDS     r0,r0,r1
        0x00004308:    2840        @(      CMP      r0,#0x40
        0x0000430a:    d104        ..      BNE      0x4316 ; SPI_Open + 282
        0x0000430c:    e7ff        ..      B        0x430e ; SPI_Open + 274
        0x0000430e:    f7fef961    ..a.    BL       CLK_GetPLLClockFreq ; 0x25d4
        0x00004312:    9003        ..      STR      r0,[sp,#0xc]
        0x00004314:    e00e        ..      B        0x4334 ; SPI_Open + 312
        0x00004316:    484c        LH      LDR      r0,[pc,#304] ; [0x4448] = 0x40000218
        0x00004318:    6800        .h      LDR      r0,[r0,#0]
        0x0000431a:    21c0        .!      MOVS     r1,#0xc0
        0x0000431c:    4008        .@      ANDS     r0,r0,r1
        0x0000431e:    2880        .(      CMP      r0,#0x80
        0x00004320:    d104        ..      BNE      0x432c ; SPI_Open + 304
        0x00004322:    e7ff        ..      B        0x4324 ; SPI_Open + 296
        0x00004324:    f7fef910    ....    BL       CLK_GetPCLK1Freq ; 0x2548
        0x00004328:    9003        ..      STR      r0,[sp,#0xc]
        0x0000432a:    e002        ..      B        0x4332 ; SPI_Open + 310
        0x0000432c:    4847        GH      LDR      r0,[pc,#284] ; [0x444c] = 0x2dc6c00
        0x0000432e:    9003        ..      STR      r0,[sp,#0xc]
        0x00004330:    e7ff        ..      B        0x4332 ; SPI_Open + 310
        0x00004332:    e7ff        ..      B        0x4334 ; SPI_Open + 312
        0x00004334:    e7ff        ..      B        0x4336 ; SPI_Open + 314
        0x00004336:    e7ff        ..      B        0x4338 ; SPI_Open + 316
        0x00004338:    e7ff        ..      B        0x433a ; SPI_Open + 318
        0x0000433a:    980a        ..      LDR      r0,[sp,#0x28]
        0x0000433c:    9901        ..      LDR      r1,[sp,#4]
        0x0000433e:    4288        .B      CMP      r0,r1
        0x00004340:    d306        ..      BCC      0x4350 ; SPI_Open + 340
        0x00004342:    e7ff        ..      B        0x4344 ; SPI_Open + 328
        0x00004344:    9907        ..      LDR      r1,[sp,#0x1c]
        0x00004346:    2000        .       MOVS     r0,#0
        0x00004348:    6048        H`      STR      r0,[r1,#4]
        0x0000434a:    9803        ..      LDR      r0,[sp,#0xc]
        0x0000434c:    9000        ..      STR      r0,[sp,#0]
        0x0000434e:    e042        B.      B        0x43d6 ; SPI_Open + 474
        0x00004350:    980a        ..      LDR      r0,[sp,#0x28]
        0x00004352:    9903        ..      LDR      r1,[sp,#0xc]
        0x00004354:    4288        .B      CMP      r0,r1
        0x00004356:    d306        ..      BCC      0x4366 ; SPI_Open + 362
        0x00004358:    e7ff        ..      B        0x435a ; SPI_Open + 350
        0x0000435a:    9907        ..      LDR      r1,[sp,#0x1c]
        0x0000435c:    2000        .       MOVS     r0,#0
        0x0000435e:    6048        H`      STR      r0,[r1,#4]
        0x00004360:    9803        ..      LDR      r0,[sp,#0xc]
        0x00004362:    9000        ..      STR      r0,[sp,#0]
        0x00004364:    e036        6.      B        0x43d4 ; SPI_Open + 472
        0x00004366:    980a        ..      LDR      r0,[sp,#0x28]
        0x00004368:    b948        H.      CBNZ     r0,0x437e ; SPI_Open + 386
        0x0000436a:    e7ff        ..      B        0x436c ; SPI_Open + 368
        0x0000436c:    9907        ..      LDR      r1,[sp,#0x1c]
        0x0000436e:    6848        Hh      LDR      r0,[r1,#4]
        0x00004370:    4a39        9J      LDR      r2,[pc,#228] ; [0x4458] = 0x1ff
        0x00004372:    4310        .C      ORRS     r0,r0,r2
        0x00004374:    6048        H`      STR      r0,[r1,#4]
        0x00004376:    9803        ..      LDR      r0,[sp,#0xc]
        0x00004378:    0a40        @.      LSRS     r0,r0,#9
        0x0000437a:    9000        ..      STR      r0,[sp,#0]
        0x0000437c:    e029        ).      B        0x43d2 ; SPI_Open + 470
        0x0000437e:    9a03        ..      LDR      r2,[sp,#0xc]
        0x00004380:    210a        .!      MOVS     r1,#0xa
        0x00004382:    4608        .F      MOV      r0,r1
        0x00004384:    4350        PC      MULS     r0,r2,r0
        0x00004386:    9a0a        ..      LDR      r2,[sp,#0x28]
        0x00004388:    fbb0f0f2    ....    UDIV     r0,r0,r2
        0x0000438c:    1d40        @.      ADDS     r0,r0,#5
        0x0000438e:    fbb0f0f1    ....    UDIV     r0,r0,r1
        0x00004392:    1e40        @.      SUBS     r0,r0,#1
        0x00004394:    9002        ..      STR      r0,[sp,#8]
        0x00004396:    9802        ..      LDR      r0,[sp,#8]
        0x00004398:    0a40        @.      LSRS     r0,r0,#9
        0x0000439a:    b150        P.      CBZ      r0,0x43b2 ; SPI_Open + 438
        0x0000439c:    e7ff        ..      B        0x439e ; SPI_Open + 418
        0x0000439e:    4a2e        .J      LDR      r2,[pc,#184] ; [0x4458] = 0x1ff
        0x000043a0:    9202        ..      STR      r2,[sp,#8]
        0x000043a2:    9907        ..      LDR      r1,[sp,#0x1c]
        0x000043a4:    6848        Hh      LDR      r0,[r1,#4]
        0x000043a6:    4310        .C      ORRS     r0,r0,r2
        0x000043a8:    6048        H`      STR      r0,[r1,#4]
        0x000043aa:    9803        ..      LDR      r0,[sp,#0xc]
        0x000043ac:    0a40        @.      LSRS     r0,r0,#9
        0x000043ae:    9000        ..      STR      r0,[sp,#0]
        0x000043b0:    e00e        ..      B        0x43d0 ; SPI_Open + 468
        0x000043b2:    9807        ..      LDR      r0,[sp,#0x1c]
        0x000043b4:    6840        @h      LDR      r0,[r0,#4]
        0x000043b6:    4927        'I      LDR      r1,[pc,#156] ; [0x4454] = 0xfffffe00
        0x000043b8:    4008        .@      ANDS     r0,r0,r1
        0x000043ba:    9902        ..      LDR      r1,[sp,#8]
        0x000043bc:    4308        .C      ORRS     r0,r0,r1
        0x000043be:    9907        ..      LDR      r1,[sp,#0x1c]
        0x000043c0:    6048        H`      STR      r0,[r1,#4]
        0x000043c2:    9803        ..      LDR      r0,[sp,#0xc]
        0x000043c4:    9902        ..      LDR      r1,[sp,#8]
        0x000043c6:    1c49        I.      ADDS     r1,r1,#1
        0x000043c8:    fbb0f0f1    ....    UDIV     r0,r0,r1
        0x000043cc:    9000        ..      STR      r0,[sp,#0]
        0x000043ce:    e7ff        ..      B        0x43d0 ; SPI_Open + 468
        0x000043d0:    e7ff        ..      B        0x43d2 ; SPI_Open + 470
        0x000043d2:    e7ff        ..      B        0x43d4 ; SPI_Open + 472
        0x000043d4:    e7ff        ..      B        0x43d6 ; SPI_Open + 474
        0x000043d6:    e030        0.      B        0x443a ; SPI_Open + 574
        0x000043d8:    9907        ..      LDR      r1,[sp,#0x1c]
        0x000043da:    2000        .       MOVS     r0,#0
        0x000043dc:    6088        .`      STR      r0,[r1,#8]
        0x000043de:    9906        ..      LDR      r1,[sp,#0x18]
        0x000043e0:    9a04        ..      LDR      r2,[sp,#0x10]
        0x000043e2:    0212        ..      LSLS     r2,r2,#8
        0x000043e4:    4311        .C      ORRS     r1,r1,r2
        0x000043e6:    9a05        ..      LDR      r2,[sp,#0x14]
        0x000043e8:    4311        .C      ORRS     r1,r1,r2
        0x000043ea:    2201        ."      MOVS     r2,#1
        0x000043ec:    4311        .C      ORRS     r1,r1,r2
        0x000043ee:    9a07        ..      LDR      r2,[sp,#0x1c]
        0x000043f0:    6011        .`      STR      r1,[r2,#0]
        0x000043f2:    9907        ..      LDR      r1,[sp,#0x1c]
        0x000043f4:    6048        H`      STR      r0,[r1,#4]
        0x000043f6:    9807        ..      LDR      r0,[sp,#0x1c]
        0x000043f8:    4911        .I      LDR      r1,[pc,#68] ; [0x4440] = 0x40061000
        0x000043fa:    4288        .B      CMP      r0,r1
        0x000043fc:    d10b        ..      BNE      0x4416 ; SPI_Open + 538
        0x000043fe:    e7ff        ..      B        0x4400 ; SPI_Open + 516
        0x00004400:    4911        .I      LDR      r1,[pc,#68] ; [0x4448] = 0x40000218
        0x00004402:    6808        .h      LDR      r0,[r1,#0]
        0x00004404:    2220         "      MOVS     r2,#0x20
        0x00004406:    4310        .C      ORRS     r0,r0,r2
        0x00004408:    2210        ."      MOVS     r2,#0x10
        0x0000440a:    4390        .C      BICS     r0,r0,r2
        0x0000440c:    6008        .`      STR      r0,[r1,#0]
        0x0000440e:    f7fef89b    ....    BL       CLK_GetPCLK1Freq ; 0x2548
        0x00004412:    9000        ..      STR      r0,[sp,#0]
        0x00004414:    e010        ..      B        0x4438 ; SPI_Open + 572
        0x00004416:    9807        ..      LDR      r0,[sp,#0x1c]
        0x00004418:    490a        .I      LDR      r1,[pc,#40] ; [0x4444] = 0x40062000
        0x0000441a:    4288        .B      CMP      r0,r1
        0x0000441c:    d10b        ..      BNE      0x4436 ; SPI_Open + 570
        0x0000441e:    e7ff        ..      B        0x4420 ; SPI_Open + 548
        0x00004420:    4909        .I      LDR      r1,[pc,#36] ; [0x4448] = 0x40000218
        0x00004422:    6808        .h      LDR      r0,[r1,#0]
        0x00004424:    2280        ."      MOVS     r2,#0x80
        0x00004426:    4310        .C      ORRS     r0,r0,r2
        0x00004428:    2240        @"      MOVS     r2,#0x40
        0x0000442a:    4390        .C      BICS     r0,r0,r2
        0x0000442c:    6008        .`      STR      r0,[r1,#0]
        0x0000442e:    f7fef88b    ....    BL       CLK_GetPCLK1Freq ; 0x2548
        0x00004432:    9000        ..      STR      r0,[sp,#0]
        0x00004434:    e7ff        ..      B        0x4436 ; SPI_Open + 570
        0x00004436:    e7ff        ..      B        0x4438 ; SPI_Open + 572
        0x00004438:    e7ff        ..      B        0x443a ; SPI_Open + 574
        0x0000443a:    9800        ..      LDR      r0,[sp,#0]
        0x0000443c:    b008        ..      ADD      sp,sp,#0x20
        0x0000443e:    bd10        ..      POP      {r4,pc}
    $d.1
    __arm_cp.0_0
        0x00004440:    40061000    ...@    DCD    1074139136
    __arm_cp.0_1
        0x00004444:    40062000    . .@    DCD    1074143232
    __arm_cp.0_2
        0x00004448:    40000218    ...@    DCD    1073742360
    __arm_cp.0_3
        0x0000444c:    02dc6c00    .l..    DCD    48000000
    __arm_cp.0_4
        0x00004450:    016e3600    .6n.    DCD    24000000
    __arm_cp.0_5
        0x00004454:    fffffe00    ....    DCD    4294966784
    __arm_cp.0_6
        0x00004458:    000001ff    ....    DCD    511
    $t.10
    SPI_SetFIFO
        0x0000445c:    b083        ..      SUB      sp,sp,#0xc
        0x0000445e:    9002        ..      STR      r0,[sp,#8]
        0x00004460:    9101        ..      STR      r1,[sp,#4]
        0x00004462:    9200        ..      STR      r2,[sp,#0]
        0x00004464:    9802        ..      LDR      r0,[sp,#8]
        0x00004466:    6900        .i      LDR      r0,[r0,#0x10]
        0x00004468:    2177        w!      MOVS     r1,#0x77
        0x0000446a:    0609        ..      LSLS     r1,r1,#24
        0x0000446c:    4388        .C      BICS     r0,r0,r1
        0x0000446e:    9901        ..      LDR      r1,[sp,#4]
        0x00004470:    0709        ..      LSLS     r1,r1,#28
        0x00004472:    4308        .C      ORRS     r0,r0,r1
        0x00004474:    9900        ..      LDR      r1,[sp,#0]
        0x00004476:    0609        ..      LSLS     r1,r1,#24
        0x00004478:    4308        .C      ORRS     r0,r0,r1
        0x0000447a:    9902        ..      LDR      r1,[sp,#8]
        0x0000447c:    6108        .a      STR      r0,[r1,#0x10]
        0x0000447e:    b003        ..      ADD      sp,sp,#0xc
        0x00004480:    4770        pG      BX       lr
        0x00004482:    0000        ..      MOVS     r0,r0
    SYS_LockReg
        0x00004484:    491b        .I      LDR      r1,[pc,#108] ; [0x44f4] = 0x40000100
        0x00004486:    2000        .       MOVS     r0,#0
        0x00004488:    6008        .`      STR      r0,[r1,#0]
        0x0000448a:    4770        pG      BX       lr
    SYS_LockReg
        0x0000448c:    4919        .I      LDR      r1,[pc,#100] ; [0x44f4] = 0x40000100
        0x0000448e:    2000        .       MOVS     r0,#0
        0x00004490:    6008        .`      STR      r0,[r1,#0]
        0x00004492:    4770        pG      BX       lr
    SYS_UnlockReg
        0x00004494:    e7ff        ..      B        0x4496 ; SYS_UnlockReg + 2
        0x00004496:    4917        .I      LDR      r1,[pc,#92] ; [0x44f4] = 0x40000100
        0x00004498:    2059        Y       MOVS     r0,#0x59
        0x0000449a:    6008        .`      STR      r0,[r1,#0]
        0x0000449c:    2016        .       MOVS     r0,#0x16
        0x0000449e:    6008        .`      STR      r0,[r1,#0]
        0x000044a0:    2088        .       MOVS     r0,#0x88
        0x000044a2:    6008        .`      STR      r0,[r1,#0]
        0x000044a4:    e7ff        ..      B        0x44a6 ; SYS_UnlockReg + 18
        0x000044a6:    4813        .H      LDR      r0,[pc,#76] ; [0x44f4] = 0x40000100
        0x000044a8:    6800        .h      LDR      r0,[r0,#0]
        0x000044aa:    2800        .(      CMP      r0,#0
        0x000044ac:    d0f3        ..      BEQ      0x4496 ; SYS_UnlockReg + 2
        0x000044ae:    e7ff        ..      B        0x44b0 ; SYS_UnlockReg + 28
        0x000044b0:    4770        pG      BX       lr
        0x000044b2:    46c0        .F      MOV      r8,r8
    SYS_UnlockReg
        0x000044b4:    e7ff        ..      B        0x44b6 ; SYS_UnlockReg + 2
        0x000044b6:    490f        .I      LDR      r1,[pc,#60] ; [0x44f4] = 0x40000100
        0x000044b8:    2059        Y       MOVS     r0,#0x59
        0x000044ba:    6008        .`      STR      r0,[r1,#0]
        0x000044bc:    2016        .       MOVS     r0,#0x16
        0x000044be:    6008        .`      STR      r0,[r1,#0]
        0x000044c0:    2088        .       MOVS     r0,#0x88
        0x000044c2:    6008        .`      STR      r0,[r1,#0]
        0x000044c4:    e7ff        ..      B        0x44c6 ; SYS_UnlockReg + 18
        0x000044c6:    480b        .H      LDR      r0,[pc,#44] ; [0x44f4] = 0x40000100
        0x000044c8:    6800        .h      LDR      r0,[r0,#0]
        0x000044ca:    2800        .(      CMP      r0,#0
        0x000044cc:    d0f3        ..      BEQ      0x44b6 ; SYS_UnlockReg + 2
        0x000044ce:    e7ff        ..      B        0x44d0 ; SYS_UnlockReg + 28
        0x000044d0:    4770        pG      BX       lr
        0x000044d2:    46c0        .F      MOV      r8,r8
    SYS_UnlockReg
        0x000044d4:    e7ff        ..      B        0x44d6 ; SYS_UnlockReg + 2
        0x000044d6:    4907        .I      LDR      r1,[pc,#28] ; [0x44f4] = 0x40000100
        0x000044d8:    2059        Y       MOVS     r0,#0x59
        0x000044da:    6008        .`      STR      r0,[r1,#0]
        0x000044dc:    2016        .       MOVS     r0,#0x16
        0x000044de:    6008        .`      STR      r0,[r1,#0]
        0x000044e0:    2088        .       MOVS     r0,#0x88
        0x000044e2:    6008        .`      STR      r0,[r1,#0]
        0x000044e4:    e7ff        ..      B        0x44e6 ; SYS_UnlockReg + 18
        0x000044e6:    4803        .H      LDR      r0,[pc,#12] ; [0x44f4] = 0x40000100
        0x000044e8:    6800        .h      LDR      r0,[r0,#0]
        0x000044ea:    2800        .(      CMP      r0,#0
        0x000044ec:    d0f3        ..      BEQ      0x44d6 ; SYS_UnlockReg + 2
        0x000044ee:    e7ff        ..      B        0x44f0 ; SYS_UnlockReg + 28
        0x000044f0:    4770        pG      BX       lr
        0x000044f2:    46c0        .F      MOV      r8,r8
    $d.3
    __arm_cp.1_0
        0x000044f4:    40000100    ...@    DCD    1073742080
    $t.4
    Scan
        0x000044f8:    b580        ..      PUSH     {r7,lr}
        0x000044fa:    b086        ..      SUB      sp,sp,#0x18
        0x000044fc:    9004        ..      STR      r0,[sp,#0x10]
        0x000044fe:    2000        .       MOVS     r0,#0
        0x00004500:    9002        ..      STR      r0,[sp,#8]
        0x00004502:    9904        ..      LDR      r1,[sp,#0x10]
        0x00004504:    7008        .p      STRB     r0,[r1,#0]
        0x00004506:    a901        ..      ADD      r1,sp,#4
        0x00004508:    7008        .p      STRB     r0,[r1,#0]
        0x0000450a:    e7ff        ..      B        0x450c ; Scan + 20
        0x0000450c:    a801        ..      ADD      r0,sp,#4
        0x0000450e:    7800        .x      LDRB     r0,[r0,#0]
        0x00004510:    4932        2I      LDR      r1,[pc,#200] ; [0x45dc] = 0x20000038
        0x00004512:    7809        .x      LDRB     r1,[r1,#0]
        0x00004514:    4288        .B      CMP      r0,r1
        0x00004516:    da57        W.      BGE      0x45c8 ; Scan + 208
        0x00004518:    e7ff        ..      B        0x451a ; Scan + 34
        0x0000451a:    f001fac3    ....    BL       resetAllColumnPins ; 0x5aa4
        0x0000451e:    a801        ..      ADD      r0,sp,#4
        0x00004520:    7800        .x      LDRB     r0,[r0,#0]
        0x00004522:    f001facb    ....    BL       setColumnPin ; 0x5abc
        0x00004526:    4669        iF      MOV      r1,sp
        0x00004528:    2000        .       MOVS     r0,#0
        0x0000452a:    7008        .p      STRB     r0,[r1,#0]
        0x0000452c:    e7ff        ..      B        0x452e ; Scan + 54
        0x0000452e:    4668        hF      MOV      r0,sp
        0x00004530:    7800        .x      LDRB     r0,[r0,#0]
        0x00004532:    492a        *I      LDR      r1,[pc,#168] ; [0x45dc] = 0x20000038
        0x00004534:    7849        Ix      LDRB     r1,[r1,#1]
        0x00004536:    4288        .B      CMP      r0,r1
        0x00004538:    da40        @.      BGE      0x45bc ; Scan + 196
        0x0000453a:    e7ff        ..      B        0x453c ; Scan + 68
        0x0000453c:    4668        hF      MOV      r0,sp
        0x0000453e:    7800        .x      LDRB     r0,[r0,#0]
        0x00004540:    f001fa74    ..t.    BL       readRowPin ; 0x5a2c
        0x00004544:    2801        .(      CMP      r0,#1
        0x00004546:    d133        3.      BNE      0x45b0 ; Scan + 184
        0x00004548:    e7ff        ..      B        0x454a ; Scan + 82
        0x0000454a:    4826        &H      LDR      r0,[pc,#152] ; [0x45e4] = 0x4e20
        0x0000454c:    f7fef924    ..$.    BL       CLK_SysTickDelay ; 0x2798
        0x00004550:    4668        hF      MOV      r0,sp
        0x00004552:    7800        .x      LDRB     r0,[r0,#0]
        0x00004554:    f001fa6a    ..j.    BL       readRowPin ; 0x5a2c
        0x00004558:    2801        .(      CMP      r0,#1
        0x0000455a:    d128        (.      BNE      0x45ae ; Scan + 182
        0x0000455c:    e7ff        ..      B        0x455e ; Scan + 102
        0x0000455e:    4668        hF      MOV      r0,sp
        0x00004560:    7800        .x      LDRB     r0,[r0,#0]
        0x00004562:    2105        .!      MOVS     r1,#5
        0x00004564:    4341        AC      MULS     r1,r0,r1
        0x00004566:    4820         H      LDR      r0,[pc,#128] ; [0x45e8] = 0x20000024
        0x00004568:    1840        @.      ADDS     r0,r0,r1
        0x0000456a:    a901        ..      ADD      r1,sp,#4
        0x0000456c:    7809        .x      LDRB     r1,[r1,#0]
        0x0000456e:    5c40        @\      LDRB     r0,[r0,r1]
        0x00004570:    a903        ..      ADD      r1,sp,#0xc
        0x00004572:    7008        .p      STRB     r0,[r1,#0]
        0x00004574:    e7ff        ..      B        0x4576 ; Scan + 126
        0x00004576:    4668        hF      MOV      r0,sp
        0x00004578:    7800        .x      LDRB     r0,[r0,#0]
        0x0000457a:    f001fa57    ..W.    BL       readRowPin ; 0x5a2c
        0x0000457e:    b188        ..      CBZ      r0,0x45a4 ; Scan + 172
        0x00004580:    e7ff        ..      B        0x4582 ; Scan + 138
        0x00004582:    9802        ..      LDR      r0,[sp,#8]
        0x00004584:    1c40        @.      ADDS     r0,r0,#1
        0x00004586:    9002        ..      STR      r0,[sp,#8]
        0x00004588:    9802        ..      LDR      r0,[sp,#8]
        0x0000458a:    4918        .I      LDR      r1,[pc,#96] ; [0x45ec] = 0xf4241
        0x0000458c:    4288        .B      CMP      r0,r1
        0x0000458e:    d308        ..      BCC      0x45a2 ; Scan + 170
        0x00004590:    e7ff        ..      B        0x4592 ; Scan + 154
        0x00004592:    9904        ..      LDR      r1,[sp,#0x10]
        0x00004594:    2001        .       MOVS     r0,#1
        0x00004596:    7008        .p      STRB     r0,[r1,#0]
        0x00004598:    a803        ..      ADD      r0,sp,#0xc
        0x0000459a:    7800        .x      LDRB     r0,[r0,#0]
        0x0000459c:    a905        ..      ADD      r1,sp,#0x14
        0x0000459e:    8008        ..      STRH     r0,[r1,#0]
        0x000045a0:    e016        ..      B        0x45d0 ; Scan + 216
        0x000045a2:    e7e8        ..      B        0x4576 ; Scan + 126
        0x000045a4:    a803        ..      ADD      r0,sp,#0xc
        0x000045a6:    7800        .x      LDRB     r0,[r0,#0]
        0x000045a8:    a905        ..      ADD      r1,sp,#0x14
        0x000045aa:    8008        ..      STRH     r0,[r1,#0]
        0x000045ac:    e010        ..      B        0x45d0 ; Scan + 216
        0x000045ae:    e7ff        ..      B        0x45b0 ; Scan + 184
        0x000045b0:    e7ff        ..      B        0x45b2 ; Scan + 186
        0x000045b2:    9800        ..      LDR      r0,[sp,#0]
        0x000045b4:    1c40        @.      ADDS     r0,r0,#1
        0x000045b6:    4669        iF      MOV      r1,sp
        0x000045b8:    7008        .p      STRB     r0,[r1,#0]
        0x000045ba:    e7b8        ..      B        0x452e ; Scan + 54
        0x000045bc:    e7ff        ..      B        0x45be ; Scan + 198
        0x000045be:    9801        ..      LDR      r0,[sp,#4]
        0x000045c0:    1c40        @.      ADDS     r0,r0,#1
        0x000045c2:    a901        ..      ADD      r1,sp,#4
        0x000045c4:    7008        .p      STRB     r0,[r1,#0]
        0x000045c6:    e7a1        ..      B        0x450c ; Scan + 20
        0x000045c8:    a905        ..      ADD      r1,sp,#0x14
        0x000045ca:    4805        .H      LDR      r0,[pc,#20] ; [0x45e0] = 0xffff
        0x000045cc:    8008        ..      STRH     r0,[r1,#0]
        0x000045ce:    e7ff        ..      B        0x45d0 ; Scan + 216
        0x000045d0:    2100        .!      MOVS     r1,#0
        0x000045d2:    a805        ..      ADD      r0,sp,#0x14
        0x000045d4:    5e40        @^      LDRSH    r0,[r0,r1]
        0x000045d6:    b006        ..      ADD      sp,sp,#0x18
        0x000045d8:    bd80        ..      POP      {r7,pc}
        0x000045da:    46c0        .F      MOV      r8,r8
    $d.5
    __arm_cp.2_0
        0x000045dc:    20000038    8..     DCD    536870968
    __arm_cp.2_1
        0x000045e0:    0000ffff    ....    DCD    65535
    __arm_cp.2_2
        0x000045e4:    00004e20     N..    DCD    20000
    __arm_cp.2_3
        0x000045e8:    20000024    $..     DCD    536870948
    __arm_cp.2_4
        0x000045ec:    000f4241    AB..    DCD    1000001
    $t.6
    SendChar
        0x000045f0:    b580        ..      PUSH     {r7,lr}
        0x000045f2:    b082        ..      SUB      sp,sp,#8
        0x000045f4:    9001        ..      STR      r0,[sp,#4]
        0x000045f6:    9801        ..      LDR      r0,[sp,#4]
        0x000045f8:    f000f802    ....    BL       SendChar_ToUART ; 0x4600
        0x000045fc:    b002        ..      ADD      sp,sp,#8
        0x000045fe:    bd80        ..      POP      {r7,pc}
    SendChar_ToUART
        0x00004600:    b081        ..      SUB      sp,sp,#4
        0x00004602:    9000        ..      STR      r0,[sp,#0]
        0x00004604:    e7ff        ..      B        0x4606 ; SendChar_ToUART + 6
        0x00004606:    480e        .H      LDR      r0,[pc,#56] ; [0x4640] = 0x40072018
        0x00004608:    6800        .h      LDR      r0,[r0,#0]
        0x0000460a:    0200        ..      LSLS     r0,r0,#8
        0x0000460c:    2800        .(      CMP      r0,#0
        0x0000460e:    d501        ..      BPL      0x4614 ; SendChar_ToUART + 20
        0x00004610:    e7ff        ..      B        0x4612 ; SendChar_ToUART + 18
        0x00004612:    e7f8        ..      B        0x4606 ; SendChar_ToUART + 6
        0x00004614:    4668        hF      MOV      r0,sp
        0x00004616:    7800        .x      LDRB     r0,[r0,#0]
        0x00004618:    280a        .(      CMP      r0,#0xa
        0x0000461a:    d10c        ..      BNE      0x4636 ; SendChar_ToUART + 54
        0x0000461c:    e7ff        ..      B        0x461e ; SendChar_ToUART + 30
        0x0000461e:    49be        .I      LDR      r1,[pc,#760] ; [0x4918] = 0x40072000
        0x00004620:    200d        .       MOVS     r0,#0xd
        0x00004622:    6008        .`      STR      r0,[r1,#0]
        0x00004624:    e7ff        ..      B        0x4626 ; SendChar_ToUART + 38
        0x00004626:    4806        .H      LDR      r0,[pc,#24] ; [0x4640] = 0x40072018
        0x00004628:    6800        .h      LDR      r0,[r0,#0]
        0x0000462a:    0200        ..      LSLS     r0,r0,#8
        0x0000462c:    2800        .(      CMP      r0,#0
        0x0000462e:    d501        ..      BPL      0x4634 ; SendChar_ToUART + 52
        0x00004630:    e7ff        ..      B        0x4632 ; SendChar_ToUART + 50
        0x00004632:    e7f8        ..      B        0x4626 ; SendChar_ToUART + 38
        0x00004634:    e7ff        ..      B        0x4636 ; SendChar_ToUART + 54
        0x00004636:    9800        ..      LDR      r0,[sp,#0]
        0x00004638:    49b7        .I      LDR      r1,[pc,#732] ; [0x4918] = 0x40072000
        0x0000463a:    6008        .`      STR      r0,[r1,#0]
        0x0000463c:    b001        ..      ADD      sp,sp,#4
        0x0000463e:    4770        pG      BX       lr
    $d.5
    __arm_cp.3_0
        0x00004640:    40072018    . .@    DCD    1074208792
    $t.2
    SysTickCounter
        0x00004644:    b580        ..      PUSH     {r7,lr}
        0x00004646:    4805        .H      LDR      r0,[pc,#20] ; [0x465c] = 0x20000514
        0x00004648:    6800        .h      LDR      r0,[r0,#0]
        0x0000464a:    f7fbff47    ..G.    BL       __aeabi_i2d ; 0x4dc
        0x0000464e:    4a04        .J      LDR      r2,[pc,#16] ; [0x4660] = 0xc49ba5e3
        0x00004650:    4b04        .K      LDR      r3,[pc,#16] ; [0x4664] = 0x3fdab020
        0x00004652:    f7fbfebb    ....    BL       __aeabi_dmul ; 0x3cc
        0x00004656:    f7fbff83    ....    BL       __aeabi_d2lz ; 0x560
        0x0000465a:    bd80        ..      POP      {r7,pc}
    $d.3
    __arm_cp.1_0
        0x0000465c:    20000514    ...     DCD    536872212
    __arm_cp.1_1
        0x00004660:    c49ba5e3    ....    DCD    3298534883
    __arm_cp.1_2
        0x00004664:    3fdab020     ..?    DCD    1071296544
    $t.0
    SystemCoreClockUpdate
        0x00004668:    b580        ..      PUSH     {r7,lr}
        0x0000466a:    b084        ..      SUB      sp,sp,#0x10
        0x0000466c:    4816        .H      LDR      r0,[pc,#88] ; [0x46c8] = 0x40000210
        0x0000466e:    6800        .h      LDR      r0,[r0,#0]
        0x00004670:    2107        .!      MOVS     r1,#7
        0x00004672:    4008        .@      ANDS     r0,r0,r1
        0x00004674:    9002        ..      STR      r0,[sp,#8]
        0x00004676:    f7fdffad    ....    BL       CLK_GetPLLClockFreq ; 0x25d4
        0x0000467a:    4914        .I      LDR      r1,[pc,#80] ; [0x46cc] = 0x20000010
        0x0000467c:    6008        .`      STR      r0,[r1,#0]
        0x0000467e:    9802        ..      LDR      r0,[sp,#8]
        0x00004680:    2802        .(      CMP      r0,#2
        0x00004682:    d006        ..      BEQ      0x4692 ; SystemCoreClockUpdate + 42
        0x00004684:    e7ff        ..      B        0x4686 ; SystemCoreClockUpdate + 30
        0x00004686:    9802        ..      LDR      r0,[sp,#8]
        0x00004688:    0081        ..      LSLS     r1,r0,#2
        0x0000468a:    4811        .H      LDR      r0,[pc,#68] ; [0x46d0] = 0x78a0
        0x0000468c:    5840        @X      LDR      r0,[r0,r1]
        0x0000468e:    9003        ..      STR      r0,[sp,#0xc]
        0x00004690:    e003        ..      B        0x469a ; SystemCoreClockUpdate + 50
        0x00004692:    480e        .H      LDR      r0,[pc,#56] ; [0x46cc] = 0x20000010
        0x00004694:    6800        .h      LDR      r0,[r0,#0]
        0x00004696:    9003        ..      STR      r0,[sp,#0xc]
        0x00004698:    e7ff        ..      B        0x469a ; SystemCoreClockUpdate + 50
        0x0000469a:    480e        .H      LDR      r0,[pc,#56] ; [0x46d4] = 0x40000220
        0x0000469c:    6800        .h      LDR      r0,[r0,#0]
        0x0000469e:    210f        .!      MOVS     r1,#0xf
        0x000046a0:    4008        .@      ANDS     r0,r0,r1
        0x000046a2:    1c40        @.      ADDS     r0,r0,#1
        0x000046a4:    9001        ..      STR      r0,[sp,#4]
        0x000046a6:    9803        ..      LDR      r0,[sp,#0xc]
        0x000046a8:    9901        ..      LDR      r1,[sp,#4]
        0x000046aa:    fbb0f1f1    ....    UDIV     r1,r0,r1
        0x000046ae:    480a        .H      LDR      r0,[pc,#40] ; [0x46d8] = 0x20000014
        0x000046b0:    6001        .`      STR      r1,[r0,#0]
        0x000046b2:    6800        .h      LDR      r0,[r0,#0]
        0x000046b4:    4909        .I      LDR      r1,[pc,#36] ; [0x46dc] = 0x7a120
        0x000046b6:    1840        @.      ADDS     r0,r0,r1
        0x000046b8:    4909        .I      LDR      r1,[pc,#36] ; [0x46e0] = 0xf4240
        0x000046ba:    fbb0f0f1    ....    UDIV     r0,r0,r1
        0x000046be:    4909        .I      LDR      r1,[pc,#36] ; [0x46e4] = 0x2000000c
        0x000046c0:    6008        .`      STR      r0,[r1,#0]
        0x000046c2:    b004        ..      ADD      sp,sp,#0x10
        0x000046c4:    bd80        ..      POP      {r7,pc}
        0x000046c6:    46c0        .F      MOV      r8,r8
    $d.1
    __arm_cp.0_0
        0x000046c8:    40000210    ...@    DCD    1073742352
    __arm_cp.0_1
        0x000046cc:    20000010    ...     DCD    536870928
    __arm_cp.0_2
        0x000046d0:    000078a0    .x..    DCD    30880
    __arm_cp.0_3
        0x000046d4:    40000220     ..@    DCD    1073742368
    __arm_cp.0_4
        0x000046d8:    20000014    ...     DCD    536870932
    __arm_cp.0_5
        0x000046dc:    0007a120     ...    DCD    500000
    __arm_cp.0_6
        0x000046e0:    000f4240    @B..    DCD    1000000
    __arm_cp.0_7
        0x000046e4:    2000000c    ...     DCD    536870924
    $t.2
    SystemInit
        0x000046e8:    4905        .I      LDR      r1,[pc,#20] ; [0x4700] = 0x4000c04c
        0x000046ea:    6808        .h      LDR      r0,[r1,#0]
        0x000046ec:    f2401203    @...    MOV      r2,#0x103
        0x000046f0:    4310        .C      ORRS     r0,r0,r2
        0x000046f2:    220c        ."      MOVS     r2,#0xc
        0x000046f4:    4390        .C      BICS     r0,r0,r2
        0x000046f6:    6008        .`      STR      r0,[r1,#0]
        0x000046f8:    4802        .H      LDR      r0,[pc,#8] ; [0x4704] = 0
        0x000046fa:    4903        .I      LDR      r1,[pc,#12] ; [0x4708] = 0xe000ed08
        0x000046fc:    6008        .`      STR      r0,[r1,#0]
        0x000046fe:    4770        pG      BX       lr
    $d.3
    __arm_cp.1_0
        0x00004700:    4000c04c    L..@    DCD    1073791052
    __arm_cp.1_1
        0x00004704:    00000000    ....    DCD    0
    __arm_cp.1_2
        0x00004708:    e000ed08    ....    DCD    3758157064
    $t.0
    System_Init
        0x0000470c:    b580        ..      PUSH     {r7,lr}
        0x0000470e:    f7fffec1    ....    BL       SYS_UnlockReg ; 0x4494
        0x00004712:    f7fef8e1    ....    BL       Clock_Init ; 0x28d8
        0x00004716:    f7fffc6b    ..k.    BL       Pin_Init ; 0x3ff0
        0x0000471a:    f7fffc56    ..V.    BL       Periph_Init ; 0x3fca
        0x0000471e:    f7fffeb1    ....    BL       SYS_LockReg ; 0x4484
        0x00004722:    bd80        ..      POP      {r7,pc}
    TIMER0_Init
        0x00004724:    b580        ..      PUSH     {r7,lr}
        0x00004726:    b082        ..      SUB      sp,sp,#8
        0x00004728:    2201        ."      MOVS     r2,#1
        0x0000472a:    06d1        ..      LSLS     r1,r2,#27
        0x0000472c:    486c        lH      LDR      r0,[pc,#432] ; [0x48e0] = 0x40050000
        0x0000472e:    9001        ..      STR      r0,[sp,#4]
        0x00004730:    f000f890    ....    BL       TIMER_Open ; 0x4854
        0x00004734:    9801        ..      LDR      r0,[sp,#4]
        0x00004736:    f000f81c    ....    BL       TIMER_EnableInt ; 0x4772
        0x0000473a:    2020                MOVS     r0,#0x20
        0x0000473c:    f000fa3c    ..<.    BL       __NVIC_EnableIRQ ; 0x4bb8
        0x00004740:    b002        ..      ADD      sp,sp,#8
        0x00004742:    bd80        ..      POP      {r7,pc}
    TIMER1_Init
        0x00004744:    b580        ..      PUSH     {r7,lr}
        0x00004746:    b082        ..      SUB      sp,sp,#8
        0x00004748:    2201        ."      MOVS     r2,#1
        0x0000474a:    06d1        ..      LSLS     r1,r2,#27
        0x0000474c:    486b        kH      LDR      r0,[pc,#428] ; [0x48fc] = 0x40050100
        0x0000474e:    9001        ..      STR      r0,[sp,#4]
        0x00004750:    f000f880    ....    BL       TIMER_Open ; 0x4854
        0x00004754:    9801        ..      LDR      r0,[sp,#4]
        0x00004756:    f000f80c    ....    BL       TIMER_EnableInt ; 0x4772
        0x0000475a:    2021        !       MOVS     r0,#0x21
        0x0000475c:    f000fa2c    ..,.    BL       __NVIC_EnableIRQ ; 0x4bb8
        0x00004760:    b002        ..      ADD      sp,sp,#8
        0x00004762:    bd80        ..      POP      {r7,pc}
    TIMER_ClearIntFlag
        0x00004764:    b081        ..      SUB      sp,sp,#4
        0x00004766:    9000        ..      STR      r0,[sp,#0]
        0x00004768:    9900        ..      LDR      r1,[sp,#0]
        0x0000476a:    2001        .       MOVS     r0,#1
        0x0000476c:    6088        .`      STR      r0,[r1,#8]
        0x0000476e:    b001        ..      ADD      sp,sp,#4
        0x00004770:    4770        pG      BX       lr
    TIMER_EnableInt
        0x00004772:    b081        ..      SUB      sp,sp,#4
        0x00004774:    9000        ..      STR      r0,[sp,#0]
        0x00004776:    9900        ..      LDR      r1,[sp,#0]
        0x00004778:    6808        .h      LDR      r0,[r1,#0]
        0x0000477a:    2201        ."      MOVS     r2,#1
        0x0000477c:    0752        R.      LSLS     r2,r2,#29
        0x0000477e:    4310        .C      ORRS     r0,r0,r2
        0x00004780:    6008        .`      STR      r0,[r1,#0]
        0x00004782:    b001        ..      ADD      sp,sp,#4
        0x00004784:    4770        pG      BX       lr
    TIMER_GetIntFlag
        0x00004786:    b081        ..      SUB      sp,sp,#4
        0x00004788:    9000        ..      STR      r0,[sp,#0]
        0x0000478a:    9800        ..      LDR      r0,[sp,#0]
        0x0000478c:    6880        .h      LDR      r0,[r0,#8]
        0x0000478e:    2101        .!      MOVS     r1,#1
        0x00004790:    4008        .@      ANDS     r0,r0,r1
        0x00004792:    b001        ..      ADD      sp,sp,#4
        0x00004794:    4770        pG      BX       lr
        0x00004796:    0000        ..      MOVS     r0,r0
    TIMER_GetModuleClock
        0x00004798:    b5b0        ..      PUSH     {r4,r5,r7,lr}
        0x0000479a:    b08c        ..      SUB      sp,sp,#0x30
        0x0000479c:    900a        ..      STR      r0,[sp,#0x28]
        0x0000479e:    492b        +I      LDR      r1,[pc,#172] ; [0x484c] = 0x7640
        0x000047a0:    a801        ..      ADD      r0,sp,#4
        0x000047a2:    c93c        <.      LDM      r1!,{r2-r5}
        0x000047a4:    c03c        <.      STM      r0!,{r2-r5}
        0x000047a6:    c93c        <.      LDM      r1!,{r2-r5}
        0x000047a8:    c03c        <.      STM      r0!,{r2-r5}
        0x000047aa:    980a        ..      LDR      r0,[sp,#0x28]
        0x000047ac:    494c        LI      LDR      r1,[pc,#304] ; [0x48e0] = 0x40050000
        0x000047ae:    4288        .B      CMP      r0,r1
        0x000047b0:    d108        ..      BNE      0x47c4 ; TIMER_GetModuleClock + 44
        0x000047b2:    e7ff        ..      B        0x47b4 ; TIMER_GetModuleClock + 28
        0x000047b4:    48c1        .H      LDR      r0,[pc,#772] ; [0x4abc] = 0x40000214
        0x000047b6:    6800        .h      LDR      r0,[r0,#0]
        0x000047b8:    f2407100    @..q    MOVW     r1,#0x700
        0x000047bc:    4008        .@      ANDS     r0,r0,r1
        0x000047be:    0a00        ..      LSRS     r0,r0,#8
        0x000047c0:    9009        ..      STR      r0,[sp,#0x24]
        0x000047c2:    e023        #.      B        0x480c ; TIMER_GetModuleClock + 116
        0x000047c4:    980a        ..      LDR      r0,[sp,#0x28]
        0x000047c6:    494d        MI      LDR      r1,[pc,#308] ; [0x48fc] = 0x40050100
        0x000047c8:    4288        .B      CMP      r0,r1
        0x000047ca:    d108        ..      BNE      0x47de ; TIMER_GetModuleClock + 70
        0x000047cc:    e7ff        ..      B        0x47ce ; TIMER_GetModuleClock + 54
        0x000047ce:    48bb        .H      LDR      r0,[pc,#748] ; [0x4abc] = 0x40000214
        0x000047d0:    6800        .h      LDR      r0,[r0,#0]
        0x000047d2:    f2470100    G...    MOVW     r1,#0x7000
        0x000047d6:    4008        .@      ANDS     r0,r0,r1
        0x000047d8:    0b00        ..      LSRS     r0,r0,#12
        0x000047da:    9009        ..      STR      r0,[sp,#0x24]
        0x000047dc:    e015        ..      B        0x480a ; TIMER_GetModuleClock + 114
        0x000047de:    980a        ..      LDR      r0,[sp,#0x28]
        0x000047e0:    491b        .I      LDR      r1,[pc,#108] ; [0x4850] = 0x40051000
        0x000047e2:    4288        .B      CMP      r0,r1
        0x000047e4:    d108        ..      BNE      0x47f8 ; TIMER_GetModuleClock + 96
        0x000047e6:    e7ff        ..      B        0x47e8 ; TIMER_GetModuleClock + 80
        0x000047e8:    48b4        .H      LDR      r0,[pc,#720] ; [0x4abc] = 0x40000214
        0x000047ea:    6800        .h      LDR      r0,[r0,#0]
        0x000047ec:    2107        .!      MOVS     r1,#7
        0x000047ee:    0409        ..      LSLS     r1,r1,#16
        0x000047f0:    4008        .@      ANDS     r0,r0,r1
        0x000047f2:    0c00        ..      LSRS     r0,r0,#16
        0x000047f4:    9009        ..      STR      r0,[sp,#0x24]
        0x000047f6:    e007        ..      B        0x4808 ; TIMER_GetModuleClock + 112
        0x000047f8:    48b0        .H      LDR      r0,[pc,#704] ; [0x4abc] = 0x40000214
        0x000047fa:    6800        .h      LDR      r0,[r0,#0]
        0x000047fc:    2107        .!      MOVS     r1,#7
        0x000047fe:    0509        ..      LSLS     r1,r1,#20
        0x00004800:    4008        .@      ANDS     r0,r0,r1
        0x00004802:    0d00        ..      LSRS     r0,r0,#20
        0x00004804:    9009        ..      STR      r0,[sp,#0x24]
        0x00004806:    e7ff        ..      B        0x4808 ; TIMER_GetModuleClock + 112
        0x00004808:    e7ff        ..      B        0x480a ; TIMER_GetModuleClock + 114
        0x0000480a:    e7ff        ..      B        0x480c ; TIMER_GetModuleClock + 116
        0x0000480c:    9809        ..      LDR      r0,[sp,#0x24]
        0x0000480e:    2802        .(      CMP      r0,#2
        0x00004810:    d112        ..      BNE      0x4838 ; TIMER_GetModuleClock + 160
        0x00004812:    e7ff        ..      B        0x4814 ; TIMER_GetModuleClock + 124
        0x00004814:    980a        ..      LDR      r0,[sp,#0x28]
        0x00004816:    4932        2I      LDR      r1,[pc,#200] ; [0x48e0] = 0x40050000
        0x00004818:    4288        .B      CMP      r0,r1
        0x0000481a:    d005        ..      BEQ      0x4828 ; TIMER_GetModuleClock + 144
        0x0000481c:    e7ff        ..      B        0x481e ; TIMER_GetModuleClock + 134
        0x0000481e:    980a        ..      LDR      r0,[sp,#0x28]
        0x00004820:    4936        6I      LDR      r1,[pc,#216] ; [0x48fc] = 0x40050100
        0x00004822:    4288        .B      CMP      r0,r1
        0x00004824:    d104        ..      BNE      0x4830 ; TIMER_GetModuleClock + 152
        0x00004826:    e7ff        ..      B        0x4828 ; TIMER_GetModuleClock + 144
        0x00004828:    f7fdfe4e    ..N.    BL       CLK_GetPCLK0Freq ; 0x24c8
        0x0000482c:    900b        ..      STR      r0,[sp,#0x2c]
        0x0000482e:    e009        ..      B        0x4844 ; TIMER_GetModuleClock + 172
        0x00004830:    f7fdfe8a    ....    BL       CLK_GetPCLK1Freq ; 0x2548
        0x00004834:    900b        ..      STR      r0,[sp,#0x2c]
        0x00004836:    e005        ..      B        0x4844 ; TIMER_GetModuleClock + 172
        0x00004838:    9809        ..      LDR      r0,[sp,#0x24]
        0x0000483a:    0081        ..      LSLS     r1,r0,#2
        0x0000483c:    a801        ..      ADD      r0,sp,#4
        0x0000483e:    5840        @X      LDR      r0,[r0,r1]
        0x00004840:    900b        ..      STR      r0,[sp,#0x2c]
        0x00004842:    e7ff        ..      B        0x4844 ; TIMER_GetModuleClock + 172
        0x00004844:    980b        ..      LDR      r0,[sp,#0x2c]
        0x00004846:    b00c        ..      ADD      sp,sp,#0x30
        0x00004848:    bdb0        ..      POP      {r4,r5,r7,pc}
        0x0000484a:    46c0        .F      MOV      r8,r8
    $d.2
    __arm_cp.1_0
        0x0000484c:    00007640    @v..    DCD    30272
    __arm_cp.1_3
        0x00004850:    40051000    ...@    DCD    1074073600
    $t.0
    TIMER_Open
        0x00004854:    b580        ..      PUSH     {r7,lr}
        0x00004856:    b086        ..      SUB      sp,sp,#0x18
        0x00004858:    9005        ..      STR      r0,[sp,#0x14]
        0x0000485a:    9104        ..      STR      r1,[sp,#0x10]
        0x0000485c:    9203        ..      STR      r2,[sp,#0xc]
        0x0000485e:    9805        ..      LDR      r0,[sp,#0x14]
        0x00004860:    f7ffff9a    ....    BL       TIMER_GetModuleClock ; 0x4798
        0x00004864:    9002        ..      STR      r0,[sp,#8]
        0x00004866:    2000        .       MOVS     r0,#0
        0x00004868:    9001        ..      STR      r0,[sp,#4]
        0x0000486a:    9000        ..      STR      r0,[sp,#0]
        0x0000486c:    9803        ..      LDR      r0,[sp,#0xc]
        0x0000486e:    9902        ..      LDR      r1,[sp,#8]
        0x00004870:    0849        I.      LSRS     r1,r1,#1
        0x00004872:    4288        .B      CMP      r0,r1
        0x00004874:    d903        ..      BLS      0x487e ; TIMER_Open + 42
        0x00004876:    e7ff        ..      B        0x4878 ; TIMER_Open + 36
        0x00004878:    2002        .       MOVS     r0,#2
        0x0000487a:    9001        ..      STR      r0,[sp,#4]
        0x0000487c:    e012        ..      B        0x48a4 ; TIMER_Open + 80
        0x0000487e:    9802        ..      LDR      r0,[sp,#8]
        0x00004880:    9903        ..      LDR      r1,[sp,#0xc]
        0x00004882:    fbb0f0f1    ....    UDIV     r0,r0,r1
        0x00004886:    9001        ..      STR      r0,[sp,#4]
        0x00004888:    a801        ..      ADD      r0,sp,#4
        0x0000488a:    78c0        .x      LDRB     r0,[r0,#3]
        0x0000488c:    9000        ..      STR      r0,[sp,#0]
        0x0000488e:    9800        ..      LDR      r0,[sp,#0]
        0x00004890:    b138        8.      CBZ      r0,0x48a2 ; TIMER_Open + 78
        0x00004892:    e7ff        ..      B        0x4894 ; TIMER_Open + 64
        0x00004894:    9801        ..      LDR      r0,[sp,#4]
        0x00004896:    9900        ..      LDR      r1,[sp,#0]
        0x00004898:    1c49        I.      ADDS     r1,r1,#1
        0x0000489a:    fbb0f0f1    ....    UDIV     r0,r0,r1
        0x0000489e:    9001        ..      STR      r0,[sp,#4]
        0x000048a0:    e7ff        ..      B        0x48a2 ; TIMER_Open + 78
        0x000048a2:    e7ff        ..      B        0x48a4 ; TIMER_Open + 80
        0x000048a4:    9804        ..      LDR      r0,[sp,#0x10]
        0x000048a6:    9900        ..      LDR      r1,[sp,#0]
        0x000048a8:    4308        .C      ORRS     r0,r0,r1
        0x000048aa:    9905        ..      LDR      r1,[sp,#0x14]
        0x000048ac:    6008        .`      STR      r0,[r1,#0]
        0x000048ae:    9801        ..      LDR      r0,[sp,#4]
        0x000048b0:    9905        ..      LDR      r1,[sp,#0x14]
        0x000048b2:    6048        H`      STR      r0,[r1,#4]
        0x000048b4:    9802        ..      LDR      r0,[sp,#8]
        0x000048b6:    9a01        ..      LDR      r2,[sp,#4]
        0x000048b8:    9900        ..      LDR      r1,[sp,#0]
        0x000048ba:    1c49        I.      ADDS     r1,r1,#1
        0x000048bc:    4351        QC      MULS     r1,r2,r1
        0x000048be:    fbb0f0f1    ....    UDIV     r0,r0,r1
        0x000048c2:    b006        ..      ADD      sp,sp,#0x18
        0x000048c4:    bd80        ..      POP      {r7,pc}
        0x000048c6:    0000        ..      MOVS     r0,r0
    TMR0_IRQHandler
        0x000048c8:    b580        ..      PUSH     {r7,lr}
        0x000048ca:    4805        .H      LDR      r0,[pc,#20] ; [0x48e0] = 0x40050000
        0x000048cc:    f7ffff5b    ..[.    BL       TIMER_GetIntFlag ; 0x4786
        0x000048d0:    b120         .      CBZ      r0,0x48dc ; TMR0_IRQHandler + 20
        0x000048d2:    e7ff        ..      B        0x48d4 ; TMR0_IRQHandler + 12
        0x000048d4:    4802        .H      LDR      r0,[pc,#8] ; [0x48e0] = 0x40050000
        0x000048d6:    f7ffff45    ..E.    BL       TIMER_ClearIntFlag ; 0x4764
        0x000048da:    e7ff        ..      B        0x48dc ; TMR0_IRQHandler + 20
        0x000048dc:    bd80        ..      POP      {r7,pc}
        0x000048de:    46c0        .F      MOV      r8,r8
    $d.13
    __arm_cp.6_0
        0x000048e0:    40050000    ...@    DCD    1074069504
    $t.16
    TMR1_IRQHandler
        0x000048e4:    b580        ..      PUSH     {r7,lr}
        0x000048e6:    4805        .H      LDR      r0,[pc,#20] ; [0x48fc] = 0x40050100
        0x000048e8:    f7ffff4d    ..M.    BL       TIMER_GetIntFlag ; 0x4786
        0x000048ec:    b120         .      CBZ      r0,0x48f8 ; TMR1_IRQHandler + 20
        0x000048ee:    e7ff        ..      B        0x48f0 ; TMR1_IRQHandler + 12
        0x000048f0:    4802        .H      LDR      r0,[pc,#8] ; [0x48fc] = 0x40050100
        0x000048f2:    f7ffff37    ..7.    BL       TIMER_ClearIntFlag ; 0x4764
        0x000048f6:    e7ff        ..      B        0x48f8 ; TMR1_IRQHandler + 20
        0x000048f8:    bd80        ..      POP      {r7,pc}
        0x000048fa:    46c0        .F      MOV      r8,r8
    $d.17
    __arm_cp.9_0
        0x000048fc:    40050100    ...@    DCD    1074069760
    $t.15
    UART2_Init
        0x00004900:    b580        ..      PUSH     {r7,lr}
        0x00004902:    20e1        .       MOVS     r0,#0xe1
        0x00004904:    0241        A.      LSLS     r1,r0,#9
        0x00004906:    4869        iH      LDR      r0,[pc,#420] ; [0x4aac] = 0x40072000
        0x00004908:    f000f80a    ....    BL       UART_Open ; 0x4920
        0x0000490c:    4903        .I      LDR      r1,[pc,#12] ; [0x491c] = 0x40072008
        0x0000490e:    6808        .h      LDR      r0,[r1,#0]
        0x00004910:    22f0        ."      MOVS     r2,#0xf0
        0x00004912:    4390        .C      BICS     r0,r0,r2
        0x00004914:    6008        .`      STR      r0,[r1,#0]
        0x00004916:    bd80        ..      POP      {r7,pc}
    $d.16
    __arm_cp.8_0
        0x00004918:    40072000    . .@    DCD    1074208768
    __arm_cp.8_1
        0x0000491c:    40072008    . .@    DCD    1074208776
    $t.7
    UART_Open
        0x00004920:    b510        ..      PUSH     {r4,lr}
        0x00004922:    b08c        ..      SUB      sp,sp,#0x30
        0x00004924:    900b        ..      STR      r0,[sp,#0x2c]
        0x00004926:    910a        ..      STR      r1,[sp,#0x28]
        0x00004928:    2000        .       MOVS     r0,#0
        0x0000492a:    9009        ..      STR      r0,[sp,#0x24]
        0x0000492c:    9008        ..      STR      r0,[sp,#0x20]
        0x0000492e:    495c        \I      LDR      r1,[pc,#368] ; [0x4aa0] = 0x75e8
        0x00004930:    a802        ..      ADD      r0,sp,#8
        0x00004932:    c91c        ..      LDM      r1!,{r2-r4}
        0x00004934:    c01c        ..      STM      r0!,{r2-r4}
        0x00004936:    c91c        ..      LDM      r1!,{r2-r4}
        0x00004938:    c01c        ..      STM      r0!,{r2-r4}
        0x0000493a:    980b        ..      LDR      r0,[sp,#0x2c]
        0x0000493c:    4959        YI      LDR      r1,[pc,#356] ; [0x4aa4] = 0x40070000
        0x0000493e:    4288        .B      CMP      r0,r1
        0x00004940:    d10f        ..      BNE      0x4962 ; UART_Open + 66
        0x00004942:    e7ff        ..      B        0x4944 ; UART_Open + 36
        0x00004944:    485d        ]H      LDR      r0,[pc,#372] ; [0x4abc] = 0x40000214
        0x00004946:    6800        .h      LDR      r0,[r0,#0]
        0x00004948:    2107        .!      MOVS     r1,#7
        0x0000494a:    0609        ..      LSLS     r1,r1,#24
        0x0000494c:    4008        .@      ANDS     r0,r0,r1
        0x0000494e:    0e00        ..      LSRS     r0,r0,#24
        0x00004950:    9009        ..      STR      r0,[sp,#0x24]
        0x00004952:    485b        [H      LDR      r0,[pc,#364] ; [0x4ac0] = 0x40000220
        0x00004954:    6800        .h      LDR      r0,[r0,#0]
        0x00004956:    f6407100    @..q    MOVW     r1,#0xf00
        0x0000495a:    4008        .@      ANDS     r0,r0,r1
        0x0000495c:    0a00        ..      LSRS     r0,r0,#8
        0x0000495e:    9008        ..      STR      r0,[sp,#0x20]
        0x00004960:    e038        8.      B        0x49d4 ; UART_Open + 180
        0x00004962:    980b        ..      LDR      r0,[sp,#0x2c]
        0x00004964:    4950        PI      LDR      r1,[pc,#320] ; [0x4aa8] = 0x40071000
        0x00004966:    4288        .B      CMP      r0,r1
        0x00004968:    d10d        ..      BNE      0x4986 ; UART_Open + 102
        0x0000496a:    e7ff        ..      B        0x496c ; UART_Open + 76
        0x0000496c:    4853        SH      LDR      r0,[pc,#332] ; [0x4abc] = 0x40000214
        0x0000496e:    6800        .h      LDR      r0,[r0,#0]
        0x00004970:    2107        .!      MOVS     r1,#7
        0x00004972:    0709        ..      LSLS     r1,r1,#28
        0x00004974:    4008        .@      ANDS     r0,r0,r1
        0x00004976:    0f00        ..      LSRS     r0,r0,#28
        0x00004978:    9009        ..      STR      r0,[sp,#0x24]
        0x0000497a:    4851        QH      LDR      r0,[pc,#324] ; [0x4ac0] = 0x40000220
        0x0000497c:    6800        .h      LDR      r0,[r0,#0]
        0x0000497e:    b280        ..      UXTH     r0,r0
        0x00004980:    0b00        ..      LSRS     r0,r0,#12
        0x00004982:    9008        ..      STR      r0,[sp,#0x20]
        0x00004984:    e025        %.      B        0x49d2 ; UART_Open + 178
        0x00004986:    980b        ..      LDR      r0,[sp,#0x2c]
        0x00004988:    4948        HI      LDR      r1,[pc,#288] ; [0x4aac] = 0x40072000
        0x0000498a:    4288        .B      CMP      r0,r1
        0x0000498c:    d10d        ..      BNE      0x49aa ; UART_Open + 138
        0x0000498e:    e7ff        ..      B        0x4990 ; UART_Open + 112
        0x00004990:    4848        HH      LDR      r0,[pc,#288] ; [0x4ab4] = 0x4000021c
        0x00004992:    6800        .h      LDR      r0,[r0,#0]
        0x00004994:    2107        .!      MOVS     r1,#7
        0x00004996:    0609        ..      LSLS     r1,r1,#24
        0x00004998:    4008        .@      ANDS     r0,r0,r1
        0x0000499a:    0e00        ..      LSRS     r0,r0,#24
        0x0000499c:    9009        ..      STR      r0,[sp,#0x24]
        0x0000499e:    4846        FH      LDR      r0,[pc,#280] ; [0x4ab8] = 0x40000230
        0x000049a0:    6800        .h      LDR      r0,[r0,#0]
        0x000049a2:    210f        .!      MOVS     r1,#0xf
        0x000049a4:    4008        .@      ANDS     r0,r0,r1
        0x000049a6:    9008        ..      STR      r0,[sp,#0x20]
        0x000049a8:    e012        ..      B        0x49d0 ; UART_Open + 176
        0x000049aa:    980b        ..      LDR      r0,[sp,#0x2c]
        0x000049ac:    4940        @I      LDR      r1,[pc,#256] ; [0x4ab0] = 0x40073000
        0x000049ae:    4288        .B      CMP      r0,r1
        0x000049b0:    d10d        ..      BNE      0x49ce ; UART_Open + 174
        0x000049b2:    e7ff        ..      B        0x49b4 ; UART_Open + 148
        0x000049b4:    483f        ?H      LDR      r0,[pc,#252] ; [0x4ab4] = 0x4000021c
        0x000049b6:    6800        .h      LDR      r0,[r0,#0]
        0x000049b8:    2107        .!      MOVS     r1,#7
        0x000049ba:    0709        ..      LSLS     r1,r1,#28
        0x000049bc:    4008        .@      ANDS     r0,r0,r1
        0x000049be:    0f00        ..      LSRS     r0,r0,#28
        0x000049c0:    9009        ..      STR      r0,[sp,#0x24]
        0x000049c2:    483d        =H      LDR      r0,[pc,#244] ; [0x4ab8] = 0x40000230
        0x000049c4:    6800        .h      LDR      r0,[r0,#0]
        0x000049c6:    b2c0        ..      UXTB     r0,r0
        0x000049c8:    0900        ..      LSRS     r0,r0,#4
        0x000049ca:    9008        ..      STR      r0,[sp,#0x20]
        0x000049cc:    e7ff        ..      B        0x49ce ; UART_Open + 174
        0x000049ce:    e7ff        ..      B        0x49d0 ; UART_Open + 176
        0x000049d0:    e7ff        ..      B        0x49d2 ; UART_Open + 178
        0x000049d2:    e7ff        ..      B        0x49d4 ; UART_Open + 180
        0x000049d4:    990b        ..      LDR      r1,[sp,#0x2c]
        0x000049d6:    2000        .       MOVS     r0,#0
        0x000049d8:    6308        .c      STR      r0,[r1,#0x30]
        0x000049da:    990b        ..      LDR      r1,[sp,#0x2c]
        0x000049dc:    2003        .       MOVS     r0,#3
        0x000049de:    60c8        .`      STR      r0,[r1,#0xc]
        0x000049e0:    990b        ..      LDR      r1,[sp,#0x2c]
        0x000049e2:    6888        .h      LDR      r0,[r1,#8]
        0x000049e4:    4a37        7J      LDR      r2,[pc,#220] ; [0x4ac4] = 0xfff0ff0f
        0x000049e6:    4010        .@      ANDS     r0,r0,r2
        0x000049e8:    6088        .`      STR      r0,[r1,#8]
        0x000049ea:    9809        ..      LDR      r0,[sp,#0x24]
        0x000049ec:    2801        .(      CMP      r0,#1
        0x000049ee:    d107        ..      BNE      0x4a00 ; UART_Open + 224
        0x000049f0:    e7ff        ..      B        0x49f2 ; UART_Open + 210
        0x000049f2:    f7fdfdef    ....    BL       CLK_GetPLLClockFreq ; 0x25d4
        0x000049f6:    9909        ..      LDR      r1,[sp,#0x24]
        0x000049f8:    008a        ..      LSLS     r2,r1,#2
        0x000049fa:    a902        ..      ADD      r1,sp,#8
        0x000049fc:    5088        .P      STR      r0,[r1,r2]
        0x000049fe:    e7ff        ..      B        0x4a00 ; UART_Open + 224
        0x00004a00:    9809        ..      LDR      r0,[sp,#0x24]
        0x00004a02:    2804        .(      CMP      r0,#4
        0x00004a04:    d119        ..      BNE      0x4a3a ; UART_Open + 282
        0x00004a06:    e7ff        ..      B        0x4a08 ; UART_Open + 232
        0x00004a08:    980b        ..      LDR      r0,[sp,#0x2c]
        0x00004a0a:    4926        &I      LDR      r1,[pc,#152] ; [0x4aa4] = 0x40070000
        0x00004a0c:    4288        .B      CMP      r0,r1
        0x00004a0e:    d005        ..      BEQ      0x4a1c ; UART_Open + 252
        0x00004a10:    e7ff        ..      B        0x4a12 ; UART_Open + 242
        0x00004a12:    980b        ..      LDR      r0,[sp,#0x2c]
        0x00004a14:    4925        %I      LDR      r1,[pc,#148] ; [0x4aac] = 0x40072000
        0x00004a16:    4288        .B      CMP      r0,r1
        0x00004a18:    d107        ..      BNE      0x4a2a ; UART_Open + 266
        0x00004a1a:    e7ff        ..      B        0x4a1c ; UART_Open + 252
        0x00004a1c:    f7fdfd54    ..T.    BL       CLK_GetPCLK0Freq ; 0x24c8
        0x00004a20:    9909        ..      LDR      r1,[sp,#0x24]
        0x00004a22:    008a        ..      LSLS     r2,r1,#2
        0x00004a24:    a902        ..      ADD      r1,sp,#8
        0x00004a26:    5088        .P      STR      r0,[r1,r2]
        0x00004a28:    e006        ..      B        0x4a38 ; UART_Open + 280
        0x00004a2a:    f7fdfd8d    ....    BL       CLK_GetPCLK1Freq ; 0x2548
        0x00004a2e:    9909        ..      LDR      r1,[sp,#0x24]
        0x00004a30:    008a        ..      LSLS     r2,r1,#2
        0x00004a32:    a902        ..      ADD      r1,sp,#8
        0x00004a34:    5088        .P      STR      r0,[r1,r2]
        0x00004a36:    e7ff        ..      B        0x4a38 ; UART_Open + 280
        0x00004a38:    e7ff        ..      B        0x4a3a ; UART_Open + 282
        0x00004a3a:    980a        ..      LDR      r0,[sp,#0x28]
        0x00004a3c:    b368        h.      CBZ      r0,0x4a9a ; UART_Open + 378
        0x00004a3e:    e7ff        ..      B        0x4a40 ; UART_Open + 288
        0x00004a40:    9809        ..      LDR      r0,[sp,#0x24]
        0x00004a42:    0081        ..      LSLS     r1,r0,#2
        0x00004a44:    a802        ..      ADD      r0,sp,#8
        0x00004a46:    5840        @X      LDR      r0,[r0,r1]
        0x00004a48:    9908        ..      LDR      r1,[sp,#0x20]
        0x00004a4a:    1c49        I.      ADDS     r1,r1,#1
        0x00004a4c:    fbb0f0f1    ....    UDIV     r0,r0,r1
        0x00004a50:    990a        ..      LDR      r1,[sp,#0x28]
        0x00004a52:    084a        J.      LSRS     r2,r1,#1
        0x00004a54:    1880        ..      ADDS     r0,r0,r2
        0x00004a56:    fbb0f0f1    ....    UDIV     r0,r0,r1
        0x00004a5a:    1e80        ..      SUBS     r0,r0,#2
        0x00004a5c:    9001        ..      STR      r0,[sp,#4]
        0x00004a5e:    a801        ..      ADD      r0,sp,#4
        0x00004a60:    8840        @.      LDRH     r0,[r0,#2]
        0x00004a62:    b190        ..      CBZ      r0,0x4a8a ; UART_Open + 362
        0x00004a64:    e7ff        ..      B        0x4a66 ; UART_Open + 326
        0x00004a66:    9809        ..      LDR      r0,[sp,#0x24]
        0x00004a68:    0081        ..      LSLS     r1,r0,#2
        0x00004a6a:    a802        ..      ADD      r0,sp,#8
        0x00004a6c:    5840        @X      LDR      r0,[r0,r1]
        0x00004a6e:    9908        ..      LDR      r1,[sp,#0x20]
        0x00004a70:    1c49        I.      ADDS     r1,r1,#1
        0x00004a72:    fbb0f0f1    ....    UDIV     r0,r0,r1
        0x00004a76:    990a        ..      LDR      r1,[sp,#0x28]
        0x00004a78:    00ca        ..      LSLS     r2,r1,#3
        0x00004a7a:    1880        ..      ADDS     r0,r0,r2
        0x00004a7c:    fbb0f0f1    ....    UDIV     r0,r0,r1
        0x00004a80:    0900        ..      LSRS     r0,r0,#4
        0x00004a82:    1e80        ..      SUBS     r0,r0,#2
        0x00004a84:    990b        ..      LDR      r1,[sp,#0x2c]
        0x00004a86:    6248        Hb      STR      r0,[r1,#0x24]
        0x00004a88:    e006        ..      B        0x4a98 ; UART_Open + 376
        0x00004a8a:    9801        ..      LDR      r0,[sp,#4]
        0x00004a8c:    2103        .!      MOVS     r1,#3
        0x00004a8e:    0709        ..      LSLS     r1,r1,#28
        0x00004a90:    4308        .C      ORRS     r0,r0,r1
        0x00004a92:    990b        ..      LDR      r1,[sp,#0x2c]
        0x00004a94:    6248        Hb      STR      r0,[r1,#0x24]
        0x00004a96:    e7ff        ..      B        0x4a98 ; UART_Open + 376
        0x00004a98:    e7ff        ..      B        0x4a9a ; UART_Open + 378
        0x00004a9a:    b00c        ..      ADD      sp,sp,#0x30
        0x00004a9c:    bd10        ..      POP      {r4,pc}
        0x00004a9e:    46c0        .F      MOV      r8,r8
    $d.8
    __arm_cp.6_0
        0x00004aa0:    000075e8    .u..    DCD    30184
    __arm_cp.6_1
        0x00004aa4:    40070000    ...@    DCD    1074200576
    __arm_cp.6_2
        0x00004aa8:    40071000    ...@    DCD    1074204672
    __arm_cp.6_3
        0x00004aac:    40072000    . .@    DCD    1074208768
    __arm_cp.6_4
        0x00004ab0:    40073000    .0.@    DCD    1074212864
    __arm_cp.6_5
        0x00004ab4:    4000021c    ...@    DCD    1073742364
    __arm_cp.6_6
        0x00004ab8:    40000230    0..@    DCD    1073742384
    __arm_cp.6_7
        0x00004abc:    40000214    ...@    DCD    1073742356
    __arm_cp.6_8
        0x00004ac0:    40000220     ..@    DCD    1073742368
    __arm_cp.6_9
        0x00004ac4:    fff0ff0f    ....    DCD    4293984015
    $t.5
    Up
        0x00004ac8:    b580        ..      PUSH     {r7,lr}
        0x00004aca:    b082        ..      SUB      sp,sp,#8
        0x00004acc:    9001        ..      STR      r0,[sp,#4]
        0x00004ace:    9801        ..      LDR      r0,[sp,#4]
        0x00004ad0:    6800        .h      LDR      r0,[r0,#0]
        0x00004ad2:    68c0        .h      LDR      r0,[r0,#0xc]
        0x00004ad4:    b148        H.      CBZ      r0,0x4aea ; Up + 34
        0x00004ad6:    e7ff        ..      B        0x4ad8 ; Up + 16
        0x00004ad8:    9901        ..      LDR      r1,[sp,#4]
        0x00004ada:    6808        .h      LDR      r0,[r1,#0]
        0x00004adc:    68c0        .h      LDR      r0,[r0,#0xc]
        0x00004ade:    6008        .`      STR      r0,[r1,#0]
        0x00004ae0:    9801        ..      LDR      r0,[sp,#4]
        0x00004ae2:    6800        .h      LDR      r0,[r0,#0]
        0x00004ae4:    6800        .h      LDR      r0,[r0,#0]
        0x00004ae6:    4780        .G      BLX      r0
        0x00004ae8:    e7ff        ..      B        0x4aea ; Up + 34
        0x00004aea:    b002        ..      ADD      sp,sp,#8
        0x00004aec:    bd80        ..      POP      {r7,pc}
        0x00004aee:    0000        ..      MOVS     r0,r0
    WDT_EnableInt
        0x00004af0:    4930        0I      LDR      r1,[pc,#192] ; [0x4bb4] = 0x40040000
        0x00004af2:    6808        .h      LDR      r0,[r1,#0]
        0x00004af4:    2240        @"      MOVS     r2,#0x40
        0x00004af6:    4310        .C      ORRS     r0,r0,r2
        0x00004af8:    6008        .`      STR      r0,[r1,#0]
        0x00004afa:    4770        pG      BX       lr
    WDT_IRQHandler
        0x00004afc:    b580        ..      PUSH     {r7,lr}
        0x00004afe:    482d        -H      LDR      r0,[pc,#180] ; [0x4bb4] = 0x40040000
        0x00004b00:    6800        .h      LDR      r0,[r0,#0]
        0x00004b02:    0700        ..      LSLS     r0,r0,#28
        0x00004b04:    2800        .(      CMP      r0,#0
        0x00004b06:    d503        ..      BPL      0x4b10 ; WDT_IRQHandler + 20
        0x00004b08:    e7ff        ..      B        0x4b0a ; WDT_IRQHandler + 14
        0x00004b0a:    2001        .       MOVS     r0,#1
        0x00004b0c:    b918        ..      CBNZ     r0,0x4b16 ; WDT_IRQHandler + 26
        0x00004b0e:    e00c        ..      B        0x4b2a ; WDT_IRQHandler + 46
        0x00004b10:    2001        .       MOVS     r0,#1
        0x00004b12:    b950        P.      CBNZ     r0,0x4b2a ; WDT_IRQHandler + 46
        0x00004b14:    e7ff        ..      B        0x4b16 ; WDT_IRQHandler + 26
        0x00004b16:    f001ffff    ....    BL       wdt_tickCounter ; 0x6b18
        0x00004b1a:    4926        &I      LDR      r1,[pc,#152] ; [0x4bb4] = 0x40040000
        0x00004b1c:    6808        .h      LDR      r0,[r1,#0]
        0x00004b1e:    2208        ."      MOVS     r2,#8
        0x00004b20:    4310        .C      ORRS     r0,r0,r2
        0x00004b22:    2224        $"      MOVS     r2,#0x24
        0x00004b24:    4390        .C      BICS     r0,r0,r2
        0x00004b26:    6008        .`      STR      r0,[r1,#0]
        0x00004b28:    e7ff        ..      B        0x4b2a ; WDT_IRQHandler + 46
        0x00004b2a:    4822        "H      LDR      r0,[pc,#136] ; [0x4bb4] = 0x40040000
        0x00004b2c:    6800        .h      LDR      r0,[r0,#0]
        0x00004b2e:    0680        ..      LSLS     r0,r0,#26
        0x00004b30:    2800        .(      CMP      r0,#0
        0x00004b32:    d503        ..      BPL      0x4b3c ; WDT_IRQHandler + 64
        0x00004b34:    e7ff        ..      B        0x4b36 ; WDT_IRQHandler + 58
        0x00004b36:    2001        .       MOVS     r0,#1
        0x00004b38:    b918        ..      CBNZ     r0,0x4b42 ; WDT_IRQHandler + 70
        0x00004b3a:    e00a        ..      B        0x4b52 ; WDT_IRQHandler + 86
        0x00004b3c:    2001        .       MOVS     r0,#1
        0x00004b3e:    b940        @.      CBNZ     r0,0x4b52 ; WDT_IRQHandler + 86
        0x00004b40:    e7ff        ..      B        0x4b42 ; WDT_IRQHandler + 70
        0x00004b42:    491c        .I      LDR      r1,[pc,#112] ; [0x4bb4] = 0x40040000
        0x00004b44:    6808        .h      LDR      r0,[r1,#0]
        0x00004b46:    2220         "      MOVS     r2,#0x20
        0x00004b48:    4310        .C      ORRS     r0,r0,r2
        0x00004b4a:    220c        ."      MOVS     r2,#0xc
        0x00004b4c:    4390        .C      BICS     r0,r0,r2
        0x00004b4e:    6008        .`      STR      r0,[r1,#0]
        0x00004b50:    e7ff        ..      B        0x4b52 ; WDT_IRQHandler + 86
        0x00004b52:    4902        .I      LDR      r1,[pc,#8] ; [0x4b5c] = 0x40040008
        0x00004b54:    4802        .H      LDR      r0,[pc,#8] ; [0x4b60] = 0x5aa5
        0x00004b56:    6008        .`      STR      r0,[r1,#0]
        0x00004b58:    bd80        ..      POP      {r7,pc}
        0x00004b5a:    46c0        .F      MOV      r8,r8
    $d.19
    __arm_cp.10_1
        0x00004b5c:    40040008    ...@    DCD    1074003976
    __arm_cp.10_2
        0x00004b60:    00005aa5    .Z..    DCD    23205
    $t.17
    WDT_Init
        0x00004b64:    b580        ..      PUSH     {r7,lr}
        0x00004b66:    f7fffca5    ....    BL       SYS_UnlockReg ; 0x44b4
        0x00004b6a:    2103        .!      MOVS     r1,#3
        0x00004b6c:    2300        .#      MOVS     r3,#0
        0x00004b6e:    4618        .F      MOV      r0,r3
        0x00004b70:    461a        .F      MOV      r2,r3
        0x00004b72:    f000f807    ....    BL       WDT_Open ; 0x4b84
        0x00004b76:    f7ffffbb    ....    BL       WDT_EnableInt ; 0x4af0
        0x00004b7a:    2008        .       MOVS     r0,#8
        0x00004b7c:    f000f81c    ....    BL       __NVIC_EnableIRQ ; 0x4bb8
        0x00004b80:    bd80        ..      POP      {r7,pc}
        0x00004b82:    0000        ..      MOVS     r0,r0
    WDT_Open
        0x00004b84:    b084        ..      SUB      sp,sp,#0x10
        0x00004b86:    9003        ..      STR      r0,[sp,#0xc]
        0x00004b88:    9102        ..      STR      r1,[sp,#8]
        0x00004b8a:    9201        ..      STR      r2,[sp,#4]
        0x00004b8c:    9300        ..      STR      r3,[sp,#0]
        0x00004b8e:    9802        ..      LDR      r0,[sp,#8]
        0x00004b90:    4907        .I      LDR      r1,[pc,#28] ; [0x4bb0] = 0x40040004
        0x00004b92:    6008        .`      STR      r0,[r1,#0]
        0x00004b94:    9803        ..      LDR      r0,[sp,#0xc]
        0x00004b96:    9901        ..      LDR      r1,[sp,#4]
        0x00004b98:    0049        I.      LSLS     r1,r1,#1
        0x00004b9a:    4308        .C      ORRS     r0,r0,r1
        0x00004b9c:    9900        ..      LDR      r1,[sp,#0]
        0x00004b9e:    0109        ..      LSLS     r1,r1,#4
        0x00004ba0:    4308        .C      ORRS     r0,r0,r1
        0x00004ba2:    2180        .!      MOVS     r1,#0x80
        0x00004ba4:    4308        .C      ORRS     r0,r0,r1
        0x00004ba6:    4903        .I      LDR      r1,[pc,#12] ; [0x4bb4] = 0x40040000
        0x00004ba8:    6008        .`      STR      r0,[r1,#0]
        0x00004baa:    b004        ..      ADD      sp,sp,#0x10
        0x00004bac:    4770        pG      BX       lr
        0x00004bae:    46c0        .F      MOV      r8,r8
    $d.1
    __arm_cp.0_0
        0x00004bb0:    40040004    ...@    DCD    1074003972
    __arm_cp.0_1
        0x00004bb4:    40040000    ...@    DCD    1074003968
    $t.4
    __NVIC_EnableIRQ
        0x00004bb8:    b081        ..      SUB      sp,sp,#4
        0x00004bba:    4601        .F      MOV      r1,r0
        0x00004bbc:    4668        hF      MOV      r0,sp
        0x00004bbe:    7001        .p      STRB     r1,[r0,#0]
        0x00004bc0:    2100        .!      MOVS     r1,#0
        0x00004bc2:    5640        @V      LDRSB    r0,[r0,r1]
        0x00004bc4:    2800        .(      CMP      r0,#0
        0x00004bc6:    d40d        ..      BMI      0x4be4 ; __NVIC_EnableIRQ + 44
        0x00004bc8:    e7ff        ..      B        0x4bca ; __NVIC_EnableIRQ + 18
        0x00004bca:    2100        .!      MOVS     r1,#0
        0x00004bcc:    4668        hF      MOV      r0,sp
        0x00004bce:    5641        AV      LDRSB    r1,[r0,r1]
        0x00004bd0:    201f        .       MOVS     r0,#0x1f
        0x00004bd2:    460a        .F      MOV      r2,r1
        0x00004bd4:    4002        .@      ANDS     r2,r2,r0
        0x00004bd6:    2001        .       MOVS     r0,#1
        0x00004bd8:    4090        .@      LSLS     r0,r0,r2
        0x00004bda:    0949        I.      LSRS     r1,r1,#5
        0x00004bdc:    0089        ..      LSLS     r1,r1,#2
        0x00004bde:    4a02        .J      LDR      r2,[pc,#8] ; [0x4be8] = 0xe000e100
        0x00004be0:    5088        .P      STR      r0,[r1,r2]
        0x00004be2:    e7ff        ..      B        0x4be4 ; __NVIC_EnableIRQ + 44
        0x00004be4:    b001        ..      ADD      sp,sp,#4
        0x00004be6:    4770        pG      BX       lr
    $d.5
    __arm_cp.2_0
        0x00004be8:    e000e100    ....    DCD    3758153984
    $t.25
    _pow
        0x00004bec:    b084        ..      SUB      sp,sp,#0x10
        0x00004bee:    9003        ..      STR      r0,[sp,#0xc]
        0x00004bf0:    9102        ..      STR      r1,[sp,#8]
        0x00004bf2:    2001        .       MOVS     r0,#1
        0x00004bf4:    9001        ..      STR      r0,[sp,#4]
        0x00004bf6:    2000        .       MOVS     r0,#0
        0x00004bf8:    9000        ..      STR      r0,[sp,#0]
        0x00004bfa:    e7ff        ..      B        0x4bfc ; _pow + 16
        0x00004bfc:    9800        ..      LDR      r0,[sp,#0]
        0x00004bfe:    9902        ..      LDR      r1,[sp,#8]
        0x00004c00:    4288        .B      CMP      r0,r1
        0x00004c02:    d209        ..      BCS      0x4c18 ; _pow + 44
        0x00004c04:    e7ff        ..      B        0x4c06 ; _pow + 26
        0x00004c06:    9803        ..      LDR      r0,[sp,#0xc]
        0x00004c08:    9901        ..      LDR      r1,[sp,#4]
        0x00004c0a:    4348        HC      MULS     r0,r1,r0
        0x00004c0c:    9001        ..      STR      r0,[sp,#4]
        0x00004c0e:    e7ff        ..      B        0x4c10 ; _pow + 36
        0x00004c10:    9800        ..      LDR      r0,[sp,#0]
        0x00004c12:    1c40        @.      ADDS     r0,r0,#1
        0x00004c14:    9000        ..      STR      r0,[sp,#0]
        0x00004c16:    e7f1        ..      B        0x4bfc ; _pow + 16
        0x00004c18:    9801        ..      LDR      r0,[sp,#4]
        0x00004c1a:    b004        ..      ADD      sp,sp,#0x10
        0x00004c1c:    4770        pG      BX       lr
    build
        0x00004c1e:    b510        ..      PUSH     {r4,lr}
        0x00004c20:    b084        ..      SUB      sp,sp,#0x10
        0x00004c22:    9c07        ..      LDR      r4,[sp,#0x1c]
        0x00004c24:    9c06        ..      LDR      r4,[sp,#0x18]
        0x00004c26:    9003        ..      STR      r0,[sp,#0xc]
        0x00004c28:    9102        ..      STR      r1,[sp,#8]
        0x00004c2a:    9201        ..      STR      r2,[sp,#4]
        0x00004c2c:    9300        ..      STR      r3,[sp,#0]
        0x00004c2e:    9801        ..      LDR      r0,[sp,#4]
        0x00004c30:    9903        ..      LDR      r1,[sp,#0xc]
        0x00004c32:    6048        H`      STR      r0,[r1,#4]
        0x00004c34:    9800        ..      LDR      r0,[sp,#0]
        0x00004c36:    9903        ..      LDR      r1,[sp,#0xc]
        0x00004c38:    6088        .`      STR      r0,[r1,#8]
        0x00004c3a:    9806        ..      LDR      r0,[sp,#0x18]
        0x00004c3c:    9903        ..      LDR      r1,[sp,#0xc]
        0x00004c3e:    60c8        .`      STR      r0,[r1,#0xc]
        0x00004c40:    9807        ..      LDR      r0,[sp,#0x1c]
        0x00004c42:    9903        ..      LDR      r1,[sp,#0xc]
        0x00004c44:    6108        .a      STR      r0,[r1,#0x10]
        0x00004c46:    9802        ..      LDR      r0,[sp,#8]
        0x00004c48:    9903        ..      LDR      r1,[sp,#0xc]
        0x00004c4a:    6008        .`      STR      r0,[r1,#0]
        0x00004c4c:    b004        ..      ADD      sp,sp,#0x10
        0x00004c4e:    bd10        ..      POP      {r4,pc}
    customValueInput
        0x00004c50:    b510        ..      PUSH     {r4,lr}
        0x00004c52:    b08a        ..      SUB      sp,sp,#0x28
        0x00004c54:    4602        .F      MOV      r2,r0
        0x00004c56:    a809        ..      ADD      r0,sp,#0x24
        0x00004c58:    7002        .p      STRB     r2,[r0,#0]
        0x00004c5a:    9108        ..      STR      r1,[sp,#0x20]
        0x00004c5c:    aa06        ..      ADD      r2,sp,#0x18
        0x00004c5e:    2100        .!      MOVS     r1,#0
        0x00004c60:    7191        .q      STRB     r1,[r2,#6]
        0x00004c62:    8091        ..      STRH     r1,[r2,#4]
        0x00004c64:    9106        ..      STR      r1,[sp,#0x18]
        0x00004c66:    7800        .x      LDRB     r0,[r0,#0]
        0x00004c68:    382e        .8      SUBS     r0,r0,#0x2e
        0x00004c6a:    9004        ..      STR      r0,[sp,#0x10]
        0x00004c6c:    284c        L(      CMP      r0,#0x4c
        0x00004c6e:    d900        ..      BLS      0x4c72 ; customValueInput + 34
        0x00004c70:    e0da        ..      B        0x4e28 ; customValueInput + 472
        0x00004c72:    9904        ..      LDR      r1,[sp,#0x10]
        0x00004c74:    008a        ..      LSLS     r2,r1,#2
        0x00004c76:    a001        ..      ADR      r0,{pc}+6 ; 0x4c7c
        0x00004c78:    1880        ..      ADDS     r0,r0,r2
        0x00004c7a:    4687        .F      MOV      pc,r0
        0x00004c7c:    f000b8b9    ....    B.W      0x4df2 ; customValueInput + 418
        0x00004c80:    f000b8d2    ....    B.W      0x4e28 ; customValueInput + 472
        0x00004c84:    f000b8d0    ....    B.W      0x4e28 ; customValueInput + 472
        0x00004c88:    f000b8ce    ....    B.W      0x4e28 ; customValueInput + 472
        0x00004c8c:    f000b8cc    ....    B.W      0x4e28 ; customValueInput + 472
        0x00004c90:    f000b8ca    ....    B.W      0x4e28 ; customValueInput + 472
        0x00004c94:    f000b8c8    ....    B.W      0x4e28 ; customValueInput + 472
        0x00004c98:    f000b8c6    ....    B.W      0x4e28 ; customValueInput + 472
        0x00004c9c:    f000b8c4    ....    B.W      0x4e28 ; customValueInput + 472
        0x00004ca0:    f000b8c2    ....    B.W      0x4e28 ; customValueInput + 472
        0x00004ca4:    f000b8c0    ....    B.W      0x4e28 ; customValueInput + 472
        0x00004ca8:    f000b8be    ....    B.W      0x4e28 ; customValueInput + 472
        0x00004cac:    f000b8bc    ....    B.W      0x4e28 ; customValueInput + 472
        0x00004cb0:    f000b8ba    ....    B.W      0x4e28 ; customValueInput + 472
        0x00004cb4:    f000b8b8    ....    B.W      0x4e28 ; customValueInput + 472
        0x00004cb8:    f000b8b6    ....    B.W      0x4e28 ; customValueInput + 472
        0x00004cbc:    f000b8b4    ....    B.W      0x4e28 ; customValueInput + 472
        0x00004cc0:    f000b8b2    ....    B.W      0x4e28 ; customValueInput + 472
        0x00004cc4:    f000b8b0    ....    B.W      0x4e28 ; customValueInput + 472
        0x00004cc8:    f000b8ae    ....    B.W      0x4e28 ; customValueInput + 472
        0x00004ccc:    f000b8ac    ....    B.W      0x4e28 ; customValueInput + 472
        0x00004cd0:    f000b88e    ....    B.W      0x4df0 ; customValueInput + 416
        0x00004cd4:    f000b8a8    ....    B.W      0x4e28 ; customValueInput + 472
        0x00004cd8:    f000b8a6    ....    B.W      0x4e28 ; customValueInput + 472
        0x00004cdc:    f000b8a4    ....    B.W      0x4e28 ; customValueInput + 472
        0x00004ce0:    f000b8a2    ....    B.W      0x4e28 ; customValueInput + 472
        0x00004ce4:    f000b8a0    ....    B.W      0x4e28 ; customValueInput + 472
        0x00004ce8:    f000b89e    ....    B.W      0x4e28 ; customValueInput + 472
        0x00004cec:    f000b89c    ....    B.W      0x4e28 ; customValueInput + 472
        0x00004cf0:    f000b89a    ....    B.W      0x4e28 ; customValueInput + 472
        0x00004cf4:    f000b898    ....    B.W      0x4e28 ; customValueInput + 472
        0x00004cf8:    f000b896    ....    B.W      0x4e28 ; customValueInput + 472
        0x00004cfc:    f000b894    ....    B.W      0x4e28 ; customValueInput + 472
        0x00004d00:    f000b892    ....    B.W      0x4e28 ; customValueInput + 472
        0x00004d04:    f000b890    ....    B.W      0x4e28 ; customValueInput + 472
        0x00004d08:    f000b88e    ....    B.W      0x4e28 ; customValueInput + 472
        0x00004d0c:    f000b88c    ....    B.W      0x4e28 ; customValueInput + 472
        0x00004d10:    f000b88a    ....    B.W      0x4e28 ; customValueInput + 472
        0x00004d14:    f000b888    ....    B.W      0x4e28 ; customValueInput + 472
        0x00004d18:    f000b886    ....    B.W      0x4e28 ; customValueInput + 472
        0x00004d1c:    f000b884    ....    B.W      0x4e28 ; customValueInput + 472
        0x00004d20:    f000b882    ....    B.W      0x4e28 ; customValueInput + 472
        0x00004d24:    f000b880    ....    B.W      0x4e28 ; customValueInput + 472
        0x00004d28:    f000b87e    ..~.    B.W      0x4e28 ; customValueInput + 472
        0x00004d2c:    f000b87c    ..|.    B.W      0x4e28 ; customValueInput + 472
        0x00004d30:    f000b87a    ..z.    B.W      0x4e28 ; customValueInput + 472
        0x00004d34:    f000b878    ..x.    B.W      0x4e28 ; customValueInput + 472
        0x00004d38:    f000b876    ..v.    B.W      0x4e28 ; customValueInput + 472
        0x00004d3c:    f000b874    ..t.    B.W      0x4e28 ; customValueInput + 472
        0x00004d40:    f000b872    ..r.    B.W      0x4e28 ; customValueInput + 472
        0x00004d44:    f000b870    ..p.    B.W      0x4e28 ; customValueInput + 472
        0x00004d48:    f000b86e    ..n.    B.W      0x4e28 ; customValueInput + 472
        0x00004d4c:    f000b86c    ..l.    B.W      0x4e28 ; customValueInput + 472
        0x00004d50:    f000b82e    ....    B.W      0x4db0 ; customValueInput + 352
        0x00004d54:    f000b868    ..h.    B.W      0x4e28 ; customValueInput + 472
        0x00004d58:    f000b866    ..f.    B.W      0x4e28 ; customValueInput + 472
        0x00004d5c:    f000b864    ..d.    B.W      0x4e28 ; customValueInput + 472
        0x00004d60:    f000b862    ..b.    B.W      0x4e28 ; customValueInput + 472
        0x00004d64:    f000b860    ..`.    B.W      0x4e28 ; customValueInput + 472
        0x00004d68:    f000b85e    ..^.    B.W      0x4e28 ; customValueInput + 472
        0x00004d6c:    f000b85c    ..\.    B.W      0x4e28 ; customValueInput + 472
        0x00004d70:    f000b85a    ..Z.    B.W      0x4e28 ; customValueInput + 472
        0x00004d74:    f000b858    ..X.    B.W      0x4e28 ; customValueInput + 472
        0x00004d78:    f000b839    ..9.    B.W      0x4dee ; customValueInput + 414
        0x00004d7c:    f000b854    ..T.    B.W      0x4e28 ; customValueInput + 472
        0x00004d80:    f000b852    ..R.    B.W      0x4e28 ; customValueInput + 472
        0x00004d84:    f000b831    ..1.    B.W      0x4dea ; customValueInput + 410
        0x00004d88:    f000b82d    ..-.    B.W      0x4de6 ; customValueInput + 406
        0x00004d8c:    f000b84c    ..L.    B.W      0x4e28 ; customValueInput + 472
        0x00004d90:    f000b82a    ..*.    B.W      0x4de8 ; customValueInput + 408
        0x00004d94:    f000b826    ..&.    B.W      0x4de4 ; customValueInput + 404
        0x00004d98:    f000b828    ..(.    B.W      0x4dec ; customValueInput + 412
        0x00004d9c:    f000b844    ..D.    B.W      0x4e28 ; customValueInput + 472
        0x00004da0:    f000b842    ..B.    B.W      0x4e28 ; customValueInput + 472
        0x00004da4:    f000b840    ..@.    B.W      0x4e28 ; customValueInput + 472
        0x00004da8:    f000b83e    ..>.    B.W      0x4e28 ; customValueInput + 472
        0x00004dac:    f000b819    ....    B.W      0x4de2 ; customValueInput + 402
        0x00004db0:    4847        GH      LDR      r0,[pc,#284] ; [0x4ed0] = 0x20000104
        0x00004db2:    2100        .!      MOVS     r1,#0
        0x00004db4:    9103        ..      STR      r1,[sp,#0xc]
        0x00004db6:    7001        .p      STRB     r1,[r0,#0]
        0x00004db8:    4846        FH      LDR      r0,[pc,#280] ; [0x4ed4] = 0x20000103
        0x00004dba:    7001        .p      STRB     r1,[r0,#0]
        0x00004dbc:    4846        FH      LDR      r0,[pc,#280] ; [0x4ed8] = 0x20000105
        0x00004dbe:    7181        .q      STRB     r1,[r0,#6]
        0x00004dc0:    7141        Aq      STRB     r1,[r0,#5]
        0x00004dc2:    7101        .q      STRB     r1,[r0,#4]
        0x00004dc4:    70c1        .p      STRB     r1,[r0,#3]
        0x00004dc6:    7081        .p      STRB     r1,[r0,#2]
        0x00004dc8:    7041        Ap      STRB     r1,[r0,#1]
        0x00004dca:    7001        .p      STRB     r1,[r0,#0]
        0x00004dcc:    9808        ..      LDR      r0,[sp,#0x20]
        0x00004dce:    6a04        .j      LDR      r4,[r0,#0x20]
        0x00004dd0:    9000        ..      STR      r0,[sp,#0]
        0x00004dd2:    4a42        BJ      LDR      r2,[pc,#264] ; [0x4edc] = 0x79a1
        0x00004dd4:    4b42        BK      LDR      r3,[pc,#264] ; [0x4ee0] = 0x20000018
        0x00004dd6:    4608        .F      MOV      r0,r1
        0x00004dd8:    47a0        .G      BLX      r4
        0x00004dda:    9808        ..      LDR      r0,[sp,#0x20]
        0x00004ddc:    6901        .i      LDR      r1,[r0,#0x10]
        0x00004dde:    4788        .G      BLX      r1
        0x00004de0:    e06e        n.      B        0x4ec0 ; customValueInput + 624
        0x00004de2:    e06d        m.      B        0x4ec0 ; customValueInput + 624
        0x00004de4:    e06c        l.      B        0x4ec0 ; customValueInput + 624
        0x00004de6:    e06b        k.      B        0x4ec0 ; customValueInput + 624
        0x00004de8:    e06a        j.      B        0x4ec0 ; customValueInput + 624
        0x00004dea:    e069        i.      B        0x4ec0 ; customValueInput + 624
        0x00004dec:    e068        h.      B        0x4ec0 ; customValueInput + 624
        0x00004dee:    e067        g.      B        0x4ec0 ; customValueInput + 624
        0x00004df0:    e066        f.      B        0x4ec0 ; customValueInput + 624
        0x00004df2:    a809        ..      ADD      r0,sp,#0x24
        0x00004df4:    7800        .x      LDRB     r0,[r0,#0]
        0x00004df6:    282e        .(      CMP      r0,#0x2e
        0x00004df8:    d114        ..      BNE      0x4e24 ; customValueInput + 468
        0x00004dfa:    e7ff        ..      B        0x4dfc ; customValueInput + 428
        0x00004dfc:    4834        4H      LDR      r0,[pc,#208] ; [0x4ed0] = 0x20000104
        0x00004dfe:    7800        .x      LDRB     r0,[r0,#0]
        0x00004e00:    2800        .(      CMP      r0,#0
        0x00004e02:    dc0f        ..      BGT      0x4e24 ; customValueInput + 468
        0x00004e04:    e7ff        ..      B        0x4e06 ; customValueInput + 438
        0x00004e06:    4833        3H      LDR      r0,[pc,#204] ; [0x4ed4] = 0x20000103
        0x00004e08:    7800        .x      LDRB     r0,[r0,#0]
        0x00004e0a:    2801        .(      CMP      r0,#1
        0x00004e0c:    db0a        ..      BLT      0x4e24 ; customValueInput + 468
        0x00004e0e:    e7ff        ..      B        0x4e10 ; customValueInput + 448
        0x00004e10:    4830        0H      LDR      r0,[pc,#192] ; [0x4ed4] = 0x20000103
        0x00004e12:    7800        .x      LDRB     r0,[r0,#0]
        0x00004e14:    2805        .(      CMP      r0,#5
        0x00004e16:    dc05        ..      BGT      0x4e24 ; customValueInput + 468
        0x00004e18:    e7ff        ..      B        0x4e1a ; customValueInput + 458
        0x00004e1a:    492d        -I      LDR      r1,[pc,#180] ; [0x4ed0] = 0x20000104
        0x00004e1c:    7808        .x      LDRB     r0,[r1,#0]
        0x00004e1e:    1c40        @.      ADDS     r0,r0,#1
        0x00004e20:    7008        .p      STRB     r0,[r1,#0]
        0x00004e22:    e000        ..      B        0x4e26 ; customValueInput + 470
        0x00004e24:    e04c        L.      B        0x4ec0 ; customValueInput + 624
        0x00004e26:    e7ff        ..      B        0x4e28 ; customValueInput + 472
        0x00004e28:    482a        *H      LDR      r0,[pc,#168] ; [0x4ed4] = 0x20000103
        0x00004e2a:    7800        .x      LDRB     r0,[r0,#0]
        0x00004e2c:    4928        (I      LDR      r1,[pc,#160] ; [0x4ed0] = 0x20000104
        0x00004e2e:    7809        .x      LDRB     r1,[r1,#0]
        0x00004e30:    1d89        ..      ADDS     r1,r1,#6
        0x00004e32:    4288        .B      CMP      r0,r1
        0x00004e34:    da43        C.      BGE      0x4ebe ; customValueInput + 622
        0x00004e36:    e7ff        ..      B        0x4e38 ; customValueInput + 488
        0x00004e38:    4926        &I      LDR      r1,[pc,#152] ; [0x4ed4] = 0x20000103
        0x00004e3a:    7808        .x      LDRB     r0,[r1,#0]
        0x00004e3c:    1c40        @.      ADDS     r0,r0,#1
        0x00004e3e:    7008        .p      STRB     r0,[r1,#0]
        0x00004e40:    2000        .       MOVS     r0,#0
        0x00004e42:    9005        ..      STR      r0,[sp,#0x14]
        0x00004e44:    e7ff        ..      B        0x4e46 ; customValueInput + 502
        0x00004e46:    9805        ..      LDR      r0,[sp,#0x14]
        0x00004e48:    4921        !I      LDR      r1,[pc,#132] ; [0x4ed0] = 0x20000104
        0x00004e4a:    7809        .x      LDRB     r1,[r1,#0]
        0x00004e4c:    4a21        !J      LDR      r2,[pc,#132] ; [0x4ed4] = 0x20000103
        0x00004e4e:    7812        .x      LDRB     r2,[r2,#0]
        0x00004e50:    1a89        ..      SUBS     r1,r1,r2
        0x00004e52:    1d89        ..      ADDS     r1,r1,#6
        0x00004e54:    4288        .B      CMP      r0,r1
        0x00004e56:    da09        ..      BGE      0x4e6c ; customValueInput + 540
        0x00004e58:    e7ff        ..      B        0x4e5a ; customValueInput + 522
        0x00004e5a:    9a05        ..      LDR      r2,[sp,#0x14]
        0x00004e5c:    a906        ..      ADD      r1,sp,#0x18
        0x00004e5e:    2020                MOVS     r0,#0x20
        0x00004e60:    5488        .T      STRB     r0,[r1,r2]
        0x00004e62:    e7ff        ..      B        0x4e64 ; customValueInput + 532
        0x00004e64:    9805        ..      LDR      r0,[sp,#0x14]
        0x00004e66:    1c40        @.      ADDS     r0,r0,#1
        0x00004e68:    9005        ..      STR      r0,[sp,#0x14]
        0x00004e6a:    e7ec        ..      B        0x4e46 ; customValueInput + 502
        0x00004e6c:    a809        ..      ADD      r0,sp,#0x24
        0x00004e6e:    7800        .x      LDRB     r0,[r0,#0]
        0x00004e70:    282e        .(      CMP      r0,#0x2e
        0x00004e72:    d10b        ..      BNE      0x4e8c ; customValueInput + 572
        0x00004e74:    e7ff        ..      B        0x4e76 ; customValueInput + 550
        0x00004e76:    4816        .H      LDR      r0,[pc,#88] ; [0x4ed0] = 0x20000104
        0x00004e78:    7800        .x      LDRB     r0,[r0,#0]
        0x00004e7a:    4916        .I      LDR      r1,[pc,#88] ; [0x4ed4] = 0x20000103
        0x00004e7c:    7809        .x      LDRB     r1,[r1,#0]
        0x00004e7e:    1809        ..      ADDS     r1,r1,r0
        0x00004e80:    1a40        @.      SUBS     r0,r0,r1
        0x00004e82:    a906        ..      ADD      r1,sp,#0x18
        0x00004e84:    1841        A.      ADDS     r1,r0,r1
        0x00004e86:    2000        .       MOVS     r0,#0
        0x00004e88:    7188        .q      STRB     r0,[r1,#6]
        0x00004e8a:    e7ff        ..      B        0x4e8c ; customValueInput + 572
        0x00004e8c:    4812        .H      LDR      r0,[pc,#72] ; [0x4ed8] = 0x20000105
        0x00004e8e:    9001        ..      STR      r0,[sp,#4]
        0x00004e90:    a909        ..      ADD      r1,sp,#0x24
        0x00004e92:    2201        ."      MOVS     r2,#1
        0x00004e94:    f7fbf9b2    ....    BL       strncat ; 0x1fc
        0x00004e98:    9901        ..      LDR      r1,[sp,#4]
        0x00004e9a:    480e        .H      LDR      r0,[pc,#56] ; [0x4ed4] = 0x20000103
        0x00004e9c:    7802        .x      LDRB     r2,[r0,#0]
        0x00004e9e:    a806        ..      ADD      r0,sp,#0x18
        0x00004ea0:    9002        ..      STR      r0,[sp,#8]
        0x00004ea2:    f7fbf9ab    ....    BL       strncat ; 0x1fc
        0x00004ea6:    9a02        ..      LDR      r2,[sp,#8]
        0x00004ea8:    9808        ..      LDR      r0,[sp,#0x20]
        0x00004eaa:    6a04        .j      LDR      r4,[r0,#0x20]
        0x00004eac:    9000        ..      STR      r0,[sp,#0]
        0x00004eae:    4b0c        .K      LDR      r3,[pc,#48] ; [0x4ee0] = 0x20000018
        0x00004eb0:    2100        .!      MOVS     r1,#0
        0x00004eb2:    4608        .F      MOV      r0,r1
        0x00004eb4:    47a0        .G      BLX      r4
        0x00004eb6:    9808        ..      LDR      r0,[sp,#0x20]
        0x00004eb8:    6901        .i      LDR      r1,[r0,#0x10]
        0x00004eba:    4788        .G      BLX      r1
        0x00004ebc:    e7ff        ..      B        0x4ebe ; customValueInput + 622
        0x00004ebe:    e7ff        ..      B        0x4ec0 ; customValueInput + 624
        0x00004ec0:    4805        .H      LDR      r0,[pc,#20] ; [0x4ed8] = 0x20000105
        0x00004ec2:    f002fb1e    ....    BL       atof ; 0x7502
        0x00004ec6:    f7fbfb87    ....    BL       __aeabi_d2f ; 0x5d8
        0x00004eca:    b00a        ..      ADD      sp,sp,#0x28
        0x00004ecc:    bd10        ..      POP      {r4,pc}
        0x00004ece:    46c0        .F      MOV      r8,r8
    $d.27
    __arm_cp.14_0
        0x00004ed0:    20000104    ...     DCD    536871172
    __arm_cp.14_1
        0x00004ed4:    20000103    ...     DCD    536871171
    __arm_cp.14_2
        0x00004ed8:    20000105    ...     DCD    536871173
    __arm_cp.14_3
        0x00004edc:    000079a1    .y..    DCD    31137
    __arm_cp.14_4
        0x00004ee0:    20000018    ...     DCD    536870936
    $t.23
    customValueInputFix
        0x00004ee4:    b510        ..      PUSH     {r4,lr}
        0x00004ee6:    b09a        ..      SUB      sp,sp,#0x68
        0x00004ee8:    4603        .F      MOV      r3,r0
        0x00004eea:    a819        ..      ADD      r0,sp,#0x64
        0x00004eec:    7003        .p      STRB     r3,[r0,#0]
        0x00004eee:    9118        ..      STR      r1,[sp,#0x60]
        0x00004ef0:    9217        ..      STR      r2,[sp,#0x5c]
        0x00004ef2:    2100        .!      MOVS     r1,#0
        0x00004ef4:    9116        ..      STR      r1,[sp,#0x58]
        0x00004ef6:    aa14        ..      ADD      r2,sp,#0x50
        0x00004ef8:    7191        .q      STRB     r1,[r2,#6]
        0x00004efa:    8091        ..      STRH     r1,[r2,#4]
        0x00004efc:    9114        ..      STR      r1,[sp,#0x50]
        0x00004efe:    aa13        ..      ADD      r2,sp,#0x4c
        0x00004f00:    7011        .p      STRB     r1,[r2,#0]
        0x00004f02:    7800        .x      LDRB     r0,[r0,#0]
        0x00004f04:    382e        .8      SUBS     r0,r0,#0x2e
        0x00004f06:    9011        ..      STR      r0,[sp,#0x44]
        0x00004f08:    284c        L(      CMP      r0,#0x4c
        0x00004f0a:    d900        ..      BLS      0x4f0e ; customValueInputFix + 42
        0x00004f0c:    e17a        z.      B        0x5204 ; customValueInputFix + 800
        0x00004f0e:    9911        ..      LDR      r1,[sp,#0x44]
        0x00004f10:    008a        ..      LSLS     r2,r1,#2
        0x00004f12:    a001        ..      ADR      r0,{pc}+6 ; 0x4f18
        0x00004f14:    1880        ..      ADDS     r0,r0,r2
        0x00004f16:    4687        .F      MOV      pc,r0
        0x00004f18:    f000b902    ....    B.W      0x5120 ; customValueInputFix + 572
        0x00004f1c:    f000b972    ..r.    B.W      0x5204 ; customValueInputFix + 800
        0x00004f20:    f000b970    ..p.    B.W      0x5204 ; customValueInputFix + 800
        0x00004f24:    f000b96e    ..n.    B.W      0x5204 ; customValueInputFix + 800
        0x00004f28:    f000b96c    ..l.    B.W      0x5204 ; customValueInputFix + 800
        0x00004f2c:    f000b96a    ..j.    B.W      0x5204 ; customValueInputFix + 800
        0x00004f30:    f000b968    ..h.    B.W      0x5204 ; customValueInputFix + 800
        0x00004f34:    f000b966    ..f.    B.W      0x5204 ; customValueInputFix + 800
        0x00004f38:    f000b964    ..d.    B.W      0x5204 ; customValueInputFix + 800
        0x00004f3c:    f000b962    ..b.    B.W      0x5204 ; customValueInputFix + 800
        0x00004f40:    f000b960    ..`.    B.W      0x5204 ; customValueInputFix + 800
        0x00004f44:    f000b95e    ..^.    B.W      0x5204 ; customValueInputFix + 800
        0x00004f48:    f000b95c    ..\.    B.W      0x5204 ; customValueInputFix + 800
        0x00004f4c:    f000b95a    ..Z.    B.W      0x5204 ; customValueInputFix + 800
        0x00004f50:    f000b958    ..X.    B.W      0x5204 ; customValueInputFix + 800
        0x00004f54:    f000b956    ..V.    B.W      0x5204 ; customValueInputFix + 800
        0x00004f58:    f000b954    ..T.    B.W      0x5204 ; customValueInputFix + 800
        0x00004f5c:    f000b952    ..R.    B.W      0x5204 ; customValueInputFix + 800
        0x00004f60:    f000b950    ..P.    B.W      0x5204 ; customValueInputFix + 800
        0x00004f64:    f000b94e    ..N.    B.W      0x5204 ; customValueInputFix + 800
        0x00004f68:    f000b94c    ..L.    B.W      0x5204 ; customValueInputFix + 800
        0x00004f6c:    f000b8d7    ....    B.W      0x511e ; customValueInputFix + 570
        0x00004f70:    f000b948    ..H.    B.W      0x5204 ; customValueInputFix + 800
        0x00004f74:    f000b946    ..F.    B.W      0x5204 ; customValueInputFix + 800
        0x00004f78:    f000b944    ..D.    B.W      0x5204 ; customValueInputFix + 800
        0x00004f7c:    f000b942    ..B.    B.W      0x5204 ; customValueInputFix + 800
        0x00004f80:    f000b940    ..@.    B.W      0x5204 ; customValueInputFix + 800
        0x00004f84:    f000b93e    ..>.    B.W      0x5204 ; customValueInputFix + 800
        0x00004f88:    f000b93c    ..<.    B.W      0x5204 ; customValueInputFix + 800
        0x00004f8c:    f000b93a    ..:.    B.W      0x5204 ; customValueInputFix + 800
        0x00004f90:    f000b938    ..8.    B.W      0x5204 ; customValueInputFix + 800
        0x00004f94:    f000b936    ..6.    B.W      0x5204 ; customValueInputFix + 800
        0x00004f98:    f000b934    ..4.    B.W      0x5204 ; customValueInputFix + 800
        0x00004f9c:    f000b932    ..2.    B.W      0x5204 ; customValueInputFix + 800
        0x00004fa0:    f000b930    ..0.    B.W      0x5204 ; customValueInputFix + 800
        0x00004fa4:    f000b92e    ....    B.W      0x5204 ; customValueInputFix + 800
        0x00004fa8:    f000b92c    ..,.    B.W      0x5204 ; customValueInputFix + 800
        0x00004fac:    f000b92a    ..*.    B.W      0x5204 ; customValueInputFix + 800
        0x00004fb0:    f000b928    ..(.    B.W      0x5204 ; customValueInputFix + 800
        0x00004fb4:    f000b926    ..&.    B.W      0x5204 ; customValueInputFix + 800
        0x00004fb8:    f000b924    ..$.    B.W      0x5204 ; customValueInputFix + 800
        0x00004fbc:    f000b922    ..".    B.W      0x5204 ; customValueInputFix + 800
        0x00004fc0:    f000b920    .. .    B.W      0x5204 ; customValueInputFix + 800
        0x00004fc4:    f000b91e    ....    B.W      0x5204 ; customValueInputFix + 800
        0x00004fc8:    f000b91c    ....    B.W      0x5204 ; customValueInputFix + 800
        0x00004fcc:    f000b91a    ....    B.W      0x5204 ; customValueInputFix + 800
        0x00004fd0:    f000b918    ....    B.W      0x5204 ; customValueInputFix + 800
        0x00004fd4:    f000b916    ....    B.W      0x5204 ; customValueInputFix + 800
        0x00004fd8:    f000b914    ....    B.W      0x5204 ; customValueInputFix + 800
        0x00004fdc:    f000b912    ....    B.W      0x5204 ; customValueInputFix + 800
        0x00004fe0:    f000b910    ....    B.W      0x5204 ; customValueInputFix + 800
        0x00004fe4:    f000b90e    ....    B.W      0x5204 ; customValueInputFix + 800
        0x00004fe8:    f000b90c    ....    B.W      0x5204 ; customValueInputFix + 800
        0x00004fec:    f000b82e    ....    B.W      0x504c ; customValueInputFix + 360
        0x00004ff0:    f000b908    ....    B.W      0x5204 ; customValueInputFix + 800
        0x00004ff4:    f000b906    ....    B.W      0x5204 ; customValueInputFix + 800
        0x00004ff8:    f000b904    ....    B.W      0x5204 ; customValueInputFix + 800
        0x00004ffc:    f000b902    ....    B.W      0x5204 ; customValueInputFix + 800
        0x00005000:    f000b900    ....    B.W      0x5204 ; customValueInputFix + 800
        0x00005004:    f000b8fe    ....    B.W      0x5204 ; customValueInputFix + 800
        0x00005008:    f000b8fc    ....    B.W      0x5204 ; customValueInputFix + 800
        0x0000500c:    f000b8fa    ....    B.W      0x5204 ; customValueInputFix + 800
        0x00005010:    f000b8f8    ....    B.W      0x5204 ; customValueInputFix + 800
        0x00005014:    f000b882    ....    B.W      0x511c ; customValueInputFix + 568
        0x00005018:    f000b8f4    ....    B.W      0x5204 ; customValueInputFix + 800
        0x0000501c:    f000b8f2    ....    B.W      0x5204 ; customValueInputFix + 800
        0x00005020:    f000b87a    ..z.    B.W      0x5118 ; customValueInputFix + 564
        0x00005024:    f000b876    ..v.    B.W      0x5114 ; customValueInputFix + 560
        0x00005028:    f000b8ec    ....    B.W      0x5204 ; customValueInputFix + 800
        0x0000502c:    f000b873    ..s.    B.W      0x5116 ; customValueInputFix + 562
        0x00005030:    f000b860    ..`.    B.W      0x50f4 ; customValueInputFix + 528
        0x00005034:    f000b871    ..q.    B.W      0x511a ; customValueInputFix + 566
        0x00005038:    f000b8e4    ....    B.W      0x5204 ; customValueInputFix + 800
        0x0000503c:    f000b8e2    ....    B.W      0x5204 ; customValueInputFix + 800
        0x00005040:    f000b8e0    ....    B.W      0x5204 ; customValueInputFix + 800
        0x00005044:    f000b8de    ....    B.W      0x5204 ; customValueInputFix + 800
        0x00005048:    f000b853    ..S.    B.W      0x50f2 ; customValueInputFix + 526
        0x0000504c:    49d7        .I      LDR      r1,[pc,#860] ; [0x53ac] = 0x2000010c
        0x0000504e:    2000        .       MOVS     r0,#0
        0x00005050:    900f        ..      STR      r0,[sp,#0x3c]
        0x00005052:    7008        .p      STRB     r0,[r1,#0]
        0x00005054:    49cd        .I      LDR      r1,[pc,#820] ; [0x538c] = 0x20000114
        0x00005056:    6008        .`      STR      r0,[r1,#0]
        0x00005058:    49d5        .I      LDR      r1,[pc,#852] ; [0x53b0] = 0x2000010d
        0x0000505a:    7188        .q      STRB     r0,[r1,#6]
        0x0000505c:    7148        Hq      STRB     r0,[r1,#5]
        0x0000505e:    7108        .q      STRB     r0,[r1,#4]
        0x00005060:    70c8        .p      STRB     r0,[r1,#3]
        0x00005062:    7088        .p      STRB     r0,[r1,#2]
        0x00005064:    7048        Hp      STRB     r0,[r1,#1]
        0x00005066:    7008        .p      STRB     r0,[r1,#0]
        0x00005068:    9817        ..      LDR      r0,[sp,#0x5c]
        0x0000506a:    7a80        .z      LDRB     r0,[r0,#0xa]
        0x0000506c:    9010        ..      STR      r0,[sp,#0x40]
        0x0000506e:    2804        .(      CMP      r0,#4
        0x00005070:    d83b        ;.      BHI      0x50ea ; customValueInputFix + 518
        0x00005072:    9910        ..      LDR      r1,[sp,#0x40]
        0x00005074:    008a        ..      LSLS     r2,r1,#2
        0x00005076:    a001        ..      ADR      r0,{pc}+6 ; 0x507c
        0x00005078:    1880        ..      ADDS     r0,r0,r2
        0x0000507a:    4687        .F      MOV      pc,r0
        0x0000507c:    f000b808    ....    B.W      0x5090 ; customValueInputFix + 428
        0x00005080:    f000b80f    ....    B.W      0x50a2 ; customValueInputFix + 446
        0x00005084:    f000b816    ....    B.W      0x50b4 ; customValueInputFix + 464
        0x00005088:    f000b81d    ....    B.W      0x50c6 ; customValueInputFix + 482
        0x0000508c:    f000b824    ..$.    B.W      0x50d8 ; customValueInputFix + 500
        0x00005090:    9818        ..      LDR      r0,[sp,#0x60]
        0x00005092:    6a04        .j      LDR      r4,[r0,#0x20]
        0x00005094:    9000        ..      STR      r0,[sp,#0]
        0x00005096:    4acc        .J      LDR      r2,[pc,#816] ; [0x53c8] = 0x79a8
        0x00005098:    4bc7        .K      LDR      r3,[pc,#796] ; [0x53b8] = 0x20000018
        0x0000509a:    2100        .!      MOVS     r1,#0
        0x0000509c:    4608        .F      MOV      r0,r1
        0x0000509e:    47a0        .G      BLX      r4
        0x000050a0:    e023        #.      B        0x50ea ; customValueInputFix + 518
        0x000050a2:    9818        ..      LDR      r0,[sp,#0x60]
        0x000050a4:    6a04        .j      LDR      r4,[r0,#0x20]
        0x000050a6:    9000        ..      STR      r0,[sp,#0]
        0x000050a8:    4ac6        .J      LDR      r2,[pc,#792] ; [0x53c4] = 0x79af
        0x000050aa:    4bc3        .K      LDR      r3,[pc,#780] ; [0x53b8] = 0x20000018
        0x000050ac:    2100        .!      MOVS     r1,#0
        0x000050ae:    4608        .F      MOV      r0,r1
        0x000050b0:    47a0        .G      BLX      r4
        0x000050b2:    e01a        ..      B        0x50ea ; customValueInputFix + 518
        0x000050b4:    9818        ..      LDR      r0,[sp,#0x60]
        0x000050b6:    6a04        .j      LDR      r4,[r0,#0x20]
        0x000050b8:    9000        ..      STR      r0,[sp,#0]
        0x000050ba:    4ac1        .J      LDR      r2,[pc,#772] ; [0x53c0] = 0x79b7
        0x000050bc:    4bbe        .K      LDR      r3,[pc,#760] ; [0x53b8] = 0x20000018
        0x000050be:    2100        .!      MOVS     r1,#0
        0x000050c0:    4608        .F      MOV      r0,r1
        0x000050c2:    47a0        .G      BLX      r4
        0x000050c4:    e011        ..      B        0x50ea ; customValueInputFix + 518
        0x000050c6:    9818        ..      LDR      r0,[sp,#0x60]
        0x000050c8:    6a04        .j      LDR      r4,[r0,#0x20]
        0x000050ca:    9000        ..      STR      r0,[sp,#0]
        0x000050cc:    4abb        .J      LDR      r2,[pc,#748] ; [0x53bc] = 0x79bf
        0x000050ce:    4bba        .K      LDR      r3,[pc,#744] ; [0x53b8] = 0x20000018
        0x000050d0:    2100        .!      MOVS     r1,#0
        0x000050d2:    4608        .F      MOV      r0,r1
        0x000050d4:    47a0        .G      BLX      r4
        0x000050d6:    e008        ..      B        0x50ea ; customValueInputFix + 518
        0x000050d8:    9818        ..      LDR      r0,[sp,#0x60]
        0x000050da:    6a04        .j      LDR      r4,[r0,#0x20]
        0x000050dc:    9000        ..      STR      r0,[sp,#0]
        0x000050de:    4ab5        .J      LDR      r2,[pc,#724] ; [0x53b4] = 0x79c7
        0x000050e0:    4bb5        .K      LDR      r3,[pc,#724] ; [0x53b8] = 0x20000018
        0x000050e2:    2100        .!      MOVS     r1,#0
        0x000050e4:    4608        .F      MOV      r0,r1
        0x000050e6:    47a0        .G      BLX      r4
        0x000050e8:    e7ff        ..      B        0x50ea ; customValueInputFix + 518
        0x000050ea:    9818        ..      LDR      r0,[sp,#0x60]
        0x000050ec:    6901        .i      LDR      r1,[r0,#0x10]
        0x000050ee:    4788        .G      BLX      r1
        0x000050f0:    e145        E.      B        0x537e ; customValueInputFix + 1178
        0x000050f2:    e144        D.      B        0x537e ; customValueInputFix + 1178
        0x000050f4:    48ac        .H      LDR      r0,[pc,#688] ; [0x53a8] = 0x200004f8
        0x000050f6:    900e        ..      STR      r0,[sp,#0x38]
        0x000050f8:    6800        .h      LDR      r0,[r0,#0]
        0x000050fa:    6941        Ai      LDR      r1,[r0,#0x14]
        0x000050fc:    2040        @       MOVS     r0,#0x40
        0x000050fe:    4788        .G      BLX      r1
        0x00005100:    980e        ..      LDR      r0,[sp,#0x38]
        0x00005102:    6800        .h      LDR      r0,[r0,#0]
        0x00005104:    69c0        .i      LDR      r0,[r0,#0x1c]
        0x00005106:    4780        .G      BLX      r0
        0x00005108:    9917        ..      LDR      r1,[sp,#0x5c]
        0x0000510a:    6048        H`      STR      r0,[r1,#4]
        0x0000510c:    9817        ..      LDR      r0,[sp,#0x5c]
        0x0000510e:    f001fd0b    ....    BL       writeFlashMemoryInformation ; 0x6b28
        0x00005112:    e134        4.      B        0x537e ; customValueInputFix + 1178
        0x00005114:    e133        3.      B        0x537e ; customValueInputFix + 1178
        0x00005116:    e132        2.      B        0x537e ; customValueInputFix + 1178
        0x00005118:    e131        1.      B        0x537e ; customValueInputFix + 1178
        0x0000511a:    e130        0.      B        0x537e ; customValueInputFix + 1178
        0x0000511c:    e12f        /.      B        0x537e ; customValueInputFix + 1178
        0x0000511e:    e12e        ..      B        0x537e ; customValueInputFix + 1178
        0x00005120:    489a        .H      LDR      r0,[pc,#616] ; [0x538c] = 0x20000114
        0x00005122:    900c        ..      STR      r0,[sp,#0x30]
        0x00005124:    6800        .h      LDR      r0,[r0,#0]
        0x00005126:    499a        .I      LDR      r1,[pc,#616] ; [0x5390] = 0x42c80000
        0x00005128:    f7fbf8d5    ....    BL       __aeabi_fmul ; 0x2d6
        0x0000512c:    990c        ..      LDR      r1,[sp,#0x30]
        0x0000512e:    6008        .`      STR      r0,[r1,#0]
        0x00005130:    9817        ..      LDR      r0,[sp,#0x5c]
        0x00005132:    7a80        .z      LDRB     r0,[r0,#0xa]
        0x00005134:    900d        ..      STR      r0,[sp,#0x34]
        0x00005136:    2804        .(      CMP      r0,#4
        0x00005138:    d863        c.      BHI      0x5202 ; customValueInputFix + 798
        0x0000513a:    990d        ..      LDR      r1,[sp,#0x34]
        0x0000513c:    008a        ..      LSLS     r2,r1,#2
        0x0000513e:    a001        ..      ADR      r0,{pc}+6 ; 0x5144
        0x00005140:    1880        ..      ADDS     r0,r0,r2
        0x00005142:    4687        .F      MOV      pc,r0
        0x00005144:    f000b808    ....    B.W      0x5158 ; customValueInputFix + 628
        0x00005148:    f000b817    ....    B.W      0x517a ; customValueInputFix + 662
        0x0000514c:    f000b826    ..&.    B.W      0x519c ; customValueInputFix + 696
        0x00005150:    f000b835    ..5.    B.W      0x51be ; customValueInputFix + 730
        0x00005154:    f000b844    ..D.    B.W      0x51e0 ; customValueInputFix + 764
        0x00005158:    488c        .H      LDR      r0,[pc,#560] ; [0x538c] = 0x20000114
        0x0000515a:    6800        .h      LDR      r0,[r0,#0]
        0x0000515c:    4991        .I      LDR      r1,[pc,#580] ; [0x53a4] = 0x497423f0
        0x0000515e:    f7fbf99d    ....    BL       __aeabi_fcmple ; 0x49c
        0x00005162:    b948        H.      CBNZ     r0,0x5178 ; customValueInputFix + 660
        0x00005164:    e7ff        ..      B        0x5166 ; customValueInputFix + 642
        0x00005166:    4889        .H      LDR      r0,[pc,#548] ; [0x538c] = 0x20000114
        0x00005168:    900b        ..      STR      r0,[sp,#0x2c]
        0x0000516a:    6800        .h      LDR      r0,[r0,#0]
        0x0000516c:    4988        .I      LDR      r1,[pc,#544] ; [0x5390] = 0x42c80000
        0x0000516e:    f7fbf8ef    ....    BL       __aeabi_fdiv ; 0x350
        0x00005172:    990b        ..      LDR      r1,[sp,#0x2c]
        0x00005174:    6008        .`      STR      r0,[r1,#0]
        0x00005176:    e7ff        ..      B        0x5178 ; customValueInputFix + 660
        0x00005178:    e043        C.      B        0x5202 ; customValueInputFix + 798
        0x0000517a:    4884        .H      LDR      r0,[pc,#528] ; [0x538c] = 0x20000114
        0x0000517c:    6800        .h      LDR      r0,[r0,#0]
        0x0000517e:    4988        .I      LDR      r1,[pc,#544] ; [0x53a0] = 0x47c34f80
        0x00005180:    f7fbf98c    ....    BL       __aeabi_fcmple ; 0x49c
        0x00005184:    b948        H.      CBNZ     r0,0x519a ; customValueInputFix + 694
        0x00005186:    e7ff        ..      B        0x5188 ; customValueInputFix + 676
        0x00005188:    4880        .H      LDR      r0,[pc,#512] ; [0x538c] = 0x20000114
        0x0000518a:    900a        ..      STR      r0,[sp,#0x28]
        0x0000518c:    6800        .h      LDR      r0,[r0,#0]
        0x0000518e:    4980        .I      LDR      r1,[pc,#512] ; [0x5390] = 0x42c80000
        0x00005190:    f7fbf8de    ....    BL       __aeabi_fdiv ; 0x350
        0x00005194:    990a        ..      LDR      r1,[sp,#0x28]
        0x00005196:    6008        .`      STR      r0,[r1,#0]
        0x00005198:    e7ff        ..      B        0x519a ; customValueInputFix + 694
        0x0000519a:    e032        2.      B        0x5202 ; customValueInputFix + 798
        0x0000519c:    487b        {H      LDR      r0,[pc,#492] ; [0x538c] = 0x20000114
        0x0000519e:    6800        .h      LDR      r0,[r0,#0]
        0x000051a0:    497e        ~I      LDR      r1,[pc,#504] ; [0x539c] = 0x461c3c00
        0x000051a2:    f7fbf97b    ..{.    BL       __aeabi_fcmple ; 0x49c
        0x000051a6:    b948        H.      CBNZ     r0,0x51bc ; customValueInputFix + 728
        0x000051a8:    e7ff        ..      B        0x51aa ; customValueInputFix + 710
        0x000051aa:    4878        xH      LDR      r0,[pc,#480] ; [0x538c] = 0x20000114
        0x000051ac:    9009        ..      STR      r0,[sp,#0x24]
        0x000051ae:    6800        .h      LDR      r0,[r0,#0]
        0x000051b0:    4977        wI      LDR      r1,[pc,#476] ; [0x5390] = 0x42c80000
        0x000051b2:    f7fbf8cd    ....    BL       __aeabi_fdiv ; 0x350
        0x000051b6:    9909        ..      LDR      r1,[sp,#0x24]
        0x000051b8:    6008        .`      STR      r0,[r1,#0]
        0x000051ba:    e7ff        ..      B        0x51bc ; customValueInputFix + 728
        0x000051bc:    e021        !.      B        0x5202 ; customValueInputFix + 798
        0x000051be:    4873        sH      LDR      r0,[pc,#460] ; [0x538c] = 0x20000114
        0x000051c0:    6800        .h      LDR      r0,[r0,#0]
        0x000051c2:    4975        uI      LDR      r1,[pc,#468] ; [0x5398] = 0x4479c000
        0x000051c4:    f7fbf96a    ..j.    BL       __aeabi_fcmple ; 0x49c
        0x000051c8:    b948        H.      CBNZ     r0,0x51de ; customValueInputFix + 762
        0x000051ca:    e7ff        ..      B        0x51cc ; customValueInputFix + 744
        0x000051cc:    486f        oH      LDR      r0,[pc,#444] ; [0x538c] = 0x20000114
        0x000051ce:    9008        ..      STR      r0,[sp,#0x20]
        0x000051d0:    6800        .h      LDR      r0,[r0,#0]
        0x000051d2:    496f        oI      LDR      r1,[pc,#444] ; [0x5390] = 0x42c80000
        0x000051d4:    f7fbf8bc    ....    BL       __aeabi_fdiv ; 0x350
        0x000051d8:    9908        ..      LDR      r1,[sp,#0x20]
        0x000051da:    6008        .`      STR      r0,[r1,#0]
        0x000051dc:    e7ff        ..      B        0x51de ; customValueInputFix + 762
        0x000051de:    e010        ..      B        0x5202 ; customValueInputFix + 798
        0x000051e0:    486a        jH      LDR      r0,[pc,#424] ; [0x538c] = 0x20000114
        0x000051e2:    6800        .h      LDR      r0,[r0,#0]
        0x000051e4:    496b        kI      LDR      r1,[pc,#428] ; [0x5394] = 0x42c60000
        0x000051e6:    f7fbf959    ..Y.    BL       __aeabi_fcmple ; 0x49c
        0x000051ea:    b948        H.      CBNZ     r0,0x5200 ; customValueInputFix + 796
        0x000051ec:    e7ff        ..      B        0x51ee ; customValueInputFix + 778
        0x000051ee:    4867        gH      LDR      r0,[pc,#412] ; [0x538c] = 0x20000114
        0x000051f0:    9007        ..      STR      r0,[sp,#0x1c]
        0x000051f2:    6800        .h      LDR      r0,[r0,#0]
        0x000051f4:    4966        fI      LDR      r1,[pc,#408] ; [0x5390] = 0x42c80000
        0x000051f6:    f7fbf8ab    ....    BL       __aeabi_fdiv ; 0x350
        0x000051fa:    9907        ..      LDR      r1,[sp,#0x1c]
        0x000051fc:    6008        .`      STR      r0,[r1,#0]
        0x000051fe:    e7ff        ..      B        0x5200 ; customValueInputFix + 796
        0x00005200:    e7ff        ..      B        0x5202 ; customValueInputFix + 798
        0x00005202:    e7ff        ..      B        0x5204 ; customValueInputFix + 800
        0x00005204:    4869        iH      LDR      r0,[pc,#420] ; [0x53ac] = 0x2000010c
        0x00005206:    7800        .x      LDRB     r0,[r0,#0]
        0x00005208:    2805        .(      CMP      r0,#5
        0x0000520a:    dd00        ..      BLE      0x520e ; customValueInputFix + 810
        0x0000520c:    e0b6        ..      B        0x537c ; customValueInputFix + 1176
        0x0000520e:    a819        ..      ADD      r0,sp,#0x64
        0x00005210:    7800        .x      LDRB     r0,[r0,#0]
        0x00005212:    282e        .(      CMP      r0,#0x2e
        0x00005214:    d026        &.      BEQ      0x5264 ; customValueInputFix + 896
        0x00005216:    e7ff        ..      B        0x5218 ; customValueInputFix + 820
        0x00005218:    4964        dI      LDR      r1,[pc,#400] ; [0x53ac] = 0x2000010c
        0x0000521a:    7808        .x      LDRB     r0,[r1,#0]
        0x0000521c:    1c40        @.      ADDS     r0,r0,#1
        0x0000521e:    7008        .p      STRB     r0,[r1,#0]
        0x00005220:    a819        ..      ADD      r0,sp,#0x64
        0x00005222:    7800        .x      LDRB     r0,[r0,#0]
        0x00005224:    3830        08      SUBS     r0,r0,#0x30
        0x00005226:    f7fbf947    ..G.    BL       __aeabi_i2f ; 0x4b8
        0x0000522a:    9016        ..      STR      r0,[sp,#0x58]
        0x0000522c:    9816        ..      LDR      r0,[sp,#0x58]
        0x0000522e:    9004        ..      STR      r0,[sp,#0x10]
        0x00005230:    9817        ..      LDR      r0,[sp,#0x5c]
        0x00005232:    7a81        .z      LDRB     r1,[r0,#0xa]
        0x00005234:    200a        .       MOVS     r0,#0xa
        0x00005236:    f7fffcd9    ....    BL       _pow ; 0x4bec
        0x0000523a:    f7fbf948    ..H.    BL       __aeabi_ui2f ; 0x4ce
        0x0000523e:    4601        .F      MOV      r1,r0
        0x00005240:    9804        ..      LDR      r0,[sp,#0x10]
        0x00005242:    f7fbf885    ....    BL       __aeabi_fdiv ; 0x350
        0x00005246:    9016        ..      STR      r0,[sp,#0x58]
        0x00005248:    4850        PH      LDR      r0,[pc,#320] ; [0x538c] = 0x20000114
        0x0000524a:    9006        ..      STR      r0,[sp,#0x18]
        0x0000524c:    6800        .h      LDR      r0,[r0,#0]
        0x0000524e:    9916        ..      LDR      r1,[sp,#0x58]
        0x00005250:    9105        ..      STR      r1,[sp,#0x14]
        0x00005252:    495e        ^I      LDR      r1,[pc,#376] ; [0x53cc] = 0x41200000
        0x00005254:    f7fbf83f    ..?.    BL       __aeabi_fmul ; 0x2d6
        0x00005258:    9905        ..      LDR      r1,[sp,#0x14]
        0x0000525a:    f7faffe3    ....    BL       __aeabi_fadd ; 0x224
        0x0000525e:    9906        ..      LDR      r1,[sp,#0x18]
        0x00005260:    6008        .`      STR      r0,[r1,#0]
        0x00005262:    e004        ..      B        0x526e ; customValueInputFix + 906
        0x00005264:    4951        QI      LDR      r1,[pc,#324] ; [0x53ac] = 0x2000010c
        0x00005266:    7808        .x      LDRB     r0,[r1,#0]
        0x00005268:    1c80        ..      ADDS     r0,r0,#2
        0x0000526a:    7008        .p      STRB     r0,[r1,#0]
        0x0000526c:    e7ff        ..      B        0x526e ; customValueInputFix + 906
        0x0000526e:    4950        PI      LDR      r1,[pc,#320] ; [0x53b0] = 0x2000010d
        0x00005270:    2000        .       MOVS     r0,#0
        0x00005272:    7188        .q      STRB     r0,[r1,#6]
        0x00005274:    7148        Hq      STRB     r0,[r1,#5]
        0x00005276:    7108        .q      STRB     r0,[r1,#4]
        0x00005278:    70c8        .p      STRB     r0,[r1,#3]
        0x0000527a:    7088        .p      STRB     r0,[r1,#2]
        0x0000527c:    7048        Hp      STRB     r0,[r1,#1]
        0x0000527e:    7008        .p      STRB     r0,[r1,#0]
        0x00005280:    9817        ..      LDR      r0,[sp,#0x5c]
        0x00005282:    7a80        .z      LDRB     r0,[r0,#0xa]
        0x00005284:    9003        ..      STR      r0,[sp,#0xc]
        0x00005286:    2804        .(      CMP      r0,#4
        0x00005288:    d851        Q.      BHI      0x532e ; customValueInputFix + 1098
        0x0000528a:    9903        ..      LDR      r1,[sp,#0xc]
        0x0000528c:    008a        ..      LSLS     r2,r1,#2
        0x0000528e:    a001        ..      ADR      r0,{pc}+6 ; 0x5294
        0x00005290:    1880        ..      ADDS     r0,r0,r2
        0x00005292:    4687        .F      MOV      pc,r0
        0x00005294:    f000b808    ....    B.W      0x52a8 ; customValueInputFix + 964
        0x00005298:    f000b815    ....    B.W      0x52c6 ; customValueInputFix + 994
        0x0000529c:    f000b820    .. .    B.W      0x52e0 ; customValueInputFix + 1020
        0x000052a0:    f000b82b    ..+.    B.W      0x52fa ; customValueInputFix + 1046
        0x000052a4:    f000b836    ..6.    B.W      0x5314 ; customValueInputFix + 1072
        0x000052a8:    4838        8H      LDR      r0,[pc,#224] ; [0x538c] = 0x20000114
        0x000052aa:    6800        .h      LDR      r0,[r0,#0]
        0x000052ac:    f7fbf92a    ..*.    BL       __aeabi_f2iz ; 0x504
        0x000052b0:    4602        .F      MOV      r2,r0
        0x000052b2:    483f        ?H      LDR      r0,[pc,#252] ; [0x53b0] = 0x2000010d
        0x000052b4:    494a        JI      LDR      r1,[pc,#296] ; [0x53e0] = 0x7a15
        0x000052b6:    f001fc79    ..y.    BL       __0sprintf ; 0x6bac
        0x000052ba:    a913        ..      ADD      r1,sp,#0x4c
        0x000052bc:    7008        .p      STRB     r0,[r1,#0]
        0x000052be:    9813        ..      LDR      r0,[sp,#0x4c]
        0x000052c0:    1c40        @.      ADDS     r0,r0,#1
        0x000052c2:    7008        .p      STRB     r0,[r1,#0]
        0x000052c4:    e033        3.      B        0x532e ; customValueInputFix + 1098
        0x000052c6:    4831        1H      LDR      r0,[pc,#196] ; [0x538c] = 0x20000114
        0x000052c8:    6800        .h      LDR      r0,[r0,#0]
        0x000052ca:    f7fbf971    ..q.    BL       __aeabi_f2d ; 0x5b0
        0x000052ce:    4602        .F      MOV      r2,r0
        0x000052d0:    460b        .F      MOV      r3,r1
        0x000052d2:    4837        7H      LDR      r0,[pc,#220] ; [0x53b0] = 0x2000010d
        0x000052d4:    4941        AI      LDR      r1,[pc,#260] ; [0x53dc] = 0x7a18
        0x000052d6:    f001fc69    ..i.    BL       __0sprintf ; 0x6bac
        0x000052da:    a913        ..      ADD      r1,sp,#0x4c
        0x000052dc:    7008        .p      STRB     r0,[r1,#0]
        0x000052de:    e026        &.      B        0x532e ; customValueInputFix + 1098
        0x000052e0:    482a        *H      LDR      r0,[pc,#168] ; [0x538c] = 0x20000114
        0x000052e2:    6800        .h      LDR      r0,[r0,#0]
        0x000052e4:    f7fbf964    ..d.    BL       __aeabi_f2d ; 0x5b0
        0x000052e8:    4602        .F      MOV      r2,r0
        0x000052ea:    460b        .F      MOV      r3,r1
        0x000052ec:    4830        0H      LDR      r0,[pc,#192] ; [0x53b0] = 0x2000010d
        0x000052ee:    493a        :I      LDR      r1,[pc,#232] ; [0x53d8] = 0x7a1d
        0x000052f0:    f001fc5c    ..\.    BL       __0sprintf ; 0x6bac
        0x000052f4:    a913        ..      ADD      r1,sp,#0x4c
        0x000052f6:    7008        .p      STRB     r0,[r1,#0]
        0x000052f8:    e019        ..      B        0x532e ; customValueInputFix + 1098
        0x000052fa:    4824        $H      LDR      r0,[pc,#144] ; [0x538c] = 0x20000114
        0x000052fc:    6800        .h      LDR      r0,[r0,#0]
        0x000052fe:    f7fbf957    ..W.    BL       __aeabi_f2d ; 0x5b0
        0x00005302:    4602        .F      MOV      r2,r0
        0x00005304:    460b        .F      MOV      r3,r1
        0x00005306:    482a        *H      LDR      r0,[pc,#168] ; [0x53b0] = 0x2000010d
        0x00005308:    4932        2I      LDR      r1,[pc,#200] ; [0x53d4] = 0x7a22
        0x0000530a:    f001fc4f    ..O.    BL       __0sprintf ; 0x6bac
        0x0000530e:    a913        ..      ADD      r1,sp,#0x4c
        0x00005310:    7008        .p      STRB     r0,[r1,#0]
        0x00005312:    e00c        ..      B        0x532e ; customValueInputFix + 1098
        0x00005314:    481d        .H      LDR      r0,[pc,#116] ; [0x538c] = 0x20000114
        0x00005316:    6800        .h      LDR      r0,[r0,#0]
        0x00005318:    f7fbf94a    ..J.    BL       __aeabi_f2d ; 0x5b0
        0x0000531c:    4602        .F      MOV      r2,r0
        0x0000531e:    460b        .F      MOV      r3,r1
        0x00005320:    4823        #H      LDR      r0,[pc,#140] ; [0x53b0] = 0x2000010d
        0x00005322:    492b        +I      LDR      r1,[pc,#172] ; [0x53d0] = 0x7a27
        0x00005324:    f001fc42    ..B.    BL       __0sprintf ; 0x6bac
        0x00005328:    a913        ..      ADD      r1,sp,#0x4c
        0x0000532a:    7008        .p      STRB     r0,[r1,#0]
        0x0000532c:    e7ff        ..      B        0x532e ; customValueInputFix + 1098
        0x0000532e:    2000        .       MOVS     r0,#0
        0x00005330:    9012        ..      STR      r0,[sp,#0x48]
        0x00005332:    e7ff        ..      B        0x5334 ; customValueInputFix + 1104
        0x00005334:    9812        ..      LDR      r0,[sp,#0x48]
        0x00005336:    a913        ..      ADD      r1,sp,#0x4c
        0x00005338:    780a        .x      LDRB     r2,[r1,#0]
        0x0000533a:    2107        .!      MOVS     r1,#7
        0x0000533c:    1a89        ..      SUBS     r1,r1,r2
        0x0000533e:    4288        .B      CMP      r0,r1
        0x00005340:    da09        ..      BGE      0x5356 ; customValueInputFix + 1138
        0x00005342:    e7ff        ..      B        0x5344 ; customValueInputFix + 1120
        0x00005344:    9a12        ..      LDR      r2,[sp,#0x48]
        0x00005346:    a914        ..      ADD      r1,sp,#0x50
        0x00005348:    2020                MOVS     r0,#0x20
        0x0000534a:    5488        .T      STRB     r0,[r1,r2]
        0x0000534c:    e7ff        ..      B        0x534e ; customValueInputFix + 1130
        0x0000534e:    9812        ..      LDR      r0,[sp,#0x48]
        0x00005350:    1c40        @.      ADDS     r0,r0,#1
        0x00005352:    9012        ..      STR      r0,[sp,#0x48]
        0x00005354:    e7ee        ..      B        0x5334 ; customValueInputFix + 1104
        0x00005356:    a813        ..      ADD      r0,sp,#0x4c
        0x00005358:    7802        .x      LDRB     r2,[r0,#0]
        0x0000535a:    4915        .I      LDR      r1,[pc,#84] ; [0x53b0] = 0x2000010d
        0x0000535c:    a814        ..      ADD      r0,sp,#0x50
        0x0000535e:    9002        ..      STR      r0,[sp,#8]
        0x00005360:    f7faff4c    ..L.    BL       strncat ; 0x1fc
        0x00005364:    9a02        ..      LDR      r2,[sp,#8]
        0x00005366:    9818        ..      LDR      r0,[sp,#0x60]
        0x00005368:    6a04        .j      LDR      r4,[r0,#0x20]
        0x0000536a:    9000        ..      STR      r0,[sp,#0]
        0x0000536c:    4b12        .K      LDR      r3,[pc,#72] ; [0x53b8] = 0x20000018
        0x0000536e:    2100        .!      MOVS     r1,#0
        0x00005370:    4608        .F      MOV      r0,r1
        0x00005372:    47a0        .G      BLX      r4
        0x00005374:    9818        ..      LDR      r0,[sp,#0x60]
        0x00005376:    6901        .i      LDR      r1,[r0,#0x10]
        0x00005378:    4788        .G      BLX      r1
        0x0000537a:    e7ff        ..      B        0x537c ; customValueInputFix + 1176
        0x0000537c:    e7ff        ..      B        0x537e ; customValueInputFix + 1178
        0x0000537e:    480c        .H      LDR      r0,[pc,#48] ; [0x53b0] = 0x2000010d
        0x00005380:    f002f8bf    ....    BL       atof ; 0x7502
        0x00005384:    f7fbf928    ..(.    BL       __aeabi_d2f ; 0x5d8
        0x00005388:    b01a        ..      ADD      sp,sp,#0x68
        0x0000538a:    bd10        ..      POP      {r4,pc}
    $d.24
    __arm_cp.12_0
        0x0000538c:    20000114    ...     DCD    536871188
    __arm_cp.12_1
        0x00005390:    42c80000    ...B    DCD    1120403456
    __arm_cp.12_2
        0x00005394:    42c60000    ...B    DCD    1120272384
    __arm_cp.12_3
        0x00005398:    4479c000    ..yD    DCD    1148829696
    __arm_cp.12_4
        0x0000539c:    461c3c00    .<.F    DCD    1176255488
    __arm_cp.12_5
        0x000053a0:    47c34f80    .O.G    DCD    1203982208
    __arm_cp.12_6
        0x000053a4:    497423f0    .#tI    DCD    1232348144
    __arm_cp.12_7
        0x000053a8:    200004f8    ...     DCD    536872184
    __arm_cp.12_8
        0x000053ac:    2000010c    ...     DCD    536871180
    __arm_cp.12_9
        0x000053b0:    2000010d    ...     DCD    536871181
    __arm_cp.12_10
        0x000053b4:    000079c7    .y..    DCD    31175
    __arm_cp.12_11
        0x000053b8:    20000018    ...     DCD    536870936
    __arm_cp.12_12
        0x000053bc:    000079bf    .y..    DCD    31167
    __arm_cp.12_13
        0x000053c0:    000079b7    .y..    DCD    31159
    __arm_cp.12_14
        0x000053c4:    000079af    .y..    DCD    31151
    __arm_cp.12_15
        0x000053c8:    000079a8    .y..    DCD    31144
    __arm_cp.12_16
        0x000053cc:    41200000    .. A    DCD    1092616192
    __arm_cp.12_17
        0x000053d0:    00007a27    'z..    DCD    31271
    __arm_cp.12_18
        0x000053d4:    00007a22    "z..    DCD    31266
    __arm_cp.12_19
        0x000053d8:    00007a1d    .z..    DCD    31261
    __arm_cp.12_20
        0x000053dc:    00007a18    .z..    DCD    31256
    __arm_cp.12_21
        0x000053e0:    00007a15    .z..    DCD    31253
    $t.6
    eeprom_read_array
        0x000053e4:    b580        ..      PUSH     {r7,lr}
        0x000053e6:    b086        ..      SUB      sp,sp,#0x18
        0x000053e8:    9004        ..      STR      r0,[sp,#0x10]
        0x000053ea:    9103        ..      STR      r1,[sp,#0xc]
        0x000053ec:    f7fff872    ..r.    BL       SYS_UnlockReg ; 0x44d4
        0x000053f0:    f7fdfbac    ....    BL       FMC_Open ; 0x2b4c
        0x000053f4:    493d        =I      LDR      r1,[pc,#244] ; [0x54ec] = 0x4000c000
        0x000053f6:    6808        .h      LDR      r0,[r1,#0]
        0x000053f8:    2208        ."      MOVS     r2,#8
        0x000053fa:    4310        .C      ORRS     r0,r0,r2
        0x000053fc:    6008        .`      STR      r0,[r1,#0]
        0x000053fe:    9804        ..      LDR      r0,[sp,#0x10]
        0x00005400:    f7fdfbac    ....    BL       FMC_Read ; 0x2b5c
        0x00005404:    9002        ..      STR      r0,[sp,#8]
        0x00005406:    9802        ..      LDR      r0,[sp,#8]
        0x00005408:    2814        .(      CMP      r0,#0x14
        0x0000540a:    d004        ..      BEQ      0x5416 ; eeprom_read_array + 50
        0x0000540c:    e7ff        ..      B        0x540e ; eeprom_read_array + 42
        0x0000540e:    a905        ..      ADD      r1,sp,#0x14
        0x00005410:    2000        .       MOVS     r0,#0
        0x00005412:    7008        .p      STRB     r0,[r1,#0]
        0x00005414:    e021        !.      B        0x545a ; eeprom_read_array + 118
        0x00005416:    a901        ..      ADD      r1,sp,#4
        0x00005418:    2000        .       MOVS     r0,#0
        0x0000541a:    7008        .p      STRB     r0,[r1,#0]
        0x0000541c:    7008        .p      STRB     r0,[r1,#0]
        0x0000541e:    e7ff        ..      B        0x5420 ; eeprom_read_array + 60
        0x00005420:    a801        ..      ADD      r0,sp,#4
        0x00005422:    7800        .x      LDRB     r0,[r0,#0]
        0x00005424:    9902        ..      LDR      r1,[sp,#8]
        0x00005426:    4288        .B      CMP      r0,r1
        0x00005428:    d211        ..      BCS      0x544e ; eeprom_read_array + 106
        0x0000542a:    e7ff        ..      B        0x542c ; eeprom_read_array + 72
        0x0000542c:    9804        ..      LDR      r0,[sp,#0x10]
        0x0000542e:    1d00        ..      ADDS     r0,r0,#4
        0x00005430:    9004        ..      STR      r0,[sp,#0x10]
        0x00005432:    9804        ..      LDR      r0,[sp,#0x10]
        0x00005434:    f7fdfb92    ....    BL       FMC_Read ; 0x2b5c
        0x00005438:    9903        ..      LDR      r1,[sp,#0xc]
        0x0000543a:    aa01        ..      ADD      r2,sp,#4
        0x0000543c:    7812        .x      LDRB     r2,[r2,#0]
        0x0000543e:    0092        ..      LSLS     r2,r2,#2
        0x00005440:    5088        .P      STR      r0,[r1,r2]
        0x00005442:    e7ff        ..      B        0x5444 ; eeprom_read_array + 96
        0x00005444:    9801        ..      LDR      r0,[sp,#4]
        0x00005446:    1c40        @.      ADDS     r0,r0,#1
        0x00005448:    a901        ..      ADD      r1,sp,#4
        0x0000544a:    7008        .p      STRB     r0,[r1,#0]
        0x0000544c:    e7e8        ..      B        0x5420 ; eeprom_read_array + 60
        0x0000544e:    f7fdfb1f    ....    BL       FMC_Close ; 0x2a90
        0x00005452:    a905        ..      ADD      r1,sp,#0x14
        0x00005454:    2001        .       MOVS     r0,#1
        0x00005456:    7008        .p      STRB     r0,[r1,#0]
        0x00005458:    e7ff        ..      B        0x545a ; eeprom_read_array + 118
        0x0000545a:    a805        ..      ADD      r0,sp,#0x14
        0x0000545c:    7800        .x      LDRB     r0,[r0,#0]
        0x0000545e:    b006        ..      ADD      sp,sp,#0x18
        0x00005460:    bd80        ..      POP      {r7,pc}
        0x00005462:    46c0        .F      MOV      r8,r8
    eeprom_write_array
        0x00005464:    b580        ..      PUSH     {r7,lr}
        0x00005466:    b088        ..      SUB      sp,sp,#0x20
        0x00005468:    9007        ..      STR      r0,[sp,#0x1c]
        0x0000546a:    9106        ..      STR      r1,[sp,#0x18]
        0x0000546c:    a805        ..      ADD      r0,sp,#0x14
        0x0000546e:    9001        ..      STR      r0,[sp,#4]
        0x00005470:    7002        .p      STRB     r2,[r0,#0]
        0x00005472:    a904        ..      ADD      r1,sp,#0x10
        0x00005474:    9102        ..      STR      r1,[sp,#8]
        0x00005476:    2000        .       MOVS     r0,#0
        0x00005478:    9003        ..      STR      r0,[sp,#0xc]
        0x0000547a:    7008        .p      STRB     r0,[r1,#0]
        0x0000547c:    f7fff82a    ..*.    BL       SYS_UnlockReg ; 0x44d4
        0x00005480:    f7fdfb64    ..d.    BL       FMC_Open ; 0x2b4c
        0x00005484:    4919        .I      LDR      r1,[pc,#100] ; [0x54ec] = 0x4000c000
        0x00005486:    6808        .h      LDR      r0,[r1,#0]
        0x00005488:    2208        ."      MOVS     r2,#8
        0x0000548a:    4310        .C      ORRS     r0,r0,r2
        0x0000548c:    6008        .`      STR      r0,[r1,#0]
        0x0000548e:    9807        ..      LDR      r0,[sp,#0x1c]
        0x00005490:    f7fdfb04    ....    BL       FMC_Erase ; 0x2a9c
        0x00005494:    9901        ..      LDR      r1,[sp,#4]
        0x00005496:    9807        ..      LDR      r0,[sp,#0x1c]
        0x00005498:    7809        .x      LDRB     r1,[r1,#0]
        0x0000549a:    f7fdfb9d    ....    BL       FMC_Write ; 0x2bd8
        0x0000549e:    9902        ..      LDR      r1,[sp,#8]
        0x000054a0:    9803        ..      LDR      r0,[sp,#0xc]
        0x000054a2:    7008        .p      STRB     r0,[r1,#0]
        0x000054a4:    e7ff        ..      B        0x54a6 ; eeprom_write_array + 66
        0x000054a6:    a804        ..      ADD      r0,sp,#0x10
        0x000054a8:    7800        .x      LDRB     r0,[r0,#0]
        0x000054aa:    a905        ..      ADD      r1,sp,#0x14
        0x000054ac:    7809        .x      LDRB     r1,[r1,#0]
        0x000054ae:    4288        .B      CMP      r0,r1
        0x000054b0:    da11        ..      BGE      0x54d6 ; eeprom_write_array + 114
        0x000054b2:    e7ff        ..      B        0x54b4 ; eeprom_write_array + 80
        0x000054b4:    9807        ..      LDR      r0,[sp,#0x1c]
        0x000054b6:    1d00        ..      ADDS     r0,r0,#4
        0x000054b8:    9007        ..      STR      r0,[sp,#0x1c]
        0x000054ba:    9807        ..      LDR      r0,[sp,#0x1c]
        0x000054bc:    9906        ..      LDR      r1,[sp,#0x18]
        0x000054be:    aa04        ..      ADD      r2,sp,#0x10
        0x000054c0:    7812        .x      LDRB     r2,[r2,#0]
        0x000054c2:    0092        ..      LSLS     r2,r2,#2
        0x000054c4:    5889        .X      LDR      r1,[r1,r2]
        0x000054c6:    f7fdfb87    ....    BL       FMC_Write ; 0x2bd8
        0x000054ca:    e7ff        ..      B        0x54cc ; eeprom_write_array + 104
        0x000054cc:    9804        ..      LDR      r0,[sp,#0x10]
        0x000054ce:    1c40        @.      ADDS     r0,r0,#1
        0x000054d0:    a904        ..      ADD      r1,sp,#0x10
        0x000054d2:    7008        .p      STRB     r0,[r1,#0]
        0x000054d4:    e7e7        ..      B        0x54a6 ; eeprom_write_array + 66
        0x000054d6:    4905        .I      LDR      r1,[pc,#20] ; [0x54ec] = 0x4000c000
        0x000054d8:    6808        .h      LDR      r0,[r1,#0]
        0x000054da:    2208        ."      MOVS     r2,#8
        0x000054dc:    4390        .C      BICS     r0,r0,r2
        0x000054de:    6008        .`      STR      r0,[r1,#0]
        0x000054e0:    f7fdfad6    ....    BL       FMC_Close ; 0x2a90
        0x000054e4:    f7feffd2    ....    BL       SYS_LockReg ; 0x448c
        0x000054e8:    b008        ..      ADD      sp,sp,#0x20
        0x000054ea:    bd80        ..      POP      {r7,pc}
    $d.1
    __arm_cp.0_0
        0x000054ec:    4000c000    ...@    DCD    1073790976
    $t.33
    f0_Saved
        0x000054f0:    b580        ..      PUSH     {r7,lr}
        0x000054f2:    b082        ..      SUB      sp,sp,#8
        0x000054f4:    480c        .H      LDR      r0,[pc,#48] ; [0x5528] = 0x200004f8
        0x000054f6:    9000        ..      STR      r0,[sp,#0]
        0x000054f8:    6800        .h      LDR      r0,[r0,#0]
        0x000054fa:    6a02        .j      LDR      r2,[r0,#0x20]
        0x000054fc:    207f        .       MOVS     r0,#0x7f
        0x000054fe:    05c0        ..      LSLS     r0,r0,#23
        0x00005500:    2140        @!      MOVS     r1,#0x40
        0x00005502:    4790        .G      BLX      r2
        0x00005504:    9800        ..      LDR      r0,[sp,#0]
        0x00005506:    6800        .h      LDR      r0,[r0,#0]
        0x00005508:    6a80        .j      LDR      r0,[r0,#0x28]
        0x0000550a:    4780        .G      BLX      r0
        0x0000550c:    4601        .F      MOV      r1,r0
        0x0000550e:    9800        ..      LDR      r0,[sp,#0]
        0x00005510:    4a64        dJ      LDR      r2,[pc,#400] ; [0x56a4] = 0x200004bc
        0x00005512:    9201        ..      STR      r2,[sp,#4]
        0x00005514:    6011        .`      STR      r1,[r2,#0]
        0x00005516:    6800        .h      LDR      r0,[r0,#0]
        0x00005518:    6c00        .l      LDR      r0,[r0,#0x40]
        0x0000551a:    4780        .G      BLX      r0
        0x0000551c:    9801        ..      LDR      r0,[sp,#4]
        0x0000551e:    f001fb03    ....    BL       writeFlashMemoryInformation ; 0x6b28
        0x00005522:    b002        ..      ADD      sp,sp,#8
        0x00005524:    bd80        ..      POP      {r7,pc}
        0x00005526:    46c0        .F      MOV      r8,r8
    $d.34
    __arm_cp.19_0
        0x00005528:    200004f8    ...     DCD    536872184
    $t.43
    f1_Saved
        0x0000552c:    b510        ..      PUSH     {r4,lr}
        0x0000552e:    b082        ..      SUB      sp,sp,#8
        0x00005530:    4858        XH      LDR      r0,[pc,#352] ; [0x5694] = 0x200004ec
        0x00005532:    9001        ..      STR      r0,[sp,#4]
        0x00005534:    6800        .h      LDR      r0,[r0,#0]
        0x00005536:    6a04        .j      LDR      r4,[r0,#0x20]
        0x00005538:    4957        WI      LDR      r1,[pc,#348] ; [0x5698] = 0x200004e0
        0x0000553a:    680b        .h      LDR      r3,[r1,#0]
        0x0000553c:    9000        ..      STR      r0,[sp,#0]
        0x0000553e:    4a57        WJ      LDR      r2,[pc,#348] ; [0x569c] = 0x7a2c
        0x00005540:    2100        .!      MOVS     r1,#0
        0x00005542:    4608        .F      MOV      r0,r1
        0x00005544:    47a0        .G      BLX      r4
        0x00005546:    9801        ..      LDR      r0,[sp,#4]
        0x00005548:    6800        .h      LDR      r0,[r0,#0]
        0x0000554a:    6901        .i      LDR      r1,[r0,#0x10]
        0x0000554c:    4788        .G      BLX      r1
        0x0000554e:    4803        .H      LDR      r0,[pc,#12] ; [0x555c] = 0x20000100
        0x00005550:    7800        .x      LDRB     r0,[r0,#0]
        0x00005552:    4954        TI      LDR      r1,[pc,#336] ; [0x56a4] = 0x200004bc
        0x00005554:    7208        .r      STRB     r0,[r1,#8]
        0x00005556:    b002        ..      ADD      sp,sp,#8
        0x00005558:    bd10        ..      POP      {r4,pc}
        0x0000555a:    46c0        .F      MOV      r8,r8
    $d.44
    __arm_cp.24_3
        0x0000555c:    20000100    ...     DCD    536871168
    $t.53
    f2_Saved
        0x00005560:    b510        ..      PUSH     {r4,lr}
        0x00005562:    b082        ..      SUB      sp,sp,#8
        0x00005564:    484b        KH      LDR      r0,[pc,#300] ; [0x5694] = 0x200004ec
        0x00005566:    9001        ..      STR      r0,[sp,#4]
        0x00005568:    6800        .h      LDR      r0,[r0,#0]
        0x0000556a:    6a04        .j      LDR      r4,[r0,#0x20]
        0x0000556c:    494a        JI      LDR      r1,[pc,#296] ; [0x5698] = 0x200004e0
        0x0000556e:    680b        .h      LDR      r3,[r1,#0]
        0x00005570:    9000        ..      STR      r0,[sp,#0]
        0x00005572:    4a4a        JJ      LDR      r2,[pc,#296] ; [0x569c] = 0x7a2c
        0x00005574:    2100        .!      MOVS     r1,#0
        0x00005576:    4608        .F      MOV      r0,r1
        0x00005578:    47a0        .G      BLX      r4
        0x0000557a:    9801        ..      LDR      r0,[sp,#4]
        0x0000557c:    6800        .h      LDR      r0,[r0,#0]
        0x0000557e:    6901        .i      LDR      r1,[r0,#0x10]
        0x00005580:    4788        .G      BLX      r1
        0x00005582:    4803        .H      LDR      r0,[pc,#12] ; [0x5590] = 0x200000fc
        0x00005584:    7800        .x      LDRB     r0,[r0,#0]
        0x00005586:    4947        GI      LDR      r1,[pc,#284] ; [0x56a4] = 0x200004bc
        0x00005588:    7248        Hr      STRB     r0,[r1,#9]
        0x0000558a:    b002        ..      ADD      sp,sp,#8
        0x0000558c:    bd10        ..      POP      {r4,pc}
        0x0000558e:    46c0        .F      MOV      r8,r8
    $d.54
    __arm_cp.29_3
        0x00005590:    200000fc    ...     DCD    536871164
    $t.65
    f3_Saved
        0x00005594:    b510        ..      PUSH     {r4,lr}
        0x00005596:    b082        ..      SUB      sp,sp,#8
        0x00005598:    483e        >H      LDR      r0,[pc,#248] ; [0x5694] = 0x200004ec
        0x0000559a:    9001        ..      STR      r0,[sp,#4]
        0x0000559c:    6800        .h      LDR      r0,[r0,#0]
        0x0000559e:    6a04        .j      LDR      r4,[r0,#0x20]
        0x000055a0:    493d        =I      LDR      r1,[pc,#244] ; [0x5698] = 0x200004e0
        0x000055a2:    680b        .h      LDR      r3,[r1,#0]
        0x000055a4:    9000        ..      STR      r0,[sp,#0]
        0x000055a6:    4a3d        =J      LDR      r2,[pc,#244] ; [0x569c] = 0x7a2c
        0x000055a8:    2100        .!      MOVS     r1,#0
        0x000055aa:    4608        .F      MOV      r0,r1
        0x000055ac:    47a0        .G      BLX      r4
        0x000055ae:    9801        ..      LDR      r0,[sp,#4]
        0x000055b0:    6800        .h      LDR      r0,[r0,#0]
        0x000055b2:    6901        .i      LDR      r1,[r0,#0x10]
        0x000055b4:    4788        .G      BLX      r1
        0x000055b6:    4803        .H      LDR      r0,[pc,#12] ; [0x55c4] = 0x200000fd
        0x000055b8:    7800        .x      LDRB     r0,[r0,#0]
        0x000055ba:    493a        :I      LDR      r1,[pc,#232] ; [0x56a4] = 0x200004bc
        0x000055bc:    7288        .r      STRB     r0,[r1,#0xa]
        0x000055be:    b002        ..      ADD      sp,sp,#8
        0x000055c0:    bd10        ..      POP      {r4,pc}
        0x000055c2:    46c0        .F      MOV      r8,r8
    $d.66
    __arm_cp.35_3
        0x000055c4:    200000fd    ...     DCD    536871165
    $t.71
    f4_Saved
        0x000055c8:    b510        ..      PUSH     {r4,lr}
        0x000055ca:    b082        ..      SUB      sp,sp,#8
        0x000055cc:    4831        1H      LDR      r0,[pc,#196] ; [0x5694] = 0x200004ec
        0x000055ce:    9001        ..      STR      r0,[sp,#4]
        0x000055d0:    6800        .h      LDR      r0,[r0,#0]
        0x000055d2:    6a04        .j      LDR      r4,[r0,#0x20]
        0x000055d4:    4930        0I      LDR      r1,[pc,#192] ; [0x5698] = 0x200004e0
        0x000055d6:    680b        .h      LDR      r3,[r1,#0]
        0x000055d8:    9000        ..      STR      r0,[sp,#0]
        0x000055da:    4a30        0J      LDR      r2,[pc,#192] ; [0x569c] = 0x7a2c
        0x000055dc:    2100        .!      MOVS     r1,#0
        0x000055de:    4608        .F      MOV      r0,r1
        0x000055e0:    47a0        .G      BLX      r4
        0x000055e2:    9801        ..      LDR      r0,[sp,#4]
        0x000055e4:    6800        .h      LDR      r0,[r0,#0]
        0x000055e6:    6901        .i      LDR      r1,[r0,#0x10]
        0x000055e8:    4788        .G      BLX      r1
        0x000055ea:    4803        .H      LDR      r0,[pc,#12] ; [0x55f8] = 0x20000102
        0x000055ec:    7800        .x      LDRB     r0,[r0,#0]
        0x000055ee:    492d        -I      LDR      r1,[pc,#180] ; [0x56a4] = 0x200004bc
        0x000055f0:    72c8        .r      STRB     r0,[r1,#0xb]
        0x000055f2:    b002        ..      ADD      sp,sp,#8
        0x000055f4:    bd10        ..      POP      {r4,pc}
        0x000055f6:    46c0        .F      MOV      r8,r8
    $d.72
    __arm_cp.38_3
        0x000055f8:    20000102    ...     DCD    536871170
    $t.79
    f5_Saved
        0x000055fc:    b510        ..      PUSH     {r4,lr}
        0x000055fe:    b082        ..      SUB      sp,sp,#8
        0x00005600:    4824        $H      LDR      r0,[pc,#144] ; [0x5694] = 0x200004ec
        0x00005602:    9001        ..      STR      r0,[sp,#4]
        0x00005604:    6800        .h      LDR      r0,[r0,#0]
        0x00005606:    6a04        .j      LDR      r4,[r0,#0x20]
        0x00005608:    4923        #I      LDR      r1,[pc,#140] ; [0x5698] = 0x200004e0
        0x0000560a:    680b        .h      LDR      r3,[r1,#0]
        0x0000560c:    9000        ..      STR      r0,[sp,#0]
        0x0000560e:    4a23        #J      LDR      r2,[pc,#140] ; [0x569c] = 0x7a2c
        0x00005610:    2100        .!      MOVS     r1,#0
        0x00005612:    4608        .F      MOV      r0,r1
        0x00005614:    47a0        .G      BLX      r4
        0x00005616:    9801        ..      LDR      r0,[sp,#4]
        0x00005618:    6800        .h      LDR      r0,[r0,#0]
        0x0000561a:    6901        .i      LDR      r1,[r0,#0x10]
        0x0000561c:    4788        .G      BLX      r1
        0x0000561e:    4803        .H      LDR      r0,[pc,#12] ; [0x562c] = 0x20000101
        0x00005620:    7800        .x      LDRB     r0,[r0,#0]
        0x00005622:    4920         I      LDR      r1,[pc,#128] ; [0x56a4] = 0x200004bc
        0x00005624:    7308        .s      STRB     r0,[r1,#0xc]
        0x00005626:    b002        ..      ADD      sp,sp,#8
        0x00005628:    bd10        ..      POP      {r4,pc}
        0x0000562a:    46c0        .F      MOV      r8,r8
    $d.80
    __arm_cp.42_3
        0x0000562c:    20000101    ...     DCD    536871169
    $t.89
    f6_Saved
        0x00005630:    b510        ..      PUSH     {r4,lr}
        0x00005632:    b082        ..      SUB      sp,sp,#8
        0x00005634:    4817        .H      LDR      r0,[pc,#92] ; [0x5694] = 0x200004ec
        0x00005636:    9001        ..      STR      r0,[sp,#4]
        0x00005638:    6800        .h      LDR      r0,[r0,#0]
        0x0000563a:    6a04        .j      LDR      r4,[r0,#0x20]
        0x0000563c:    4916        .I      LDR      r1,[pc,#88] ; [0x5698] = 0x200004e0
        0x0000563e:    680b        .h      LDR      r3,[r1,#0]
        0x00005640:    9000        ..      STR      r0,[sp,#0]
        0x00005642:    4a16        .J      LDR      r2,[pc,#88] ; [0x569c] = 0x7a2c
        0x00005644:    2100        .!      MOVS     r1,#0
        0x00005646:    4608        .F      MOV      r0,r1
        0x00005648:    47a0        .G      BLX      r4
        0x0000564a:    9801        ..      LDR      r0,[sp,#4]
        0x0000564c:    6800        .h      LDR      r0,[r0,#0]
        0x0000564e:    6901        .i      LDR      r1,[r0,#0x10]
        0x00005650:    4788        .G      BLX      r1
        0x00005652:    4803        .H      LDR      r0,[pc,#12] ; [0x5660] = 0x200000fe
        0x00005654:    7800        .x      LDRB     r0,[r0,#0]
        0x00005656:    4913        .I      LDR      r1,[pc,#76] ; [0x56a4] = 0x200004bc
        0x00005658:    7348        Hs      STRB     r0,[r1,#0xd]
        0x0000565a:    b002        ..      ADD      sp,sp,#8
        0x0000565c:    bd10        ..      POP      {r4,pc}
        0x0000565e:    46c0        .F      MOV      r8,r8
    $d.90
    __arm_cp.47_3
        0x00005660:    200000fe    ...     DCD    536871166
    $t.95
    f7_Saved
        0x00005664:    b510        ..      PUSH     {r4,lr}
        0x00005666:    b082        ..      SUB      sp,sp,#8
        0x00005668:    480a        .H      LDR      r0,[pc,#40] ; [0x5694] = 0x200004ec
        0x0000566a:    9001        ..      STR      r0,[sp,#4]
        0x0000566c:    6800        .h      LDR      r0,[r0,#0]
        0x0000566e:    6a04        .j      LDR      r4,[r0,#0x20]
        0x00005670:    4909        .I      LDR      r1,[pc,#36] ; [0x5698] = 0x200004e0
        0x00005672:    680b        .h      LDR      r3,[r1,#0]
        0x00005674:    9000        ..      STR      r0,[sp,#0]
        0x00005676:    4a09        .J      LDR      r2,[pc,#36] ; [0x569c] = 0x7a2c
        0x00005678:    2100        .!      MOVS     r1,#0
        0x0000567a:    4608        .F      MOV      r0,r1
        0x0000567c:    47a0        .G      BLX      r4
        0x0000567e:    9801        ..      LDR      r0,[sp,#4]
        0x00005680:    6800        .h      LDR      r0,[r0,#0]
        0x00005682:    6901        .i      LDR      r1,[r0,#0x10]
        0x00005684:    4788        .G      BLX      r1
        0x00005686:    4806        .H      LDR      r0,[pc,#24] ; [0x56a0] = 0x200000ff
        0x00005688:    7800        .x      LDRB     r0,[r0,#0]
        0x0000568a:    4906        .I      LDR      r1,[pc,#24] ; [0x56a4] = 0x200004bc
        0x0000568c:    7388        .s      STRB     r0,[r1,#0xe]
        0x0000568e:    b002        ..      ADD      sp,sp,#8
        0x00005690:    bd10        ..      POP      {r4,pc}
        0x00005692:    46c0        .F      MOV      r8,r8
    $d.96
    __arm_cp.50_0
        0x00005694:    200004ec    ...     DCD    536872172
    __arm_cp.50_1
        0x00005698:    200004e0    ...     DCD    536872160
    __arm_cp.50_2
        0x0000569c:    00007a2c    ,z..    DCD    31276
    __arm_cp.50_3
        0x000056a0:    200000ff    ...     DCD    536871167
    __arm_cp.50_4
        0x000056a4:    200004bc    ...     DCD    536872124
    $t.14
    fputc
        0x000056a8:    b580        ..      PUSH     {r7,lr}
        0x000056aa:    b082        ..      SUB      sp,sp,#8
        0x000056ac:    9001        ..      STR      r0,[sp,#4]
        0x000056ae:    9100        ..      STR      r1,[sp,#0]
        0x000056b0:    9801        ..      LDR      r0,[sp,#4]
        0x000056b2:    f7feff9d    ....    BL       SendChar ; 0x45f0
        0x000056b6:    9801        ..      LDR      r0,[sp,#4]
        0x000056b8:    b002        ..      ADD      sp,sp,#8
        0x000056ba:    bd80        ..      POP      {r7,pc}
    main
        0x000056bc:    b580        ..      PUSH     {r7,lr}
        0x000056be:    b082        ..      SUB      sp,sp,#8
        0x000056c0:    2000        .       MOVS     r0,#0
        0x000056c2:    9001        ..      STR      r0,[sp,#4]
        0x000056c4:    f7fff822    ..".    BL       System_Init ; 0x470c
        0x000056c8:    4808        .H      LDR      r0,[pc,#32] ; [0x56ec] = 0x78cf
        0x000056ca:    f001fa5f    .._.    BL       __0printf ; 0x6b8c
        0x000056ce:    4808        .H      LDR      r0,[pc,#32] ; [0x56f0] = 0x20000014
        0x000056d0:    6800        .h      LDR      r0,[r0,#0]
        0x000056d2:    4908        .I      LDR      r1,[pc,#32] ; [0x56f4] = 0xf4240
        0x000056d4:    fbb0f1f1    ....    UDIV     r1,r0,r1
        0x000056d8:    4807        .H      LDR      r0,[pc,#28] ; [0x56f8] = 0x78fb
        0x000056da:    f001fa57    ..W.    BL       __0printf ; 0x6b8c
        0x000056de:    f7fcf8c3    ....    BL       APP_Init ; 0x1868
        0x000056e2:    e7ff        ..      B        0x56e4 ; main + 40
        0x000056e4:    f7fcf870    ..p.    BL       APP_Handle ; 0x17c8
        0x000056e8:    e7fc        ..      B        0x56e4 ; main + 40
        0x000056ea:    46c0        .F      MOV      r8,r8
    $d.6
    __arm_cp.3_0
        0x000056ec:    000078cf    .x..    DCD    30927
    __arm_cp.3_1
        0x000056f0:    20000014    ...     DCD    536870932
    __arm_cp.3_2
        0x000056f4:    000f4240    @B..    DCD    1000000
    __arm_cp.3_3
        0x000056f8:    000078fb    .x..    DCD    30971
    $t.4
    millis
        0x000056fc:    b580        ..      PUSH     {r7,lr}
        0x000056fe:    f7feffa1    ....    BL       SysTickCounter ; 0x4644
        0x00005702:    bd80        ..      POP      {r7,pc}
    newKeyPadObj
        0x00005704:    b580        ..      PUSH     {r7,lr}
        0x00005706:    b082        ..      SUB      sp,sp,#8
        0x00005708:    2014        .       MOVS     r0,#0x14
        0x0000570a:    f001ff11    ....    BL       malloc ; 0x7530
        0x0000570e:    9001        ..      STR      r0,[sp,#4]
        0x00005710:    9801        ..      LDR      r0,[sp,#4]
        0x00005712:    b910        ..      CBNZ     r0,0x571a ; newKeyPadObj + 22
        0x00005714:    e7ff        ..      B        0x5716 ; newKeyPadObj + 18
        0x00005716:    e7ff        ..      B        0x5718 ; newKeyPadObj + 20
        0x00005718:    e7fe        ..      B        0x5718 ; newKeyPadObj + 20
        0x0000571a:    e7ff        ..      B        0x571c ; newKeyPadObj + 24
        0x0000571c:    9901        ..      LDR      r1,[sp,#4]
        0x0000571e:    4808        .H      LDR      r0,[pc,#32] ; [0x5740] = 0x341d
        0x00005720:    6008        .`      STR      r0,[r1,#0]
        0x00005722:    9901        ..      LDR      r1,[sp,#4]
        0x00005724:    4807        .H      LDR      r0,[pc,#28] ; [0x5744] = 0x44f9
        0x00005726:    6048        H`      STR      r0,[r1,#4]
        0x00005728:    9901        ..      LDR      r1,[sp,#4]
        0x0000572a:    4807        .H      LDR      r0,[pc,#28] ; [0x5748] = 0x5abd
        0x0000572c:    6088        .`      STR      r0,[r1,#8]
        0x0000572e:    9901        ..      LDR      r1,[sp,#4]
        0x00005730:    4806        .H      LDR      r0,[pc,#24] ; [0x574c] = 0x5aa5
        0x00005732:    60c8        .`      STR      r0,[r1,#0xc]
        0x00005734:    9901        ..      LDR      r1,[sp,#4]
        0x00005736:    4806        .H      LDR      r0,[pc,#24] ; [0x5750] = 0x5a2d
        0x00005738:    6108        .a      STR      r0,[r1,#0x10]
        0x0000573a:    9801        ..      LDR      r0,[sp,#4]
        0x0000573c:    b002        ..      ADD      sp,sp,#8
        0x0000573e:    bd80        ..      POP      {r7,pc}
    $d.1
    __arm_cp.0_0
        0x00005740:    0000341d    .4..    DCD    13341
    __arm_cp.0_1
        0x00005744:    000044f9    .D..    DCD    17657
    __arm_cp.0_2
        0x00005748:    00005abd    .Z..    DCD    23229
    __arm_cp.0_3
        0x0000574c:    00005aa5    .Z..    DCD    23205
    __arm_cp.0_4
        0x00005750:    00005a2d    -Z..    DCD    23085
    $t.9
    newLCDObj
        0x00005754:    b580        ..      PUSH     {r7,lr}
        0x00005756:    b082        ..      SUB      sp,sp,#8
        0x00005758:    9001        ..      STR      r0,[sp,#4]
        0x0000575a:    2044        D       MOVS     r0,#0x44
        0x0000575c:    f001fee8    ....    BL       malloc ; 0x7530
        0x00005760:    9000        ..      STR      r0,[sp,#0]
        0x00005762:    9800        ..      LDR      r0,[sp,#0]
        0x00005764:    b910        ..      CBNZ     r0,0x576c ; newLCDObj + 24
        0x00005766:    e7ff        ..      B        0x5768 ; newLCDObj + 20
        0x00005768:    e7ff        ..      B        0x576a ; newLCDObj + 22
        0x0000576a:    e7fe        ..      B        0x576a ; newLCDObj + 22
        0x0000576c:    e7ff        ..      B        0x576e ; newLCDObj + 26
        0x0000576e:    9900        ..      LDR      r1,[sp,#0]
        0x00005770:    481a        .H      LDR      r0,[pc,#104] ; [0x57dc] = 0x1043
        0x00005772:    6008        .`      STR      r0,[r1,#0]
        0x00005774:    9900        ..      LDR      r1,[sp,#0]
        0x00005776:    481a        .H      LDR      r0,[pc,#104] ; [0x57e0] = 0x15a1
        0x00005778:    6048        H`      STR      r0,[r1,#4]
        0x0000577a:    9900        ..      LDR      r1,[sp,#0]
        0x0000577c:    4819        .H      LDR      r0,[pc,#100] ; [0x57e4] = 0x1571
        0x0000577e:    6088        .`      STR      r0,[r1,#8]
        0x00005780:    9900        ..      LDR      r1,[sp,#0]
        0x00005782:    4819        .H      LDR      r0,[pc,#100] ; [0x57e8] = 0x1025
        0x00005784:    60c8        .`      STR      r0,[r1,#0xc]
        0x00005786:    9900        ..      LDR      r1,[sp,#0]
        0x00005788:    4818        .H      LDR      r0,[pc,#96] ; [0x57ec] = 0x1289
        0x0000578a:    6108        .a      STR      r0,[r1,#0x10]
        0x0000578c:    9900        ..      LDR      r1,[sp,#0]
        0x0000578e:    4818        .H      LDR      r0,[pc,#96] ; [0x57f0] = 0x13f7
        0x00005790:    6148        Ha      STR      r0,[r1,#0x14]
        0x00005792:    9900        ..      LDR      r1,[sp,#0]
        0x00005794:    4817        .H      LDR      r0,[pc,#92] ; [0x57f4] = 0x1465
        0x00005796:    6188        .a      STR      r0,[r1,#0x18]
        0x00005798:    9900        ..      LDR      r1,[sp,#0]
        0x0000579a:    4817        .H      LDR      r0,[pc,#92] ; [0x57f8] = 0x10e9
        0x0000579c:    61c8        .a      STR      r0,[r1,#0x1c]
        0x0000579e:    9900        ..      LDR      r1,[sp,#0]
        0x000057a0:    4816        .H      LDR      r0,[pc,#88] ; [0x57fc] = 0x12e5
        0x000057a2:    6208        .b      STR      r0,[r1,#0x20]
        0x000057a4:    9900        ..      LDR      r1,[sp,#0]
        0x000057a6:    4816        .H      LDR      r0,[pc,#88] ; [0x5800] = 0x135f
        0x000057a8:    6248        Hb      STR      r0,[r1,#0x24]
        0x000057aa:    9900        ..      LDR      r1,[sp,#0]
        0x000057ac:    4815        .H      LDR      r0,[pc,#84] ; [0x5804] = 0x1109
        0x000057ae:    6288        .b      STR      r0,[r1,#0x28]
        0x000057b0:    9900        ..      LDR      r1,[sp,#0]
        0x000057b2:    4815        .H      LDR      r0,[pc,#84] ; [0x5808] = 0x15f1
        0x000057b4:    62c8        .b      STR      r0,[r1,#0x2c]
        0x000057b6:    9801        ..      LDR      r0,[sp,#4]
        0x000057b8:    6800        .h      LDR      r0,[r0,#0]
        0x000057ba:    9900        ..      LDR      r1,[sp,#0]
        0x000057bc:    6308        .c      STR      r0,[r1,#0x30]
        0x000057be:    9801        ..      LDR      r0,[sp,#4]
        0x000057c0:    6880        .h      LDR      r0,[r0,#8]
        0x000057c2:    9900        ..      LDR      r1,[sp,#0]
        0x000057c4:    6388        .c      STR      r0,[r1,#0x38]
        0x000057c6:    9801        ..      LDR      r0,[sp,#4]
        0x000057c8:    6840        @h      LDR      r0,[r0,#4]
        0x000057ca:    9900        ..      LDR      r1,[sp,#0]
        0x000057cc:    6348        Hc      STR      r0,[r1,#0x34]
        0x000057ce:    9801        ..      LDR      r0,[sp,#4]
        0x000057d0:    300c        .0      ADDS     r0,r0,#0xc
        0x000057d2:    9900        ..      LDR      r1,[sp,#0]
        0x000057d4:    63c8        .c      STR      r0,[r1,#0x3c]
        0x000057d6:    9800        ..      LDR      r0,[sp,#0]
        0x000057d8:    b002        ..      ADD      sp,sp,#8
        0x000057da:    bd80        ..      POP      {r7,pc}
    $d.10
    __arm_cp.9_0
        0x000057dc:    00001043    C...    DCD    4163
    __arm_cp.9_1
        0x000057e0:    000015a1    ....    DCD    5537
    __arm_cp.9_2
        0x000057e4:    00001571    q...    DCD    5489
    __arm_cp.9_3
        0x000057e8:    00001025    %...    DCD    4133
    __arm_cp.9_4
        0x000057ec:    00001289    ....    DCD    4745
    __arm_cp.9_5
        0x000057f0:    000013f7    ....    DCD    5111
    __arm_cp.9_6
        0x000057f4:    00001465    e...    DCD    5221
    __arm_cp.9_7
        0x000057f8:    000010e9    ....    DCD    4329
    __arm_cp.9_8
        0x000057fc:    000012e5    ....    DCD    4837
    __arm_cp.9_9
        0x00005800:    0000135f    _...    DCD    4959
    __arm_cp.9_10
        0x00005804:    00001109    ....    DCD    4361
    __arm_cp.9_11
        0x00005808:    000015f1    ....    DCD    5617
    $t.1
    newMenuObj
        0x0000580c:    b580        ..      PUSH     {r7,lr}
        0x0000580e:    b082        ..      SUB      sp,sp,#8
        0x00005810:    2018        .       MOVS     r0,#0x18
        0x00005812:    f001fe8d    ....    BL       malloc ; 0x7530
        0x00005816:    9001        ..      STR      r0,[sp,#4]
        0x00005818:    9801        ..      LDR      r0,[sp,#4]
        0x0000581a:    b910        ..      CBNZ     r0,0x5822 ; newMenuObj + 22
        0x0000581c:    e7ff        ..      B        0x581e ; newMenuObj + 18
        0x0000581e:    e7ff        ..      B        0x5820 ; newMenuObj + 20
        0x00005820:    e7fe        ..      B        0x5820 ; newMenuObj + 20
        0x00005822:    e7ff        ..      B        0x5824 ; newMenuObj + 24
        0x00005824:    9901        ..      LDR      r1,[sp,#4]
        0x00005826:    480a        .H      LDR      r0,[pc,#40] ; [0x5850] = 0x348d
        0x00005828:    6008        .`      STR      r0,[r1,#0]
        0x0000582a:    9901        ..      LDR      r1,[sp,#4]
        0x0000582c:    4809        .H      LDR      r0,[pc,#36] ; [0x5854] = 0x2a45
        0x0000582e:    6048        H`      STR      r0,[r1,#4]
        0x00005830:    9901        ..      LDR      r1,[sp,#4]
        0x00005832:    4809        .H      LDR      r0,[pc,#36] ; [0x5858] = 0x2a6b
        0x00005834:    6088        .`      STR      r0,[r1,#8]
        0x00005836:    9901        ..      LDR      r1,[sp,#4]
        0x00005838:    4808        .H      LDR      r0,[pc,#32] ; [0x585c] = 0x4ac9
        0x0000583a:    60c8        .`      STR      r0,[r1,#0xc]
        0x0000583c:    9901        ..      LDR      r1,[sp,#4]
        0x0000583e:    4808        .H      LDR      r0,[pc,#32] ; [0x5860] = 0x29a9
        0x00005840:    6108        .a      STR      r0,[r1,#0x10]
        0x00005842:    9901        ..      LDR      r1,[sp,#4]
        0x00005844:    4807        .H      LDR      r0,[pc,#28] ; [0x5864] = 0x20000500
        0x00005846:    6148        Ha      STR      r0,[r1,#0x14]
        0x00005848:    9801        ..      LDR      r0,[sp,#4]
        0x0000584a:    b002        ..      ADD      sp,sp,#8
        0x0000584c:    bd80        ..      POP      {r7,pc}
        0x0000584e:    46c0        .F      MOV      r8,r8
    $d.2
    __arm_cp.1_0
        0x00005850:    0000348d    .4..    DCD    13453
    __arm_cp.1_1
        0x00005854:    00002a45    E*..    DCD    10821
    __arm_cp.1_2
        0x00005858:    00002a6b    k*..    DCD    10859
    __arm_cp.1_3
        0x0000585c:    00004ac9    .J..    DCD    19145
    __arm_cp.1_4
        0x00005860:    000029a9    .)..    DCD    10665
    __arm_cp.1_5
        0x00005864:    20000500    ...     DCD    536872192
    $t.0
    newScaleObj
        0x00005868:    b580        ..      PUSH     {r7,lr}
        0x0000586a:    b082        ..      SUB      sp,sp,#8
        0x0000586c:    207c        |       MOVS     r0,#0x7c
        0x0000586e:    f001fe5f    .._.    BL       malloc ; 0x7530
        0x00005872:    9001        ..      STR      r0,[sp,#4]
        0x00005874:    9801        ..      LDR      r0,[sp,#4]
        0x00005876:    b910        ..      CBNZ     r0,0x587e ; newScaleObj + 22
        0x00005878:    e7ff        ..      B        0x587a ; newScaleObj + 18
        0x0000587a:    e7ff        ..      B        0x587c ; newScaleObj + 20
        0x0000587c:    e7fe        ..      B        0x587c ; newScaleObj + 20
        0x0000587e:    e7ff        ..      B        0x5880 ; newScaleObj + 24
        0x00005880:    9901        ..      LDR      r1,[sp,#4]
        0x00005882:    482f        /H      LDR      r0,[pc,#188] ; [0x5940] = 0x39dd
        0x00005884:    6008        .`      STR      r0,[r1,#0]
        0x00005886:    9901        ..      LDR      r1,[sp,#4]
        0x00005888:    482e        .H      LDR      r0,[pc,#184] ; [0x5944] = 0x3d1d
        0x0000588a:    6048        H`      STR      r0,[r1,#4]
        0x0000588c:    9901        ..      LDR      r1,[sp,#4]
        0x0000588e:    482e        .H      LDR      r0,[pc,#184] ; [0x5948] = 0x39d1
        0x00005890:    6088        .`      STR      r0,[r1,#8]
        0x00005892:    9901        ..      LDR      r1,[sp,#4]
        0x00005894:    482d        -H      LDR      r0,[pc,#180] ; [0x594c] = 0x3c39
        0x00005896:    60c8        .`      STR      r0,[r1,#0xc]
        0x00005898:    9901        ..      LDR      r1,[sp,#4]
        0x0000589a:    482d        -H      LDR      r0,[pc,#180] ; [0x5950] = 0x3b71
        0x0000589c:    6108        .a      STR      r0,[r1,#0x10]
        0x0000589e:    9901        ..      LDR      r1,[sp,#4]
        0x000058a0:    482c        ,H      LDR      r0,[pc,#176] ; [0x5954] = 0x3b11
        0x000058a2:    6148        Ha      STR      r0,[r1,#0x14]
        0x000058a4:    9901        ..      LDR      r1,[sp,#4]
        0x000058a6:    482c        ,H      LDR      r0,[pc,#176] ; [0x5958] = 0x3f51
        0x000058a8:    6188        .a      STR      r0,[r1,#0x18]
        0x000058aa:    9901        ..      LDR      r1,[sp,#4]
        0x000058ac:    482b        +H      LDR      r0,[pc,#172] ; [0x595c] = 0x3d11
        0x000058ae:    61c8        .a      STR      r0,[r1,#0x1c]
        0x000058b0:    9901        ..      LDR      r1,[sp,#4]
        0x000058b2:    482b        +H      LDR      r0,[pc,#172] ; [0x5960] = 0x3ae1
        0x000058b4:    6208        .b      STR      r0,[r1,#0x20]
        0x000058b6:    9901        ..      LDR      r1,[sp,#4]
        0x000058b8:    482a        *H      LDR      r0,[pc,#168] ; [0x5964] = 0x3df1
        0x000058ba:    6248        Hb      STR      r0,[r1,#0x24]
        0x000058bc:    9901        ..      LDR      r1,[sp,#4]
        0x000058be:    482a        *H      LDR      r0,[pc,#168] ; [0x5968] = 0x3c31
        0x000058c0:    6288        .b      STR      r0,[r1,#0x28]
        0x000058c2:    9901        ..      LDR      r1,[sp,#4]
        0x000058c4:    4829        )H      LDR      r0,[pc,#164] ; [0x596c] = 0x3cbd
        0x000058c6:    62c8        .b      STR      r0,[r1,#0x2c]
        0x000058c8:    9901        ..      LDR      r1,[sp,#4]
        0x000058ca:    4829        )H      LDR      r0,[pc,#164] ; [0x5970] = 0x3e39
        0x000058cc:    6308        .c      STR      r0,[r1,#0x30]
        0x000058ce:    9901        ..      LDR      r1,[sp,#4]
        0x000058d0:    4828        (H      LDR      r0,[pc,#160] ; [0x5974] = 0x3e95
        0x000058d2:    6348        Hc      STR      r0,[r1,#0x34]
        0x000058d4:    9901        ..      LDR      r1,[sp,#4]
        0x000058d6:    4828        (H      LDR      r0,[pc,#160] ; [0x5978] = 0x3f09
        0x000058d8:    6388        .c      STR      r0,[r1,#0x38]
        0x000058da:    9901        ..      LDR      r1,[sp,#4]
        0x000058dc:    4827        'H      LDR      r0,[pc,#156] ; [0x597c] = 0x3e05
        0x000058de:    63c8        .c      STR      r0,[r1,#0x3c]
        0x000058e0:    9901        ..      LDR      r1,[sp,#4]
        0x000058e2:    4827        'H      LDR      r0,[pc,#156] ; [0x5980] = 0x3b29
        0x000058e4:    6408        .d      STR      r0,[r1,#0x40]
        0x000058e6:    9901        ..      LDR      r1,[sp,#4]
        0x000058e8:    4826        &H      LDR      r0,[pc,#152] ; [0x5984] = 0x3a99
        0x000058ea:    6448        Hd      STR      r0,[r1,#0x44]
        0x000058ec:    9901        ..      LDR      r1,[sp,#4]
        0x000058ee:    4826        &H      LDR      r0,[pc,#152] ; [0x5988] = 0x3f65
        0x000058f0:    6488        .d      STR      r0,[r1,#0x48]
        0x000058f2:    9901        ..      LDR      r1,[sp,#4]
        0x000058f4:    4825        %H      LDR      r0,[pc,#148] ; [0x598c] = 0x3aa5
        0x000058f6:    64c8        .d      STR      r0,[r1,#0x4c]
        0x000058f8:    9901        ..      LDR      r1,[sp,#4]
        0x000058fa:    4825        %H      LDR      r0,[pc,#148] ; [0x5990] = 0x3d97
        0x000058fc:    6508        .e      STR      r0,[r1,#0x50]
        0x000058fe:    9901        ..      LDR      r1,[sp,#4]
        0x00005900:    4824        $H      LDR      r0,[pc,#144] ; [0x5994] = 0x3d3b
        0x00005902:    6548        He      STR      r0,[r1,#0x54]
        0x00005904:    9901        ..      LDR      r1,[sp,#4]
        0x00005906:    4824        $H      LDR      r0,[pc,#144] ; [0x5998] = 0x3d21
        0x00005908:    6588        .e      STR      r0,[r1,#0x58]
        0x0000590a:    9901        ..      LDR      r1,[sp,#4]
        0x0000590c:    4823        #H      LDR      r0,[pc,#140] ; [0x599c] = 0x3e7d
        0x0000590e:    65c8        .e      STR      r0,[r1,#0x5c]
        0x00005910:    9901        ..      LDR      r1,[sp,#4]
        0x00005912:    4823        #H      LDR      r0,[pc,#140] ; [0x59a0] = 0x3e89
        0x00005914:    6608        .f      STR      r0,[r1,#0x60]
        0x00005916:    9901        ..      LDR      r1,[sp,#4]
        0x00005918:    4822        "H      LDR      r0,[pc,#136] ; [0x59a4] = 0x3ca1
        0x0000591a:    6648        Hf      STR      r0,[r1,#0x64]
        0x0000591c:    9901        ..      LDR      r1,[sp,#4]
        0x0000591e:    4822        "H      LDR      r0,[pc,#136] ; [0x59a8] = 0x3db9
        0x00005920:    6688        .f      STR      r0,[r1,#0x68]
        0x00005922:    9901        ..      LDR      r1,[sp,#4]
        0x00005924:    4821        !H      LDR      r0,[pc,#132] ; [0x59ac] = 0x3b39
        0x00005926:    66c8        .f      STR      r0,[r1,#0x6c]
        0x00005928:    9901        ..      LDR      r1,[sp,#4]
        0x0000592a:    4821        !H      LDR      r0,[pc,#132] ; [0x59b0] = 0x3bfd
        0x0000592c:    6708        .g      STR      r0,[r1,#0x70]
        0x0000592e:    9901        ..      LDR      r1,[sp,#4]
        0x00005930:    4820         H      LDR      r0,[pc,#128] ; [0x59b4] = 0x3c89
        0x00005932:    6748        Hg      STR      r0,[r1,#0x74]
        0x00005934:    9901        ..      LDR      r1,[sp,#4]
        0x00005936:    4820         H      LDR      r0,[pc,#128] ; [0x59b8] = 0x3ee5
        0x00005938:    6788        .g      STR      r0,[r1,#0x78]
        0x0000593a:    9801        ..      LDR      r0,[sp,#4]
        0x0000593c:    b002        ..      ADD      sp,sp,#8
        0x0000593e:    bd80        ..      POP      {r7,pc}
    $d.1
    __arm_cp.0_0
        0x00005940:    000039dd    .9..    DCD    14813
    __arm_cp.0_1
        0x00005944:    00003d1d    .=..    DCD    15645
    __arm_cp.0_2
        0x00005948:    000039d1    .9..    DCD    14801
    __arm_cp.0_3
        0x0000594c:    00003c39    9<..    DCD    15417
    __arm_cp.0_4
        0x00005950:    00003b71    q;..    DCD    15217
    __arm_cp.0_5
        0x00005954:    00003b11    .;..    DCD    15121
    __arm_cp.0_6
        0x00005958:    00003f51    Q?..    DCD    16209
    __arm_cp.0_7
        0x0000595c:    00003d11    .=..    DCD    15633
    __arm_cp.0_8
        0x00005960:    00003ae1    .:..    DCD    15073
    __arm_cp.0_9
        0x00005964:    00003df1    .=..    DCD    15857
    __arm_cp.0_10
        0x00005968:    00003c31    1<..    DCD    15409
    __arm_cp.0_11
        0x0000596c:    00003cbd    .<..    DCD    15549
    __arm_cp.0_12
        0x00005970:    00003e39    9>..    DCD    15929
    __arm_cp.0_13
        0x00005974:    00003e95    .>..    DCD    16021
    __arm_cp.0_14
        0x00005978:    00003f09    .?..    DCD    16137
    __arm_cp.0_15
        0x0000597c:    00003e05    .>..    DCD    15877
    __arm_cp.0_16
        0x00005980:    00003b29    );..    DCD    15145
    __arm_cp.0_17
        0x00005984:    00003a99    .:..    DCD    15001
    __arm_cp.0_18
        0x00005988:    00003f65    e?..    DCD    16229
    __arm_cp.0_19
        0x0000598c:    00003aa5    .:..    DCD    15013
    __arm_cp.0_20
        0x00005990:    00003d97    .=..    DCD    15767
    __arm_cp.0_21
        0x00005994:    00003d3b    ;=..    DCD    15675
    __arm_cp.0_22
        0x00005998:    00003d21    !=..    DCD    15649
    __arm_cp.0_23
        0x0000599c:    00003e7d    }>..    DCD    15997
    __arm_cp.0_24
        0x000059a0:    00003e89    .>..    DCD    16009
    __arm_cp.0_25
        0x000059a4:    00003ca1    .<..    DCD    15521
    __arm_cp.0_26
        0x000059a8:    00003db9    .=..    DCD    15801
    __arm_cp.0_27
        0x000059ac:    00003b39    9;..    DCD    15161
    __arm_cp.0_28
        0x000059b0:    00003bfd    .;..    DCD    15357
    __arm_cp.0_29
        0x000059b4:    00003c89    .<..    DCD    15497
    __arm_cp.0_30
        0x000059b8:    00003ee5    .>..    DCD    16101
    $t.10
    readFlashMemoryInformation
        0x000059bc:    b580        ..      PUSH     {r7,lr}
        0x000059be:    b096        ..      SUB      sp,sp,#0x58
        0x000059c0:    9015        ..      STR      r0,[sp,#0x54]
        0x000059c2:    4819        .H      LDR      r0,[pc,#100] ; [0x5a28] = 0x19404
        0x000059c4:    4669        iF      MOV      r1,sp
        0x000059c6:    f7fffd0d    ....    BL       eeprom_read_array ; 0x53e4
        0x000059ca:    b330        0.      CBZ      r0,0x5a1a ; readFlashMemoryInformation + 94
        0x000059cc:    e7ff        ..      B        0x59ce ; readFlashMemoryInformation + 18
        0x000059ce:    9800        ..      LDR      r0,[sp,#0]
        0x000059d0:    9915        ..      LDR      r1,[sp,#0x54]
        0x000059d2:    7208        .r      STRB     r0,[r1,#8]
        0x000059d4:    9801        ..      LDR      r0,[sp,#4]
        0x000059d6:    9915        ..      LDR      r1,[sp,#0x54]
        0x000059d8:    7248        Hr      STRB     r0,[r1,#9]
        0x000059da:    9802        ..      LDR      r0,[sp,#8]
        0x000059dc:    9915        ..      LDR      r1,[sp,#0x54]
        0x000059de:    7288        .r      STRB     r0,[r1,#0xa]
        0x000059e0:    9803        ..      LDR      r0,[sp,#0xc]
        0x000059e2:    9915        ..      LDR      r1,[sp,#0x54]
        0x000059e4:    72c8        .r      STRB     r0,[r1,#0xb]
        0x000059e6:    9804        ..      LDR      r0,[sp,#0x10]
        0x000059e8:    9915        ..      LDR      r1,[sp,#0x54]
        0x000059ea:    7308        .s      STRB     r0,[r1,#0xc]
        0x000059ec:    9805        ..      LDR      r0,[sp,#0x14]
        0x000059ee:    9915        ..      LDR      r1,[sp,#0x54]
        0x000059f0:    7348        Hs      STRB     r0,[r1,#0xd]
        0x000059f2:    9806        ..      LDR      r0,[sp,#0x18]
        0x000059f4:    9915        ..      LDR      r1,[sp,#0x54]
        0x000059f6:    7388        .s      STRB     r0,[r1,#0xe]
        0x000059f8:    9807        ..      LDR      r0,[sp,#0x1c]
        0x000059fa:    9915        ..      LDR      r1,[sp,#0x54]
        0x000059fc:    6108        .a      STR      r0,[r1,#0x10]
        0x000059fe:    9808        ..      LDR      r0,[sp,#0x20]
        0x00005a00:    f7fafd65    ..e.    BL       __aeabi_ui2f ; 0x4ce
        0x00005a04:    9915        ..      LDR      r1,[sp,#0x54]
        0x00005a06:    6148        Ha      STR      r0,[r1,#0x14]
        0x00005a08:    9809        ..      LDR      r0,[sp,#0x24]
        0x00005a0a:    f7fafd60    ..`.    BL       __aeabi_ui2f ; 0x4ce
        0x00005a0e:    9915        ..      LDR      r1,[sp,#0x54]
        0x00005a10:    6008        .`      STR      r0,[r1,#0]
        0x00005a12:    980a        ..      LDR      r0,[sp,#0x28]
        0x00005a14:    9915        ..      LDR      r1,[sp,#0x54]
        0x00005a16:    6048        H`      STR      r0,[r1,#4]
        0x00005a18:    e003        ..      B        0x5a22 ; readFlashMemoryInformation + 102
        0x00005a1a:    9815        ..      LDR      r0,[sp,#0x54]
        0x00005a1c:    f7fdfd0c    ....    BL       InitFactorySetting ; 0x3438
        0x00005a20:    e7ff        ..      B        0x5a22 ; readFlashMemoryInformation + 102
        0x00005a22:    b016        ..      ADD      sp,sp,#0x58
        0x00005a24:    bd80        ..      POP      {r7,pc}
        0x00005a26:    46c0        .F      MOV      r8,r8
    $d.11
    __arm_cp.5_0
        0x00005a28:    00019404    ....    DCD    103428
    $t.10
    readRowPin
        0x00005a2c:    b083        ..      SUB      sp,sp,#0xc
        0x00005a2e:    4601        .F      MOV      r1,r0
        0x00005a30:    a801        ..      ADD      r0,sp,#4
        0x00005a32:    7001        .p      STRB     r1,[r0,#0]
        0x00005a34:    7800        .x      LDRB     r0,[r0,#0]
        0x00005a36:    9000        ..      STR      r0,[sp,#0]
        0x00005a38:    2803        .(      CMP      r0,#3
        0x00005a3a:    d821        !.      BHI      0x5a80 ; readRowPin + 84
        0x00005a3c:    9900        ..      LDR      r1,[sp,#0]
        0x00005a3e:    008a        ..      LSLS     r2,r1,#2
        0x00005a40:    a001        ..      ADR      r0,{pc}+8 ; 0x5a48
        0x00005a42:    1880        ..      ADDS     r0,r0,r2
        0x00005a44:    4687        .F      MOV      pc,r0
        0x00005a46:    46c0        .F      MOV      r8,r8
        0x00005a48:    f000b806    ....    B.W      0x5a58 ; readRowPin + 44
        0x00005a4c:    f000b809    ....    B.W      0x5a62 ; readRowPin + 54
        0x00005a50:    f000b80c    ....    B.W      0x5a6c ; readRowPin + 64
        0x00005a54:    f000b80f    ....    B.W      0x5a76 ; readRowPin + 74
        0x00005a58:    4811        .H      LDR      r0,[pc,#68] ; [0x5aa0] = 0x40004880
        0x00005a5a:    6800        .h      LDR      r0,[r0,#0]
        0x00005a5c:    a902        ..      ADD      r1,sp,#8
        0x00005a5e:    7008        .p      STRB     r0,[r1,#0]
        0x00005a60:    e012        ..      B        0x5a88 ; readRowPin + 92
        0x00005a62:    480e        .H      LDR      r0,[pc,#56] ; [0x5a9c] = 0x400048c4
        0x00005a64:    6800        .h      LDR      r0,[r0,#0]
        0x00005a66:    a902        ..      ADD      r1,sp,#8
        0x00005a68:    7008        .p      STRB     r0,[r1,#0]
        0x00005a6a:    e00d        ..      B        0x5a88 ; readRowPin + 92
        0x00005a6c:    480a        .H      LDR      r0,[pc,#40] ; [0x5a98] = 0x400048c0
        0x00005a6e:    6800        .h      LDR      r0,[r0,#0]
        0x00005a70:    a902        ..      ADD      r1,sp,#8
        0x00005a72:    7008        .p      STRB     r0,[r1,#0]
        0x00005a74:    e008        ..      B        0x5a88 ; readRowPin + 92
        0x00005a76:    4807        .H      LDR      r0,[pc,#28] ; [0x5a94] = 0x40004830
        0x00005a78:    6800        .h      LDR      r0,[r0,#0]
        0x00005a7a:    a902        ..      ADD      r1,sp,#8
        0x00005a7c:    7008        .p      STRB     r0,[r1,#0]
        0x00005a7e:    e003        ..      B        0x5a88 ; readRowPin + 92
        0x00005a80:    a902        ..      ADD      r1,sp,#8
        0x00005a82:    20ff        .       MOVS     r0,#0xff
        0x00005a84:    7008        .p      STRB     r0,[r1,#0]
        0x00005a86:    e7ff        ..      B        0x5a88 ; readRowPin + 92
        0x00005a88:    2100        .!      MOVS     r1,#0
        0x00005a8a:    a802        ..      ADD      r0,sp,#8
        0x00005a8c:    5640        @V      LDRSB    r0,[r0,r1]
        0x00005a8e:    b003        ..      ADD      sp,sp,#0xc
        0x00005a90:    4770        pG      BX       lr
        0x00005a92:    46c0        .F      MOV      r8,r8
    $d.11
    __arm_cp.5_0
        0x00005a94:    40004830    0H.@    DCD    1073760304
    __arm_cp.5_1
        0x00005a98:    400048c0    .H.@    DCD    1073760448
    __arm_cp.5_2
        0x00005a9c:    400048c4    .H.@    DCD    1073760452
    __arm_cp.5_3
        0x00005aa0:    40004880    .H.@    DCD    1073760384
    $t.8
    resetAllColumnPins
        0x00005aa4:    4920         I      LDR      r1,[pc,#128] ; [0x5b28] = 0x4000481c
        0x00005aa6:    2000        .       MOVS     r0,#0
        0x00005aa8:    6008        .`      STR      r0,[r1,#0]
        0x00005aaa:    491e        .I      LDR      r1,[pc,#120] ; [0x5b24] = 0x40004898
        0x00005aac:    6008        .`      STR      r0,[r1,#0]
        0x00005aae:    491c        .I      LDR      r1,[pc,#112] ; [0x5b20] = 0x40004888
        0x00005ab0:    6008        .`      STR      r0,[r1,#0]
        0x00005ab2:    491a        .I      LDR      r1,[pc,#104] ; [0x5b1c] = 0x400048cc
        0x00005ab4:    6008        .`      STR      r0,[r1,#0]
        0x00005ab6:    4918        .I      LDR      r1,[pc,#96] ; [0x5b18] = 0x400048c8
        0x00005ab8:    6008        .`      STR      r0,[r1,#0]
        0x00005aba:    4770        pG      BX       lr
    setColumnPin
        0x00005abc:    b082        ..      SUB      sp,sp,#8
        0x00005abe:    4601        .F      MOV      r1,r0
        0x00005ac0:    a801        ..      ADD      r0,sp,#4
        0x00005ac2:    7001        .p      STRB     r1,[r0,#0]
        0x00005ac4:    7800        .x      LDRB     r0,[r0,#0]
        0x00005ac6:    9000        ..      STR      r0,[sp,#0]
        0x00005ac8:    2804        .(      CMP      r0,#4
        0x00005aca:    d823        #.      BHI      0x5b14 ; setColumnPin + 88
        0x00005acc:    9900        ..      LDR      r1,[sp,#0]
        0x00005ace:    008a        ..      LSLS     r2,r1,#2
        0x00005ad0:    a001        ..      ADR      r0,{pc}+8 ; 0x5ad8
        0x00005ad2:    1880        ..      ADDS     r0,r0,r2
        0x00005ad4:    4687        .F      MOV      pc,r0
        0x00005ad6:    46c0        .F      MOV      r8,r8
        0x00005ad8:    f000b808    ....    B.W      0x5aec ; setColumnPin + 48
        0x00005adc:    f000b80a    ....    B.W      0x5af4 ; setColumnPin + 56
        0x00005ae0:    f000b80c    ....    B.W      0x5afc ; setColumnPin + 64
        0x00005ae4:    f000b80e    ....    B.W      0x5b04 ; setColumnPin + 72
        0x00005ae8:    f000b810    ....    B.W      0x5b0c ; setColumnPin + 80
        0x00005aec:    490e        .I      LDR      r1,[pc,#56] ; [0x5b28] = 0x4000481c
        0x00005aee:    2001        .       MOVS     r0,#1
        0x00005af0:    6008        .`      STR      r0,[r1,#0]
        0x00005af2:    e00f        ..      B        0x5b14 ; setColumnPin + 88
        0x00005af4:    490b        .I      LDR      r1,[pc,#44] ; [0x5b24] = 0x40004898
        0x00005af6:    2001        .       MOVS     r0,#1
        0x00005af8:    6008        .`      STR      r0,[r1,#0]
        0x00005afa:    e00b        ..      B        0x5b14 ; setColumnPin + 88
        0x00005afc:    4908        .I      LDR      r1,[pc,#32] ; [0x5b20] = 0x40004888
        0x00005afe:    2001        .       MOVS     r0,#1
        0x00005b00:    6008        .`      STR      r0,[r1,#0]
        0x00005b02:    e007        ..      B        0x5b14 ; setColumnPin + 88
        0x00005b04:    4905        .I      LDR      r1,[pc,#20] ; [0x5b1c] = 0x400048cc
        0x00005b06:    2001        .       MOVS     r0,#1
        0x00005b08:    6008        .`      STR      r0,[r1,#0]
        0x00005b0a:    e003        ..      B        0x5b14 ; setColumnPin + 88
        0x00005b0c:    4902        .I      LDR      r1,[pc,#8] ; [0x5b18] = 0x400048c8
        0x00005b0e:    2001        .       MOVS     r0,#1
        0x00005b10:    6008        .`      STR      r0,[r1,#0]
        0x00005b12:    e7ff        ..      B        0x5b14 ; setColumnPin + 88
        0x00005b14:    b002        ..      ADD      sp,sp,#8
        0x00005b16:    4770        pG      BX       lr
    $d.7
    __arm_cp.3_0
        0x00005b18:    400048c8    .H.@    DCD    1073760456
    __arm_cp.3_1
        0x00005b1c:    400048cc    .H.@    DCD    1073760460
    __arm_cp.3_2
        0x00005b20:    40004888    .H.@    DCD    1073760392
    __arm_cp.3_3
        0x00005b24:    40004898    .H.@    DCD    1073760408
    __arm_cp.3_4
        0x00005b28:    4000481c    .H.@    DCD    1073760284
    $t.28
    setPrice
        0x00005b2c:    b580        ..      PUSH     {r7,lr}
        0x00005b2e:    b084        ..      SUB      sp,sp,#0x10
        0x00005b30:    ab02        ..      ADD      r3,sp,#8
        0x00005b32:    7018        .p      STRB     r0,[r3,#0]
        0x00005b34:    9101        ..      STR      r1,[sp,#4]
        0x00005b36:    9200        ..      STR      r2,[sp,#0]
        0x00005b38:    9800        ..      LDR      r0,[sp,#0]
        0x00005b3a:    7ac0        .z      LDRB     r0,[r0,#0xb]
        0x00005b3c:    2801        .(      CMP      r0,#1
        0x00005b3e:    d107        ..      BNE      0x5b50 ; setPrice + 36
        0x00005b40:    e7ff        ..      B        0x5b42 ; setPrice + 22
        0x00005b42:    a802        ..      ADD      r0,sp,#8
        0x00005b44:    7800        .x      LDRB     r0,[r0,#0]
        0x00005b46:    9901        ..      LDR      r1,[sp,#4]
        0x00005b48:    f7fff882    ....    BL       customValueInput ; 0x4c50
        0x00005b4c:    9003        ..      STR      r0,[sp,#0xc]
        0x00005b4e:    e00e        ..      B        0x5b6e ; setPrice + 66
        0x00005b50:    9800        ..      LDR      r0,[sp,#0]
        0x00005b52:    7ac0        .z      LDRB     r0,[r0,#0xb]
        0x00005b54:    b940        @.      CBNZ     r0,0x5b68 ; setPrice + 60
        0x00005b56:    e7ff        ..      B        0x5b58 ; setPrice + 44
        0x00005b58:    a802        ..      ADD      r0,sp,#8
        0x00005b5a:    7800        .x      LDRB     r0,[r0,#0]
        0x00005b5c:    9901        ..      LDR      r1,[sp,#4]
        0x00005b5e:    9a00        ..      LDR      r2,[sp,#0]
        0x00005b60:    f7fff9c0    ....    BL       customValueInputFix ; 0x4ee4
        0x00005b64:    9003        ..      STR      r0,[sp,#0xc]
        0x00005b66:    e002        ..      B        0x5b6e ; setPrice + 66
        0x00005b68:    4802        .H      LDR      r0,[pc,#8] ; [0x5b74] = 0xbf800000
        0x00005b6a:    9003        ..      STR      r0,[sp,#0xc]
        0x00005b6c:    e7ff        ..      B        0x5b6e ; setPrice + 66
        0x00005b6e:    9803        ..      LDR      r0,[sp,#0xc]
        0x00005b70:    b004        ..      ADD      sp,sp,#0x10
        0x00005b72:    bd80        ..      POP      {r7,pc}
    $d.29
    __arm_cp.15_0
        0x00005b74:    bf800000    ....    DCD    3212836864
    $t.9
    shw_calibration
        0x00005b78:    b510        ..      PUSH     {r4,lr}
        0x00005b7a:    b08a        ..      SUB      sp,sp,#0x28
        0x00005b7c:    a807        ..      ADD      r0,sp,#0x1c
        0x00005b7e:    9005        ..      STR      r0,[sp,#0x14]
        0x00005b80:    2100        .!      MOVS     r1,#0
        0x00005b82:    9104        ..      STR      r1,[sp,#0x10]
        0x00005b84:    8101        ..      STRH     r1,[r0,#8]
        0x00005b86:    9108        ..      STR      r1,[sp,#0x20]
        0x00005b88:    9107        ..      STR      r1,[sp,#0x1c]
        0x00005b8a:    489a        .H      LDR      r0,[pc,#616] ; [0x5df4] = 0x200004e8
        0x00005b8c:    9001        ..      STR      r0,[sp,#4]
        0x00005b8e:    6800        .h      LDR      r0,[r0,#0]
        0x00005b90:    6a04        .j      LDR      r4,[r0,#0x20]
        0x00005b92:    4ae2        .J      LDR      r2,[pc,#904] ; [0x5f1c] = 0x200004e0
        0x00005b94:    9203        ..      STR      r2,[sp,#0xc]
        0x00005b96:    6813        .h      LDR      r3,[r2,#0]
        0x00005b98:    9000        ..      STR      r0,[sp,#0]
        0x00005b9a:    4a18        .J      LDR      r2,[pc,#96] ; [0x5bfc] = 0x7a4d
        0x00005b9c:    4608        .F      MOV      r0,r1
        0x00005b9e:    47a0        .G      BLX      r4
        0x00005ba0:    9801        ..      LDR      r0,[sp,#4]
        0x00005ba2:    6800        .h      LDR      r0,[r0,#0]
        0x00005ba4:    6901        .i      LDR      r1,[r0,#0x10]
        0x00005ba6:    4788        .G      BLX      r1
        0x00005ba8:    9a03        ..      LDR      r2,[sp,#0xc]
        0x00005baa:    9904        ..      LDR      r1,[sp,#0x10]
        0x00005bac:    4893        .H      LDR      r0,[pc,#588] ; [0x5dfc] = 0x200004ec
        0x00005bae:    9002        ..      STR      r0,[sp,#8]
        0x00005bb0:    6800        .h      LDR      r0,[r0,#0]
        0x00005bb2:    6a04        .j      LDR      r4,[r0,#0x20]
        0x00005bb4:    6813        .h      LDR      r3,[r2,#0]
        0x00005bb6:    9000        ..      STR      r0,[sp,#0]
        0x00005bb8:    4a11        .J      LDR      r2,[pc,#68] ; [0x5c00] = 0x7acd
        0x00005bba:    4608        .F      MOV      r0,r1
        0x00005bbc:    47a0        .G      BLX      r4
        0x00005bbe:    9802        ..      LDR      r0,[sp,#8]
        0x00005bc0:    6800        .h      LDR      r0,[r0,#0]
        0x00005bc2:    6901        .i      LDR      r1,[r0,#0x10]
        0x00005bc4:    4788        .G      BLX      r1
        0x00005bc6:    488f        .H      LDR      r0,[pc,#572] ; [0x5e04] = 0x200004bc
        0x00005bc8:    6800        .h      LDR      r0,[r0,#0]
        0x00005bca:    f7fafcf1    ....    BL       __aeabi_f2d ; 0x5b0
        0x00005bce:    4602        .F      MOV      r2,r0
        0x00005bd0:    9805        ..      LDR      r0,[sp,#0x14]
        0x00005bd2:    460b        .F      MOV      r3,r1
        0x00005bd4:    490b        .I      LDR      r1,[pc,#44] ; [0x5c04] = 0x7b0a
        0x00005bd6:    f000ffe9    ....    BL       __0sprintf ; 0x6bac
        0x00005bda:    9b03        ..      LDR      r3,[sp,#0xc]
        0x00005bdc:    9904        ..      LDR      r1,[sp,#0x10]
        0x00005bde:    9a05        ..      LDR      r2,[sp,#0x14]
        0x00005be0:    48dd        .H      LDR      r0,[pc,#884] ; [0x5f58] = 0x200004f0
        0x00005be2:    9006        ..      STR      r0,[sp,#0x18]
        0x00005be4:    6800        .h      LDR      r0,[r0,#0]
        0x00005be6:    6a04        .j      LDR      r4,[r0,#0x20]
        0x00005be8:    681b        .h      LDR      r3,[r3,#0]
        0x00005bea:    9000        ..      STR      r0,[sp,#0]
        0x00005bec:    4608        .F      MOV      r0,r1
        0x00005bee:    47a0        .G      BLX      r4
        0x00005bf0:    9806        ..      LDR      r0,[sp,#0x18]
        0x00005bf2:    6800        .h      LDR      r0,[r0,#0]
        0x00005bf4:    6901        .i      LDR      r1,[r0,#0x10]
        0x00005bf6:    4788        .G      BLX      r1
        0x00005bf8:    b00a        ..      ADD      sp,sp,#0x28
        0x00005bfa:    bd10        ..      POP      {r4,pc}
    $d.10
    __arm_cp.7_2
        0x00005bfc:    00007a4d    Mz..    DCD    31309
    __arm_cp.7_4
        0x00005c00:    00007acd    .z..    DCD    31437
    __arm_cp.7_6
        0x00005c04:    00007b0a    .{..    DCD    31498
    $t.13
    shw_capacity
        0x00005c08:    b510        ..      PUSH     {r4,lr}
        0x00005c0a:    b088        ..      SUB      sp,sp,#0x20
        0x00005c0c:    4879        yH      LDR      r0,[pc,#484] ; [0x5df4] = 0x200004e8
        0x00005c0e:    9002        ..      STR      r0,[sp,#8]
        0x00005c10:    6800        .h      LDR      r0,[r0,#0]
        0x00005c12:    6a04        .j      LDR      r4,[r0,#0x20]
        0x00005c14:    49dd        .I      LDR      r1,[pc,#884] ; [0x5f8c] = 0x200004e0
        0x00005c16:    9103        ..      STR      r1,[sp,#0xc]
        0x00005c18:    680b        .h      LDR      r3,[r1,#0]
        0x00005c1a:    9000        ..      STR      r0,[sp,#0]
        0x00005c1c:    4a30        0J      LDR      r2,[pc,#192] ; [0x5ce0] = 0x7a72
        0x00005c1e:    2100        .!      MOVS     r1,#0
        0x00005c20:    9104        ..      STR      r1,[sp,#0x10]
        0x00005c22:    4608        .F      MOV      r0,r1
        0x00005c24:    47a0        .G      BLX      r4
        0x00005c26:    9802        ..      LDR      r0,[sp,#8]
        0x00005c28:    6800        .h      LDR      r0,[r0,#0]
        0x00005c2a:    6901        .i      LDR      r1,[r0,#0x10]
        0x00005c2c:    4788        .G      BLX      r1
        0x00005c2e:    9a03        ..      LDR      r2,[sp,#0xc]
        0x00005c30:    9904        ..      LDR      r1,[sp,#0x10]
        0x00005c32:    4872        rH      LDR      r0,[pc,#456] ; [0x5dfc] = 0x200004ec
        0x00005c34:    9005        ..      STR      r0,[sp,#0x14]
        0x00005c36:    6800        .h      LDR      r0,[r0,#0]
        0x00005c38:    6a04        .j      LDR      r4,[r0,#0x20]
        0x00005c3a:    6813        .h      LDR      r3,[r2,#0]
        0x00005c3c:    9000        ..      STR      r0,[sp,#0]
        0x00005c3e:    4a29        )J      LDR      r2,[pc,#164] ; [0x5ce4] = 0x7ae2
        0x00005c40:    4608        .F      MOV      r0,r1
        0x00005c42:    47a0        .G      BLX      r4
        0x00005c44:    9805        ..      LDR      r0,[sp,#0x14]
        0x00005c46:    6800        .h      LDR      r0,[r0,#0]
        0x00005c48:    6901        .i      LDR      r1,[r0,#0x10]
        0x00005c4a:    4788        .G      BLX      r1
        0x00005c4c:    48dc        .H      LDR      r0,[pc,#880] ; [0x5fc0] = 0x200004f0
        0x00005c4e:    9006        ..      STR      r0,[sp,#0x18]
        0x00005c50:    6800        .h      LDR      r0,[r0,#0]
        0x00005c52:    68c1        .h      LDR      r1,[r0,#0xc]
        0x00005c54:    4788        .G      BLX      r1
        0x00005c56:    9806        ..      LDR      r0,[sp,#0x18]
        0x00005c58:    6800        .h      LDR      r0,[r0,#0]
        0x00005c5a:    6901        .i      LDR      r1,[r0,#0x10]
        0x00005c5c:    4788        .G      BLX      r1
        0x00005c5e:    4869        iH      LDR      r0,[pc,#420] ; [0x5e04] = 0x200004bc
        0x00005c60:    7a40        @z      LDRB     r0,[r0,#9]
        0x00005c62:    9007        ..      STR      r0,[sp,#0x1c]
        0x00005c64:    2803        .(      CMP      r0,#3
        0x00005c66:    d839        9.      BHI      0x5cdc ; shw_capacity + 212
        0x00005c68:    9907        ..      LDR      r1,[sp,#0x1c]
        0x00005c6a:    008a        ..      LSLS     r2,r1,#2
        0x00005c6c:    a001        ..      ADR      r0,{pc}+8 ; 0x5c74
        0x00005c6e:    1880        ..      ADDS     r0,r0,r2
        0x00005c70:    4687        .F      MOV      pc,r0
        0x00005c72:    46c0        .F      MOV      r8,r8
        0x00005c74:    f000b806    ....    B.W      0x5c84 ; shw_capacity + 124
        0x00005c78:    f000b80f    ....    B.W      0x5c9a ; shw_capacity + 146
        0x00005c7c:    f000b818    ....    B.W      0x5cb0 ; shw_capacity + 168
        0x00005c80:    f000b821    ..!.    B.W      0x5cc6 ; shw_capacity + 190
        0x00005c84:    4862        bH      LDR      r0,[pc,#392] ; [0x5e10] = 0x2000026c
        0x00005c86:    9001        ..      STR      r0,[sp,#4]
        0x00005c88:    4817        .H      LDR      r0,[pc,#92] ; [0x5ce8] = 0x2000017c
        0x00005c8a:    9000        ..      STR      r0,[sp,#0]
        0x00005c8c:    485f        _H      LDR      r0,[pc,#380] ; [0x5e0c] = 0x200001f4
        0x00005c8e:    4917        .I      LDR      r1,[pc,#92] ; [0x5cec] = 0x5c09
        0x00005c90:    4a1a        .J      LDR      r2,[pc,#104] ; [0x5cfc] = 0x2000021c
        0x00005c92:    4b62        bK      LDR      r3,[pc,#392] ; [0x5e1c] = 0x20000500
        0x00005c94:    f7feffc3    ....    BL       build ; 0x4c1e
        0x00005c98:    e020         .      B        0x5cdc ; shw_capacity + 212
        0x00005c9a:    485d        ]H      LDR      r0,[pc,#372] ; [0x5e10] = 0x2000026c
        0x00005c9c:    9001        ..      STR      r0,[sp,#4]
        0x00005c9e:    4812        .H      LDR      r0,[pc,#72] ; [0x5ce8] = 0x2000017c
        0x00005ca0:    9000        ..      STR      r0,[sp,#0]
        0x00005ca2:    485a        ZH      LDR      r0,[pc,#360] ; [0x5e0c] = 0x200001f4
        0x00005ca4:    4911        .I      LDR      r1,[pc,#68] ; [0x5cec] = 0x5c09
        0x00005ca6:    4a14        .J      LDR      r2,[pc,#80] ; [0x5cf8] = 0x20000230
        0x00005ca8:    4b5c        \K      LDR      r3,[pc,#368] ; [0x5e1c] = 0x20000500
        0x00005caa:    f7feffb8    ....    BL       build ; 0x4c1e
        0x00005cae:    e015        ..      B        0x5cdc ; shw_capacity + 212
        0x00005cb0:    4857        WH      LDR      r0,[pc,#348] ; [0x5e10] = 0x2000026c
        0x00005cb2:    9001        ..      STR      r0,[sp,#4]
        0x00005cb4:    480c        .H      LDR      r0,[pc,#48] ; [0x5ce8] = 0x2000017c
        0x00005cb6:    9000        ..      STR      r0,[sp,#0]
        0x00005cb8:    4854        TH      LDR      r0,[pc,#336] ; [0x5e0c] = 0x200001f4
        0x00005cba:    490c        .I      LDR      r1,[pc,#48] ; [0x5cec] = 0x5c09
        0x00005cbc:    4a0d        .J      LDR      r2,[pc,#52] ; [0x5cf4] = 0x20000244
        0x00005cbe:    4b57        WK      LDR      r3,[pc,#348] ; [0x5e1c] = 0x20000500
        0x00005cc0:    f7feffad    ....    BL       build ; 0x4c1e
        0x00005cc4:    e00a        ..      B        0x5cdc ; shw_capacity + 212
        0x00005cc6:    4852        RH      LDR      r0,[pc,#328] ; [0x5e10] = 0x2000026c
        0x00005cc8:    9001        ..      STR      r0,[sp,#4]
        0x00005cca:    4807        .H      LDR      r0,[pc,#28] ; [0x5ce8] = 0x2000017c
        0x00005ccc:    9000        ..      STR      r0,[sp,#0]
        0x00005cce:    484f        OH      LDR      r0,[pc,#316] ; [0x5e0c] = 0x200001f4
        0x00005cd0:    4906        .I      LDR      r1,[pc,#24] ; [0x5cec] = 0x5c09
        0x00005cd2:    4a07        .J      LDR      r2,[pc,#28] ; [0x5cf0] = 0x20000258
        0x00005cd4:    4b51        QK      LDR      r3,[pc,#324] ; [0x5e1c] = 0x20000500
        0x00005cd6:    f7feffa2    ....    BL       build ; 0x4c1e
        0x00005cda:    e7ff        ..      B        0x5cdc ; shw_capacity + 212
        0x00005cdc:    b008        ..      ADD      sp,sp,#0x20
        0x00005cde:    bd10        ..      POP      {r4,pc}
    $d.14
    __arm_cp.9_2
        0x00005ce0:    00007a72    rz..    DCD    31346
    __arm_cp.9_4
        0x00005ce4:    00007ae2    .z..    DCD    31458
    __arm_cp.9_8
        0x00005ce8:    2000017c    |..     DCD    536871292
    __arm_cp.9_10
        0x00005cec:    00005c09    .\..    DCD    23561
    __arm_cp.9_11
        0x00005cf0:    20000258    X..     DCD    536871512
    __arm_cp.9_13
        0x00005cf4:    20000244    D..     DCD    536871492
    __arm_cp.9_14
        0x00005cf8:    20000230    0..     DCD    536871472
    __arm_cp.9_15
        0x00005cfc:    2000021c    ...     DCD    536871452
    $t.15
    shw_decimalPoint
        0x00005d00:    b510        ..      PUSH     {r4,lr}
        0x00005d02:    b088        ..      SUB      sp,sp,#0x20
        0x00005d04:    483b        ;H      LDR      r0,[pc,#236] ; [0x5df4] = 0x200004e8
        0x00005d06:    9002        ..      STR      r0,[sp,#8]
        0x00005d08:    6800        .h      LDR      r0,[r0,#0]
        0x00005d0a:    6a04        .j      LDR      r4,[r0,#0x20]
        0x00005d0c:    49df        .I      LDR      r1,[pc,#892] ; [0x608c] = 0x200004e0
        0x00005d0e:    9103        ..      STR      r1,[sp,#0xc]
        0x00005d10:    680b        .h      LDR      r3,[r1,#0]
        0x00005d12:    9000        ..      STR      r0,[sp,#0]
        0x00005d14:    4a38        8J      LDR      r2,[pc,#224] ; [0x5df8] = 0x7a7c
        0x00005d16:    2100        .!      MOVS     r1,#0
        0x00005d18:    9104        ..      STR      r1,[sp,#0x10]
        0x00005d1a:    4608        .F      MOV      r0,r1
        0x00005d1c:    47a0        .G      BLX      r4
        0x00005d1e:    9802        ..      LDR      r0,[sp,#8]
        0x00005d20:    6800        .h      LDR      r0,[r0,#0]
        0x00005d22:    6901        .i      LDR      r1,[r0,#0x10]
        0x00005d24:    4788        .G      BLX      r1
        0x00005d26:    9a03        ..      LDR      r2,[sp,#0xc]
        0x00005d28:    9904        ..      LDR      r1,[sp,#0x10]
        0x00005d2a:    4834        4H      LDR      r0,[pc,#208] ; [0x5dfc] = 0x200004ec
        0x00005d2c:    9005        ..      STR      r0,[sp,#0x14]
        0x00005d2e:    6800        .h      LDR      r0,[r0,#0]
        0x00005d30:    6a04        .j      LDR      r4,[r0,#0x20]
        0x00005d32:    6813        .h      LDR      r3,[r2,#0]
        0x00005d34:    9000        ..      STR      r0,[sp,#0]
        0x00005d36:    4a32        2J      LDR      r2,[pc,#200] ; [0x5e00] = 0x7b0d
        0x00005d38:    4608        .F      MOV      r0,r1
        0x00005d3a:    47a0        .G      BLX      r4
        0x00005d3c:    9805        ..      LDR      r0,[sp,#0x14]
        0x00005d3e:    6800        .h      LDR      r0,[r0,#0]
        0x00005d40:    6901        .i      LDR      r1,[r0,#0x10]
        0x00005d42:    4788        .G      BLX      r1
        0x00005d44:    48de        .H      LDR      r0,[pc,#888] ; [0x60c0] = 0x200004f0
        0x00005d46:    9006        ..      STR      r0,[sp,#0x18]
        0x00005d48:    6800        .h      LDR      r0,[r0,#0]
        0x00005d4a:    68c1        .h      LDR      r1,[r0,#0xc]
        0x00005d4c:    4788        .G      BLX      r1
        0x00005d4e:    9806        ..      LDR      r0,[sp,#0x18]
        0x00005d50:    6800        .h      LDR      r0,[r0,#0]
        0x00005d52:    6901        .i      LDR      r1,[r0,#0x10]
        0x00005d54:    4788        .G      BLX      r1
        0x00005d56:    482b        +H      LDR      r0,[pc,#172] ; [0x5e04] = 0x200004bc
        0x00005d58:    7a80        .z      LDRB     r0,[r0,#0xa]
        0x00005d5a:    9007        ..      STR      r0,[sp,#0x1c]
        0x00005d5c:    2804        .(      CMP      r0,#4
        0x00005d5e:    d846        F.      BHI      0x5dee ; shw_decimalPoint + 238
        0x00005d60:    9907        ..      LDR      r1,[sp,#0x1c]
        0x00005d62:    008a        ..      LSLS     r2,r1,#2
        0x00005d64:    a001        ..      ADR      r0,{pc}+8 ; 0x5d6c
        0x00005d66:    1880        ..      ADDS     r0,r0,r2
        0x00005d68:    4687        .F      MOV      pc,r0
        0x00005d6a:    46c0        .F      MOV      r8,r8
        0x00005d6c:    f000b808    ....    B.W      0x5d80 ; shw_decimalPoint + 128
        0x00005d70:    f000b811    ....    B.W      0x5d96 ; shw_decimalPoint + 150
        0x00005d74:    f000b81a    ....    B.W      0x5dac ; shw_decimalPoint + 172
        0x00005d78:    f000b823    ..#.    B.W      0x5dc2 ; shw_decimalPoint + 194
        0x00005d7c:    f000b82c    ..,.    B.W      0x5dd8 ; shw_decimalPoint + 216
        0x00005d80:    4821        !H      LDR      r0,[pc,#132] ; [0x5e08] = 0x200002f8
        0x00005d82:    9001        ..      STR      r0,[sp,#4]
        0x00005d84:    4821        !H      LDR      r0,[pc,#132] ; [0x5e0c] = 0x200001f4
        0x00005d86:    9000        ..      STR      r0,[sp,#0]
        0x00005d88:    4821        !H      LDR      r0,[pc,#132] ; [0x5e10] = 0x2000026c
        0x00005d8a:    4922        "I      LDR      r1,[pc,#136] ; [0x5e14] = 0x5d01
        0x00005d8c:    4a27        'J      LDR      r2,[pc,#156] ; [0x5e2c] = 0x20000294
        0x00005d8e:    4b23        #K      LDR      r3,[pc,#140] ; [0x5e1c] = 0x20000500
        0x00005d90:    f7feff45    ..E.    BL       build ; 0x4c1e
        0x00005d94:    e02b        +.      B        0x5dee ; shw_decimalPoint + 238
        0x00005d96:    481c        .H      LDR      r0,[pc,#112] ; [0x5e08] = 0x200002f8
        0x00005d98:    9001        ..      STR      r0,[sp,#4]
        0x00005d9a:    481c        .H      LDR      r0,[pc,#112] ; [0x5e0c] = 0x200001f4
        0x00005d9c:    9000        ..      STR      r0,[sp,#0]
        0x00005d9e:    481c        .H      LDR      r0,[pc,#112] ; [0x5e10] = 0x2000026c
        0x00005da0:    491c        .I      LDR      r1,[pc,#112] ; [0x5e14] = 0x5d01
        0x00005da2:    4a21        !J      LDR      r2,[pc,#132] ; [0x5e28] = 0x200002a8
        0x00005da4:    4b1d        .K      LDR      r3,[pc,#116] ; [0x5e1c] = 0x20000500
        0x00005da6:    f7feff3a    ..:.    BL       build ; 0x4c1e
        0x00005daa:    e020         .      B        0x5dee ; shw_decimalPoint + 238
        0x00005dac:    4816        .H      LDR      r0,[pc,#88] ; [0x5e08] = 0x200002f8
        0x00005dae:    9001        ..      STR      r0,[sp,#4]
        0x00005db0:    4816        .H      LDR      r0,[pc,#88] ; [0x5e0c] = 0x200001f4
        0x00005db2:    9000        ..      STR      r0,[sp,#0]
        0x00005db4:    4816        .H      LDR      r0,[pc,#88] ; [0x5e10] = 0x2000026c
        0x00005db6:    4917        .I      LDR      r1,[pc,#92] ; [0x5e14] = 0x5d01
        0x00005db8:    4a1a        .J      LDR      r2,[pc,#104] ; [0x5e24] = 0x200002bc
        0x00005dba:    4b18        .K      LDR      r3,[pc,#96] ; [0x5e1c] = 0x20000500
        0x00005dbc:    f7feff2f    ../.    BL       build ; 0x4c1e
        0x00005dc0:    e015        ..      B        0x5dee ; shw_decimalPoint + 238
        0x00005dc2:    4811        .H      LDR      r0,[pc,#68] ; [0x5e08] = 0x200002f8
        0x00005dc4:    9001        ..      STR      r0,[sp,#4]
        0x00005dc6:    4811        .H      LDR      r0,[pc,#68] ; [0x5e0c] = 0x200001f4
        0x00005dc8:    9000        ..      STR      r0,[sp,#0]
        0x00005dca:    4811        .H      LDR      r0,[pc,#68] ; [0x5e10] = 0x2000026c
        0x00005dcc:    4911        .I      LDR      r1,[pc,#68] ; [0x5e14] = 0x5d01
        0x00005dce:    4a14        .J      LDR      r2,[pc,#80] ; [0x5e20] = 0x200002d0
        0x00005dd0:    4b12        .K      LDR      r3,[pc,#72] ; [0x5e1c] = 0x20000500
        0x00005dd2:    f7feff24    ..$.    BL       build ; 0x4c1e
        0x00005dd6:    e00a        ..      B        0x5dee ; shw_decimalPoint + 238
        0x00005dd8:    480b        .H      LDR      r0,[pc,#44] ; [0x5e08] = 0x200002f8
        0x00005dda:    9001        ..      STR      r0,[sp,#4]
        0x00005ddc:    480b        .H      LDR      r0,[pc,#44] ; [0x5e0c] = 0x200001f4
        0x00005dde:    9000        ..      STR      r0,[sp,#0]
        0x00005de0:    480b        .H      LDR      r0,[pc,#44] ; [0x5e10] = 0x2000026c
        0x00005de2:    490c        .I      LDR      r1,[pc,#48] ; [0x5e14] = 0x5d01
        0x00005de4:    4a0c        .J      LDR      r2,[pc,#48] ; [0x5e18] = 0x200002e4
        0x00005de6:    4b0d        .K      LDR      r3,[pc,#52] ; [0x5e1c] = 0x20000500
        0x00005de8:    f7feff19    ....    BL       build ; 0x4c1e
        0x00005dec:    e7ff        ..      B        0x5dee ; shw_decimalPoint + 238
        0x00005dee:    b008        ..      ADD      sp,sp,#0x20
        0x00005df0:    bd10        ..      POP      {r4,pc}
        0x00005df2:    46c0        .F      MOV      r8,r8
    $d.16
    __arm_cp.10_0
        0x00005df4:    200004e8    ...     DCD    536872168
    __arm_cp.10_2
        0x00005df8:    00007a7c    |z..    DCD    31356
    __arm_cp.10_3
        0x00005dfc:    200004ec    ...     DCD    536872172
    __arm_cp.10_4
        0x00005e00:    00007b0d    .{..    DCD    31501
    __arm_cp.10_6
        0x00005e04:    200004bc    ...     DCD    536872124
    __arm_cp.10_7
        0x00005e08:    200002f8    ...     DCD    536871672
    __arm_cp.10_8
        0x00005e0c:    200001f4    ...     DCD    536871412
    __arm_cp.10_9
        0x00005e10:    2000026c    l..     DCD    536871532
    __arm_cp.10_10
        0x00005e14:    00005d01    .]..    DCD    23809
    __arm_cp.10_11
        0x00005e18:    200002e4    ...     DCD    536871652
    __arm_cp.10_12
        0x00005e1c:    20000500    ...     DCD    536872192
    __arm_cp.10_13
        0x00005e20:    200002d0    ...     DCD    536871632
    __arm_cp.10_14
        0x00005e24:    200002bc    ...     DCD    536871612
    __arm_cp.10_15
        0x00005e28:    200002a8    ...     DCD    536871592
    __arm_cp.10_16
        0x00005e2c:    20000294    ...     DCD    536871572
    $t.99
    shw_f10a
        0x00005e30:    b510        ..      PUSH     {r4,lr}
        0x00005e32:    b082        ..      SUB      sp,sp,#8
        0x00005e34:    48d7        .H      LDR      r0,[pc,#860] ; [0x6194] = 0x200004f0
        0x00005e36:    9001        ..      STR      r0,[sp,#4]
        0x00005e38:    6800        .h      LDR      r0,[r0,#0]
        0x00005e3a:    6a04        .j      LDR      r4,[r0,#0x20]
        0x00005e3c:    49d6        .I      LDR      r1,[pc,#856] ; [0x6198] = 0x200004e0
        0x00005e3e:    680b        .h      LDR      r3,[r1,#0]
        0x00005e40:    9000        ..      STR      r0,[sp,#0]
        0x00005e42:    4a05        .J      LDR      r2,[pc,#20] ; [0x5e58] = 0x7b35
        0x00005e44:    2100        .!      MOVS     r1,#0
        0x00005e46:    4608        .F      MOV      r0,r1
        0x00005e48:    47a0        .G      BLX      r4
        0x00005e4a:    9801        ..      LDR      r0,[sp,#4]
        0x00005e4c:    6800        .h      LDR      r0,[r0,#0]
        0x00005e4e:    6901        .i      LDR      r1,[r0,#0x10]
        0x00005e50:    4788        .G      BLX      r1
        0x00005e52:    b002        ..      ADD      sp,sp,#8
        0x00005e54:    bd10        ..      POP      {r4,pc}
        0x00005e56:    46c0        .F      MOV      r8,r8
    $d.100
    __arm_cp.52_2
        0x00005e58:    00007b35    5{..    DCD    31541
    $t.35
    shw_f1a_3000
        0x00005e5c:    b510        ..      PUSH     {r4,lr}
        0x00005e5e:    b084        ..      SUB      sp,sp,#0x10
        0x00005e60:    48da        .H      LDR      r0,[pc,#872] ; [0x61cc] = 0x200004f0
        0x00005e62:    9002        ..      STR      r0,[sp,#8]
        0x00005e64:    6800        .h      LDR      r0,[r0,#0]
        0x00005e66:    6a04        .j      LDR      r4,[r0,#0x20]
        0x00005e68:    49d9        .I      LDR      r1,[pc,#868] ; [0x61d0] = 0x200004e0
        0x00005e6a:    680b        .h      LDR      r3,[r1,#0]
        0x00005e6c:    9000        ..      STR      r0,[sp,#0]
        0x00005e6e:    4a07        .J      LDR      r2,[pc,#28] ; [0x5e8c] = 0x7a34
        0x00005e70:    2100        .!      MOVS     r1,#0
        0x00005e72:    9103        ..      STR      r1,[sp,#0xc]
        0x00005e74:    4608        .F      MOV      r0,r1
        0x00005e76:    47a0        .G      BLX      r4
        0x00005e78:    9802        ..      LDR      r0,[sp,#8]
        0x00005e7a:    6800        .h      LDR      r0,[r0,#0]
        0x00005e7c:    6901        .i      LDR      r1,[r0,#0x10]
        0x00005e7e:    4788        .G      BLX      r1
        0x00005e80:    9803        ..      LDR      r0,[sp,#0xc]
        0x00005e82:    4928        (I      LDR      r1,[pc,#160] ; [0x5f24] = 0x20000100
        0x00005e84:    7008        .p      STRB     r0,[r1,#0]
        0x00005e86:    b004        ..      ADD      sp,sp,#0x10
        0x00005e88:    bd10        ..      POP      {r4,pc}
        0x00005e8a:    46c0        .F      MOV      r8,r8
    $d.36
    __arm_cp.20_2
        0x00005e8c:    00007a34    4z..    DCD    31284
    $t.37
    shw_f1b_6000
        0x00005e90:    b510        ..      PUSH     {r4,lr}
        0x00005e92:    b082        ..      SUB      sp,sp,#8
        0x00005e94:    48db        .H      LDR      r0,[pc,#876] ; [0x6204] = 0x200004f0
        0x00005e96:    9001        ..      STR      r0,[sp,#4]
        0x00005e98:    6800        .h      LDR      r0,[r0,#0]
        0x00005e9a:    6a04        .j      LDR      r4,[r0,#0x20]
        0x00005e9c:    49da        .I      LDR      r1,[pc,#872] ; [0x6208] = 0x200004e0
        0x00005e9e:    680b        .h      LDR      r3,[r1,#0]
        0x00005ea0:    9000        ..      STR      r0,[sp,#0]
        0x00005ea2:    4a06        .J      LDR      r2,[pc,#24] ; [0x5ebc] = 0x7a3b
        0x00005ea4:    2100        .!      MOVS     r1,#0
        0x00005ea6:    4608        .F      MOV      r0,r1
        0x00005ea8:    47a0        .G      BLX      r4
        0x00005eaa:    9801        ..      LDR      r0,[sp,#4]
        0x00005eac:    6800        .h      LDR      r0,[r0,#0]
        0x00005eae:    6901        .i      LDR      r1,[r0,#0x10]
        0x00005eb0:    4788        .G      BLX      r1
        0x00005eb2:    491c        .I      LDR      r1,[pc,#112] ; [0x5f24] = 0x20000100
        0x00005eb4:    2001        .       MOVS     r0,#1
        0x00005eb6:    7008        .p      STRB     r0,[r1,#0]
        0x00005eb8:    b002        ..      ADD      sp,sp,#8
        0x00005eba:    bd10        ..      POP      {r4,pc}
    $d.38
    __arm_cp.21_2
        0x00005ebc:    00007a3b    ;z..    DCD    31291
    $t.39
    shw_f1c_dual1
        0x00005ec0:    b510        ..      PUSH     {r4,lr}
        0x00005ec2:    b082        ..      SUB      sp,sp,#8
        0x00005ec4:    48df        .H      LDR      r0,[pc,#892] ; [0x6244] = 0x200004f0
        0x00005ec6:    9001        ..      STR      r0,[sp,#4]
        0x00005ec8:    6800        .h      LDR      r0,[r0,#0]
        0x00005eca:    6a04        .j      LDR      r4,[r0,#0x20]
        0x00005ecc:    49de        .I      LDR      r1,[pc,#888] ; [0x6248] = 0x200004e0
        0x00005ece:    680b        .h      LDR      r3,[r1,#0]
        0x00005ed0:    9000        ..      STR      r0,[sp,#0]
        0x00005ed2:    4a06        .J      LDR      r2,[pc,#24] ; [0x5eec] = 0x7a5e
        0x00005ed4:    2100        .!      MOVS     r1,#0
        0x00005ed6:    4608        .F      MOV      r0,r1
        0x00005ed8:    47a0        .G      BLX      r4
        0x00005eda:    9801        ..      LDR      r0,[sp,#4]
        0x00005edc:    6800        .h      LDR      r0,[r0,#0]
        0x00005ede:    6901        .i      LDR      r1,[r0,#0x10]
        0x00005ee0:    4788        .G      BLX      r1
        0x00005ee2:    4910        .I      LDR      r1,[pc,#64] ; [0x5f24] = 0x20000100
        0x00005ee4:    2002        .       MOVS     r0,#2
        0x00005ee6:    7008        .p      STRB     r0,[r1,#0]
        0x00005ee8:    b002        ..      ADD      sp,sp,#8
        0x00005eea:    bd10        ..      POP      {r4,pc}
    $d.40
    __arm_cp.22_2
        0x00005eec:    00007a5e    ^z..    DCD    31326
    $t.41
    shw_f1d_dual2
        0x00005ef0:    b510        ..      PUSH     {r4,lr}
        0x00005ef2:    b082        ..      SUB      sp,sp,#8
        0x00005ef4:    48e1        .H      LDR      r0,[pc,#900] ; [0x627c] = 0x200004f0
        0x00005ef6:    9001        ..      STR      r0,[sp,#4]
        0x00005ef8:    6800        .h      LDR      r0,[r0,#0]
        0x00005efa:    6a04        .j      LDR      r4,[r0,#0x20]
        0x00005efc:    49e0        .I      LDR      r1,[pc,#896] ; [0x6280] = 0x200004e0
        0x00005efe:    680b        .h      LDR      r3,[r1,#0]
        0x00005f00:    9000        ..      STR      r0,[sp,#0]
        0x00005f02:    4a07        .J      LDR      r2,[pc,#28] ; [0x5f20] = 0x7a75
        0x00005f04:    2100        .!      MOVS     r1,#0
        0x00005f06:    4608        .F      MOV      r0,r1
        0x00005f08:    47a0        .G      BLX      r4
        0x00005f0a:    9801        ..      LDR      r0,[sp,#4]
        0x00005f0c:    6800        .h      LDR      r0,[r0,#0]
        0x00005f0e:    6901        .i      LDR      r1,[r0,#0x10]
        0x00005f10:    4788        .G      BLX      r1
        0x00005f12:    4904        .I      LDR      r1,[pc,#16] ; [0x5f24] = 0x20000100
        0x00005f14:    2003        .       MOVS     r0,#3
        0x00005f16:    7008        .p      STRB     r0,[r1,#0]
        0x00005f18:    b002        ..      ADD      sp,sp,#8
        0x00005f1a:    bd10        ..      POP      {r4,pc}
    $d.42
    __arm_cp.23_1
        0x00005f1c:    200004e0    ...     DCD    536872160
    __arm_cp.23_2
        0x00005f20:    00007a75    uz..    DCD    31349
    __arm_cp.23_3
        0x00005f24:    20000100    ...     DCD    536871168
    $t.45
    shw_f2a_3
        0x00005f28:    b510        ..      PUSH     {r4,lr}
        0x00005f2a:    b084        ..      SUB      sp,sp,#0x10
        0x00005f2c:    48e1        .H      LDR      r0,[pc,#900] ; [0x62b4] = 0x200004f0
        0x00005f2e:    9002        ..      STR      r0,[sp,#8]
        0x00005f30:    6800        .h      LDR      r0,[r0,#0]
        0x00005f32:    6a04        .j      LDR      r4,[r0,#0x20]
        0x00005f34:    49e0        .I      LDR      r1,[pc,#896] ; [0x62b8] = 0x200004e0
        0x00005f36:    680b        .h      LDR      r3,[r1,#0]
        0x00005f38:    9000        ..      STR      r0,[sp,#0]
        0x00005f3a:    4a08        .J      LDR      r2,[pc,#32] ; [0x5f5c] = 0x7ab8
        0x00005f3c:    2100        .!      MOVS     r1,#0
        0x00005f3e:    9103        ..      STR      r1,[sp,#0xc]
        0x00005f40:    4608        .F      MOV      r0,r1
        0x00005f42:    47a0        .G      BLX      r4
        0x00005f44:    9802        ..      LDR      r0,[sp,#8]
        0x00005f46:    6800        .h      LDR      r0,[r0,#0]
        0x00005f48:    6901        .i      LDR      r1,[r0,#0x10]
        0x00005f4a:    4788        .G      BLX      r1
        0x00005f4c:    9803        ..      LDR      r0,[sp,#0xc]
        0x00005f4e:    492a        *I      LDR      r1,[pc,#168] ; [0x5ff8] = 0x200000fc
        0x00005f50:    7008        .p      STRB     r0,[r1,#0]
        0x00005f52:    b004        ..      ADD      sp,sp,#0x10
        0x00005f54:    bd10        ..      POP      {r4,pc}
        0x00005f56:    46c0        .F      MOV      r8,r8
    $d.46
    __arm_cp.25_0
        0x00005f58:    200004f0    ...     DCD    536872176
    __arm_cp.25_2
        0x00005f5c:    00007ab8    .z..    DCD    31416
    $t.47
    shw_f2b_6
        0x00005f60:    b510        ..      PUSH     {r4,lr}
        0x00005f62:    b082        ..      SUB      sp,sp,#8
        0x00005f64:    48e1        .H      LDR      r0,[pc,#900] ; [0x62ec] = 0x200004f0
        0x00005f66:    9001        ..      STR      r0,[sp,#4]
        0x00005f68:    6800        .h      LDR      r0,[r0,#0]
        0x00005f6a:    6a04        .j      LDR      r4,[r0,#0x20]
        0x00005f6c:    49e0        .I      LDR      r1,[pc,#896] ; [0x62f0] = 0x200004e0
        0x00005f6e:    680b        .h      LDR      r3,[r1,#0]
        0x00005f70:    9000        ..      STR      r0,[sp,#0]
        0x00005f72:    4a07        .J      LDR      r2,[pc,#28] ; [0x5f90] = 0x7ac6
        0x00005f74:    2100        .!      MOVS     r1,#0
        0x00005f76:    4608        .F      MOV      r0,r1
        0x00005f78:    47a0        .G      BLX      r4
        0x00005f7a:    9801        ..      LDR      r0,[sp,#4]
        0x00005f7c:    6800        .h      LDR      r0,[r0,#0]
        0x00005f7e:    6901        .i      LDR      r1,[r0,#0x10]
        0x00005f80:    4788        .G      BLX      r1
        0x00005f82:    491d        .I      LDR      r1,[pc,#116] ; [0x5ff8] = 0x200000fc
        0x00005f84:    2001        .       MOVS     r0,#1
        0x00005f86:    7008        .p      STRB     r0,[r1,#0]
        0x00005f88:    b002        ..      ADD      sp,sp,#8
        0x00005f8a:    bd10        ..      POP      {r4,pc}
    $d.48
    __arm_cp.26_1
        0x00005f8c:    200004e0    ...     DCD    536872160
    __arm_cp.26_2
        0x00005f90:    00007ac6    .z..    DCD    31430
    $t.49
    shw_f2c_15
        0x00005f94:    b510        ..      PUSH     {r4,lr}
        0x00005f96:    b082        ..      SUB      sp,sp,#8
        0x00005f98:    48e4        .H      LDR      r0,[pc,#912] ; [0x632c] = 0x200004f0
        0x00005f9a:    9001        ..      STR      r0,[sp,#4]
        0x00005f9c:    6800        .h      LDR      r0,[r0,#0]
        0x00005f9e:    6a04        .j      LDR      r4,[r0,#0x20]
        0x00005fa0:    49e3        .I      LDR      r1,[pc,#908] ; [0x6330] = 0x200004e0
        0x00005fa2:    680b        .h      LDR      r3,[r1,#0]
        0x00005fa4:    9000        ..      STR      r0,[sp,#0]
        0x00005fa6:    4a07        .J      LDR      r2,[pc,#28] ; [0x5fc4] = 0x7abf
        0x00005fa8:    2100        .!      MOVS     r1,#0
        0x00005faa:    4608        .F      MOV      r0,r1
        0x00005fac:    47a0        .G      BLX      r4
        0x00005fae:    9801        ..      LDR      r0,[sp,#4]
        0x00005fb0:    6800        .h      LDR      r0,[r0,#0]
        0x00005fb2:    6901        .i      LDR      r1,[r0,#0x10]
        0x00005fb4:    4788        .G      BLX      r1
        0x00005fb6:    4910        .I      LDR      r1,[pc,#64] ; [0x5ff8] = 0x200000fc
        0x00005fb8:    2002        .       MOVS     r0,#2
        0x00005fba:    7008        .p      STRB     r0,[r1,#0]
        0x00005fbc:    b002        ..      ADD      sp,sp,#8
        0x00005fbe:    bd10        ..      POP      {r4,pc}
    $d.50
    __arm_cp.27_0
        0x00005fc0:    200004f0    ...     DCD    536872176
    __arm_cp.27_2
        0x00005fc4:    00007abf    .z..    DCD    31423
    $t.51
    shw_f2d_30
        0x00005fc8:    b510        ..      PUSH     {r4,lr}
        0x00005fca:    b082        ..      SUB      sp,sp,#8
        0x00005fcc:    48e5        .H      LDR      r0,[pc,#916] ; [0x6364] = 0x200004f0
        0x00005fce:    9001        ..      STR      r0,[sp,#4]
        0x00005fd0:    6800        .h      LDR      r0,[r0,#0]
        0x00005fd2:    6a04        .j      LDR      r4,[r0,#0x20]
        0x00005fd4:    49e4        .I      LDR      r1,[pc,#912] ; [0x6368] = 0x200004e0
        0x00005fd6:    680b        .h      LDR      r3,[r1,#0]
        0x00005fd8:    9000        ..      STR      r0,[sp,#0]
        0x00005fda:    4a06        .J      LDR      r2,[pc,#24] ; [0x5ff4] = 0x7ab1
        0x00005fdc:    2100        .!      MOVS     r1,#0
        0x00005fde:    4608        .F      MOV      r0,r1
        0x00005fe0:    47a0        .G      BLX      r4
        0x00005fe2:    9801        ..      LDR      r0,[sp,#4]
        0x00005fe4:    6800        .h      LDR      r0,[r0,#0]
        0x00005fe6:    6901        .i      LDR      r1,[r0,#0x10]
        0x00005fe8:    4788        .G      BLX      r1
        0x00005fea:    4903        .I      LDR      r1,[pc,#12] ; [0x5ff8] = 0x200000fc
        0x00005fec:    2003        .       MOVS     r0,#3
        0x00005fee:    7008        .p      STRB     r0,[r1,#0]
        0x00005ff0:    b002        ..      ADD      sp,sp,#8
        0x00005ff2:    bd10        ..      POP      {r4,pc}
    $d.52
    __arm_cp.28_2
        0x00005ff4:    00007ab1    .z..    DCD    31409
    __arm_cp.28_3
        0x00005ff8:    200000fc    ...     DCD    536871164
    $t.55
    shw_f3a
        0x00005ffc:    b510        ..      PUSH     {r4,lr}
        0x00005ffe:    b084        ..      SUB      sp,sp,#0x10
        0x00006000:    48d8        .H      LDR      r0,[pc,#864] ; [0x6364] = 0x200004f0
        0x00006002:    9002        ..      STR      r0,[sp,#8]
        0x00006004:    6800        .h      LDR      r0,[r0,#0]
        0x00006006:    6a04        .j      LDR      r4,[r0,#0x20]
        0x00006008:    49d7        .I      LDR      r1,[pc,#860] ; [0x6368] = 0x200004e0
        0x0000600a:    680b        .h      LDR      r3,[r1,#0]
        0x0000600c:    9000        ..      STR      r0,[sp,#0]
        0x0000600e:    4a07        .J      LDR      r2,[pc,#28] ; [0x602c] = 0x79a8
        0x00006010:    2100        .!      MOVS     r1,#0
        0x00006012:    9103        ..      STR      r1,[sp,#0xc]
        0x00006014:    4608        .F      MOV      r0,r1
        0x00006016:    47a0        .G      BLX      r4
        0x00006018:    9802        ..      LDR      r0,[sp,#8]
        0x0000601a:    6800        .h      LDR      r0,[r0,#0]
        0x0000601c:    6901        .i      LDR      r1,[r0,#0x10]
        0x0000601e:    4788        .G      BLX      r1
        0x00006020:    9803        ..      LDR      r0,[sp,#0xc]
        0x00006022:    4935        5I      LDR      r1,[pc,#212] ; [0x60f8] = 0x200000fd
        0x00006024:    7008        .p      STRB     r0,[r1,#0]
        0x00006026:    b004        ..      ADD      sp,sp,#0x10
        0x00006028:    bd10        ..      POP      {r4,pc}
        0x0000602a:    46c0        .F      MOV      r8,r8
    $d.56
    __arm_cp.30_2
        0x0000602c:    000079a8    .y..    DCD    31144
    $t.57
    shw_f3b
        0x00006030:    b510        ..      PUSH     {r4,lr}
        0x00006032:    b082        ..      SUB      sp,sp,#8
        0x00006034:    48cb        .H      LDR      r0,[pc,#812] ; [0x6364] = 0x200004f0
        0x00006036:    9001        ..      STR      r0,[sp,#4]
        0x00006038:    6800        .h      LDR      r0,[r0,#0]
        0x0000603a:    6a04        .j      LDR      r4,[r0,#0x20]
        0x0000603c:    49e4        .I      LDR      r1,[pc,#912] ; [0x63d0] = 0x200004e0
        0x0000603e:    680b        .h      LDR      r3,[r1,#0]
        0x00006040:    9000        ..      STR      r0,[sp,#0]
        0x00006042:    4a06        .J      LDR      r2,[pc,#24] ; [0x605c] = 0x79af
        0x00006044:    2100        .!      MOVS     r1,#0
        0x00006046:    4608        .F      MOV      r0,r1
        0x00006048:    47a0        .G      BLX      r4
        0x0000604a:    9801        ..      LDR      r0,[sp,#4]
        0x0000604c:    6800        .h      LDR      r0,[r0,#0]
        0x0000604e:    6901        .i      LDR      r1,[r0,#0x10]
        0x00006050:    4788        .G      BLX      r1
        0x00006052:    4929        )I      LDR      r1,[pc,#164] ; [0x60f8] = 0x200000fd
        0x00006054:    2001        .       MOVS     r0,#1
        0x00006056:    7008        .p      STRB     r0,[r1,#0]
        0x00006058:    b002        ..      ADD      sp,sp,#8
        0x0000605a:    bd10        ..      POP      {r4,pc}
    $d.58
    __arm_cp.31_2
        0x0000605c:    000079af    .y..    DCD    31151
    $t.59
    shw_f3c
        0x00006060:    b510        ..      PUSH     {r4,lr}
        0x00006062:    b082        ..      SUB      sp,sp,#8
        0x00006064:    48dd        .H      LDR      r0,[pc,#884] ; [0x63dc] = 0x200004f0
        0x00006066:    9001        ..      STR      r0,[sp,#4]
        0x00006068:    6800        .h      LDR      r0,[r0,#0]
        0x0000606a:    6a04        .j      LDR      r4,[r0,#0x20]
        0x0000606c:    49d8        .I      LDR      r1,[pc,#864] ; [0x63d0] = 0x200004e0
        0x0000606e:    680b        .h      LDR      r3,[r1,#0]
        0x00006070:    9000        ..      STR      r0,[sp,#0]
        0x00006072:    4a07        .J      LDR      r2,[pc,#28] ; [0x6090] = 0x79b7
        0x00006074:    2100        .!      MOVS     r1,#0
        0x00006076:    4608        .F      MOV      r0,r1
        0x00006078:    47a0        .G      BLX      r4
        0x0000607a:    9801        ..      LDR      r0,[sp,#4]
        0x0000607c:    6800        .h      LDR      r0,[r0,#0]
        0x0000607e:    6901        .i      LDR      r1,[r0,#0x10]
        0x00006080:    4788        .G      BLX      r1
        0x00006082:    491d        .I      LDR      r1,[pc,#116] ; [0x60f8] = 0x200000fd
        0x00006084:    2002        .       MOVS     r0,#2
        0x00006086:    7008        .p      STRB     r0,[r1,#0]
        0x00006088:    b002        ..      ADD      sp,sp,#8
        0x0000608a:    bd10        ..      POP      {r4,pc}
    $d.60
    __arm_cp.32_1
        0x0000608c:    200004e0    ...     DCD    536872160
    __arm_cp.32_2
        0x00006090:    000079b7    .y..    DCD    31159
    $t.61
    shw_f3d
        0x00006094:    b510        ..      PUSH     {r4,lr}
        0x00006096:    b082        ..      SUB      sp,sp,#8
        0x00006098:    48d0        .H      LDR      r0,[pc,#832] ; [0x63dc] = 0x200004f0
        0x0000609a:    9001        ..      STR      r0,[sp,#4]
        0x0000609c:    6800        .h      LDR      r0,[r0,#0]
        0x0000609e:    6a04        .j      LDR      r4,[r0,#0x20]
        0x000060a0:    49cb        .I      LDR      r1,[pc,#812] ; [0x63d0] = 0x200004e0
        0x000060a2:    680b        .h      LDR      r3,[r1,#0]
        0x000060a4:    9000        ..      STR      r0,[sp,#0]
        0x000060a6:    4a07        .J      LDR      r2,[pc,#28] ; [0x60c4] = 0x79bf
        0x000060a8:    2100        .!      MOVS     r1,#0
        0x000060aa:    4608        .F      MOV      r0,r1
        0x000060ac:    47a0        .G      BLX      r4
        0x000060ae:    9801        ..      LDR      r0,[sp,#4]
        0x000060b0:    6800        .h      LDR      r0,[r0,#0]
        0x000060b2:    6901        .i      LDR      r1,[r0,#0x10]
        0x000060b4:    4788        .G      BLX      r1
        0x000060b6:    4910        .I      LDR      r1,[pc,#64] ; [0x60f8] = 0x200000fd
        0x000060b8:    2003        .       MOVS     r0,#3
        0x000060ba:    7008        .p      STRB     r0,[r1,#0]
        0x000060bc:    b002        ..      ADD      sp,sp,#8
        0x000060be:    bd10        ..      POP      {r4,pc}
    $d.62
    __arm_cp.33_0
        0x000060c0:    200004f0    ...     DCD    536872176
    __arm_cp.33_2
        0x000060c4:    000079bf    .y..    DCD    31167
    $t.63
    shw_f3e
        0x000060c8:    b510        ..      PUSH     {r4,lr}
        0x000060ca:    b082        ..      SUB      sp,sp,#8
        0x000060cc:    48e2        .H      LDR      r0,[pc,#904] ; [0x6458] = 0x200004f0
        0x000060ce:    9001        ..      STR      r0,[sp,#4]
        0x000060d0:    6800        .h      LDR      r0,[r0,#0]
        0x000060d2:    6a04        .j      LDR      r4,[r0,#0x20]
        0x000060d4:    49e1        .I      LDR      r1,[pc,#900] ; [0x645c] = 0x200004e0
        0x000060d6:    680b        .h      LDR      r3,[r1,#0]
        0x000060d8:    9000        ..      STR      r0,[sp,#0]
        0x000060da:    4a06        .J      LDR      r2,[pc,#24] ; [0x60f4] = 0x79c7
        0x000060dc:    2100        .!      MOVS     r1,#0
        0x000060de:    4608        .F      MOV      r0,r1
        0x000060e0:    47a0        .G      BLX      r4
        0x000060e2:    9801        ..      LDR      r0,[sp,#4]
        0x000060e4:    6800        .h      LDR      r0,[r0,#0]
        0x000060e6:    6901        .i      LDR      r1,[r0,#0x10]
        0x000060e8:    4788        .G      BLX      r1
        0x000060ea:    4903        .I      LDR      r1,[pc,#12] ; [0x60f8] = 0x200000fd
        0x000060ec:    2004        .       MOVS     r0,#4
        0x000060ee:    7008        .p      STRB     r0,[r1,#0]
        0x000060f0:    b002        ..      ADD      sp,sp,#8
        0x000060f2:    bd10        ..      POP      {r4,pc}
    $d.64
    __arm_cp.34_2
        0x000060f4:    000079c7    .y..    DCD    31175
    __arm_cp.34_3
        0x000060f8:    200000fd    ...     DCD    536871165
    $t.67
    shw_f4a_fix
        0x000060fc:    b510        ..      PUSH     {r4,lr}
        0x000060fe:    b084        ..      SUB      sp,sp,#0x10
        0x00006100:    48d5        .H      LDR      r0,[pc,#852] ; [0x6458] = 0x200004f0
        0x00006102:    9002        ..      STR      r0,[sp,#8]
        0x00006104:    6800        .h      LDR      r0,[r0,#0]
        0x00006106:    6a04        .j      LDR      r4,[r0,#0x20]
        0x00006108:    49d4        .I      LDR      r1,[pc,#848] ; [0x645c] = 0x200004e0
        0x0000610a:    680b        .h      LDR      r3,[r1,#0]
        0x0000610c:    9000        ..      STR      r0,[sp,#0]
        0x0000610e:    4a07        .J      LDR      r2,[pc,#28] ; [0x612c] = 0x7af7
        0x00006110:    2100        .!      MOVS     r1,#0
        0x00006112:    9103        ..      STR      r1,[sp,#0xc]
        0x00006114:    4608        .F      MOV      r0,r1
        0x00006116:    47a0        .G      BLX      r4
        0x00006118:    9802        ..      LDR      r0,[sp,#8]
        0x0000611a:    6800        .h      LDR      r0,[r0,#0]
        0x0000611c:    6901        .i      LDR      r1,[r0,#0x10]
        0x0000611e:    4788        .G      BLX      r1
        0x00006120:    9803        ..      LDR      r0,[sp,#0xc]
        0x00006122:    490f        .I      LDR      r1,[pc,#60] ; [0x6160] = 0x20000102
        0x00006124:    7008        .p      STRB     r0,[r1,#0]
        0x00006126:    b004        ..      ADD      sp,sp,#0x10
        0x00006128:    bd10        ..      POP      {r4,pc}
        0x0000612a:    46c0        .F      MOV      r8,r8
    $d.68
    __arm_cp.36_2
        0x0000612c:    00007af7    .z..    DCD    31479
    $t.69
    shw_f4b_flot
        0x00006130:    b510        ..      PUSH     {r4,lr}
        0x00006132:    b082        ..      SUB      sp,sp,#8
        0x00006134:    48c8        .H      LDR      r0,[pc,#800] ; [0x6458] = 0x200004f0
        0x00006136:    9001        ..      STR      r0,[sp,#4]
        0x00006138:    6800        .h      LDR      r0,[r0,#0]
        0x0000613a:    6a04        .j      LDR      r4,[r0,#0x20]
        0x0000613c:    49f0        .I      LDR      r1,[pc,#960] ; [0x6500] = 0x200004e0
        0x0000613e:    680b        .h      LDR      r3,[r1,#0]
        0x00006140:    9000        ..      STR      r0,[sp,#0]
        0x00006142:    4a06        .J      LDR      r2,[pc,#24] ; [0x615c] = 0x7af0
        0x00006144:    2100        .!      MOVS     r1,#0
        0x00006146:    4608        .F      MOV      r0,r1
        0x00006148:    47a0        .G      BLX      r4
        0x0000614a:    9801        ..      LDR      r0,[sp,#4]
        0x0000614c:    6800        .h      LDR      r0,[r0,#0]
        0x0000614e:    6901        .i      LDR      r1,[r0,#0x10]
        0x00006150:    4788        .G      BLX      r1
        0x00006152:    4903        .I      LDR      r1,[pc,#12] ; [0x6160] = 0x20000102
        0x00006154:    2001        .       MOVS     r0,#1
        0x00006156:    7008        .p      STRB     r0,[r1,#0]
        0x00006158:    b002        ..      ADD      sp,sp,#8
        0x0000615a:    bd10        ..      POP      {r4,pc}
    $d.70
    __arm_cp.37_2
        0x0000615c:    00007af0    .z..    DCD    31472
    __arm_cp.37_3
        0x00006160:    20000102    ...     DCD    536871170
    $t.73
    shw_f5a_slow
        0x00006164:    b510        ..      PUSH     {r4,lr}
        0x00006166:    b084        ..      SUB      sp,sp,#0x10
        0x00006168:    48e8        .H      LDR      r0,[pc,#928] ; [0x650c] = 0x200004f0
        0x0000616a:    9002        ..      STR      r0,[sp,#8]
        0x0000616c:    6800        .h      LDR      r0,[r0,#0]
        0x0000616e:    6a04        .j      LDR      r4,[r0,#0x20]
        0x00006170:    49e3        .I      LDR      r1,[pc,#908] ; [0x6500] = 0x200004e0
        0x00006172:    680b        .h      LDR      r3,[r1,#0]
        0x00006174:    9000        ..      STR      r0,[sp,#0]
        0x00006176:    4a09        .J      LDR      r2,[pc,#36] ; [0x619c] = 0x7b3a
        0x00006178:    2100        .!      MOVS     r1,#0
        0x0000617a:    9103        ..      STR      r1,[sp,#0xc]
        0x0000617c:    4608        .F      MOV      r0,r1
        0x0000617e:    47a0        .G      BLX      r4
        0x00006180:    9802        ..      LDR      r0,[sp,#8]
        0x00006182:    6800        .h      LDR      r0,[r0,#0]
        0x00006184:    6901        .i      LDR      r1,[r0,#0x10]
        0x00006186:    4788        .G      BLX      r1
        0x00006188:    9803        ..      LDR      r0,[sp,#0xc]
        0x0000618a:    4921        !I      LDR      r1,[pc,#132] ; [0x6210] = 0x20000101
        0x0000618c:    7008        .p      STRB     r0,[r1,#0]
        0x0000618e:    b004        ..      ADD      sp,sp,#0x10
        0x00006190:    bd10        ..      POP      {r4,pc}
        0x00006192:    46c0        .F      MOV      r8,r8
    $d.74
    __arm_cp.39_0
        0x00006194:    200004f0    ...     DCD    536872176
    __arm_cp.39_1
        0x00006198:    200004e0    ...     DCD    536872160
    __arm_cp.39_2
        0x0000619c:    00007b3a    :{..    DCD    31546
    $t.75
    shw_f5b_normal
        0x000061a0:    b510        ..      PUSH     {r4,lr}
        0x000061a2:    b082        ..      SUB      sp,sp,#8
        0x000061a4:    48d9        .H      LDR      r0,[pc,#868] ; [0x650c] = 0x200004f0
        0x000061a6:    9001        ..      STR      r0,[sp,#4]
        0x000061a8:    6800        .h      LDR      r0,[r0,#0]
        0x000061aa:    6a04        .j      LDR      r4,[r0,#0x20]
        0x000061ac:    49d4        .I      LDR      r1,[pc,#848] ; [0x6500] = 0x200004e0
        0x000061ae:    680b        .h      LDR      r3,[r1,#0]
        0x000061b0:    9000        ..      STR      r0,[sp,#0]
        0x000061b2:    4a08        .J      LDR      r2,[pc,#32] ; [0x61d4] = 0x7b14
        0x000061b4:    2100        .!      MOVS     r1,#0
        0x000061b6:    4608        .F      MOV      r0,r1
        0x000061b8:    47a0        .G      BLX      r4
        0x000061ba:    9801        ..      LDR      r0,[sp,#4]
        0x000061bc:    6800        .h      LDR      r0,[r0,#0]
        0x000061be:    6901        .i      LDR      r1,[r0,#0x10]
        0x000061c0:    4788        .G      BLX      r1
        0x000061c2:    4913        .I      LDR      r1,[pc,#76] ; [0x6210] = 0x20000101
        0x000061c4:    2001        .       MOVS     r0,#1
        0x000061c6:    7008        .p      STRB     r0,[r1,#0]
        0x000061c8:    b002        ..      ADD      sp,sp,#8
        0x000061ca:    bd10        ..      POP      {r4,pc}
    $d.76
    __arm_cp.40_0
        0x000061cc:    200004f0    ...     DCD    536872176
    __arm_cp.40_1
        0x000061d0:    200004e0    ...     DCD    536872160
    __arm_cp.40_2
        0x000061d4:    00007b14    .{..    DCD    31508
    $t.77
    shw_f5c_fast
        0x000061d8:    b510        ..      PUSH     {r4,lr}
        0x000061da:    b082        ..      SUB      sp,sp,#8
        0x000061dc:    48eb        .H      LDR      r0,[pc,#940] ; [0x658c] = 0x200004f0
        0x000061de:    9001        ..      STR      r0,[sp,#4]
        0x000061e0:    6800        .h      LDR      r0,[r0,#0]
        0x000061e2:    6a04        .j      LDR      r4,[r0,#0x20]
        0x000061e4:    49e6        .I      LDR      r1,[pc,#920] ; [0x6580] = 0x200004e0
        0x000061e6:    680b        .h      LDR      r3,[r1,#0]
        0x000061e8:    9000        ..      STR      r0,[sp,#0]
        0x000061ea:    4a08        .J      LDR      r2,[pc,#32] ; [0x620c] = 0x7b2e
        0x000061ec:    2100        .!      MOVS     r1,#0
        0x000061ee:    4608        .F      MOV      r0,r1
        0x000061f0:    47a0        .G      BLX      r4
        0x000061f2:    9801        ..      LDR      r0,[sp,#4]
        0x000061f4:    6800        .h      LDR      r0,[r0,#0]
        0x000061f6:    6901        .i      LDR      r1,[r0,#0x10]
        0x000061f8:    4788        .G      BLX      r1
        0x000061fa:    4905        .I      LDR      r1,[pc,#20] ; [0x6210] = 0x20000101
        0x000061fc:    2002        .       MOVS     r0,#2
        0x000061fe:    7008        .p      STRB     r0,[r1,#0]
        0x00006200:    b002        ..      ADD      sp,sp,#8
        0x00006202:    bd10        ..      POP      {r4,pc}
    $d.78
    __arm_cp.41_0
        0x00006204:    200004f0    ...     DCD    536872176
    __arm_cp.41_1
        0x00006208:    200004e0    ...     DCD    536872160
    __arm_cp.41_2
        0x0000620c:    00007b2e    .{..    DCD    31534
    __arm_cp.41_3
        0x00006210:    20000101    ...     DCD    536871169
    $t.81
    shw_f6a_1
        0x00006214:    b510        ..      PUSH     {r4,lr}
        0x00006216:    b084        ..      SUB      sp,sp,#0x10
        0x00006218:    48dc        .H      LDR      r0,[pc,#880] ; [0x658c] = 0x200004f0
        0x0000621a:    9002        ..      STR      r0,[sp,#8]
        0x0000621c:    6800        .h      LDR      r0,[r0,#0]
        0x0000621e:    6a04        .j      LDR      r4,[r0,#0x20]
        0x00006220:    49d7        .I      LDR      r1,[pc,#860] ; [0x6580] = 0x200004e0
        0x00006222:    680b        .h      LDR      r3,[r1,#0]
        0x00006224:    9000        ..      STR      r0,[sp,#0]
        0x00006226:    4a09        .J      LDR      r2,[pc,#36] ; [0x624c] = 0x7a50
        0x00006228:    2100        .!      MOVS     r1,#0
        0x0000622a:    9103        ..      STR      r1,[sp,#0xc]
        0x0000622c:    4608        .F      MOV      r0,r1
        0x0000622e:    47a0        .G      BLX      r4
        0x00006230:    9802        ..      LDR      r0,[sp,#8]
        0x00006232:    6800        .h      LDR      r0,[r0,#0]
        0x00006234:    6901        .i      LDR      r1,[r0,#0x10]
        0x00006236:    4788        .G      BLX      r1
        0x00006238:    9803        ..      LDR      r0,[sp,#0xc]
        0x0000623a:    492f        /I      LDR      r1,[pc,#188] ; [0x62f8] = 0x200000fe
        0x0000623c:    7008        .p      STRB     r0,[r1,#0]
        0x0000623e:    b004        ..      ADD      sp,sp,#0x10
        0x00006240:    bd10        ..      POP      {r4,pc}
        0x00006242:    46c0        .F      MOV      r8,r8
    $d.82
    __arm_cp.43_0
        0x00006244:    200004f0    ...     DCD    536872176
    __arm_cp.43_1
        0x00006248:    200004e0    ...     DCD    536872160
    __arm_cp.43_2
        0x0000624c:    00007a50    Pz..    DCD    31312
    $t.83
    shw_f6b_2
        0x00006250:    b510        ..      PUSH     {r4,lr}
        0x00006252:    b082        ..      SUB      sp,sp,#8
        0x00006254:    48ea        .H      LDR      r0,[pc,#936] ; [0x6600] = 0x200004f0
        0x00006256:    9001        ..      STR      r0,[sp,#4]
        0x00006258:    6800        .h      LDR      r0,[r0,#0]
        0x0000625a:    6a04        .j      LDR      r4,[r0,#0x20]
        0x0000625c:    49e6        .I      LDR      r1,[pc,#920] ; [0x65f8] = 0x200004e0
        0x0000625e:    680b        .h      LDR      r3,[r1,#0]
        0x00006260:    9000        ..      STR      r0,[sp,#0]
        0x00006262:    4a08        .J      LDR      r2,[pc,#32] ; [0x6284] = 0x7a65
        0x00006264:    2100        .!      MOVS     r1,#0
        0x00006266:    4608        .F      MOV      r0,r1
        0x00006268:    47a0        .G      BLX      r4
        0x0000626a:    9801        ..      LDR      r0,[sp,#4]
        0x0000626c:    6800        .h      LDR      r0,[r0,#0]
        0x0000626e:    6901        .i      LDR      r1,[r0,#0x10]
        0x00006270:    4788        .G      BLX      r1
        0x00006272:    4921        !I      LDR      r1,[pc,#132] ; [0x62f8] = 0x200000fe
        0x00006274:    2001        .       MOVS     r0,#1
        0x00006276:    7008        .p      STRB     r0,[r1,#0]
        0x00006278:    b002        ..      ADD      sp,sp,#8
        0x0000627a:    bd10        ..      POP      {r4,pc}
    $d.84
    __arm_cp.44_0
        0x0000627c:    200004f0    ...     DCD    536872176
    __arm_cp.44_1
        0x00006280:    200004e0    ...     DCD    536872160
    __arm_cp.44_2
        0x00006284:    00007a65    ez..    DCD    31333
    $t.85
    shw_f6c_5
        0x00006288:    b510        ..      PUSH     {r4,lr}
        0x0000628a:    b082        ..      SUB      sp,sp,#8
        0x0000628c:    48dc        .H      LDR      r0,[pc,#880] ; [0x6600] = 0x200004f0
        0x0000628e:    9001        ..      STR      r0,[sp,#4]
        0x00006290:    6800        .h      LDR      r0,[r0,#0]
        0x00006292:    6a04        .j      LDR      r4,[r0,#0x20]
        0x00006294:    49d8        .I      LDR      r1,[pc,#864] ; [0x65f8] = 0x200004e0
        0x00006296:    680b        .h      LDR      r3,[r1,#0]
        0x00006298:    9000        ..      STR      r0,[sp,#0]
        0x0000629a:    4a08        .J      LDR      r2,[pc,#32] ; [0x62bc] = 0x7a89
        0x0000629c:    2100        .!      MOVS     r1,#0
        0x0000629e:    4608        .F      MOV      r0,r1
        0x000062a0:    47a0        .G      BLX      r4
        0x000062a2:    9801        ..      LDR      r0,[sp,#4]
        0x000062a4:    6800        .h      LDR      r0,[r0,#0]
        0x000062a6:    6901        .i      LDR      r1,[r0,#0x10]
        0x000062a8:    4788        .G      BLX      r1
        0x000062aa:    4913        .I      LDR      r1,[pc,#76] ; [0x62f8] = 0x200000fe
        0x000062ac:    2002        .       MOVS     r0,#2
        0x000062ae:    7008        .p      STRB     r0,[r1,#0]
        0x000062b0:    b002        ..      ADD      sp,sp,#8
        0x000062b2:    bd10        ..      POP      {r4,pc}
    $d.86
    __arm_cp.45_0
        0x000062b4:    200004f0    ...     DCD    536872176
    __arm_cp.45_1
        0x000062b8:    200004e0    ...     DCD    536872160
    __arm_cp.45_2
        0x000062bc:    00007a89    .z..    DCD    31369
    $t.87
    shw_f6d_10
        0x000062c0:    b510        ..      PUSH     {r4,lr}
        0x000062c2:    b082        ..      SUB      sp,sp,#8
        0x000062c4:    48ce        .H      LDR      r0,[pc,#824] ; [0x6600] = 0x200004f0
        0x000062c6:    9001        ..      STR      r0,[sp,#4]
        0x000062c8:    6800        .h      LDR      r0,[r0,#0]
        0x000062ca:    6a04        .j      LDR      r4,[r0,#0x20]
        0x000062cc:    49ca        .I      LDR      r1,[pc,#808] ; [0x65f8] = 0x200004e0
        0x000062ce:    680b        .h      LDR      r3,[r1,#0]
        0x000062d0:    9000        ..      STR      r0,[sp,#0]
        0x000062d2:    4a08        .J      LDR      r2,[pc,#32] ; [0x62f4] = 0x7a42
        0x000062d4:    2100        .!      MOVS     r1,#0
        0x000062d6:    4608        .F      MOV      r0,r1
        0x000062d8:    47a0        .G      BLX      r4
        0x000062da:    9801        ..      LDR      r0,[sp,#4]
        0x000062dc:    6800        .h      LDR      r0,[r0,#0]
        0x000062de:    6901        .i      LDR      r1,[r0,#0x10]
        0x000062e0:    4788        .G      BLX      r1
        0x000062e2:    4905        .I      LDR      r1,[pc,#20] ; [0x62f8] = 0x200000fe
        0x000062e4:    2003        .       MOVS     r0,#3
        0x000062e6:    7008        .p      STRB     r0,[r1,#0]
        0x000062e8:    b002        ..      ADD      sp,sp,#8
        0x000062ea:    bd10        ..      POP      {r4,pc}
    $d.88
    __arm_cp.46_0
        0x000062ec:    200004f0    ...     DCD    536872176
    __arm_cp.46_1
        0x000062f0:    200004e0    ...     DCD    536872160
    __arm_cp.46_2
        0x000062f4:    00007a42    Bz..    DCD    31298
    __arm_cp.46_3
        0x000062f8:    200000fe    ...     DCD    536871166
    $t.91
    shw_f7a_on
        0x000062fc:    b510        ..      PUSH     {r4,lr}
        0x000062fe:    b084        ..      SUB      sp,sp,#0x10
        0x00006300:    48bf        .H      LDR      r0,[pc,#764] ; [0x6600] = 0x200004f0
        0x00006302:    9002        ..      STR      r0,[sp,#8]
        0x00006304:    6800        .h      LDR      r0,[r0,#0]
        0x00006306:    6a04        .j      LDR      r4,[r0,#0x20]
        0x00006308:    49bb        .I      LDR      r1,[pc,#748] ; [0x65f8] = 0x200004e0
        0x0000630a:    680b        .h      LDR      r3,[r1,#0]
        0x0000630c:    9000        ..      STR      r0,[sp,#0]
        0x0000630e:    4a09        .J      LDR      r2,[pc,#36] ; [0x6334] = 0x7ad4
        0x00006310:    2100        .!      MOVS     r1,#0
        0x00006312:    9103        ..      STR      r1,[sp,#0xc]
        0x00006314:    4608        .F      MOV      r0,r1
        0x00006316:    47a0        .G      BLX      r4
        0x00006318:    9802        ..      LDR      r0,[sp,#8]
        0x0000631a:    6800        .h      LDR      r0,[r0,#0]
        0x0000631c:    6901        .i      LDR      r1,[r0,#0x10]
        0x0000631e:    4788        .G      BLX      r1
        0x00006320:    9803        ..      LDR      r0,[sp,#0xc]
        0x00006322:    4913        .I      LDR      r1,[pc,#76] ; [0x6370] = 0x200000ff
        0x00006324:    7008        .p      STRB     r0,[r1,#0]
        0x00006326:    b004        ..      ADD      sp,sp,#0x10
        0x00006328:    bd10        ..      POP      {r4,pc}
        0x0000632a:    46c0        .F      MOV      r8,r8
    $d.92
    __arm_cp.48_0
        0x0000632c:    200004f0    ...     DCD    536872176
    __arm_cp.48_1
        0x00006330:    200004e0    ...     DCD    536872160
    __arm_cp.48_2
        0x00006334:    00007ad4    .z..    DCD    31444
    $t.93
    shw_f7b_off
        0x00006338:    b510        ..      PUSH     {r4,lr}
        0x0000633a:    b082        ..      SUB      sp,sp,#8
        0x0000633c:    48ec        .H      LDR      r0,[pc,#944] ; [0x66f0] = 0x200004f0
        0x0000633e:    9001        ..      STR      r0,[sp,#4]
        0x00006340:    6800        .h      LDR      r0,[r0,#0]
        0x00006342:    6a04        .j      LDR      r4,[r0,#0x20]
        0x00006344:    49e6        .I      LDR      r1,[pc,#920] ; [0x66e0] = 0x200004e0
        0x00006346:    680b        .h      LDR      r3,[r1,#0]
        0x00006348:    9000        ..      STR      r0,[sp,#0]
        0x0000634a:    4a08        .J      LDR      r2,[pc,#32] ; [0x636c] = 0x7aaa
        0x0000634c:    2100        .!      MOVS     r1,#0
        0x0000634e:    4608        .F      MOV      r0,r1
        0x00006350:    47a0        .G      BLX      r4
        0x00006352:    9801        ..      LDR      r0,[sp,#4]
        0x00006354:    6800        .h      LDR      r0,[r0,#0]
        0x00006356:    6901        .i      LDR      r1,[r0,#0x10]
        0x00006358:    4788        .G      BLX      r1
        0x0000635a:    4905        .I      LDR      r1,[pc,#20] ; [0x6370] = 0x200000ff
        0x0000635c:    2001        .       MOVS     r0,#1
        0x0000635e:    7008        .p      STRB     r0,[r1,#0]
        0x00006360:    b002        ..      ADD      sp,sp,#8
        0x00006362:    bd10        ..      POP      {r4,pc}
    $d.94
    __arm_cp.49_0
        0x00006364:    200004f0    ...     DCD    536872176
    __arm_cp.49_1
        0x00006368:    200004e0    ...     DCD    536872160
    __arm_cp.49_2
        0x0000636c:    00007aaa    .z..    DCD    31402
    __arm_cp.49_3
        0x00006370:    200000ff    ...     DCD    536871167
    $t.25
    shw_f8
        0x00006374:    b510        ..      PUSH     {r4,lr}
        0x00006376:    b086        ..      SUB      sp,sp,#0x18
        0x00006378:    48d8        .H      LDR      r0,[pc,#864] ; [0x66dc] = 0x200004e8
        0x0000637a:    9001        ..      STR      r0,[sp,#4]
        0x0000637c:    6800        .h      LDR      r0,[r0,#0]
        0x0000637e:    6a04        .j      LDR      r4,[r0,#0x20]
        0x00006380:    49d7        .I      LDR      r1,[pc,#860] ; [0x66e0] = 0x200004e0
        0x00006382:    9102        ..      STR      r1,[sp,#8]
        0x00006384:    680b        .h      LDR      r3,[r1,#0]
        0x00006386:    9000        ..      STR      r0,[sp,#0]
        0x00006388:    4a12        .J      LDR      r2,[pc,#72] ; [0x63d4] = 0x7a96
        0x0000638a:    2100        .!      MOVS     r1,#0
        0x0000638c:    9103        ..      STR      r1,[sp,#0xc]
        0x0000638e:    4608        .F      MOV      r0,r1
        0x00006390:    47a0        .G      BLX      r4
        0x00006392:    9801        ..      LDR      r0,[sp,#4]
        0x00006394:    6800        .h      LDR      r0,[r0,#0]
        0x00006396:    6901        .i      LDR      r1,[r0,#0x10]
        0x00006398:    4788        .G      BLX      r1
        0x0000639a:    9a02        ..      LDR      r2,[sp,#8]
        0x0000639c:    9903        ..      LDR      r1,[sp,#0xc]
        0x0000639e:    48d2        .H      LDR      r0,[pc,#840] ; [0x66e8] = 0x200004ec
        0x000063a0:    9004        ..      STR      r0,[sp,#0x10]
        0x000063a2:    6800        .h      LDR      r0,[r0,#0]
        0x000063a4:    6a04        .j      LDR      r4,[r0,#0x20]
        0x000063a6:    6813        .h      LDR      r3,[r2,#0]
        0x000063a8:    9000        ..      STR      r0,[sp,#0]
        0x000063aa:    4a0b        .J      LDR      r2,[pc,#44] ; [0x63d8] = 0x7adb
        0x000063ac:    4608        .F      MOV      r0,r1
        0x000063ae:    47a0        .G      BLX      r4
        0x000063b0:    9804        ..      LDR      r0,[sp,#0x10]
        0x000063b2:    6800        .h      LDR      r0,[r0,#0]
        0x000063b4:    6901        .i      LDR      r1,[r0,#0x10]
        0x000063b6:    4788        .G      BLX      r1
        0x000063b8:    48cd        .H      LDR      r0,[pc,#820] ; [0x66f0] = 0x200004f0
        0x000063ba:    9005        ..      STR      r0,[sp,#0x14]
        0x000063bc:    6800        .h      LDR      r0,[r0,#0]
        0x000063be:    68c1        .h      LDR      r1,[r0,#0xc]
        0x000063c0:    4788        .G      BLX      r1
        0x000063c2:    9805        ..      LDR      r0,[sp,#0x14]
        0x000063c4:    6800        .h      LDR      r0,[r0,#0]
        0x000063c6:    6901        .i      LDR      r1,[r0,#0x10]
        0x000063c8:    4788        .G      BLX      r1
        0x000063ca:    b006        ..      ADD      sp,sp,#0x18
        0x000063cc:    bd10        ..      POP      {r4,pc}
        0x000063ce:    46c0        .F      MOV      r8,r8
    $d.26
    __arm_cp.15_1
        0x000063d0:    200004e0    ...     DCD    536872160
    __arm_cp.15_2
        0x000063d4:    00007a96    .z..    DCD    31382
    __arm_cp.15_4
        0x000063d8:    00007adb    .z..    DCD    31451
    __arm_cp.15_5
        0x000063dc:    200004f0    ...     DCD    536872176
    $t.97
    shw_f9a
        0x000063e0:    b510        ..      PUSH     {r4,lr}
        0x000063e2:    b088        ..      SUB      sp,sp,#0x20
        0x000063e4:    48c2        .H      LDR      r0,[pc,#776] ; [0x66f0] = 0x200004f0
        0x000063e6:    9003        ..      STR      r0,[sp,#0xc]
        0x000063e8:    6800        .h      LDR      r0,[r0,#0]
        0x000063ea:    6a04        .j      LDR      r4,[r0,#0x20]
        0x000063ec:    49ee        .I      LDR      r1,[pc,#952] ; [0x67a8] = 0x200004e0
        0x000063ee:    680b        .h      LDR      r3,[r1,#0]
        0x000063f0:    9000        ..      STR      r0,[sp,#0]
        0x000063f2:    4a1b        .J      LDR      r2,[pc,#108] ; [0x6460] = 0x7a7f
        0x000063f4:    2100        .!      MOVS     r1,#0
        0x000063f6:    9104        ..      STR      r1,[sp,#0x10]
        0x000063f8:    4608        .F      MOV      r0,r1
        0x000063fa:    47a0        .G      BLX      r4
        0x000063fc:    9803        ..      LDR      r0,[sp,#0xc]
        0x000063fe:    6800        .h      LDR      r0,[r0,#0]
        0x00006400:    6901        .i      LDR      r1,[r0,#0x10]
        0x00006402:    4788        .G      BLX      r1
        0x00006404:    9804        ..      LDR      r0,[sp,#0x10]
        0x00006406:    a907        ..      ADD      r1,sp,#0x1c
        0x00006408:    8008        ..      STRH     r0,[r1,#0]
        0x0000640a:    a906        ..      ADD      r1,sp,#0x18
        0x0000640c:    7008        .p      STRB     r0,[r1,#0]
        0x0000640e:    9005        ..      STR      r0,[sp,#0x14]
        0x00006410:    e7ff        ..      B        0x6412 ; shw_f9a + 50
        0x00006412:    4814        .H      LDR      r0,[pc,#80] ; [0x6464] = 0x200004e4
        0x00006414:    6800        .h      LDR      r0,[r0,#0]
        0x00006416:    6841        Ah      LDR      r1,[r0,#4]
        0x00006418:    a806        ..      ADD      r0,sp,#0x18
        0x0000641a:    4788        .G      BLX      r1
        0x0000641c:    4601        .F      MOV      r1,r0
        0x0000641e:    a807        ..      ADD      r0,sp,#0x1c
        0x00006420:    8001        ..      STRH     r1,[r0,#0]
        0x00006422:    2100        .!      MOVS     r1,#0
        0x00006424:    5e40        @^      LDRSH    r0,[r0,r1]
        0x00006426:    2800        .(      CMP      r0,#0
        0x00006428:    d415        ..      BMI      0x6456 ; shw_f9a + 118
        0x0000642a:    e7ff        ..      B        0x642c ; shw_f9a + 76
        0x0000642c:    a807        ..      ADD      r0,sp,#0x1c
        0x0000642e:    9002        ..      STR      r0,[sp,#8]
        0x00006430:    7800        .x      LDRB     r0,[r0,#0]
        0x00006432:    49e0        .I      LDR      r1,[pc,#896] ; [0x67b4] = 0x200004f0
        0x00006434:    6809        .h      LDR      r1,[r1,#0]
        0x00006436:    f7fefc0b    ....    BL       customValueInput ; 0x4c50
        0x0000643a:    4601        .F      MOV      r1,r0
        0x0000643c:    9802        ..      LDR      r0,[sp,#8]
        0x0000643e:    9105        ..      STR      r1,[sp,#0x14]
        0x00006440:    2100        .!      MOVS     r1,#0
        0x00006442:    5e40        @^      LDRSH    r0,[r0,r1]
        0x00006444:    2874        t(      CMP      r0,#0x74
        0x00006446:    d105        ..      BNE      0x6454 ; shw_f9a + 116
        0x00006448:    e7ff        ..      B        0x644a ; shw_f9a + 106
        0x0000644a:    9805        ..      LDR      r0,[sp,#0x14]
        0x0000644c:    49da        .I      LDR      r1,[pc,#872] ; [0x67b8] = 0x200004bc
        0x0000644e:    6148        Ha      STR      r0,[r1,#0x14]
        0x00006450:    b008        ..      ADD      sp,sp,#0x20
        0x00006452:    bd10        ..      POP      {r4,pc}
        0x00006454:    e7ff        ..      B        0x6456 ; shw_f9a + 118
        0x00006456:    e7dc        ..      B        0x6412 ; shw_f9a + 50
    $d.98
    __arm_cp.51_0
        0x00006458:    200004f0    ...     DCD    536872176
    __arm_cp.51_1
        0x0000645c:    200004e0    ...     DCD    536872160
    __arm_cp.51_2
        0x00006460:    00007a7f    .z..    DCD    31359
    __arm_cp.51_3
        0x00006464:    200004e4    ...     DCD    536872164
    $t.17
    shw_fixFloat
        0x00006468:    b510        ..      PUSH     {r4,lr}
        0x0000646a:    b088        ..      SUB      sp,sp,#0x20
        0x0000646c:    48cd        .H      LDR      r0,[pc,#820] ; [0x67a4] = 0x200004e8
        0x0000646e:    9002        ..      STR      r0,[sp,#8]
        0x00006470:    6800        .h      LDR      r0,[r0,#0]
        0x00006472:    6a04        .j      LDR      r4,[r0,#0x20]
        0x00006474:    49f0        .I      LDR      r1,[pc,#960] ; [0x6838] = 0x200004e0
        0x00006476:    9103        ..      STR      r1,[sp,#0xc]
        0x00006478:    680b        .h      LDR      r3,[r1,#0]
        0x0000647a:    9000        ..      STR      r0,[sp,#0]
        0x0000647c:    4a21        !J      LDR      r2,[pc,#132] ; [0x6504] = 0x7a86
        0x0000647e:    2100        .!      MOVS     r1,#0
        0x00006480:    9104        ..      STR      r1,[sp,#0x10]
        0x00006482:    4608        .F      MOV      r0,r1
        0x00006484:    47a0        .G      BLX      r4
        0x00006486:    9802        ..      LDR      r0,[sp,#8]
        0x00006488:    6800        .h      LDR      r0,[r0,#0]
        0x0000648a:    6901        .i      LDR      r1,[r0,#0x10]
        0x0000648c:    4788        .G      BLX      r1
        0x0000648e:    9a03        ..      LDR      r2,[sp,#0xc]
        0x00006490:    9904        ..      LDR      r1,[sp,#0x10]
        0x00006492:    48eb        .H      LDR      r0,[pc,#940] ; [0x6840] = 0x200004ec
        0x00006494:    9005        ..      STR      r0,[sp,#0x14]
        0x00006496:    6800        .h      LDR      r0,[r0,#0]
        0x00006498:    6a04        .j      LDR      r4,[r0,#0x20]
        0x0000649a:    6813        .h      LDR      r3,[r2,#0]
        0x0000649c:    9000        ..      STR      r0,[sp,#0]
        0x0000649e:    4a1a        .J      LDR      r2,[pc,#104] ; [0x6508] = 0x7aa3
        0x000064a0:    4608        .F      MOV      r0,r1
        0x000064a2:    47a0        .G      BLX      r4
        0x000064a4:    9805        ..      LDR      r0,[sp,#0x14]
        0x000064a6:    6800        .h      LDR      r0,[r0,#0]
        0x000064a8:    6901        .i      LDR      r1,[r0,#0x10]
        0x000064aa:    4788        .G      BLX      r1
        0x000064ac:    48e6        .H      LDR      r0,[pc,#920] ; [0x6848] = 0x200004f0
        0x000064ae:    9006        ..      STR      r0,[sp,#0x18]
        0x000064b0:    6800        .h      LDR      r0,[r0,#0]
        0x000064b2:    68c1        .h      LDR      r1,[r0,#0xc]
        0x000064b4:    4788        .G      BLX      r1
        0x000064b6:    9806        ..      LDR      r0,[sp,#0x18]
        0x000064b8:    6800        .h      LDR      r0,[r0,#0]
        0x000064ba:    6901        .i      LDR      r1,[r0,#0x10]
        0x000064bc:    4788        .G      BLX      r1
        0x000064be:    48be        .H      LDR      r0,[pc,#760] ; [0x67b8] = 0x200004bc
        0x000064c0:    7ac0        .z      LDRB     r0,[r0,#0xb]
        0x000064c2:    9007        ..      STR      r0,[sp,#0x1c]
        0x000064c4:    b120         .      CBZ      r0,0x64d0 ; shw_fixFloat + 104
        0x000064c6:    e7ff        ..      B        0x64c8 ; shw_fixFloat + 96
        0x000064c8:    9807        ..      LDR      r0,[sp,#0x1c]
        0x000064ca:    2801        .(      CMP      r0,#1
        0x000064cc:    d00b        ..      BEQ      0x64e6 ; shw_fixFloat + 126
        0x000064ce:    e015        ..      B        0x64fc ; shw_fixFloat + 148
        0x000064d0:    4888        .H      LDR      r0,[pc,#544] ; [0x66f4] = 0x2000035c
        0x000064d2:    9001        ..      STR      r0,[sp,#4]
        0x000064d4:    480e        .H      LDR      r0,[pc,#56] ; [0x6510] = 0x2000026c
        0x000064d6:    9000        ..      STR      r0,[sp,#0]
        0x000064d8:    480e        .H      LDR      r0,[pc,#56] ; [0x6514] = 0x200002f8
        0x000064da:    490f        .I      LDR      r1,[pc,#60] ; [0x6518] = 0x6469
        0x000064dc:    4a10        .J      LDR      r2,[pc,#64] ; [0x6520] = 0x20000320
        0x000064de:    4bbc        .K      LDR      r3,[pc,#752] ; [0x67d0] = 0x20000500
        0x000064e0:    f7fefb9d    ....    BL       build ; 0x4c1e
        0x000064e4:    e00a        ..      B        0x64fc ; shw_fixFloat + 148
        0x000064e6:    4883        .H      LDR      r0,[pc,#524] ; [0x66f4] = 0x2000035c
        0x000064e8:    9001        ..      STR      r0,[sp,#4]
        0x000064ea:    4809        .H      LDR      r0,[pc,#36] ; [0x6510] = 0x2000026c
        0x000064ec:    9000        ..      STR      r0,[sp,#0]
        0x000064ee:    4809        .H      LDR      r0,[pc,#36] ; [0x6514] = 0x200002f8
        0x000064f0:    4909        .I      LDR      r1,[pc,#36] ; [0x6518] = 0x6469
        0x000064f2:    4a0a        .J      LDR      r2,[pc,#40] ; [0x651c] = 0x20000334
        0x000064f4:    4bb6        .K      LDR      r3,[pc,#728] ; [0x67d0] = 0x20000500
        0x000064f6:    f7fefb92    ....    BL       build ; 0x4c1e
        0x000064fa:    e7ff        ..      B        0x64fc ; shw_fixFloat + 148
        0x000064fc:    b008        ..      ADD      sp,sp,#0x20
        0x000064fe:    bd10        ..      POP      {r4,pc}
    $d.18
    __arm_cp.11_1
        0x00006500:    200004e0    ...     DCD    536872160
    __arm_cp.11_2
        0x00006504:    00007a86    .z..    DCD    31366
    __arm_cp.11_4
        0x00006508:    00007aa3    .z..    DCD    31395
    __arm_cp.11_5
        0x0000650c:    200004f0    ...     DCD    536872176
    __arm_cp.11_8
        0x00006510:    2000026c    l..     DCD    536871532
    __arm_cp.11_9
        0x00006514:    200002f8    ...     DCD    536871672
    __arm_cp.11_10
        0x00006518:    00006469    id..    DCD    25705
    __arm_cp.11_11
        0x0000651c:    20000334    4..     DCD    536871732
    __arm_cp.11_13
        0x00006520:    20000320     ..     DCD    536871712
    $t.27
    shw_gravity
        0x00006524:    b510        ..      PUSH     {r4,lr}
        0x00006526:    b086        ..      SUB      sp,sp,#0x18
        0x00006528:    48c2        .H      LDR      r0,[pc,#776] ; [0x6834] = 0x200004e8
        0x0000652a:    9001        ..      STR      r0,[sp,#4]
        0x0000652c:    6800        .h      LDR      r0,[r0,#0]
        0x0000652e:    6a04        .j      LDR      r4,[r0,#0x20]
        0x00006530:    49c1        .I      LDR      r1,[pc,#772] ; [0x6838] = 0x200004e0
        0x00006532:    9102        ..      STR      r1,[sp,#8]
        0x00006534:    680b        .h      LDR      r3,[r1,#0]
        0x00006536:    9000        ..      STR      r0,[sp,#0]
        0x00006538:    4a12        .J      LDR      r2,[pc,#72] ; [0x6584] = 0x7a99
        0x0000653a:    2100        .!      MOVS     r1,#0
        0x0000653c:    9103        ..      STR      r1,[sp,#0xc]
        0x0000653e:    4608        .F      MOV      r0,r1
        0x00006540:    47a0        .G      BLX      r4
        0x00006542:    9801        ..      LDR      r0,[sp,#4]
        0x00006544:    6800        .h      LDR      r0,[r0,#0]
        0x00006546:    6901        .i      LDR      r1,[r0,#0x10]
        0x00006548:    4788        .G      BLX      r1
        0x0000654a:    9a02        ..      LDR      r2,[sp,#8]
        0x0000654c:    9903        ..      LDR      r1,[sp,#0xc]
        0x0000654e:    48bc        .H      LDR      r0,[pc,#752] ; [0x6840] = 0x200004ec
        0x00006550:    9004        ..      STR      r0,[sp,#0x10]
        0x00006552:    6800        .h      LDR      r0,[r0,#0]
        0x00006554:    6a04        .j      LDR      r4,[r0,#0x20]
        0x00006556:    6813        .h      LDR      r3,[r2,#0]
        0x00006558:    9000        ..      STR      r0,[sp,#0]
        0x0000655a:    4a0b        .J      LDR      r2,[pc,#44] ; [0x6588] = 0x7a9c
        0x0000655c:    4608        .F      MOV      r0,r1
        0x0000655e:    47a0        .G      BLX      r4
        0x00006560:    9804        ..      LDR      r0,[sp,#0x10]
        0x00006562:    6800        .h      LDR      r0,[r0,#0]
        0x00006564:    6901        .i      LDR      r1,[r0,#0x10]
        0x00006566:    4788        .G      BLX      r1
        0x00006568:    48f3        .H      LDR      r0,[pc,#972] ; [0x6938] = 0x200004f0
        0x0000656a:    9005        ..      STR      r0,[sp,#0x14]
        0x0000656c:    6800        .h      LDR      r0,[r0,#0]
        0x0000656e:    68c1        .h      LDR      r1,[r0,#0xc]
        0x00006570:    4788        .G      BLX      r1
        0x00006572:    9805        ..      LDR      r0,[sp,#0x14]
        0x00006574:    6800        .h      LDR      r0,[r0,#0]
        0x00006576:    6901        .i      LDR      r1,[r0,#0x10]
        0x00006578:    4788        .G      BLX      r1
        0x0000657a:    b006        ..      ADD      sp,sp,#0x18
        0x0000657c:    bd10        ..      POP      {r4,pc}
        0x0000657e:    46c0        .F      MOV      r8,r8
    $d.28
    __arm_cp.16_1
        0x00006580:    200004e0    ...     DCD    536872160
    __arm_cp.16_2
        0x00006584:    00007a99    .z..    DCD    31385
    __arm_cp.16_4
        0x00006588:    00007a9c    .z..    DCD    31388
    __arm_cp.16_5
        0x0000658c:    200004f0    ...     DCD    536872176
    $t.7
    shw_mainScreen
        0x00006590:    b510        ..      PUSH     {r4,lr}
        0x00006592:    b088        ..      SUB      sp,sp,#0x20
        0x00006594:    48e3        .H      LDR      r0,[pc,#908] ; [0x6924] = 0x200004e8
        0x00006596:    9002        ..      STR      r0,[sp,#8]
        0x00006598:    6800        .h      LDR      r0,[r0,#0]
        0x0000659a:    6a04        .j      LDR      r4,[r0,#0x20]
        0x0000659c:    49e2        .I      LDR      r1,[pc,#904] ; [0x6928] = 0x200004e0
        0x0000659e:    9104        ..      STR      r1,[sp,#0x10]
        0x000065a0:    680b        .h      LDR      r3,[r1,#0]
        0x000065a2:    9000        ..      STR      r0,[sp,#0]
        0x000065a4:    4a15        .J      LDR      r2,[pc,#84] ; [0x65fc] = 0x79cf
        0x000065a6:    9206        ..      STR      r2,[sp,#0x18]
        0x000065a8:    2100        .!      MOVS     r1,#0
        0x000065aa:    9105        ..      STR      r1,[sp,#0x14]
        0x000065ac:    4608        .F      MOV      r0,r1
        0x000065ae:    47a0        .G      BLX      r4
        0x000065b0:    9802        ..      LDR      r0,[sp,#8]
        0x000065b2:    6800        .h      LDR      r0,[r0,#0]
        0x000065b4:    6901        .i      LDR      r1,[r0,#0x10]
        0x000065b6:    4788        .G      BLX      r1
        0x000065b8:    9b04        ..      LDR      r3,[sp,#0x10]
        0x000065ba:    9905        ..      LDR      r1,[sp,#0x14]
        0x000065bc:    9a06        ..      LDR      r2,[sp,#0x18]
        0x000065be:    48dc        .H      LDR      r0,[pc,#880] ; [0x6930] = 0x200004ec
        0x000065c0:    9003        ..      STR      r0,[sp,#0xc]
        0x000065c2:    6800        .h      LDR      r0,[r0,#0]
        0x000065c4:    6a04        .j      LDR      r4,[r0,#0x20]
        0x000065c6:    681b        .h      LDR      r3,[r3,#0]
        0x000065c8:    9000        ..      STR      r0,[sp,#0]
        0x000065ca:    4608        .F      MOV      r0,r1
        0x000065cc:    47a0        .G      BLX      r4
        0x000065ce:    9803        ..      LDR      r0,[sp,#0xc]
        0x000065d0:    6800        .h      LDR      r0,[r0,#0]
        0x000065d2:    6901        .i      LDR      r1,[r0,#0x10]
        0x000065d4:    4788        .G      BLX      r1
        0x000065d6:    9b04        ..      LDR      r3,[sp,#0x10]
        0x000065d8:    9905        ..      LDR      r1,[sp,#0x14]
        0x000065da:    9a06        ..      LDR      r2,[sp,#0x18]
        0x000065dc:    48d6        .H      LDR      r0,[pc,#856] ; [0x6938] = 0x200004f0
        0x000065de:    9007        ..      STR      r0,[sp,#0x1c]
        0x000065e0:    6800        .h      LDR      r0,[r0,#0]
        0x000065e2:    6a04        .j      LDR      r4,[r0,#0x20]
        0x000065e4:    681b        .h      LDR      r3,[r3,#0]
        0x000065e6:    9000        ..      STR      r0,[sp,#0]
        0x000065e8:    4608        .F      MOV      r0,r1
        0x000065ea:    47a0        .G      BLX      r4
        0x000065ec:    9807        ..      LDR      r0,[sp,#0x1c]
        0x000065ee:    6800        .h      LDR      r0,[r0,#0]
        0x000065f0:    6901        .i      LDR      r1,[r0,#0x10]
        0x000065f2:    4788        .G      BLX      r1
        0x000065f4:    b008        ..      ADD      sp,sp,#0x20
        0x000065f6:    bd10        ..      POP      {r4,pc}
    $d.8
    __arm_cp.6_1
        0x000065f8:    200004e0    ...     DCD    536872160
    __arm_cp.6_2
        0x000065fc:    000079cf    .y..    DCD    31183
    __arm_cp.6_4
        0x00006600:    200004f0    ...     DCD    536872176
    $t.21
    shw_minCoin
        0x00006604:    b510        ..      PUSH     {r4,lr}
        0x00006606:    b088        ..      SUB      sp,sp,#0x20
        0x00006608:    48ed        .H      LDR      r0,[pc,#948] ; [0x69c0] = 0x200004e8
        0x0000660a:    9002        ..      STR      r0,[sp,#8]
        0x0000660c:    6800        .h      LDR      r0,[r0,#0]
        0x0000660e:    6a04        .j      LDR      r4,[r0,#0x20]
        0x00006610:    49ec        .I      LDR      r1,[pc,#944] ; [0x69c4] = 0x200004e0
        0x00006612:    9103        ..      STR      r1,[sp,#0xc]
        0x00006614:    680b        .h      LDR      r3,[r1,#0]
        0x00006616:    9000        ..      STR      r0,[sp,#0]
        0x00006618:    4a32        2J      LDR      r2,[pc,#200] ; [0x66e4] = 0x7b1b
        0x0000661a:    2100        .!      MOVS     r1,#0
        0x0000661c:    9104        ..      STR      r1,[sp,#0x10]
        0x0000661e:    4608        .F      MOV      r0,r1
        0x00006620:    47a0        .G      BLX      r4
        0x00006622:    9802        ..      LDR      r0,[sp,#8]
        0x00006624:    6800        .h      LDR      r0,[r0,#0]
        0x00006626:    6901        .i      LDR      r1,[r0,#0x10]
        0x00006628:    4788        .G      BLX      r1
        0x0000662a:    9a03        ..      LDR      r2,[sp,#0xc]
        0x0000662c:    9904        ..      LDR      r1,[sp,#0x10]
        0x0000662e:    48e7        .H      LDR      r0,[pc,#924] ; [0x69cc] = 0x200004ec
        0x00006630:    9005        ..      STR      r0,[sp,#0x14]
        0x00006632:    6800        .h      LDR      r0,[r0,#0]
        0x00006634:    6a04        .j      LDR      r4,[r0,#0x20]
        0x00006636:    6813        .h      LDR      r3,[r2,#0]
        0x00006638:    9000        ..      STR      r0,[sp,#0]
        0x0000663a:    4a2c        ,J      LDR      r2,[pc,#176] ; [0x66ec] = 0x7b22
        0x0000663c:    4608        .F      MOV      r0,r1
        0x0000663e:    47a0        .G      BLX      r4
        0x00006640:    9805        ..      LDR      r0,[sp,#0x14]
        0x00006642:    6800        .h      LDR      r0,[r0,#0]
        0x00006644:    6901        .i      LDR      r1,[r0,#0x10]
        0x00006646:    4788        .G      BLX      r1
        0x00006648:    48e2        .H      LDR      r0,[pc,#904] ; [0x69d4] = 0x200004f0
        0x0000664a:    9006        ..      STR      r0,[sp,#0x18]
        0x0000664c:    6800        .h      LDR      r0,[r0,#0]
        0x0000664e:    68c1        .h      LDR      r1,[r0,#0xc]
        0x00006650:    4788        .G      BLX      r1
        0x00006652:    9806        ..      LDR      r0,[sp,#0x18]
        0x00006654:    6800        .h      LDR      r0,[r0,#0]
        0x00006656:    6901        .i      LDR      r1,[r0,#0x10]
        0x00006658:    4788        .G      BLX      r1
        0x0000665a:    48b8        .H      LDR      r0,[pc,#736] ; [0x693c] = 0x200004bc
        0x0000665c:    7b40        @{      LDRB     r0,[r0,#0xd]
        0x0000665e:    9007        ..      STR      r0,[sp,#0x1c]
        0x00006660:    2803        .(      CMP      r0,#3
        0x00006662:    d839        9.      BHI      0x66d8 ; shw_minCoin + 212
        0x00006664:    9907        ..      LDR      r1,[sp,#0x1c]
        0x00006666:    008a        ..      LSLS     r2,r1,#2
        0x00006668:    a001        ..      ADR      r0,{pc}+8 ; 0x6670
        0x0000666a:    1880        ..      ADDS     r0,r0,r2
        0x0000666c:    4687        .F      MOV      pc,r0
        0x0000666e:    46c0        .F      MOV      r8,r8
        0x00006670:    f000b806    ....    B.W      0x6680 ; shw_minCoin + 124
        0x00006674:    f000b80f    ....    B.W      0x6696 ; shw_minCoin + 146
        0x00006678:    f000b818    ....    B.W      0x66ac ; shw_minCoin + 168
        0x0000667c:    f000b821    ..!.    B.W      0x66c2 ; shw_minCoin + 190
        0x00006680:    4850        PH      LDR      r0,[pc,#320] ; [0x67c4] = 0x20000424
        0x00006682:    9001        ..      STR      r0,[sp,#4]
        0x00006684:    481b        .H      LDR      r0,[pc,#108] ; [0x66f4] = 0x2000035c
        0x00006686:    9000        ..      STR      r0,[sp,#0]
        0x00006688:    484d        MH      LDR      r0,[pc,#308] ; [0x67c0] = 0x200003ac
        0x0000668a:    491b        .I      LDR      r1,[pc,#108] ; [0x66f8] = 0x6605
        0x0000668c:    4a1e        .J      LDR      r2,[pc,#120] ; [0x6708] = 0x200003d4
        0x0000668e:    4bb1        .K      LDR      r3,[pc,#708] ; [0x6954] = 0x20000500
        0x00006690:    f7fefac5    ....    BL       build ; 0x4c1e
        0x00006694:    e020         .      B        0x66d8 ; shw_minCoin + 212
        0x00006696:    484b        KH      LDR      r0,[pc,#300] ; [0x67c4] = 0x20000424
        0x00006698:    9001        ..      STR      r0,[sp,#4]
        0x0000669a:    4816        .H      LDR      r0,[pc,#88] ; [0x66f4] = 0x2000035c
        0x0000669c:    9000        ..      STR      r0,[sp,#0]
        0x0000669e:    4848        HH      LDR      r0,[pc,#288] ; [0x67c0] = 0x200003ac
        0x000066a0:    4915        .I      LDR      r1,[pc,#84] ; [0x66f8] = 0x6605
        0x000066a2:    4a18        .J      LDR      r2,[pc,#96] ; [0x6704] = 0x200003e8
        0x000066a4:    4bab        .K      LDR      r3,[pc,#684] ; [0x6954] = 0x20000500
        0x000066a6:    f7fefaba    ....    BL       build ; 0x4c1e
        0x000066aa:    e015        ..      B        0x66d8 ; shw_minCoin + 212
        0x000066ac:    4845        EH      LDR      r0,[pc,#276] ; [0x67c4] = 0x20000424
        0x000066ae:    9001        ..      STR      r0,[sp,#4]
        0x000066b0:    4810        .H      LDR      r0,[pc,#64] ; [0x66f4] = 0x2000035c
        0x000066b2:    9000        ..      STR      r0,[sp,#0]
        0x000066b4:    4842        BH      LDR      r0,[pc,#264] ; [0x67c0] = 0x200003ac
        0x000066b6:    4910        .I      LDR      r1,[pc,#64] ; [0x66f8] = 0x6605
        0x000066b8:    4a11        .J      LDR      r2,[pc,#68] ; [0x6700] = 0x200003fc
        0x000066ba:    4ba6        .K      LDR      r3,[pc,#664] ; [0x6954] = 0x20000500
        0x000066bc:    f7fefaaf    ....    BL       build ; 0x4c1e
        0x000066c0:    e00a        ..      B        0x66d8 ; shw_minCoin + 212
        0x000066c2:    4840        @H      LDR      r0,[pc,#256] ; [0x67c4] = 0x20000424
        0x000066c4:    9001        ..      STR      r0,[sp,#4]
        0x000066c6:    480b        .H      LDR      r0,[pc,#44] ; [0x66f4] = 0x2000035c
        0x000066c8:    9000        ..      STR      r0,[sp,#0]
        0x000066ca:    48f8        .H      LDR      r0,[pc,#992] ; [0x6aac] = 0x200003ac
        0x000066cc:    490a        .I      LDR      r1,[pc,#40] ; [0x66f8] = 0x6605
        0x000066ce:    4a0b        .J      LDR      r2,[pc,#44] ; [0x66fc] = 0x20000410
        0x000066d0:    4ba0        .K      LDR      r3,[pc,#640] ; [0x6954] = 0x20000500
        0x000066d2:    f7fefaa4    ....    BL       build ; 0x4c1e
        0x000066d6:    e7ff        ..      B        0x66d8 ; shw_minCoin + 212
        0x000066d8:    b008        ..      ADD      sp,sp,#0x20
        0x000066da:    bd10        ..      POP      {r4,pc}
    $d.22
    __arm_cp.13_0
        0x000066dc:    200004e8    ...     DCD    536872168
    __arm_cp.13_1
        0x000066e0:    200004e0    ...     DCD    536872160
    __arm_cp.13_2
        0x000066e4:    00007b1b    .{..    DCD    31515
    __arm_cp.13_3
        0x000066e8:    200004ec    ...     DCD    536872172
    __arm_cp.13_4
        0x000066ec:    00007b22    "{..    DCD    31522
    __arm_cp.13_5
        0x000066f0:    200004f0    ...     DCD    536872176
    __arm_cp.13_8
        0x000066f4:    2000035c    \..     DCD    536871772
    __arm_cp.13_10
        0x000066f8:    00006605    .f..    DCD    26117
    __arm_cp.13_11
        0x000066fc:    20000410    ...     DCD    536871952
    __arm_cp.13_13
        0x00006700:    200003fc    ...     DCD    536871932
    __arm_cp.13_14
        0x00006704:    200003e8    ...     DCD    536871912
    __arm_cp.13_15
        0x00006708:    200003d4    ...     DCD    536871892
    $t.23
    shw_multiTare
        0x0000670c:    b510        ..      PUSH     {r4,lr}
        0x0000670e:    b088        ..      SUB      sp,sp,#0x20
        0x00006710:    48df        .H      LDR      r0,[pc,#892] ; [0x6a90] = 0x200004e8
        0x00006712:    9002        ..      STR      r0,[sp,#8]
        0x00006714:    6800        .h      LDR      r0,[r0,#0]
        0x00006716:    6a04        .j      LDR      r4,[r0,#0x20]
        0x00006718:    49de        .I      LDR      r1,[pc,#888] ; [0x6a94] = 0x200004e0
        0x0000671a:    9103        ..      STR      r1,[sp,#0xc]
        0x0000671c:    680b        .h      LDR      r3,[r1,#0]
        0x0000671e:    9000        ..      STR      r0,[sp,#0]
        0x00006720:    4a22        "J      LDR      r2,[pc,#136] ; [0x67ac] = 0x7a93
        0x00006722:    2100        .!      MOVS     r1,#0
        0x00006724:    9104        ..      STR      r1,[sp,#0x10]
        0x00006726:    4608        .F      MOV      r0,r1
        0x00006728:    47a0        .G      BLX      r4
        0x0000672a:    9802        ..      LDR      r0,[sp,#8]
        0x0000672c:    6800        .h      LDR      r0,[r0,#0]
        0x0000672e:    6901        .i      LDR      r1,[r0,#0x10]
        0x00006730:    4788        .G      BLX      r1
        0x00006732:    9a03        ..      LDR      r2,[sp,#0xc]
        0x00006734:    9904        ..      LDR      r1,[sp,#0x10]
        0x00006736:    48d9        .H      LDR      r0,[pc,#868] ; [0x6a9c] = 0x200004ec
        0x00006738:    9005        ..      STR      r0,[sp,#0x14]
        0x0000673a:    6800        .h      LDR      r0,[r0,#0]
        0x0000673c:    6a04        .j      LDR      r4,[r0,#0x20]
        0x0000673e:    6813        .h      LDR      r3,[r2,#0]
        0x00006740:    9000        ..      STR      r0,[sp,#0]
        0x00006742:    4a1b        .J      LDR      r2,[pc,#108] ; [0x67b0] = 0x7b05
        0x00006744:    4608        .F      MOV      r0,r1
        0x00006746:    47a0        .G      BLX      r4
        0x00006748:    9805        ..      LDR      r0,[sp,#0x14]
        0x0000674a:    6800        .h      LDR      r0,[r0,#0]
        0x0000674c:    6901        .i      LDR      r1,[r0,#0x10]
        0x0000674e:    4788        .G      BLX      r1
        0x00006750:    48d4        .H      LDR      r0,[pc,#848] ; [0x6aa4] = 0x200004f0
        0x00006752:    9006        ..      STR      r0,[sp,#0x18]
        0x00006754:    6800        .h      LDR      r0,[r0,#0]
        0x00006756:    68c1        .h      LDR      r1,[r0,#0xc]
        0x00006758:    4788        .G      BLX      r1
        0x0000675a:    9806        ..      LDR      r0,[sp,#0x18]
        0x0000675c:    6800        .h      LDR      r0,[r0,#0]
        0x0000675e:    6901        .i      LDR      r1,[r0,#0x10]
        0x00006760:    4788        .G      BLX      r1
        0x00006762:    48d1        .H      LDR      r0,[pc,#836] ; [0x6aa8] = 0x200004bc
        0x00006764:    7b80        .{      LDRB     r0,[r0,#0xe]
        0x00006766:    9007        ..      STR      r0,[sp,#0x1c]
        0x00006768:    b120         .      CBZ      r0,0x6774 ; shw_multiTare + 104
        0x0000676a:    e7ff        ..      B        0x676c ; shw_multiTare + 96
        0x0000676c:    9807        ..      LDR      r0,[sp,#0x1c]
        0x0000676e:    2801        .(      CMP      r0,#1
        0x00006770:    d00b        ..      BEQ      0x678a ; shw_multiTare + 126
        0x00006772:    e015        ..      B        0x67a0 ; shw_multiTare + 148
        0x00006774:    4811        .H      LDR      r0,[pc,#68] ; [0x67bc] = 0x20000474
        0x00006776:    9001        ..      STR      r0,[sp,#4]
        0x00006778:    48cc        .H      LDR      r0,[pc,#816] ; [0x6aac] = 0x200003ac
        0x0000677a:    9000        ..      STR      r0,[sp,#0]
        0x0000677c:    4811        .H      LDR      r0,[pc,#68] ; [0x67c4] = 0x20000424
        0x0000677e:    4912        .I      LDR      r1,[pc,#72] ; [0x67c8] = 0x670d
        0x00006780:    4a14        .J      LDR      r2,[pc,#80] ; [0x67d4] = 0x2000044c
        0x00006782:    4bcf        .K      LDR      r3,[pc,#828] ; [0x6ac0] = 0x20000500
        0x00006784:    f7fefa4b    ..K.    BL       build ; 0x4c1e
        0x00006788:    e00a        ..      B        0x67a0 ; shw_multiTare + 148
        0x0000678a:    480c        .H      LDR      r0,[pc,#48] ; [0x67bc] = 0x20000474
        0x0000678c:    9001        ..      STR      r0,[sp,#4]
        0x0000678e:    48c7        .H      LDR      r0,[pc,#796] ; [0x6aac] = 0x200003ac
        0x00006790:    9000        ..      STR      r0,[sp,#0]
        0x00006792:    480c        .H      LDR      r0,[pc,#48] ; [0x67c4] = 0x20000424
        0x00006794:    490c        .I      LDR      r1,[pc,#48] ; [0x67c8] = 0x670d
        0x00006796:    4a0d        .J      LDR      r2,[pc,#52] ; [0x67cc] = 0x20000460
        0x00006798:    4bc9        .K      LDR      r3,[pc,#804] ; [0x6ac0] = 0x20000500
        0x0000679a:    f7fefa40    ..@.    BL       build ; 0x4c1e
        0x0000679e:    e7ff        ..      B        0x67a0 ; shw_multiTare + 148
        0x000067a0:    b008        ..      ADD      sp,sp,#0x20
        0x000067a2:    bd10        ..      POP      {r4,pc}
    $d.24
    __arm_cp.14_0
        0x000067a4:    200004e8    ...     DCD    536872168
    __arm_cp.14_1
        0x000067a8:    200004e0    ...     DCD    536872160
    __arm_cp.14_2
        0x000067ac:    00007a93    .z..    DCD    31379
    __arm_cp.14_4
        0x000067b0:    00007b05    .{..    DCD    31493
    __arm_cp.14_5
        0x000067b4:    200004f0    ...     DCD    536872176
    __arm_cp.14_6
        0x000067b8:    200004bc    ...     DCD    536872124
    __arm_cp.14_7
        0x000067bc:    20000474    t..     DCD    536872052
    __arm_cp.14_8
        0x000067c0:    200003ac    ...     DCD    536871852
    __arm_cp.14_9
        0x000067c4:    20000424    $..     DCD    536871972
    __arm_cp.14_10
        0x000067c8:    0000670d    .g..    DCD    26381
    __arm_cp.14_11
        0x000067cc:    20000460    `..     DCD    536872032
    __arm_cp.14_12
        0x000067d0:    20000500    ...     DCD    536872192
    __arm_cp.14_13
        0x000067d4:    2000044c    L..     DCD    536872012
    $t.29
    shw_reset
        0x000067d8:    b510        ..      PUSH     {r4,lr}
        0x000067da:    b086        ..      SUB      sp,sp,#0x18
        0x000067dc:    48ac        .H      LDR      r0,[pc,#688] ; [0x6a90] = 0x200004e8
        0x000067de:    9001        ..      STR      r0,[sp,#4]
        0x000067e0:    6800        .h      LDR      r0,[r0,#0]
        0x000067e2:    6a04        .j      LDR      r4,[r0,#0x20]
        0x000067e4:    49ab        .I      LDR      r1,[pc,#684] ; [0x6a94] = 0x200004e0
        0x000067e6:    9102        ..      STR      r1,[sp,#8]
        0x000067e8:    680b        .h      LDR      r3,[r1,#0]
        0x000067ea:    9000        ..      STR      r0,[sp,#0]
        0x000067ec:    4a13        .J      LDR      r2,[pc,#76] ; [0x683c] = 0x7a49
        0x000067ee:    2100        .!      MOVS     r1,#0
        0x000067f0:    9103        ..      STR      r1,[sp,#0xc]
        0x000067f2:    4608        .F      MOV      r0,r1
        0x000067f4:    47a0        .G      BLX      r4
        0x000067f6:    9801        ..      LDR      r0,[sp,#4]
        0x000067f8:    6800        .h      LDR      r0,[r0,#0]
        0x000067fa:    6901        .i      LDR      r1,[r0,#0x10]
        0x000067fc:    4788        .G      BLX      r1
        0x000067fe:    9a02        ..      LDR      r2,[sp,#8]
        0x00006800:    9903        ..      LDR      r1,[sp,#0xc]
        0x00006802:    48a6        .H      LDR      r0,[pc,#664] ; [0x6a9c] = 0x200004ec
        0x00006804:    9004        ..      STR      r0,[sp,#0x10]
        0x00006806:    6800        .h      LDR      r0,[r0,#0]
        0x00006808:    6a04        .j      LDR      r4,[r0,#0x20]
        0x0000680a:    6813        .h      LDR      r3,[r2,#0]
        0x0000680c:    9000        ..      STR      r0,[sp,#0]
        0x0000680e:    4a0d        .J      LDR      r2,[pc,#52] ; [0x6844] = 0x7b27
        0x00006810:    4608        .F      MOV      r0,r1
        0x00006812:    47a0        .G      BLX      r4
        0x00006814:    9804        ..      LDR      r0,[sp,#0x10]
        0x00006816:    6800        .h      LDR      r0,[r0,#0]
        0x00006818:    6901        .i      LDR      r1,[r0,#0x10]
        0x0000681a:    4788        .G      BLX      r1
        0x0000681c:    48a1        .H      LDR      r0,[pc,#644] ; [0x6aa4] = 0x200004f0
        0x0000681e:    9005        ..      STR      r0,[sp,#0x14]
        0x00006820:    6800        .h      LDR      r0,[r0,#0]
        0x00006822:    68c1        .h      LDR      r1,[r0,#0xc]
        0x00006824:    4788        .G      BLX      r1
        0x00006826:    9805        ..      LDR      r0,[sp,#0x14]
        0x00006828:    6800        .h      LDR      r0,[r0,#0]
        0x0000682a:    6901        .i      LDR      r1,[r0,#0x10]
        0x0000682c:    4788        .G      BLX      r1
        0x0000682e:    b006        ..      ADD      sp,sp,#0x18
        0x00006830:    bd10        ..      POP      {r4,pc}
        0x00006832:    46c0        .F      MOV      r8,r8
    $d.30
    __arm_cp.17_0
        0x00006834:    200004e8    ...     DCD    536872168
    __arm_cp.17_1
        0x00006838:    200004e0    ...     DCD    536872160
    __arm_cp.17_2
        0x0000683c:    00007a49    Iz..    DCD    31305
    __arm_cp.17_3
        0x00006840:    200004ec    ...     DCD    536872172
    __arm_cp.17_4
        0x00006844:    00007b27    '{..    DCD    31527
    __arm_cp.17_5
        0x00006848:    200004f0    ...     DCD    536872176
    $t.11
    shw_resolution
        0x0000684c:    b510        ..      PUSH     {r4,lr}
        0x0000684e:    b088        ..      SUB      sp,sp,#0x20
        0x00006850:    488f        .H      LDR      r0,[pc,#572] ; [0x6a90] = 0x200004e8
        0x00006852:    9002        ..      STR      r0,[sp,#8]
        0x00006854:    6800        .h      LDR      r0,[r0,#0]
        0x00006856:    6a04        .j      LDR      r4,[r0,#0x20]
        0x00006858:    498e        .I      LDR      r1,[pc,#568] ; [0x6a94] = 0x200004e0
        0x0000685a:    9103        ..      STR      r1,[sp,#0xc]
        0x0000685c:    680b        .h      LDR      r3,[r1,#0]
        0x0000685e:    9000        ..      STR      r0,[sp,#0]
        0x00006860:    4a32        2J      LDR      r2,[pc,#200] ; [0x692c] = 0x7a5b
        0x00006862:    2100        .!      MOVS     r1,#0
        0x00006864:    9104        ..      STR      r1,[sp,#0x10]
        0x00006866:    4608        .F      MOV      r0,r1
        0x00006868:    47a0        .G      BLX      r4
        0x0000686a:    9802        ..      LDR      r0,[sp,#8]
        0x0000686c:    6800        .h      LDR      r0,[r0,#0]
        0x0000686e:    6901        .i      LDR      r1,[r0,#0x10]
        0x00006870:    4788        .G      BLX      r1
        0x00006872:    9a03        ..      LDR      r2,[sp,#0xc]
        0x00006874:    9904        ..      LDR      r1,[sp,#0x10]
        0x00006876:    4889        .H      LDR      r0,[pc,#548] ; [0x6a9c] = 0x200004ec
        0x00006878:    9005        ..      STR      r0,[sp,#0x14]
        0x0000687a:    6800        .h      LDR      r0,[r0,#0]
        0x0000687c:    6a04        .j      LDR      r4,[r0,#0x20]
        0x0000687e:    6813        .h      LDR      r3,[r2,#0]
        0x00006880:    9000        ..      STR      r0,[sp,#0]
        0x00006882:    4a2c        ,J      LDR      r2,[pc,#176] ; [0x6934] = 0x7ae9
        0x00006884:    4608        .F      MOV      r0,r1
        0x00006886:    47a0        .G      BLX      r4
        0x00006888:    9805        ..      LDR      r0,[sp,#0x14]
        0x0000688a:    6800        .h      LDR      r0,[r0,#0]
        0x0000688c:    6901        .i      LDR      r1,[r0,#0x10]
        0x0000688e:    4788        .G      BLX      r1
        0x00006890:    4884        .H      LDR      r0,[pc,#528] ; [0x6aa4] = 0x200004f0
        0x00006892:    9006        ..      STR      r0,[sp,#0x18]
        0x00006894:    6800        .h      LDR      r0,[r0,#0]
        0x00006896:    68c1        .h      LDR      r1,[r0,#0xc]
        0x00006898:    4788        .G      BLX      r1
        0x0000689a:    9806        ..      LDR      r0,[sp,#0x18]
        0x0000689c:    6800        .h      LDR      r0,[r0,#0]
        0x0000689e:    6901        .i      LDR      r1,[r0,#0x10]
        0x000068a0:    4788        .G      BLX      r1
        0x000068a2:    4881        .H      LDR      r0,[pc,#516] ; [0x6aa8] = 0x200004bc
        0x000068a4:    7a00        .z      LDRB     r0,[r0,#8]
        0x000068a6:    9007        ..      STR      r0,[sp,#0x1c]
        0x000068a8:    2803        .(      CMP      r0,#3
        0x000068aa:    d839        9.      BHI      0x6920 ; shw_resolution + 212
        0x000068ac:    9907        ..      LDR      r1,[sp,#0x1c]
        0x000068ae:    008a        ..      LSLS     r2,r1,#2
        0x000068b0:    a001        ..      ADR      r0,{pc}+8 ; 0x68b8
        0x000068b2:    1880        ..      ADDS     r0,r0,r2
        0x000068b4:    4687        .F      MOV      pc,r0
        0x000068b6:    46c0        .F      MOV      r8,r8
        0x000068b8:    f000b806    ....    B.W      0x68c8 ; shw_resolution + 124
        0x000068bc:    f000b80f    ....    B.W      0x68de ; shw_resolution + 146
        0x000068c0:    f000b818    ....    B.W      0x68f4 ; shw_resolution + 168
        0x000068c4:    f000b821    ..!.    B.W      0x690a ; shw_resolution + 190
        0x000068c8:    481d        .H      LDR      r0,[pc,#116] ; [0x6940] = 0x200001f4
        0x000068ca:    9001        ..      STR      r0,[sp,#4]
        0x000068cc:    481d        .H      LDR      r0,[pc,#116] ; [0x6944] = 0x20000118
        0x000068ce:    9000        ..      STR      r0,[sp,#0]
        0x000068d0:    481d        .H      LDR      r0,[pc,#116] ; [0x6948] = 0x2000017c
        0x000068d2:    491e        .I      LDR      r1,[pc,#120] ; [0x694c] = 0x684d
        0x000068d4:    4a22        "J      LDR      r2,[pc,#136] ; [0x6960] = 0x200001a4
        0x000068d6:    4b7a        zK      LDR      r3,[pc,#488] ; [0x6ac0] = 0x20000500
        0x000068d8:    f7fef9a1    ....    BL       build ; 0x4c1e
        0x000068dc:    e020         .      B        0x6920 ; shw_resolution + 212
        0x000068de:    4818        .H      LDR      r0,[pc,#96] ; [0x6940] = 0x200001f4
        0x000068e0:    9001        ..      STR      r0,[sp,#4]
        0x000068e2:    4818        .H      LDR      r0,[pc,#96] ; [0x6944] = 0x20000118
        0x000068e4:    9000        ..      STR      r0,[sp,#0]
        0x000068e6:    4818        .H      LDR      r0,[pc,#96] ; [0x6948] = 0x2000017c
        0x000068e8:    4918        .I      LDR      r1,[pc,#96] ; [0x694c] = 0x684d
        0x000068ea:    4a1c        .J      LDR      r2,[pc,#112] ; [0x695c] = 0x200001b8
        0x000068ec:    4b74        tK      LDR      r3,[pc,#464] ; [0x6ac0] = 0x20000500
        0x000068ee:    f7fef996    ....    BL       build ; 0x4c1e
        0x000068f2:    e015        ..      B        0x6920 ; shw_resolution + 212
        0x000068f4:    4812        .H      LDR      r0,[pc,#72] ; [0x6940] = 0x200001f4
        0x000068f6:    9001        ..      STR      r0,[sp,#4]
        0x000068f8:    4812        .H      LDR      r0,[pc,#72] ; [0x6944] = 0x20000118
        0x000068fa:    9000        ..      STR      r0,[sp,#0]
        0x000068fc:    4812        .H      LDR      r0,[pc,#72] ; [0x6948] = 0x2000017c
        0x000068fe:    4913        .I      LDR      r1,[pc,#76] ; [0x694c] = 0x684d
        0x00006900:    4a15        .J      LDR      r2,[pc,#84] ; [0x6958] = 0x200001cc
        0x00006902:    4b6f        oK      LDR      r3,[pc,#444] ; [0x6ac0] = 0x20000500
        0x00006904:    f7fef98b    ....    BL       build ; 0x4c1e
        0x00006908:    e00a        ..      B        0x6920 ; shw_resolution + 212
        0x0000690a:    480d        .H      LDR      r0,[pc,#52] ; [0x6940] = 0x200001f4
        0x0000690c:    9001        ..      STR      r0,[sp,#4]
        0x0000690e:    480d        .H      LDR      r0,[pc,#52] ; [0x6944] = 0x20000118
        0x00006910:    9000        ..      STR      r0,[sp,#0]
        0x00006912:    480d        .H      LDR      r0,[pc,#52] ; [0x6948] = 0x2000017c
        0x00006914:    490d        .I      LDR      r1,[pc,#52] ; [0x694c] = 0x684d
        0x00006916:    4a0e        .J      LDR      r2,[pc,#56] ; [0x6950] = 0x200001e0
        0x00006918:    4b69        iK      LDR      r3,[pc,#420] ; [0x6ac0] = 0x20000500
        0x0000691a:    f7fef980    ....    BL       build ; 0x4c1e
        0x0000691e:    e7ff        ..      B        0x6920 ; shw_resolution + 212
        0x00006920:    b008        ..      ADD      sp,sp,#0x20
        0x00006922:    bd10        ..      POP      {r4,pc}
    $d.12
    __arm_cp.8_0
        0x00006924:    200004e8    ...     DCD    536872168
    __arm_cp.8_1
        0x00006928:    200004e0    ...     DCD    536872160
    __arm_cp.8_2
        0x0000692c:    00007a5b    [z..    DCD    31323
    __arm_cp.8_3
        0x00006930:    200004ec    ...     DCD    536872172
    __arm_cp.8_4
        0x00006934:    00007ae9    .z..    DCD    31465
    __arm_cp.8_5
        0x00006938:    200004f0    ...     DCD    536872176
    __arm_cp.8_6
        0x0000693c:    200004bc    ...     DCD    536872124
    __arm_cp.8_7
        0x00006940:    200001f4    ...     DCD    536871412
    __arm_cp.8_8
        0x00006944:    20000118    ...     DCD    536871192
    __arm_cp.8_9
        0x00006948:    2000017c    |..     DCD    536871292
    __arm_cp.8_10
        0x0000694c:    0000684d    Mh..    DCD    26701
    __arm_cp.8_11
        0x00006950:    200001e0    ...     DCD    536871392
    __arm_cp.8_12
        0x00006954:    20000500    ...     DCD    536872192
    __arm_cp.8_13
        0x00006958:    200001cc    ...     DCD    536871372
    __arm_cp.8_14
        0x0000695c:    200001b8    ...     DCD    536871352
    __arm_cp.8_15
        0x00006960:    200001a4    ...     DCD    536871332
    $t.31
    shw_rs232
        0x00006964:    b510        ..      PUSH     {r4,lr}
        0x00006966:    b086        ..      SUB      sp,sp,#0x18
        0x00006968:    4849        IH      LDR      r0,[pc,#292] ; [0x6a90] = 0x200004e8
        0x0000696a:    9001        ..      STR      r0,[sp,#4]
        0x0000696c:    6800        .h      LDR      r0,[r0,#0]
        0x0000696e:    6a04        .j      LDR      r4,[r0,#0x20]
        0x00006970:    4948        HI      LDR      r1,[pc,#288] ; [0x6a94] = 0x200004e0
        0x00006972:    9102        ..      STR      r1,[sp,#8]
        0x00006974:    680b        .h      LDR      r3,[r1,#0]
        0x00006976:    9000        ..      STR      r0,[sp,#0]
        0x00006978:    4a13        .J      LDR      r2,[pc,#76] ; [0x69c8] = 0x7a57
        0x0000697a:    2100        .!      MOVS     r1,#0
        0x0000697c:    9103        ..      STR      r1,[sp,#0xc]
        0x0000697e:    4608        .F      MOV      r0,r1
        0x00006980:    47a0        .G      BLX      r4
        0x00006982:    9801        ..      LDR      r0,[sp,#4]
        0x00006984:    6800        .h      LDR      r0,[r0,#0]
        0x00006986:    6901        .i      LDR      r1,[r0,#0x10]
        0x00006988:    4788        .G      BLX      r1
        0x0000698a:    9a02        ..      LDR      r2,[sp,#8]
        0x0000698c:    9903        ..      LDR      r1,[sp,#0xc]
        0x0000698e:    4843        CH      LDR      r0,[pc,#268] ; [0x6a9c] = 0x200004ec
        0x00006990:    9004        ..      STR      r0,[sp,#0x10]
        0x00006992:    6800        .h      LDR      r0,[r0,#0]
        0x00006994:    6a04        .j      LDR      r4,[r0,#0x20]
        0x00006996:    6813        .h      LDR      r3,[r2,#0]
        0x00006998:    9000        ..      STR      r0,[sp,#0]
        0x0000699a:    4a0d        .J      LDR      r2,[pc,#52] ; [0x69d0] = 0x7a6c
        0x0000699c:    4608        .F      MOV      r0,r1
        0x0000699e:    47a0        .G      BLX      r4
        0x000069a0:    9804        ..      LDR      r0,[sp,#0x10]
        0x000069a2:    6800        .h      LDR      r0,[r0,#0]
        0x000069a4:    6901        .i      LDR      r1,[r0,#0x10]
        0x000069a6:    4788        .G      BLX      r1
        0x000069a8:    483e        >H      LDR      r0,[pc,#248] ; [0x6aa4] = 0x200004f0
        0x000069aa:    9005        ..      STR      r0,[sp,#0x14]
        0x000069ac:    6800        .h      LDR      r0,[r0,#0]
        0x000069ae:    68c1        .h      LDR      r1,[r0,#0xc]
        0x000069b0:    4788        .G      BLX      r1
        0x000069b2:    9805        ..      LDR      r0,[sp,#0x14]
        0x000069b4:    6800        .h      LDR      r0,[r0,#0]
        0x000069b6:    6901        .i      LDR      r1,[r0,#0x10]
        0x000069b8:    4788        .G      BLX      r1
        0x000069ba:    b006        ..      ADD      sp,sp,#0x18
        0x000069bc:    bd10        ..      POP      {r4,pc}
        0x000069be:    46c0        .F      MOV      r8,r8
    $d.32
    __arm_cp.18_0
        0x000069c0:    200004e8    ...     DCD    536872168
    __arm_cp.18_1
        0x000069c4:    200004e0    ...     DCD    536872160
    __arm_cp.18_2
        0x000069c8:    00007a57    Wz..    DCD    31319
    __arm_cp.18_3
        0x000069cc:    200004ec    ...     DCD    536872172
    __arm_cp.18_4
        0x000069d0:    00007a6c    lz..    DCD    31340
    __arm_cp.18_5
        0x000069d4:    200004f0    ...     DCD    536872176
    $t.19
    shw_speed
        0x000069d8:    b510        ..      PUSH     {r4,lr}
        0x000069da:    b088        ..      SUB      sp,sp,#0x20
        0x000069dc:    482c        ,H      LDR      r0,[pc,#176] ; [0x6a90] = 0x200004e8
        0x000069de:    9002        ..      STR      r0,[sp,#8]
        0x000069e0:    6800        .h      LDR      r0,[r0,#0]
        0x000069e2:    6a04        .j      LDR      r4,[r0,#0x20]
        0x000069e4:    492b        +I      LDR      r1,[pc,#172] ; [0x6a94] = 0x200004e0
        0x000069e6:    9103        ..      STR      r1,[sp,#0xc]
        0x000069e8:    680b        .h      LDR      r3,[r1,#0]
        0x000069ea:    9000        ..      STR      r0,[sp,#0]
        0x000069ec:    4a2a        *J      LDR      r2,[pc,#168] ; [0x6a98] = 0x7a90
        0x000069ee:    2100        .!      MOVS     r1,#0
        0x000069f0:    9104        ..      STR      r1,[sp,#0x10]
        0x000069f2:    4608        .F      MOV      r0,r1
        0x000069f4:    47a0        .G      BLX      r4
        0x000069f6:    9802        ..      LDR      r0,[sp,#8]
        0x000069f8:    6800        .h      LDR      r0,[r0,#0]
        0x000069fa:    6901        .i      LDR      r1,[r0,#0x10]
        0x000069fc:    4788        .G      BLX      r1
        0x000069fe:    9a03        ..      LDR      r2,[sp,#0xc]
        0x00006a00:    9904        ..      LDR      r1,[sp,#0x10]
        0x00006a02:    4826        &H      LDR      r0,[pc,#152] ; [0x6a9c] = 0x200004ec
        0x00006a04:    9005        ..      STR      r0,[sp,#0x14]
        0x00006a06:    6800        .h      LDR      r0,[r0,#0]
        0x00006a08:    6a04        .j      LDR      r4,[r0,#0x20]
        0x00006a0a:    6813        .h      LDR      r3,[r2,#0]
        0x00006a0c:    9000        ..      STR      r0,[sp,#0]
        0x00006a0e:    4a24        $J      LDR      r2,[pc,#144] ; [0x6aa0] = 0x7afe
        0x00006a10:    4608        .F      MOV      r0,r1
        0x00006a12:    47a0        .G      BLX      r4
        0x00006a14:    9805        ..      LDR      r0,[sp,#0x14]
        0x00006a16:    6800        .h      LDR      r0,[r0,#0]
        0x00006a18:    6901        .i      LDR      r1,[r0,#0x10]
        0x00006a1a:    4788        .G      BLX      r1
        0x00006a1c:    4821        !H      LDR      r0,[pc,#132] ; [0x6aa4] = 0x200004f0
        0x00006a1e:    9006        ..      STR      r0,[sp,#0x18]
        0x00006a20:    6800        .h      LDR      r0,[r0,#0]
        0x00006a22:    68c1        .h      LDR      r1,[r0,#0xc]
        0x00006a24:    4788        .G      BLX      r1
        0x00006a26:    9806        ..      LDR      r0,[sp,#0x18]
        0x00006a28:    6800        .h      LDR      r0,[r0,#0]
        0x00006a2a:    6901        .i      LDR      r1,[r0,#0x10]
        0x00006a2c:    4788        .G      BLX      r1
        0x00006a2e:    481e        .H      LDR      r0,[pc,#120] ; [0x6aa8] = 0x200004bc
        0x00006a30:    7b00        .{      LDRB     r0,[r0,#0xc]
        0x00006a32:    9007        ..      STR      r0,[sp,#0x1c]
        0x00006a34:    b140        @.      CBZ      r0,0x6a48 ; shw_speed + 112
        0x00006a36:    e7ff        ..      B        0x6a38 ; shw_speed + 96
        0x00006a38:    9807        ..      LDR      r0,[sp,#0x1c]
        0x00006a3a:    2801        .(      CMP      r0,#1
        0x00006a3c:    d00f        ..      BEQ      0x6a5e ; shw_speed + 134
        0x00006a3e:    e7ff        ..      B        0x6a40 ; shw_speed + 104
        0x00006a40:    9807        ..      LDR      r0,[sp,#0x1c]
        0x00006a42:    2802        .(      CMP      r0,#2
        0x00006a44:    d016        ..      BEQ      0x6a74 ; shw_speed + 156
        0x00006a46:    e020         .      B        0x6a8a ; shw_speed + 178
        0x00006a48:    4818        .H      LDR      r0,[pc,#96] ; [0x6aac] = 0x200003ac
        0x00006a4a:    9001        ..      STR      r0,[sp,#4]
        0x00006a4c:    4818        .H      LDR      r0,[pc,#96] ; [0x6ab0] = 0x200002f8
        0x00006a4e:    9000        ..      STR      r0,[sp,#0]
        0x00006a50:    4818        .H      LDR      r0,[pc,#96] ; [0x6ab4] = 0x2000035c
        0x00006a52:    4919        .I      LDR      r1,[pc,#100] ; [0x6ab8] = 0x69d9
        0x00006a54:    4a1c        .J      LDR      r2,[pc,#112] ; [0x6ac8] = 0x20000370
        0x00006a56:    4b1a        .K      LDR      r3,[pc,#104] ; [0x6ac0] = 0x20000500
        0x00006a58:    f7fef8e1    ....    BL       build ; 0x4c1e
        0x00006a5c:    e015        ..      B        0x6a8a ; shw_speed + 178
        0x00006a5e:    4813        .H      LDR      r0,[pc,#76] ; [0x6aac] = 0x200003ac
        0x00006a60:    9001        ..      STR      r0,[sp,#4]
        0x00006a62:    4813        .H      LDR      r0,[pc,#76] ; [0x6ab0] = 0x200002f8
        0x00006a64:    9000        ..      STR      r0,[sp,#0]
        0x00006a66:    4813        .H      LDR      r0,[pc,#76] ; [0x6ab4] = 0x2000035c
        0x00006a68:    4913        .I      LDR      r1,[pc,#76] ; [0x6ab8] = 0x69d9
        0x00006a6a:    4a16        .J      LDR      r2,[pc,#88] ; [0x6ac4] = 0x20000384
        0x00006a6c:    4b14        .K      LDR      r3,[pc,#80] ; [0x6ac0] = 0x20000500
        0x00006a6e:    f7fef8d6    ....    BL       build ; 0x4c1e
        0x00006a72:    e00a        ..      B        0x6a8a ; shw_speed + 178
        0x00006a74:    480d        .H      LDR      r0,[pc,#52] ; [0x6aac] = 0x200003ac
        0x00006a76:    9001        ..      STR      r0,[sp,#4]
        0x00006a78:    480d        .H      LDR      r0,[pc,#52] ; [0x6ab0] = 0x200002f8
        0x00006a7a:    9000        ..      STR      r0,[sp,#0]
        0x00006a7c:    480d        .H      LDR      r0,[pc,#52] ; [0x6ab4] = 0x2000035c
        0x00006a7e:    490e        .I      LDR      r1,[pc,#56] ; [0x6ab8] = 0x69d9
        0x00006a80:    4a0e        .J      LDR      r2,[pc,#56] ; [0x6abc] = 0x20000398
        0x00006a82:    4b0f        .K      LDR      r3,[pc,#60] ; [0x6ac0] = 0x20000500
        0x00006a84:    f7fef8cb    ....    BL       build ; 0x4c1e
        0x00006a88:    e7ff        ..      B        0x6a8a ; shw_speed + 178
        0x00006a8a:    b008        ..      ADD      sp,sp,#0x20
        0x00006a8c:    bd10        ..      POP      {r4,pc}
        0x00006a8e:    46c0        .F      MOV      r8,r8
    $d.20
    __arm_cp.12_0
        0x00006a90:    200004e8    ...     DCD    536872168
    __arm_cp.12_1
        0x00006a94:    200004e0    ...     DCD    536872160
    __arm_cp.12_2
        0x00006a98:    00007a90    .z..    DCD    31376
    __arm_cp.12_3
        0x00006a9c:    200004ec    ...     DCD    536872172
    __arm_cp.12_4
        0x00006aa0:    00007afe    .z..    DCD    31486
    __arm_cp.12_5
        0x00006aa4:    200004f0    ...     DCD    536872176
    __arm_cp.12_6
        0x00006aa8:    200004bc    ...     DCD    536872124
    __arm_cp.12_7
        0x00006aac:    200003ac    ...     DCD    536871852
    __arm_cp.12_8
        0x00006ab0:    200002f8    ...     DCD    536871672
    __arm_cp.12_9
        0x00006ab4:    2000035c    \..     DCD    536871772
    __arm_cp.12_10
        0x00006ab8:    000069d9    .i..    DCD    27097
    __arm_cp.12_11
        0x00006abc:    20000398    ...     DCD    536871832
    __arm_cp.12_12
        0x00006ac0:    20000500    ...     DCD    536872192
    __arm_cp.12_13
        0x00006ac4:    20000384    ...     DCD    536871812
    __arm_cp.12_14
        0x00006ac8:    20000370    p..     DCD    536871792
    $t.23
    spi_transfer
        0x00006acc:    b082        ..      SUB      sp,sp,#8
        0x00006ace:    9001        ..      STR      r0,[sp,#4]
        0x00006ad0:    9801        ..      LDR      r0,[sp,#4]
        0x00006ad2:    7800        .x      LDRB     r0,[r0,#0]
        0x00006ad4:    490d        .I      LDR      r1,[pc,#52] ; [0x6b0c] = 0x40061020
        0x00006ad6:    6008        .`      STR      r0,[r1,#0]
        0x00006ad8:    e7ff        ..      B        0x6ada ; spi_transfer + 14
        0x00006ada:    480d        .H      LDR      r0,[pc,#52] ; [0x6b10] = 0x40061014
        0x00006adc:    6800        .h      LDR      r0,[r0,#0]
        0x00006ade:    07c0        ..      LSLS     r0,r0,#31
        0x00006ae0:    b108        ..      CBZ      r0,0x6ae6 ; spi_transfer + 26
        0x00006ae2:    e7ff        ..      B        0x6ae4 ; spi_transfer + 24
        0x00006ae4:    e7f9        ..      B        0x6ada ; spi_transfer + 14
        0x00006ae6:    e7ff        ..      B        0x6ae8 ; spi_transfer + 28
        0x00006ae8:    4809        .H      LDR      r0,[pc,#36] ; [0x6b10] = 0x40061014
        0x00006aea:    6800        .h      LDR      r0,[r0,#0]
        0x00006aec:    f2401100    @...    MOVW     r1,#0x100
        0x00006af0:    4008        .@      ANDS     r0,r0,r1
        0x00006af2:    0a00        ..      LSRS     r0,r0,#8
        0x00006af4:    b928        (.      CBNZ     r0,0x6b02 ; spi_transfer + 54
        0x00006af6:    e7ff        ..      B        0x6af8 ; spi_transfer + 44
        0x00006af8:    4806        .H      LDR      r0,[pc,#24] ; [0x6b14] = 0x40061030
        0x00006afa:    6800        .h      LDR      r0,[r0,#0]
        0x00006afc:    4669        iF      MOV      r1,sp
        0x00006afe:    7008        .p      STRB     r0,[r1,#0]
        0x00006b00:    e7f2        ..      B        0x6ae8 ; spi_transfer + 28
        0x00006b02:    4668        hF      MOV      r0,sp
        0x00006b04:    7800        .x      LDRB     r0,[r0,#0]
        0x00006b06:    b002        ..      ADD      sp,sp,#8
        0x00006b08:    4770        pG      BX       lr
        0x00006b0a:    46c0        .F      MOV      r8,r8
    $d.24
    __arm_cp.22_0
        0x00006b0c:    40061020     ..@    DCD    1074139168
    __arm_cp.22_1
        0x00006b10:    40061014    ...@    DCD    1074139156
    __arm_cp.22_2
        0x00006b14:    40061030    0..@    DCD    1074139184
    $t.0
    wdt_tickCounter
        0x00006b18:    4902        .I      LDR      r1,[pc,#8] ; [0x6b24] = 0x20000514
        0x00006b1a:    6808        .h      LDR      r0,[r1,#0]
        0x00006b1c:    1c40        @.      ADDS     r0,r0,#1
        0x00006b1e:    6008        .`      STR      r0,[r1,#0]
        0x00006b20:    4770        pG      BX       lr
        0x00006b22:    46c0        .F      MOV      r8,r8
    $d.1
    __arm_cp.0_0
        0x00006b24:    20000514    ...     DCD    536872212
    $t.8
    writeFlashMemoryInformation
        0x00006b28:    b580        ..      PUSH     {r7,lr}
        0x00006b2a:    b096        ..      SUB      sp,sp,#0x58
        0x00006b2c:    9015        ..      STR      r0,[sp,#0x54]
        0x00006b2e:    9815        ..      LDR      r0,[sp,#0x54]
        0x00006b30:    7a00        .z      LDRB     r0,[r0,#8]
        0x00006b32:    9000        ..      STR      r0,[sp,#0]
        0x00006b34:    9815        ..      LDR      r0,[sp,#0x54]
        0x00006b36:    7a40        @z      LDRB     r0,[r0,#9]
        0x00006b38:    9001        ..      STR      r0,[sp,#4]
        0x00006b3a:    9815        ..      LDR      r0,[sp,#0x54]
        0x00006b3c:    7a80        .z      LDRB     r0,[r0,#0xa]
        0x00006b3e:    9002        ..      STR      r0,[sp,#8]
        0x00006b40:    9815        ..      LDR      r0,[sp,#0x54]
        0x00006b42:    7ac0        .z      LDRB     r0,[r0,#0xb]
        0x00006b44:    9003        ..      STR      r0,[sp,#0xc]
        0x00006b46:    9815        ..      LDR      r0,[sp,#0x54]
        0x00006b48:    7b00        .{      LDRB     r0,[r0,#0xc]
        0x00006b4a:    9004        ..      STR      r0,[sp,#0x10]
        0x00006b4c:    9815        ..      LDR      r0,[sp,#0x54]
        0x00006b4e:    7b40        @{      LDRB     r0,[r0,#0xd]
        0x00006b50:    9005        ..      STR      r0,[sp,#0x14]
        0x00006b52:    9815        ..      LDR      r0,[sp,#0x54]
        0x00006b54:    7b80        .{      LDRB     r0,[r0,#0xe]
        0x00006b56:    9006        ..      STR      r0,[sp,#0x18]
        0x00006b58:    9815        ..      LDR      r0,[sp,#0x54]
        0x00006b5a:    6900        .i      LDR      r0,[r0,#0x10]
        0x00006b5c:    9007        ..      STR      r0,[sp,#0x1c]
        0x00006b5e:    9815        ..      LDR      r0,[sp,#0x54]
        0x00006b60:    6940        @i      LDR      r0,[r0,#0x14]
        0x00006b62:    f7f9fce8    ....    BL       __aeabi_f2uiz ; 0x536
        0x00006b66:    9008        ..      STR      r0,[sp,#0x20]
        0x00006b68:    9815        ..      LDR      r0,[sp,#0x54]
        0x00006b6a:    6800        .h      LDR      r0,[r0,#0]
        0x00006b6c:    f7f9fce3    ....    BL       __aeabi_f2uiz ; 0x536
        0x00006b70:    9009        ..      STR      r0,[sp,#0x24]
        0x00006b72:    9815        ..      LDR      r0,[sp,#0x54]
        0x00006b74:    6840        @h      LDR      r0,[r0,#4]
        0x00006b76:    900a        ..      STR      r0,[sp,#0x28]
        0x00006b78:    4803        .H      LDR      r0,[pc,#12] ; [0x6b88] = 0x19404
        0x00006b7a:    4669        iF      MOV      r1,sp
        0x00006b7c:    2214        ."      MOVS     r2,#0x14
        0x00006b7e:    f7fefc71    ..q.    BL       eeprom_write_array ; 0x5464
        0x00006b82:    b016        ..      ADD      sp,sp,#0x58
        0x00006b84:    bd80        ..      POP      {r7,pc}
        0x00006b86:    46c0        .F      MOV      r8,r8
    $d.9
    __arm_cp.4_0
        0x00006b88:    00019404    ....    DCD    103428
    $t
    i.__0printf
    __0printf
    __1printf
    __2printf
    __c89printf
    printf
        0x00006b8c:    b40f        ..      PUSH     {r0-r3}
        0x00006b8e:    b510        ..      PUSH     {r4,lr}
        0x00006b90:    a903        ..      ADD      r1,sp,#0xc
        0x00006b92:    4b04        .K      LDR      r3,[pc,#16] ; [0x6ba4] = 0x56a9
        0x00006b94:    4a04        .J      LDR      r2,[pc,#16] ; [0x6ba8] = 0x2000003c
        0x00006b96:    9802        ..      LDR      r0,[sp,#8]
        0x00006b98:    f000f912    ....    BL       _printf_core ; 0x6dc0
        0x00006b9c:    bc10        ..      POP      {r4}
        0x00006b9e:    bc08        ..      POP      {r3}
        0x00006ba0:    b004        ..      ADD      sp,sp,#0x10
        0x00006ba2:    4718        .G      BX       r3
    $d
        0x00006ba4:    000056a9    .V..    DCD    22185
        0x00006ba8:    2000003c    <..     DCD    536870972
    $t
    i.__0sprintf
    __0sprintf
    __1sprintf
    __2sprintf
    __c89sprintf
    sprintf
        0x00006bac:    b40f        ..      PUSH     {r0-r3}
        0x00006bae:    b510        ..      PUSH     {r4,lr}
        0x00006bb0:    a904        ..      ADD      r1,sp,#0x10
        0x00006bb2:    4b07        .K      LDR      r3,[pc,#28] ; [0x6bd0] = 0x74f9
        0x00006bb4:    aa02        ..      ADD      r2,sp,#8
        0x00006bb6:    9803        ..      LDR      r0,[sp,#0xc]
        0x00006bb8:    f000f902    ....    BL       _printf_core ; 0x6dc0
        0x00006bbc:    4604        .F      MOV      r4,r0
        0x00006bbe:    a902        ..      ADD      r1,sp,#8
        0x00006bc0:    2000        .       MOVS     r0,#0
        0x00006bc2:    f000fc99    ....    BL       _sputc ; 0x74f8
        0x00006bc6:    4620         F      MOV      r0,r4
        0x00006bc8:    bc10        ..      POP      {r4}
        0x00006bca:    bc08        ..      POP      {r3}
        0x00006bcc:    b004        ..      ADD      sp,sp,#0x10
        0x00006bce:    4718        .G      BX       r3
    $d
        0x00006bd0:    000074f9    .t..    DCD    29945
    $t
    i.__ARM_clz
    __ARM_clz
        0x00006bd4:    2120         !      MOVS     r1,#0x20
        0x00006bd6:    0c02        ..      LSRS     r2,r0,#16
        0x00006bd8:    d001        ..      BEQ      0x6bde ; __ARM_clz + 10
        0x00006bda:    2110        .!      MOVS     r1,#0x10
        0x00006bdc:    4610        .F      MOV      r0,r2
        0x00006bde:    0a02        ..      LSRS     r2,r0,#8
        0x00006be0:    d001        ..      BEQ      0x6be6 ; __ARM_clz + 18
        0x00006be2:    4610        .F      MOV      r0,r2
        0x00006be4:    3908        .9      SUBS     r1,r1,#8
        0x00006be6:    0902        ..      LSRS     r2,r0,#4
        0x00006be8:    d001        ..      BEQ      0x6bee ; __ARM_clz + 26
        0x00006bea:    4610        .F      MOV      r0,r2
        0x00006bec:    1f09        ..      SUBS     r1,r1,#4
        0x00006bee:    0882        ..      LSRS     r2,r0,#2
        0x00006bf0:    d001        ..      BEQ      0x6bf6 ; __ARM_clz + 34
        0x00006bf2:    4610        .F      MOV      r0,r2
        0x00006bf4:    1e89        ..      SUBS     r1,r1,#2
        0x00006bf6:    0842        B.      LSRS     r2,r0,#1
        0x00006bf8:    d001        ..      BEQ      0x6bfe ; __ARM_clz + 42
        0x00006bfa:    1e88        ..      SUBS     r0,r1,#2
        0x00006bfc:    4770        pG      BX       lr
        0x00006bfe:    1a08        ..      SUBS     r0,r1,r0
        0x00006c00:    4770        pG      BX       lr
        0x00006c02:    0000        ..      MOVS     r0,r0
    i.__read_errno
    __read_errno
        0x00006c04:    4801        .H      LDR      r0,[pc,#4] ; [0x6c0c] = 0x20000008
        0x00006c06:    6800        .h      LDR      r0,[r0,#0]
        0x00006c08:    4770        pG      BX       lr
    $d
        0x00006c0a:    0000        ..      DCW    0
        0x00006c0c:    20000008    ...     DCD    536870920
    $t
    i.__scatterload_copy
    __scatterload_copy
        0x00006c10:    e002        ..      B        0x6c18 ; __scatterload_copy + 8
        0x00006c12:    c808        ..      LDM      r0!,{r3}
        0x00006c14:    1f12        ..      SUBS     r2,r2,#4
        0x00006c16:    c108        ..      STM      r1!,{r3}
        0x00006c18:    2a00        .*      CMP      r2,#0
        0x00006c1a:    d1fa        ..      BNE      0x6c12 ; __scatterload_copy + 2
        0x00006c1c:    4770        pG      BX       lr
    i.__scatterload_null
    __scatterload_null
        0x00006c1e:    4770        pG      BX       lr
    i.__scatterload_zeroinit
    __scatterload_zeroinit
        0x00006c20:    2000        .       MOVS     r0,#0
        0x00006c22:    e001        ..      B        0x6c28 ; __scatterload_zeroinit + 8
        0x00006c24:    c101        ..      STM      r1!,{r0}
        0x00006c26:    1f12        ..      SUBS     r2,r2,#4
        0x00006c28:    2a00        .*      CMP      r2,#0
        0x00006c2a:    d1fb        ..      BNE      0x6c24 ; __scatterload_zeroinit + 4
        0x00006c2c:    4770        pG      BX       lr
        0x00006c2e:    0000        ..      MOVS     r0,r0
    i.__set_errno
    __set_errno
        0x00006c30:    4901        .I      LDR      r1,[pc,#4] ; [0x6c38] = 0x20000008
        0x00006c32:    6008        .`      STR      r0,[r1,#0]
        0x00006c34:    4770        pG      BX       lr
    $d
        0x00006c36:    0000        ..      DCW    0
        0x00006c38:    20000008    ...     DCD    536870920
    $t
    i._fp_digits
    _fp_digits
        0x00006c3c:    b5f0        ..      PUSH     {r4-r7,lr}
        0x00006c3e:    b41f        ..      PUSH     {r0-r4}
        0x00006c40:    b086        ..      SUB      sp,sp,#0x18
        0x00006c42:    9809        ..      LDR      r0,[sp,#0x24]
        0x00006c44:    9a08        ..      LDR      r2,[sp,#0x20]
        0x00006c46:    0d03        ..      LSRS     r3,r0,#20
        0x00006c48:    2100        .!      MOVS     r1,#0
        0x00006c4a:    4302        .C      ORRS     r2,r2,r0
        0x00006c4c:    d014        ..      BEQ      0x6c78 ; _fp_digits + 60
        0x00006c4e:    4851        QH      LDR      r0,[pc,#324] ; [0x6d94] = 0xfffffc01
        0x00006c50:    4a51        QJ      LDR      r2,[pc,#324] ; [0x6d98] = 0x4d10
        0x00006c52:    1818        ..      ADDS     r0,r3,r0
        0x00006c54:    4350        PC      MULS     r0,r2,r0
        0x00006c56:    1405        ..      ASRS     r5,r0,#16
        0x00006c58:    9811        ..      LDR      r0,[sp,#0x44]
        0x00006c5a:    2801        .(      CMP      r0,#1
        0x00006c5c:    9810        ..      LDR      r0,[sp,#0x40]
        0x00006c5e:    d01a        ..      BEQ      0x6c96 ; _fp_digits + 90
        0x00006c60:    1a28        (.      SUBS     r0,r5,r0
        0x00006c62:    1c40        @.      ADDS     r0,r0,#1
        0x00006c64:    2600        .&      MOVS     r6,#0
        0x00006c66:    4f4d        MO      LDR      r7,[pc,#308] ; [0x6d9c] = 0x40140000
        0x00006c68:    494d        MI      LDR      r1,[pc,#308] ; [0x6da0] = 0x3ff00000
        0x00006c6a:    9600        ..      STR      r6,[sp,#0]
        0x00006c6c:    9101        ..      STR      r1,[sp,#4]
        0x00006c6e:    9004        ..      STR      r0,[sp,#0x10]
        0x00006c70:    2800        .(      CMP      r0,#0
        0x00006c72:    da12        ..      BGE      0x6c9a ; _fp_digits + 94
        0x00006c74:    4244        DB      RSBS     r4,r0,#0
        0x00006c76:    e011        ..      B        0x6c9c ; _fp_digits + 96
        0x00006c78:    9811        ..      LDR      r0,[sp,#0x44]
        0x00006c7a:    2401        .$      MOVS     r4,#1
        0x00006c7c:    a349        I.      ADR      r3,{pc}+0x128 ; 0x6da4
        0x00006c7e:    2801        .(      CMP      r0,#1
        0x00006c80:    d101        ..      BNE      0x6c86 ; _fp_digits + 74
        0x00006c82:    9810        ..      LDR      r0,[sp,#0x40]
        0x00006c84:    43c1        .C      MVNS     r1,r0
        0x00006c86:    9806        ..      LDR      r0,[sp,#0x18]
        0x00006c88:    9a11        ..      LDR      r2,[sp,#0x44]
        0x00006c8a:    6084        .`      STR      r4,[r0,#8]
        0x00006c8c:    6003        .`      STR      r3,[r0,#0]
        0x00006c8e:    60c2        .`      STR      r2,[r0,#0xc]
        0x00006c90:    6041        A`      STR      r1,[r0,#4]
        0x00006c92:    b00b        ..      ADD      sp,sp,#0x2c
        0x00006c94:    bdf0        ..      POP      {r4-r7,pc}
        0x00006c96:    4240        @B      RSBS     r0,r0,#0
        0x00006c98:    e7e4        ..      B        0x6c64 ; _fp_digits + 40
        0x00006c9a:    4604        .F      MOV      r4,r0
        0x00006c9c:    0521        !.      LSLS     r1,r4,#20
        0x00006c9e:    2000        .       MOVS     r0,#0
        0x00006ca0:    4a3f        ?J      LDR      r2,[pc,#252] ; [0x6da0] = 0x3ff00000
        0x00006ca2:    1c00        ..      ADDS     r0,r0,#0
        0x00006ca4:    4151        QA      ADCS     r1,r1,r2
        0x00006ca6:    9103        ..      STR      r1,[sp,#0xc]
        0x00006ca8:    9002        ..      STR      r0,[sp,#8]
        0x00006caa:    e012        ..      B        0x6cd2 ; _fp_digits + 150
        0x00006cac:    07e0        ..      LSLS     r0,r4,#31
        0x00006cae:    d007        ..      BEQ      0x6cc0 ; _fp_digits + 132
        0x00006cb0:    4632        2F      MOV      r2,r6
        0x00006cb2:    463b        ;F      MOV      r3,r7
        0x00006cb4:    9901        ..      LDR      r1,[sp,#4]
        0x00006cb6:    9800        ..      LDR      r0,[sp,#0]
        0x00006cb8:    f7f9fb88    ....    BL       __aeabi_dmul ; 0x3cc
        0x00006cbc:    9101        ..      STR      r1,[sp,#4]
        0x00006cbe:    9000        ..      STR      r0,[sp,#0]
        0x00006cc0:    4632        2F      MOV      r2,r6
        0x00006cc2:    463b        ;F      MOV      r3,r7
        0x00006cc4:    4610        .F      MOV      r0,r2
        0x00006cc6:    4619        .F      MOV      r1,r3
        0x00006cc8:    f7f9fb80    ....    BL       __aeabi_dmul ; 0x3cc
        0x00006ccc:    4606        .F      MOV      r6,r0
        0x00006cce:    460f        .F      MOV      r7,r1
        0x00006cd0:    1064        d.      ASRS     r4,r4,#1
        0x00006cd2:    2c00        .,      CMP      r4,#0
        0x00006cd4:    d1ea        ..      BNE      0x6cac ; _fp_digits + 112
        0x00006cd6:    9804        ..      LDR      r0,[sp,#0x10]
        0x00006cd8:    9b03        ..      LDR      r3,[sp,#0xc]
        0x00006cda:    2800        .(      CMP      r0,#0
        0x00006cdc:    9a02        ..      LDR      r2,[sp,#8]
        0x00006cde:    9909        ..      LDR      r1,[sp,#0x24]
        0x00006ce0:    9808        ..      LDR      r0,[sp,#0x20]
        0x00006ce2:    da06        ..      BGE      0x6cf2 ; _fp_digits + 182
        0x00006ce4:    f7f9fb72    ..r.    BL       __aeabi_dmul ; 0x3cc
        0x00006ce8:    9b01        ..      LDR      r3,[sp,#4]
        0x00006cea:    9a00        ..      LDR      r2,[sp,#0]
        0x00006cec:    f7f9fb6e    ..n.    BL       __aeabi_dmul ; 0x3cc
        0x00006cf0:    e005        ..      B        0x6cfe ; _fp_digits + 194
        0x00006cf2:    f7f9fe8b    ....    BL       __aeabi_ddiv ; 0xa0c
        0x00006cf6:    9b01        ..      LDR      r3,[sp,#4]
        0x00006cf8:    9a00        ..      LDR      r2,[sp,#0]
        0x00006cfa:    f7f9fe87    ....    BL       __aeabi_ddiv ; 0xa0c
        0x00006cfe:    4604        .F      MOV      r4,r0
        0x00006d00:    460e        .F      MOV      r6,r1
        0x00006d02:    2200        ."      MOVS     r2,#0
        0x00006d04:    4b28        (K      LDR      r3,[pc,#160] ; [0x6da8] = 0x43f00000
        0x00006d06:    f7f9ff19    ....    BL       __aeabi_cdrcmple ; 0xb3c
        0x00006d0a:    d803        ..      BHI      0x6d14 ; _fp_digits + 216
        0x00006d0c:    2000        .       MOVS     r0,#0
        0x00006d0e:    43c0        .C      MVNS     r0,r0
        0x00006d10:    4601        .F      MOV      r1,r0
        0x00006d12:    e007        ..      B        0x6d24 ; _fp_digits + 232
        0x00006d14:    2200        ."      MOVS     r2,#0
        0x00006d16:    4b25        %K      LDR      r3,[pc,#148] ; [0x6dac] = 0x3fe00000
        0x00006d18:    4620         F      MOV      r0,r4
        0x00006d1a:    4631        1F      MOV      r1,r6
        0x00006d1c:    f7f9fdc4    ....    BL       __aeabi_dadd ; 0x8a8
        0x00006d20:    f7f9feec    ....    BL       __aeabi_d2ulz ; 0xafc
        0x00006d24:    2410        .$      MOVS     r4,#0x10
        0x00006d26:    e009        ..      B        0x6d3c ; _fp_digits + 256
        0x00006d28:    2c00        .,      CMP      r4,#0
        0x00006d2a:    db0a        ..      BLT      0x6d42 ; _fp_digits + 262
        0x00006d2c:    220a        ."      MOVS     r2,#0xa
        0x00006d2e:    2300        .#      MOVS     r3,#0
        0x00006d30:    f7f9fc6e    ..n.    BL       __aeabi_uldivmod ; 0x610
        0x00006d34:    9b07        ..      LDR      r3,[sp,#0x1c]
        0x00006d36:    3230        02      ADDS     r2,r2,#0x30
        0x00006d38:    551a        .U      STRB     r2,[r3,r4]
        0x00006d3a:    1e64        d.      SUBS     r4,r4,#1
        0x00006d3c:    4602        .F      MOV      r2,r0
        0x00006d3e:    430a        .C      ORRS     r2,r2,r1
        0x00006d40:    d1f2        ..      BNE      0x6d28 ; _fp_digits + 236
        0x00006d42:    2211        ."      MOVS     r2,#0x11
        0x00006d44:    1c64        d.      ADDS     r4,r4,#1
        0x00006d46:    9b07        ..      LDR      r3,[sp,#0x1c]
        0x00006d48:    1b12        ..      SUBS     r2,r2,r4
        0x00006d4a:    191c        ..      ADDS     r4,r3,r4
        0x00006d4c:    9b11        ..      LDR      r3,[sp,#0x44]
        0x00006d4e:    2b01        .+      CMP      r3,#1
        0x00006d50:    d003        ..      BEQ      0x6d5a ; _fp_digits + 286
        0x00006d52:    2301        .#      MOVS     r3,#1
        0x00006d54:    4308        .C      ORRS     r0,r0,r1
        0x00006d56:    d10e        ..      BNE      0x6d76 ; _fp_digits + 314
        0x00006d58:    e00a        ..      B        0x6d70 ; _fp_digits + 308
        0x00006d5a:    4308        .C      ORRS     r0,r0,r1
        0x00006d5c:    d004        ..      BEQ      0x6d68 ; _fp_digits + 300
        0x00006d5e:    2011        .       MOVS     r0,#0x11
        0x00006d60:    9010        ..      STR      r0,[sp,#0x40]
        0x00006d62:    2000        .       MOVS     r0,#0
        0x00006d64:    9011        ..      STR      r0,[sp,#0x44]
        0x00006d66:    e777        w.      B        0x6c58 ; _fp_digits + 28
        0x00006d68:    9810        ..      LDR      r0,[sp,#0x40]
        0x00006d6a:    1a15        ..      SUBS     r5,r2,r0
        0x00006d6c:    1e6d        m.      SUBS     r5,r5,#1
        0x00006d6e:    e00b        ..      B        0x6d88 ; _fp_digits + 332
        0x00006d70:    9810        ..      LDR      r0,[sp,#0x40]
        0x00006d72:    4282        .B      CMP      r2,r0
        0x00006d74:    dd02        ..      BLE      0x6d7c ; _fp_digits + 320
        0x00006d76:    2300        .#      MOVS     r3,#0
        0x00006d78:    1c6d        m.      ADDS     r5,r5,#1
        0x00006d7a:    e003        ..      B        0x6d84 ; _fp_digits + 328
        0x00006d7c:    4282        .B      CMP      r2,r0
        0x00006d7e:    da01        ..      BGE      0x6d84 ; _fp_digits + 328
        0x00006d80:    2300        .#      MOVS     r3,#0
        0x00006d82:    1e6d        m.      SUBS     r5,r5,#1
        0x00006d84:    2b00        .+      CMP      r3,#0
        0x00006d86:    d0ee        ..      BEQ      0x6d66 ; _fp_digits + 298
        0x00006d88:    9806        ..      LDR      r0,[sp,#0x18]
        0x00006d8a:    9911        ..      LDR      r1,[sp,#0x44]
        0x00006d8c:    6082        .`      STR      r2,[r0,#8]
        0x00006d8e:    60c1        .`      STR      r1,[r0,#0xc]
        0x00006d90:    c030        0.      STM      r0!,{r4,r5}
        0x00006d92:    e77e        ~.      B        0x6c92 ; _fp_digits + 86
    $d
        0x00006d94:    fffffc01    ....    DCD    4294966273
        0x00006d98:    00004d10    .M..    DCD    19728
        0x00006d9c:    40140000    ...@    DCD    1075052544
        0x00006da0:    3ff00000    ...?    DCD    1072693248
        0x00006da4:    00000030    0...    DCD    48
        0x00006da8:    43f00000    ...C    DCD    1139802112
        0x00006dac:    3fe00000    ...?    DCD    1071644672
    $t
    i._is_digit
    _is_digit
        0x00006db0:    3830        08      SUBS     r0,r0,#0x30
        0x00006db2:    280a        .(      CMP      r0,#0xa
        0x00006db4:    d201        ..      BCS      0x6dba ; _is_digit + 10
        0x00006db6:    2001        .       MOVS     r0,#1
        0x00006db8:    4770        pG      BX       lr
        0x00006dba:    2000        .       MOVS     r0,#0
        0x00006dbc:    4770        pG      BX       lr
        0x00006dbe:    0000        ..      MOVS     r0,r0
    i._printf_core
    _printf_core
        0x00006dc0:    b5ff        ..      PUSH     {r0-r7,lr}
        0x00006dc2:    b097        ..      SUB      sp,sp,#0x5c
        0x00006dc4:    4606        .F      MOV      r6,r0
        0x00006dc6:    2500        .%      MOVS     r5,#0
        0x00006dc8:    e218        ..      B        0x71fc ; _printf_core + 1084
        0x00006dca:    2825        %(      CMP      r0,#0x25
        0x00006dcc:    d177        w.      BNE      0x6ebe ; _printf_core + 254
        0x00006dce:    2400        .$      MOVS     r4,#0
        0x00006dd0:    4627        'F      MOV      r7,r4
        0x00006dd2:    49fd        .I      LDR      r1,[pc,#1012] ; [0x71c8] = 0x12809
        0x00006dd4:    9404        ..      STR      r4,[sp,#0x10]
        0x00006dd6:    e000        ..      B        0x6dda ; _printf_core + 26
        0x00006dd8:    4304        .C      ORRS     r4,r4,r0
        0x00006dda:    1c76        v.      ADDS     r6,r6,#1
        0x00006ddc:    7832        2x      LDRB     r2,[r6,#0]
        0x00006dde:    2001        .       MOVS     r0,#1
        0x00006de0:    3a20         :      SUBS     r2,r2,#0x20
        0x00006de2:    4090        .@      LSLS     r0,r0,r2
        0x00006de4:    4208        .B      TST      r0,r1
        0x00006de6:    d1f7        ..      BNE      0x6dd8 ; _printf_core + 24
        0x00006de8:    7830        0x      LDRB     r0,[r6,#0]
        0x00006dea:    282a        *(      CMP      r0,#0x2a
        0x00006dec:    d00e        ..      BEQ      0x6e0c ; _printf_core + 76
        0x00006dee:    2202        ."      MOVS     r2,#2
        0x00006df0:    7830        0x      LDRB     r0,[r6,#0]
        0x00006df2:    4601        .F      MOV      r1,r0
        0x00006df4:    3930        09      SUBS     r1,r1,#0x30
        0x00006df6:    2909        .)      CMP      r1,#9
        0x00006df8:    d816        ..      BHI      0x6e28 ; _printf_core + 104
        0x00006dfa:    9904        ..      LDR      r1,[sp,#0x10]
        0x00006dfc:    230a        .#      MOVS     r3,#0xa
        0x00006dfe:    4359        YC      MULS     r1,r3,r1
        0x00006e00:    3930        09      SUBS     r1,r1,#0x30
        0x00006e02:    1840        @.      ADDS     r0,r0,r1
        0x00006e04:    4314        .C      ORRS     r4,r4,r2
        0x00006e06:    1c76        v.      ADDS     r6,r6,#1
        0x00006e08:    9004        ..      STR      r0,[sp,#0x10]
        0x00006e0a:    e7f1        ..      B        0x6df0 ; _printf_core + 48
        0x00006e0c:    9818        ..      LDR      r0,[sp,#0x60]
        0x00006e0e:    c802        ..      LDM      r0!,{r1}
        0x00006e10:    9104        ..      STR      r1,[sp,#0x10]
        0x00006e12:    9018        ..      STR      r0,[sp,#0x60]
        0x00006e14:    2900        .)      CMP      r1,#0
        0x00006e16:    da04        ..      BGE      0x6e22 ; _printf_core + 98
        0x00006e18:    2001        .       MOVS     r0,#1
        0x00006e1a:    0340        @.      LSLS     r0,r0,#13
        0x00006e1c:    4304        .C      ORRS     r4,r4,r0
        0x00006e1e:    4248        HB      RSBS     r0,r1,#0
        0x00006e20:    9004        ..      STR      r0,[sp,#0x10]
        0x00006e22:    2002        .       MOVS     r0,#2
        0x00006e24:    4304        .C      ORRS     r4,r4,r0
        0x00006e26:    1c76        v.      ADDS     r6,r6,#1
        0x00006e28:    7830        0x      LDRB     r0,[r6,#0]
        0x00006e2a:    282e        .(      CMP      r0,#0x2e
        0x00006e2c:    d114        ..      BNE      0x6e58 ; _printf_core + 152
        0x00006e2e:    2004        .       MOVS     r0,#4
        0x00006e30:    4304        .C      ORRS     r4,r4,r0
        0x00006e32:    7870        px      LDRB     r0,[r6,#1]
        0x00006e34:    1c76        v.      ADDS     r6,r6,#1
        0x00006e36:    282a        *(      CMP      r0,#0x2a
        0x00006e38:    d109        ..      BNE      0x6e4e ; _printf_core + 142
        0x00006e3a:    9818        ..      LDR      r0,[sp,#0x60]
        0x00006e3c:    1c76        v.      ADDS     r6,r6,#1
        0x00006e3e:    c880        ..      LDM      r0!,{r7}
        0x00006e40:    9018        ..      STR      r0,[sp,#0x60]
        0x00006e42:    e009        ..      B        0x6e58 ; _printf_core + 152
        0x00006e44:    210a        .!      MOVS     r1,#0xa
        0x00006e46:    434f        OC      MULS     r7,r1,r7
        0x00006e48:    3f30        0?      SUBS     r7,r7,#0x30
        0x00006e4a:    19c7        ..      ADDS     r7,r0,r7
        0x00006e4c:    1c76        v.      ADDS     r6,r6,#1
        0x00006e4e:    7830        0x      LDRB     r0,[r6,#0]
        0x00006e50:    4601        .F      MOV      r1,r0
        0x00006e52:    3930        09      SUBS     r1,r1,#0x30
        0x00006e54:    2909        .)      CMP      r1,#9
        0x00006e56:    d9f5        ..      BLS      0x6e44 ; _printf_core + 132
        0x00006e58:    7830        0x      LDRB     r0,[r6,#0]
        0x00006e5a:    286c        l(      CMP      r0,#0x6c
        0x00006e5c:    d010        ..      BEQ      0x6e80 ; _printf_core + 192
        0x00006e5e:    dc06        ..      BGT      0x6e6e ; _printf_core + 174
        0x00006e60:    284c        L(      CMP      r0,#0x4c
        0x00006e62:    d01a        ..      BEQ      0x6e9a ; _printf_core + 218
        0x00006e64:    2868        h(      CMP      r0,#0x68
        0x00006e66:    d00e        ..      BEQ      0x6e86 ; _printf_core + 198
        0x00006e68:    286a        j(      CMP      r0,#0x6a
        0x00006e6a:    d117        ..      BNE      0x6e9c ; _printf_core + 220
        0x00006e6c:    e004        ..      B        0x6e78 ; _printf_core + 184
        0x00006e6e:    2874        t(      CMP      r0,#0x74
        0x00006e70:    d013        ..      BEQ      0x6e9a ; _printf_core + 218
        0x00006e72:    287a        z(      CMP      r0,#0x7a
        0x00006e74:    d112        ..      BNE      0x6e9c ; _printf_core + 220
        0x00006e76:    e010        ..      B        0x6e9a ; _printf_core + 218
        0x00006e78:    2001        .       MOVS     r0,#1
        0x00006e7a:    0540        @.      LSLS     r0,r0,#21
        0x00006e7c:    4304        .C      ORRS     r4,r4,r0
        0x00006e7e:    e00c        ..      B        0x6e9a ; _printf_core + 218
        0x00006e80:    2101        .!      MOVS     r1,#1
        0x00006e82:    0509        ..      LSLS     r1,r1,#20
        0x00006e84:    e001        ..      B        0x6e8a ; _printf_core + 202
        0x00006e86:    2103        .!      MOVS     r1,#3
        0x00006e88:    0509        ..      LSLS     r1,r1,#20
        0x00006e8a:    430c        .C      ORRS     r4,r4,r1
        0x00006e8c:    7871        qx      LDRB     r1,[r6,#1]
        0x00006e8e:    4281        .B      CMP      r1,r0
        0x00006e90:    d103        ..      BNE      0x6e9a ; _printf_core + 218
        0x00006e92:    2001        .       MOVS     r0,#1
        0x00006e94:    0500        ..      LSLS     r0,r0,#20
        0x00006e96:    1824        $.      ADDS     r4,r4,r0
        0x00006e98:    1c76        v.      ADDS     r6,r6,#1
        0x00006e9a:    1c76        v.      ADDS     r6,r6,#1
        0x00006e9c:    7830        0x      LDRB     r0,[r6,#0]
        0x00006e9e:    9011        ..      STR      r0,[sp,#0x44]
        0x00006ea0:    2866        f(      CMP      r0,#0x66
        0x00006ea2:    d00b        ..      BEQ      0x6ebc ; _printf_core + 252
        0x00006ea4:    dc13        ..      BGT      0x6ece ; _printf_core + 270
        0x00006ea6:    2858        X(      CMP      r0,#0x58
        0x00006ea8:    d07d        }.      BEQ      0x6fa6 ; _printf_core + 486
        0x00006eaa:    dc09        ..      BGT      0x6ec0 ; _printf_core + 256
        0x00006eac:    2800        .(      CMP      r0,#0
        0x00006eae:    d07b        {.      BEQ      0x6fa8 ; _printf_core + 488
        0x00006eb0:    2845        E(      CMP      r0,#0x45
        0x00006eb2:    d0f6        ..      BEQ      0x6ea2 ; _printf_core + 226
        0x00006eb4:    2846        F(      CMP      r0,#0x46
        0x00006eb6:    d0f4        ..      BEQ      0x6ea2 ; _printf_core + 226
        0x00006eb8:    2847        G(      CMP      r0,#0x47
        0x00006eba:    d11a        ..      BNE      0x6ef2 ; _printf_core + 306
        0x00006ebc:    e1a5        ..      B        0x720a ; _printf_core + 1098
        0x00006ebe:    e018        ..      B        0x6ef2 ; _printf_core + 306
        0x00006ec0:    2863        c(      CMP      r0,#0x63
        0x00006ec2:    d035        5.      BEQ      0x6f30 ; _printf_core + 368
        0x00006ec4:    2864        d(      CMP      r0,#0x64
        0x00006ec6:    d070        p.      BEQ      0x6faa ; _printf_core + 490
        0x00006ec8:    2865        e(      CMP      r0,#0x65
        0x00006eca:    d112        ..      BNE      0x6ef2 ; _printf_core + 306
        0x00006ecc:    e19d        ..      B        0x720a ; _printf_core + 1098
        0x00006ece:    2870        p(      CMP      r0,#0x70
        0x00006ed0:    d06c        l.      BEQ      0x6fac ; _printf_core + 492
        0x00006ed2:    dc08        ..      BGT      0x6ee6 ; _printf_core + 294
        0x00006ed4:    2867        g(      CMP      r0,#0x67
        0x00006ed6:    d0f1        ..      BEQ      0x6ebc ; _printf_core + 252
        0x00006ed8:    2869        i(      CMP      r0,#0x69
        0x00006eda:    d07b        {.      BEQ      0x6fd4 ; _printf_core + 532
        0x00006edc:    286e        n(      CMP      r0,#0x6e
        0x00006ede:    d00d        ..      BEQ      0x6efc ; _printf_core + 316
        0x00006ee0:    286f        o(      CMP      r0,#0x6f
        0x00006ee2:    d106        ..      BNE      0x6ef2 ; _printf_core + 306
        0x00006ee4:    e0ba        ..      B        0x705c ; _printf_core + 668
        0x00006ee6:    2873        s(      CMP      r0,#0x73
        0x00006ee8:    d02e        ..      BEQ      0x6f48 ; _printf_core + 392
        0x00006eea:    2875        u(      CMP      r0,#0x75
        0x00006eec:    d071        q.      BEQ      0x6fd2 ; _printf_core + 530
        0x00006eee:    2878        x(      CMP      r0,#0x78
        0x00006ef0:    d059        Y.      BEQ      0x6fa6 ; _printf_core + 486
        0x00006ef2:    9a1a        ..      LDR      r2,[sp,#0x68]
        0x00006ef4:    9919        ..      LDR      r1,[sp,#0x64]
        0x00006ef6:    4790        .G      BLX      r2
        0x00006ef8:    1c6d        m.      ADDS     r5,r5,#1
        0x00006efa:    e17e        ~.      B        0x71fa ; _printf_core + 1082
        0x00006efc:    0260        `.      LSLS     r0,r4,#9
        0x00006efe:    0f40        @.      LSRS     r0,r0,#29
        0x00006f00:    2802        .(      CMP      r0,#2
        0x00006f02:    d009        ..      BEQ      0x6f18 ; _printf_core + 344
        0x00006f04:    2803        .(      CMP      r0,#3
        0x00006f06:    d00d        ..      BEQ      0x6f24 ; _printf_core + 356
        0x00006f08:    2804        .(      CMP      r0,#4
        0x00006f0a:    9818        ..      LDR      r0,[sp,#0x60]
        0x00006f0c:    6801        .h      LDR      r1,[r0,#0]
        0x00006f0e:    d00d        ..      BEQ      0x6f2c ; _printf_core + 364
        0x00006f10:    600d        .`      STR      r5,[r1,#0]
        0x00006f12:    1d00        ..      ADDS     r0,r0,#4
        0x00006f14:    9018        ..      STR      r0,[sp,#0x60]
        0x00006f16:    e170        p.      B        0x71fa ; _printf_core + 1082
        0x00006f18:    9818        ..      LDR      r0,[sp,#0x60]
        0x00006f1a:    17ea        ..      ASRS     r2,r5,#31
        0x00006f1c:    6801        .h      LDR      r1,[r0,#0]
        0x00006f1e:    600d        .`      STR      r5,[r1,#0]
        0x00006f20:    604a        J`      STR      r2,[r1,#4]
        0x00006f22:    e7f6        ..      B        0x6f12 ; _printf_core + 338
        0x00006f24:    9818        ..      LDR      r0,[sp,#0x60]
        0x00006f26:    6801        .h      LDR      r1,[r0,#0]
        0x00006f28:    800d        ..      STRH     r5,[r1,#0]
        0x00006f2a:    e7f2        ..      B        0x6f12 ; _printf_core + 338
        0x00006f2c:    700d        .p      STRB     r5,[r1,#0]
        0x00006f2e:    e7f0        ..      B        0x6f12 ; _printf_core + 338
        0x00006f30:    9818        ..      LDR      r0,[sp,#0x60]
        0x00006f32:    466a        jF      MOV      r2,sp
        0x00006f34:    7801        .x      LDRB     r1,[r0,#0]
        0x00006f36:    7211        .r      STRB     r1,[r2,#8]
        0x00006f38:    1d00        ..      ADDS     r0,r0,#4
        0x00006f3a:    9018        ..      STR      r0,[sp,#0x60]
        0x00006f3c:    2000        .       MOVS     r0,#0
        0x00006f3e:    7250        Pr      STRB     r0,[r2,#9]
        0x00006f40:    a802        ..      ADD      r0,sp,#8
        0x00006f42:    9000        ..      STR      r0,[sp,#0]
        0x00006f44:    2001        .       MOVS     r0,#1
        0x00006f46:    e005        ..      B        0x6f54 ; _printf_core + 404
        0x00006f48:    9818        ..      LDR      r0,[sp,#0x60]
        0x00006f4a:    c802        ..      LDM      r0!,{r1}
        0x00006f4c:    9018        ..      STR      r0,[sp,#0x60]
        0x00006f4e:    2000        .       MOVS     r0,#0
        0x00006f50:    9100        ..      STR      r1,[sp,#0]
        0x00006f52:    43c0        .C      MVNS     r0,r0
        0x00006f54:    0761        a.      LSLS     r1,r4,#29
        0x00006f56:    d50d        ..      BPL      0x6f74 ; _printf_core + 436
        0x00006f58:    2100        .!      MOVS     r1,#0
        0x00006f5a:    e001        ..      B        0x6f60 ; _printf_core + 416
        0x00006f5c:    9901        ..      LDR      r1,[sp,#4]
        0x00006f5e:    1c49        I.      ADDS     r1,r1,#1
        0x00006f60:    9101        ..      STR      r1,[sp,#4]
        0x00006f62:    42b9        .B      CMP      r1,r7
        0x00006f64:    da12        ..      BGE      0x6f8c ; _printf_core + 460
        0x00006f66:    4281        .B      CMP      r1,r0
        0x00006f68:    dbf8        ..      BLT      0x6f5c ; _printf_core + 412
        0x00006f6a:    9a00        ..      LDR      r2,[sp,#0]
        0x00006f6c:    5c51        Q\      LDRB     r1,[r2,r1]
        0x00006f6e:    2900        .)      CMP      r1,#0
        0x00006f70:    d1f4        ..      BNE      0x6f5c ; _printf_core + 412
        0x00006f72:    e00b        ..      B        0x6f8c ; _printf_core + 460
        0x00006f74:    2100        .!      MOVS     r1,#0
        0x00006f76:    e001        ..      B        0x6f7c ; _printf_core + 444
        0x00006f78:    9901        ..      LDR      r1,[sp,#4]
        0x00006f7a:    1c49        I.      ADDS     r1,r1,#1
        0x00006f7c:    9101        ..      STR      r1,[sp,#4]
        0x00006f7e:    4281        .B      CMP      r1,r0
        0x00006f80:    dbfa        ..      BLT      0x6f78 ; _printf_core + 440
        0x00006f82:    9a01        ..      LDR      r2,[sp,#4]
        0x00006f84:    9900        ..      LDR      r1,[sp,#0]
        0x00006f86:    5c89        .\      LDRB     r1,[r1,r2]
        0x00006f88:    2900        .)      CMP      r1,#0
        0x00006f8a:    d1f5        ..      BNE      0x6f78 ; _printf_core + 440
        0x00006f8c:    9901        ..      LDR      r1,[sp,#4]
        0x00006f8e:    9804        ..      LDR      r0,[sp,#0x10]
        0x00006f90:    9b1a        ..      LDR      r3,[sp,#0x68]
        0x00006f92:    1a47        G.      SUBS     r7,r0,r1
        0x00006f94:    4621        !F      MOV      r1,r4
        0x00006f96:    4638        8F      MOV      r0,r7
        0x00006f98:    9a19        ..      LDR      r2,[sp,#0x64]
        0x00006f9a:    f000fa97    ....    BL       _printf_pre_padding ; 0x74cc
        0x00006f9e:    9901        ..      LDR      r1,[sp,#4]
        0x00006fa0:    1940        @.      ADDS     r0,r0,r5
        0x00006fa2:    1845        E.      ADDS     r5,r0,r1
        0x00006fa4:    e00b        ..      B        0x6fbe ; _printf_core + 510
        0x00006fa6:    e04f        O.      B        0x7048 ; _printf_core + 648
        0x00006fa8:    e12c        ,.      B        0x7204 ; _printf_core + 1092
        0x00006faa:    e013        ..      B        0x6fd4 ; _printf_core + 532
        0x00006fac:    e04e        N.      B        0x704c ; _printf_core + 652
        0x00006fae:    9800        ..      LDR      r0,[sp,#0]
        0x00006fb0:    9900        ..      LDR      r1,[sp,#0]
        0x00006fb2:    7800        .x      LDRB     r0,[r0,#0]
        0x00006fb4:    1c49        I.      ADDS     r1,r1,#1
        0x00006fb6:    9100        ..      STR      r1,[sp,#0]
        0x00006fb8:    9a1a        ..      LDR      r2,[sp,#0x68]
        0x00006fba:    9919        ..      LDR      r1,[sp,#0x64]
        0x00006fbc:    4790        .G      BLX      r2
        0x00006fbe:    9801        ..      LDR      r0,[sp,#4]
        0x00006fc0:    1e40        @.      SUBS     r0,r0,#1
        0x00006fc2:    9001        ..      STR      r0,[sp,#4]
        0x00006fc4:    1c40        @.      ADDS     r0,r0,#1
        0x00006fc6:    d1f2        ..      BNE      0x6fae ; _printf_core + 494
        0x00006fc8:    4621        !F      MOV      r1,r4
        0x00006fca:    4638        8F      MOV      r0,r7
        0x00006fcc:    9b1a        ..      LDR      r3,[sp,#0x68]
        0x00006fce:    9a19        ..      LDR      r2,[sp,#0x64]
        0x00006fd0:    e110        ..      B        0x71f4 ; _printf_core + 1076
        0x00006fd2:    e037        7.      B        0x7044 ; _printf_core + 644
        0x00006fd4:    200a        .       MOVS     r0,#0xa
        0x00006fd6:    2100        .!      MOVS     r1,#0
        0x00006fd8:    9000        ..      STR      r0,[sp,#0]
        0x00006fda:    9101        ..      STR      r1,[sp,#4]
        0x00006fdc:    0260        `.      LSLS     r0,r4,#9
        0x00006fde:    0f41        A.      LSRS     r1,r0,#29
        0x00006fe0:    2902        .)      CMP      r1,#2
        0x00006fe2:    d007        ..      BEQ      0x6ff4 ; _printf_core + 564
        0x00006fe4:    9a18        ..      LDR      r2,[sp,#0x60]
        0x00006fe6:    ca01        ..      LDM      r2!,{r0}
        0x00006fe8:    9218        ..      STR      r2,[sp,#0x60]
        0x00006fea:    17c2        ..      ASRS     r2,r0,#31
        0x00006fec:    4694        .F      MOV      r12,r2
        0x00006fee:    2903        .)      CMP      r1,#3
        0x00006ff0:    d008        ..      BEQ      0x7004 ; _printf_core + 580
        0x00006ff2:    e00a        ..      B        0x700a ; _printf_core + 586
        0x00006ff4:    9818        ..      LDR      r0,[sp,#0x60]
        0x00006ff6:    1dc0        ..      ADDS     r0,r0,#7
        0x00006ff8:    08c1        ..      LSRS     r1,r0,#3
        0x00006ffa:    00c9        ..      LSLS     r1,r1,#3
        0x00006ffc:    c905        ..      LDM      r1!,{r0,r2}
        0x00006ffe:    9118        ..      STR      r1,[sp,#0x60]
        0x00007000:    4694        .F      MOV      r12,r2
        0x00007002:    e007        ..      B        0x7014 ; _printf_core + 596
        0x00007004:    b200        ..      SXTH     r0,r0
        0x00007006:    17c2        ..      ASRS     r2,r0,#31
        0x00007008:    4694        .F      MOV      r12,r2
        0x0000700a:    2904        .)      CMP      r1,#4
        0x0000700c:    d102        ..      BNE      0x7014 ; _printf_core + 596
        0x0000700e:    b240        @.      SXTB     r0,r0
        0x00007010:    17c1        ..      ASRS     r1,r0,#31
        0x00007012:    468c        .F      MOV      r12,r1
        0x00007014:    2200        ."      MOVS     r2,#0
        0x00007016:    4661        aF      MOV      r1,r12
        0x00007018:    4594        .E      CMP      r12,r2
        0x0000701a:    da06        ..      BGE      0x702a ; _printf_core + 618
        0x0000701c:    460a        .F      MOV      r2,r1
        0x0000701e:    2100        .!      MOVS     r1,#0
        0x00007020:    4240        @B      RSBS     r0,r0,#0
        0x00007022:    4191        .A      SBCS     r1,r1,r2
        0x00007024:    468c        .F      MOV      r12,r1
        0x00007026:    212d        -!      MOVS     r1,#0x2d
        0x00007028:    e002        ..      B        0x7030 ; _printf_core + 624
        0x0000702a:    0521        !.      LSLS     r1,r4,#20
        0x0000702c:    d504        ..      BPL      0x7038 ; _printf_core + 632
        0x0000702e:    212b        +!      MOVS     r1,#0x2b
        0x00007030:    466a        jF      MOV      r2,sp
        0x00007032:    7311        .s      STRB     r1,[r2,#0xc]
        0x00007034:    2101        .!      MOVS     r1,#1
        0x00007036:    e003        ..      B        0x7040 ; _printf_core + 640
        0x00007038:    07e1        ..      LSLS     r1,r4,#31
        0x0000703a:    d001        ..      BEQ      0x7040 ; _printf_core + 640
        0x0000703c:    2120         !      MOVS     r1,#0x20
        0x0000703e:    e7f7        ..      B        0x7030 ; _printf_core + 624
        0x00007040:    9102        ..      STR      r1,[sp,#8]
        0x00007042:    e055        U.      B        0x70f0 ; _printf_core + 816
        0x00007044:    200a        .       MOVS     r0,#0xa
        0x00007046:    e00a        ..      B        0x705e ; _printf_core + 670
        0x00007048:    2010        .       MOVS     r0,#0x10
        0x0000704a:    e008        ..      B        0x705e ; _printf_core + 670
        0x0000704c:    2010        .       MOVS     r0,#0x10
        0x0000704e:    9000        ..      STR      r0,[sp,#0]
        0x00007050:    2100        .!      MOVS     r1,#0
        0x00007052:    2004        .       MOVS     r0,#4
        0x00007054:    4304        .C      ORRS     r4,r4,r0
        0x00007056:    9101        ..      STR      r1,[sp,#4]
        0x00007058:    2708        .'      MOVS     r7,#8
        0x0000705a:    e003        ..      B        0x7064 ; _printf_core + 676
        0x0000705c:    2008        .       MOVS     r0,#8
        0x0000705e:    2100        .!      MOVS     r1,#0
        0x00007060:    9101        ..      STR      r1,[sp,#4]
        0x00007062:    9000        ..      STR      r0,[sp,#0]
        0x00007064:    0260        `.      LSLS     r0,r4,#9
        0x00007066:    0f41        A.      LSRS     r1,r0,#29
        0x00007068:    2902        .)      CMP      r1,#2
        0x0000706a:    d007        ..      BEQ      0x707c ; _printf_core + 700
        0x0000706c:    9a18        ..      LDR      r2,[sp,#0x60]
        0x0000706e:    ca01        ..      LDM      r2!,{r0}
        0x00007070:    9218        ..      STR      r2,[sp,#0x60]
        0x00007072:    2200        ."      MOVS     r2,#0
        0x00007074:    4694        .F      MOV      r12,r2
        0x00007076:    2903        .)      CMP      r1,#3
        0x00007078:    d008        ..      BEQ      0x708c ; _printf_core + 716
        0x0000707a:    e008        ..      B        0x708e ; _printf_core + 718
        0x0000707c:    9818        ..      LDR      r0,[sp,#0x60]
        0x0000707e:    1dc0        ..      ADDS     r0,r0,#7
        0x00007080:    08c1        ..      LSRS     r1,r0,#3
        0x00007082:    00c9        ..      LSLS     r1,r1,#3
        0x00007084:    c905        ..      LDM      r1!,{r0,r2}
        0x00007086:    9118        ..      STR      r1,[sp,#0x60]
        0x00007088:    4694        .F      MOV      r12,r2
        0x0000708a:    e003        ..      B        0x7094 ; _printf_core + 724
        0x0000708c:    b280        ..      UXTH     r0,r0
        0x0000708e:    2904        .)      CMP      r1,#4
        0x00007090:    d100        ..      BNE      0x7094 ; _printf_core + 724
        0x00007092:    b2c0        ..      UXTB     r0,r0
        0x00007094:    2100        .!      MOVS     r1,#0
        0x00007096:    9102        ..      STR      r1,[sp,#8]
        0x00007098:    0721        !.      LSLS     r1,r4,#28
        0x0000709a:    d529        ).      BPL      0x70f0 ; _printf_core + 816
        0x0000709c:    9911        ..      LDR      r1,[sp,#0x44]
        0x0000709e:    2970        p)      CMP      r1,#0x70
        0x000070a0:    d006        ..      BEQ      0x70b0 ; _printf_core + 752
        0x000070a2:    9a00        ..      LDR      r2,[sp,#0]
        0x000070a4:    2110        .!      MOVS     r1,#0x10
        0x000070a6:    9b01        ..      LDR      r3,[sp,#4]
        0x000070a8:    404a        J@      EORS     r2,r2,r1
        0x000070aa:    431a        .C      ORRS     r2,r2,r3
        0x000070ac:    d005        ..      BEQ      0x70ba ; _printf_core + 762
        0x000070ae:    e00e        ..      B        0x70ce ; _printf_core + 782
        0x000070b0:    2140        @!      MOVS     r1,#0x40
        0x000070b2:    466a        jF      MOV      r2,sp
        0x000070b4:    7311        .s      STRB     r1,[r2,#0xc]
        0x000070b6:    2101        .!      MOVS     r1,#1
        0x000070b8:    e008        ..      B        0x70cc ; _printf_core + 780
        0x000070ba:    4661        aF      MOV      r1,r12
        0x000070bc:    4301        .C      ORRS     r1,r1,r0
        0x000070be:    d006        ..      BEQ      0x70ce ; _printf_core + 782
        0x000070c0:    2130        0!      MOVS     r1,#0x30
        0x000070c2:    466a        jF      MOV      r2,sp
        0x000070c4:    7311        .s      STRB     r1,[r2,#0xc]
        0x000070c6:    9911        ..      LDR      r1,[sp,#0x44]
        0x000070c8:    7351        Qs      STRB     r1,[r2,#0xd]
        0x000070ca:    2102        .!      MOVS     r1,#2
        0x000070cc:    9102        ..      STR      r1,[sp,#8]
        0x000070ce:    9a00        ..      LDR      r2,[sp,#0]
        0x000070d0:    2108        .!      MOVS     r1,#8
        0x000070d2:    9b01        ..      LDR      r3,[sp,#4]
        0x000070d4:    404a        J@      EORS     r2,r2,r1
        0x000070d6:    431a        .C      ORRS     r2,r2,r3
        0x000070d8:    d10a        ..      BNE      0x70f0 ; _printf_core + 816
        0x000070da:    4661        aF      MOV      r1,r12
        0x000070dc:    4301        .C      ORRS     r1,r1,r0
        0x000070de:    d101        ..      BNE      0x70e4 ; _printf_core + 804
        0x000070e0:    0761        a.      LSLS     r1,r4,#29
        0x000070e2:    d505        ..      BPL      0x70f0 ; _printf_core + 816
        0x000070e4:    2130        0!      MOVS     r1,#0x30
        0x000070e6:    466a        jF      MOV      r2,sp
        0x000070e8:    7311        .s      STRB     r1,[r2,#0xc]
        0x000070ea:    2101        .!      MOVS     r1,#1
        0x000070ec:    1e7f        ..      SUBS     r7,r7,#1
        0x000070ee:    9102        ..      STR      r1,[sp,#8]
        0x000070f0:    9911        ..      LDR      r1,[sp,#0x44]
        0x000070f2:    2958        X)      CMP      r1,#0x58
        0x000070f4:    d004        ..      BEQ      0x7100 ; _printf_core + 832
        0x000070f6:    a135        5.      ADR      r1,{pc}+0xd6 ; 0x71cc
        0x000070f8:    910e        ..      STR      r1,[sp,#0x38]
        0x000070fa:    a90d        ..      ADD      r1,sp,#0x34
        0x000070fc:    910d        ..      STR      r1,[sp,#0x34]
        0x000070fe:    e00d        ..      B        0x711c ; _printf_core + 860
        0x00007100:    a137        7.      ADR      r1,{pc}+0xe0 ; 0x71e0
        0x00007102:    e7f9        ..      B        0x70f8 ; _printf_core + 824
        0x00007104:    4661        aF      MOV      r1,r12
        0x00007106:    9b01        ..      LDR      r3,[sp,#4]
        0x00007108:    9a00        ..      LDR      r2,[sp,#0]
        0x0000710a:    f7f9fa81    ....    BL       __aeabi_uldivmod ; 0x610
        0x0000710e:    9b0e        ..      LDR      r3,[sp,#0x38]
        0x00007110:    468c        .F      MOV      r12,r1
        0x00007112:    5c9b        .\      LDRB     r3,[r3,r2]
        0x00007114:    9a0d        ..      LDR      r2,[sp,#0x34]
        0x00007116:    1e52        R.      SUBS     r2,r2,#1
        0x00007118:    920d        ..      STR      r2,[sp,#0x34]
        0x0000711a:    7013        .p      STRB     r3,[r2,#0]
        0x0000711c:    4661        aF      MOV      r1,r12
        0x0000711e:    4301        .C      ORRS     r1,r1,r0
        0x00007120:    d1f0        ..      BNE      0x7104 ; _printf_core + 836
        0x00007122:    980d        ..      LDR      r0,[sp,#0x34]
        0x00007124:    a905        ..      ADD      r1,sp,#0x14
        0x00007126:    1a08        ..      SUBS     r0,r1,r0
        0x00007128:    3020         0      ADDS     r0,r0,#0x20
        0x0000712a:    9001        ..      STR      r0,[sp,#4]
        0x0000712c:    0760        `.      LSLS     r0,r4,#29
        0x0000712e:    d503        ..      BPL      0x7138 ; _printf_core + 888
        0x00007130:    2001        .       MOVS     r0,#1
        0x00007132:    0400        ..      LSLS     r0,r0,#16
        0x00007134:    4384        .C      BICS     r4,r4,r0
        0x00007136:    e000        ..      B        0x713a ; _printf_core + 890
        0x00007138:    2701        .'      MOVS     r7,#1
        0x0000713a:    9801        ..      LDR      r0,[sp,#4]
        0x0000713c:    4287        .B      CMP      r7,r0
        0x0000713e:    dd01        ..      BLE      0x7144 ; _printf_core + 900
        0x00007140:    1a38        8.      SUBS     r0,r7,r0
        0x00007142:    e000        ..      B        0x7146 ; _printf_core + 902
        0x00007144:    2000        .       MOVS     r0,#0
        0x00007146:    9901        ..      LDR      r1,[sp,#4]
        0x00007148:    9000        ..      STR      r0,[sp,#0]
        0x0000714a:    1841        A.      ADDS     r1,r0,r1
        0x0000714c:    9802        ..      LDR      r0,[sp,#8]
        0x0000714e:    1809        ..      ADDS     r1,r1,r0
        0x00007150:    9804        ..      LDR      r0,[sp,#0x10]
        0x00007152:    1a40        @.      SUBS     r0,r0,r1
        0x00007154:    9004        ..      STR      r0,[sp,#0x10]
        0x00007156:    03e0        ..      LSLS     r0,r4,#15
        0x00007158:    d406        ..      BMI      0x7168 ; _printf_core + 936
        0x0000715a:    4621        !F      MOV      r1,r4
        0x0000715c:    9b1a        ..      LDR      r3,[sp,#0x68]
        0x0000715e:    9a19        ..      LDR      r2,[sp,#0x64]
        0x00007160:    9804        ..      LDR      r0,[sp,#0x10]
        0x00007162:    f000f9b3    ....    BL       _printf_pre_padding ; 0x74cc
        0x00007166:    1945        E.      ADDS     r5,r0,r5
        0x00007168:    2700        .'      MOVS     r7,#0
        0x0000716a:    e006        ..      B        0x717a ; _printf_core + 954
        0x0000716c:    a803        ..      ADD      r0,sp,#0xc
        0x0000716e:    9a1a        ..      LDR      r2,[sp,#0x68]
        0x00007170:    5dc0        .]      LDRB     r0,[r0,r7]
        0x00007172:    9919        ..      LDR      r1,[sp,#0x64]
        0x00007174:    4790        .G      BLX      r2
        0x00007176:    1c6d        m.      ADDS     r5,r5,#1
        0x00007178:    1c7f        ..      ADDS     r7,r7,#1
        0x0000717a:    9802        ..      LDR      r0,[sp,#8]
        0x0000717c:    4287        .B      CMP      r7,r0
        0x0000717e:    dbf5        ..      BLT      0x716c ; _printf_core + 940
        0x00007180:    03e0        ..      LSLS     r0,r4,#15
        0x00007182:    d50c        ..      BPL      0x719e ; _printf_core + 990
        0x00007184:    4621        !F      MOV      r1,r4
        0x00007186:    9b1a        ..      LDR      r3,[sp,#0x68]
        0x00007188:    9a19        ..      LDR      r2,[sp,#0x64]
        0x0000718a:    9804        ..      LDR      r0,[sp,#0x10]
        0x0000718c:    f000f99e    ....    BL       _printf_pre_padding ; 0x74cc
        0x00007190:    1945        E.      ADDS     r5,r0,r5
        0x00007192:    e004        ..      B        0x719e ; _printf_core + 990
        0x00007194:    9a1a        ..      LDR      r2,[sp,#0x68]
        0x00007196:    2030        0       MOVS     r0,#0x30
        0x00007198:    9919        ..      LDR      r1,[sp,#0x64]
        0x0000719a:    4790        .G      BLX      r2
        0x0000719c:    1c6d        m.      ADDS     r5,r5,#1
        0x0000719e:    9900        ..      LDR      r1,[sp,#0]
        0x000071a0:    1e48        H.      SUBS     r0,r1,#1
        0x000071a2:    9000        ..      STR      r0,[sp,#0]
        0x000071a4:    2900        .)      CMP      r1,#0
        0x000071a6:    dcf5        ..      BGT      0x7194 ; _printf_core + 980
        0x000071a8:    e008        ..      B        0x71bc ; _printf_core + 1020
        0x000071aa:    980d        ..      LDR      r0,[sp,#0x34]
        0x000071ac:    990d        ..      LDR      r1,[sp,#0x34]
        0x000071ae:    7800        .x      LDRB     r0,[r0,#0]
        0x000071b0:    1c49        I.      ADDS     r1,r1,#1
        0x000071b2:    910d        ..      STR      r1,[sp,#0x34]
        0x000071b4:    9a1a        ..      LDR      r2,[sp,#0x68]
        0x000071b6:    9919        ..      LDR      r1,[sp,#0x64]
        0x000071b8:    4790        .G      BLX      r2
        0x000071ba:    1c6d        m.      ADDS     r5,r5,#1
        0x000071bc:    9901        ..      LDR      r1,[sp,#4]
        0x000071be:    1e48        H.      SUBS     r0,r1,#1
        0x000071c0:    9001        ..      STR      r0,[sp,#4]
        0x000071c2:    2900        .)      CMP      r1,#0
        0x000071c4:    dcf1        ..      BGT      0x71aa ; _printf_core + 1002
        0x000071c6:    e163        c.      B        0x7490 ; _printf_core + 1744
    $d
        0x000071c8:    00012809    .(..    DCD    75785
        0x000071cc:    33323130    0123    DCD    858927408
        0x000071d0:    37363534    4567    DCD    926299444
        0x000071d4:    62613938    89ab    DCD    1650538808
        0x000071d8:    66656463    cdef    DCD    1717920867
        0x000071dc:    00000000    ....    DCD    0
        0x000071e0:    33323130    0123    DCD    858927408
        0x000071e4:    37363534    4567    DCD    926299444
        0x000071e8:    42413938    89AB    DCD    1111570744
        0x000071ec:    46454443    CDEF    DCD    1178944579
        0x000071f0:    00000000    ....    DCD    0
    $t
        0x000071f4:    f000f95a    ..Z.    BL       _printf_post_padding ; 0x74ac
        0x000071f8:    1945        E.      ADDS     r5,r0,r5
        0x000071fa:    1c76        v.      ADDS     r6,r6,#1
        0x000071fc:    7830        0x      LDRB     r0,[r6,#0]
        0x000071fe:    2800        .(      CMP      r0,#0
        0x00007200:    d000        ..      BEQ      0x7204 ; _printf_core + 1092
        0x00007202:    e5e2        ..      B        0x6dca ; _printf_core + 10
        0x00007204:    4628        (F      MOV      r0,r5
        0x00007206:    b01b        ..      ADD      sp,sp,#0x6c
        0x00007208:    bdf0        ..      POP      {r4-r7,pc}
        0x0000720a:    0760        `.      LSLS     r0,r4,#29
        0x0000720c:    d400        ..      BMI      0x7210 ; _printf_core + 1104
        0x0000720e:    2706        .'      MOVS     r7,#6
        0x00007210:    9818        ..      LDR      r0,[sp,#0x60]
        0x00007212:    1dc0        ..      ADDS     r0,r0,#7
        0x00007214:    08c1        ..      LSRS     r1,r0,#3
        0x00007216:    00c9        ..      LSLS     r1,r1,#3
        0x00007218:    6848        Hh      LDR      r0,[r1,#4]
        0x0000721a:    680a        .h      LDR      r2,[r1,#0]
        0x0000721c:    3108        .1      ADDS     r1,r1,#8
        0x0000721e:    0fc3        ..      LSRS     r3,r0,#31
        0x00007220:    07db        ..      LSLS     r3,r3,#31
        0x00007222:    9118        ..      STR      r1,[sp,#0x60]
        0x00007224:    0019        ..      MOVS     r1,r3
        0x00007226:    d001        ..      BEQ      0x722c ; _printf_core + 1132
        0x00007228:    a19c        ..      ADR      r1,{pc}+0x274 ; 0x749c
        0x0000722a:    e008        ..      B        0x723e ; _printf_core + 1150
        0x0000722c:    0521        !.      LSLS     r1,r4,#20
        0x0000722e:    d501        ..      BPL      0x7234 ; _printf_core + 1140
        0x00007230:    a19b        ..      ADR      r1,{pc}+0x270 ; 0x74a0
        0x00007232:    e004        ..      B        0x723e ; _printf_core + 1150
        0x00007234:    07e1        ..      LSLS     r1,r4,#31
        0x00007236:    d001        ..      BEQ      0x723c ; _printf_core + 1148
        0x00007238:    a19a        ..      ADR      r1,{pc}+0x26c ; 0x74a4
        0x0000723a:    e000        ..      B        0x723e ; _printf_core + 1150
        0x0000723c:    a19a        ..      ADR      r1,{pc}+0x26c ; 0x74a8
        0x0000723e:    0043        C.      LSLS     r3,r0,#1
        0x00007240:    9811        ..      LDR      r0,[sp,#0x44]
        0x00007242:    085b        [.      LSRS     r3,r3,#1
        0x00007244:    9110        ..      STR      r1,[sp,#0x40]
        0x00007246:    2865        e(      CMP      r0,#0x65
        0x00007248:    d00c        ..      BEQ      0x7264 ; _printf_core + 1188
        0x0000724a:    dc06        ..      BGT      0x725a ; _printf_core + 1178
        0x0000724c:    2845        E(      CMP      r0,#0x45
        0x0000724e:    d009        ..      BEQ      0x7264 ; _printf_core + 1188
        0x00007250:    2846        F(      CMP      r0,#0x46
        0x00007252:    d01d        ..      BEQ      0x7290 ; _printf_core + 1232
        0x00007254:    2847        G(      CMP      r0,#0x47
        0x00007256:    d141        A.      BNE      0x72dc ; _printf_core + 1308
        0x00007258:    e041        A.      B        0x72de ; _printf_core + 1310
        0x0000725a:    2866        f(      CMP      r0,#0x66
        0x0000725c:    d018        ..      BEQ      0x7290 ; _printf_core + 1232
        0x0000725e:    2867        g(      CMP      r0,#0x67
        0x00007260:    d13c        <.      BNE      0x72dc ; _printf_core + 1308
        0x00007262:    e03c        <.      B        0x72de ; _printf_core + 1310
        0x00007264:    2100        .!      MOVS     r1,#0
        0x00007266:    2f11        ./      CMP      r7,#0x11
        0x00007268:    db01        ..      BLT      0x726e ; _printf_core + 1198
        0x0000726a:    2011        .       MOVS     r0,#0x11
        0x0000726c:    e000        ..      B        0x7270 ; _printf_core + 1200
        0x0000726e:    1c78        x.      ADDS     r0,r7,#1
        0x00007270:    9101        ..      STR      r1,[sp,#4]
        0x00007272:    9000        ..      STR      r0,[sp,#0]
        0x00007274:    a908        ..      ADD      r1,sp,#0x20
        0x00007276:    a811        ..      ADD      r0,sp,#0x44
        0x00007278:    f7fffce0    ....    BL       _fp_digits ; 0x6c3c
        0x0000727c:    9913        ..      LDR      r1,[sp,#0x4c]
        0x0000727e:    9105        ..      STR      r1,[sp,#0x14]
        0x00007280:    2100        .!      MOVS     r1,#0
        0x00007282:    9a11        ..      LDR      r2,[sp,#0x44]
        0x00007284:    9215        ..      STR      r2,[sp,#0x54]
        0x00007286:    1c7f        ..      ADDS     r7,r7,#1
        0x00007288:    9812        ..      LDR      r0,[sp,#0x48]
        0x0000728a:    9701        ..      STR      r7,[sp,#4]
        0x0000728c:    9100        ..      STR      r1,[sp,#0]
        0x0000728e:    e050        P.      B        0x7332 ; _printf_core + 1394
        0x00007290:    2001        .       MOVS     r0,#1
        0x00007292:    07c0        ..      LSLS     r0,r0,#31
        0x00007294:    9003        ..      STR      r0,[sp,#0xc]
        0x00007296:    2001        .       MOVS     r0,#1
        0x00007298:    9001        ..      STR      r0,[sp,#4]
        0x0000729a:    a908        ..      ADD      r1,sp,#0x20
        0x0000729c:    9700        ..      STR      r7,[sp,#0]
        0x0000729e:    a811        ..      ADD      r0,sp,#0x44
        0x000072a0:    f7fffccc    ....    BL       _fp_digits ; 0x6c3c
        0x000072a4:    9a13        ..      LDR      r2,[sp,#0x4c]
        0x000072a6:    9914        ..      LDR      r1,[sp,#0x50]
        0x000072a8:    9205        ..      STR      r2,[sp,#0x14]
        0x000072aa:    2200        ."      MOVS     r2,#0
        0x000072ac:    9b11        ..      LDR      r3,[sp,#0x44]
        0x000072ae:    9200        ..      STR      r2,[sp,#0]
        0x000072b0:    9812        ..      LDR      r0,[sp,#0x48]
        0x000072b2:    9315        ..      STR      r3,[sp,#0x54]
        0x000072b4:    9a05        ..      LDR      r2,[sp,#0x14]
        0x000072b6:    9201        ..      STR      r2,[sp,#4]
        0x000072b8:    2900        .)      CMP      r1,#0
        0x000072ba:    d001        ..      BEQ      0x72c0 ; _printf_core + 1280
        0x000072bc:    4610        .F      MOV      r0,r2
        0x000072be:    e002        ..      B        0x72c6 ; _printf_core + 1286
        0x000072c0:    1c79        y.      ADDS     r1,r7,#1
        0x000072c2:    1840        @.      ADDS     r0,r0,r1
        0x000072c4:    9001        ..      STR      r0,[sp,#4]
        0x000072c6:    1a38        8.      SUBS     r0,r7,r0
        0x000072c8:    d501        ..      BPL      0x72ce ; _printf_core + 1294
        0x000072ca:    9801        ..      LDR      r0,[sp,#4]
        0x000072cc:    e004        ..      B        0x72d8 ; _printf_core + 1304
        0x000072ce:    4240        @B      RSBS     r0,r0,#0
        0x000072d0:    1e40        @.      SUBS     r0,r0,#1
        0x000072d2:    9000        ..      STR      r0,[sp,#0]
        0x000072d4:    1c78        x.      ADDS     r0,r7,#1
        0x000072d6:    9001        ..      STR      r0,[sp,#4]
        0x000072d8:    1bc0        ..      SUBS     r0,r0,r7
        0x000072da:    9002        ..      STR      r0,[sp,#8]
        0x000072dc:    e043        C.      B        0x7366 ; _printf_core + 1446
        0x000072de:    2f01        ./      CMP      r7,#1
        0x000072e0:    da00        ..      BGE      0x72e4 ; _printf_core + 1316
        0x000072e2:    2701        .'      MOVS     r7,#1
        0x000072e4:    2100        .!      MOVS     r1,#0
        0x000072e6:    2f11        ./      CMP      r7,#0x11
        0x000072e8:    dd01        ..      BLE      0x72ee ; _printf_core + 1326
        0x000072ea:    2011        .       MOVS     r0,#0x11
        0x000072ec:    e000        ..      B        0x72f0 ; _printf_core + 1328
        0x000072ee:    4638        8F      MOV      r0,r7
        0x000072f0:    9101        ..      STR      r1,[sp,#4]
        0x000072f2:    9000        ..      STR      r0,[sp,#0]
        0x000072f4:    a908        ..      ADD      r1,sp,#0x20
        0x000072f6:    a811        ..      ADD      r0,sp,#0x44
        0x000072f8:    f7fffca0    ....    BL       _fp_digits ; 0x6c3c
        0x000072fc:    9913        ..      LDR      r1,[sp,#0x4c]
        0x000072fe:    9105        ..      STR      r1,[sp,#0x14]
        0x00007300:    9a11        ..      LDR      r2,[sp,#0x44]
        0x00007302:    2100        .!      MOVS     r1,#0
        0x00007304:    9812        ..      LDR      r0,[sp,#0x48]
        0x00007306:    9215        ..      STR      r2,[sp,#0x54]
        0x00007308:    9100        ..      STR      r1,[sp,#0]
        0x0000730a:    9701        ..      STR      r7,[sp,#4]
        0x0000730c:    0721        !.      LSLS     r1,r4,#28
        0x0000730e:    d40c        ..      BMI      0x732a ; _printf_core + 1386
        0x00007310:    9905        ..      LDR      r1,[sp,#0x14]
        0x00007312:    42b9        .B      CMP      r1,r7
        0x00007314:    db01        ..      BLT      0x731a ; _printf_core + 1370
        0x00007316:    9901        ..      LDR      r1,[sp,#4]
        0x00007318:    e000        ..      B        0x731c ; _printf_core + 1372
        0x0000731a:    9101        ..      STR      r1,[sp,#4]
        0x0000731c:    2901        .)      CMP      r1,#1
        0x0000731e:    dd04        ..      BLE      0x732a ; _printf_core + 1386
        0x00007320:    9a15        ..      LDR      r2,[sp,#0x54]
        0x00007322:    1e49        I.      SUBS     r1,r1,#1
        0x00007324:    5c51        Q\      LDRB     r1,[r2,r1]
        0x00007326:    2930        0)      CMP      r1,#0x30
        0x00007328:    d006        ..      BEQ      0x7338 ; _printf_core + 1400
        0x0000732a:    42b8        .B      CMP      r0,r7
        0x0000732c:    da01        ..      BGE      0x7332 ; _printf_core + 1394
        0x0000732e:    1d01        ..      ADDS     r1,r0,#4
        0x00007330:    da05        ..      BGE      0x733e ; _printf_core + 1406
        0x00007332:    2101        .!      MOVS     r1,#1
        0x00007334:    9102        ..      STR      r1,[sp,#8]
        0x00007336:    e015        ..      B        0x7364 ; _printf_core + 1444
        0x00007338:    9901        ..      LDR      r1,[sp,#4]
        0x0000733a:    1e49        I.      SUBS     r1,r1,#1
        0x0000733c:    e7ed        ..      B        0x731a ; _printf_core + 1370
        0x0000733e:    2800        .(      CMP      r0,#0
        0x00007340:    dc05        ..      BGT      0x734e ; _printf_core + 1422
        0x00007342:    9900        ..      LDR      r1,[sp,#0]
        0x00007344:    1841        A.      ADDS     r1,r0,r1
        0x00007346:    9100        ..      STR      r1,[sp,#0]
        0x00007348:    9901        ..      LDR      r1,[sp,#4]
        0x0000734a:    1a09        ..      SUBS     r1,r1,r0
        0x0000734c:    e003        ..      B        0x7356 ; _printf_core + 1430
        0x0000734e:    9a01        ..      LDR      r2,[sp,#4]
        0x00007350:    1c41        A.      ADDS     r1,r0,#1
        0x00007352:    4291        .B      CMP      r1,r2
        0x00007354:    dd00        ..      BLE      0x7358 ; _printf_core + 1432
        0x00007356:    9101        ..      STR      r1,[sp,#4]
        0x00007358:    9900        ..      LDR      r1,[sp,#0]
        0x0000735a:    1a40        @.      SUBS     r0,r0,r1
        0x0000735c:    1c40        @.      ADDS     r0,r0,#1
        0x0000735e:    9002        ..      STR      r0,[sp,#8]
        0x00007360:    2001        .       MOVS     r0,#1
        0x00007362:    07c0        ..      LSLS     r0,r0,#31
        0x00007364:    9003        ..      STR      r0,[sp,#0xc]
        0x00007366:    0720         .      LSLS     r0,r4,#28
        0x00007368:    d406        ..      BMI      0x7378 ; _printf_core + 1464
        0x0000736a:    9902        ..      LDR      r1,[sp,#8]
        0x0000736c:    9801        ..      LDR      r0,[sp,#4]
        0x0000736e:    4281        .B      CMP      r1,r0
        0x00007370:    db02        ..      BLT      0x7378 ; _printf_core + 1464
        0x00007372:    2000        .       MOVS     r0,#0
        0x00007374:    43c0        .C      MVNS     r0,r0
        0x00007376:    9002        ..      STR      r0,[sp,#8]
        0x00007378:    2000        .       MOVS     r0,#0
        0x0000737a:    4669        iF      MOV      r1,sp
        0x0000737c:    77c8        .w      STRB     r0,[r1,#0x1f]
        0x0000737e:    af07        ..      ADD      r7,sp,#0x1c
        0x00007380:    2101        .!      MOVS     r1,#1
        0x00007382:    9803        ..      LDR      r0,[sp,#0xc]
        0x00007384:    3703        .7      ADDS     r7,#3
        0x00007386:    07c9        ..      LSLS     r1,r1,#31
        0x00007388:    4288        .B      CMP      r0,r1
        0x0000738a:    d024        $.      BEQ      0x73d6 ; _printf_core + 1558
        0x0000738c:    2002        .       MOVS     r0,#2
        0x0000738e:    9011        ..      STR      r0,[sp,#0x44]
        0x00007390:    202b        +       MOVS     r0,#0x2b
        0x00007392:    9012        ..      STR      r0,[sp,#0x48]
        0x00007394:    9803        ..      LDR      r0,[sp,#0xc]
        0x00007396:    2800        .(      CMP      r0,#0
        0x00007398:    da0c        ..      BGE      0x73b4 ; _printf_core + 1524
        0x0000739a:    4240        @B      RSBS     r0,r0,#0
        0x0000739c:    9003        ..      STR      r0,[sp,#0xc]
        0x0000739e:    202d        -       MOVS     r0,#0x2d
        0x000073a0:    9012        ..      STR      r0,[sp,#0x48]
        0x000073a2:    e007        ..      B        0x73b4 ; _printf_core + 1524
        0x000073a4:    210a        .!      MOVS     r1,#0xa
        0x000073a6:    9803        ..      LDR      r0,[sp,#0xc]
        0x000073a8:    f7f9fbee    ....    BL       __aeabi_uidiv$div0 ; 0xb88
        0x000073ac:    3130        01      ADDS     r1,r1,#0x30
        0x000073ae:    1e7f        ..      SUBS     r7,r7,#1
        0x000073b0:    9003        ..      STR      r0,[sp,#0xc]
        0x000073b2:    7039        9p      STRB     r1,[r7,#0]
        0x000073b4:    9911        ..      LDR      r1,[sp,#0x44]
        0x000073b6:    1e48        H.      SUBS     r0,r1,#1
        0x000073b8:    9011        ..      STR      r0,[sp,#0x44]
        0x000073ba:    2900        .)      CMP      r1,#0
        0x000073bc:    dcf2        ..      BGT      0x73a4 ; _printf_core + 1508
        0x000073be:    9803        ..      LDR      r0,[sp,#0xc]
        0x000073c0:    2800        .(      CMP      r0,#0
        0x000073c2:    d1ef        ..      BNE      0x73a4 ; _printf_core + 1508
        0x000073c4:    1e79        y.      SUBS     r1,r7,#1
        0x000073c6:    9812        ..      LDR      r0,[sp,#0x48]
        0x000073c8:    7008        .p      STRB     r0,[r1,#0]
        0x000073ca:    7830        0x      LDRB     r0,[r6,#0]
        0x000073cc:    2120         !      MOVS     r1,#0x20
        0x000073ce:    4008        .@      ANDS     r0,r0,r1
        0x000073d0:    3045        E0      ADDS     r0,r0,#0x45
        0x000073d2:    1ebf        ..      SUBS     r7,r7,#2
        0x000073d4:    7038        8p      STRB     r0,[r7,#0]
        0x000073d6:    a806        ..      ADD      r0,sp,#0x18
        0x000073d8:    1bc0        ..      SUBS     r0,r0,r7
        0x000073da:    1dc0        ..      ADDS     r0,r0,#7
        0x000073dc:    9003        ..      STR      r0,[sp,#0xc]
        0x000073de:    9810        ..      LDR      r0,[sp,#0x40]
        0x000073e0:    7800        .x      LDRB     r0,[r0,#0]
        0x000073e2:    2800        .(      CMP      r0,#0
        0x000073e4:    d000        ..      BEQ      0x73e8 ; _printf_core + 1576
        0x000073e6:    2001        .       MOVS     r0,#1
        0x000073e8:    9901        ..      LDR      r1,[sp,#4]
        0x000073ea:    1841        A.      ADDS     r1,r0,r1
        0x000073ec:    9802        ..      LDR      r0,[sp,#8]
        0x000073ee:    17c0        ..      ASRS     r0,r0,#31
        0x000073f0:    1809        ..      ADDS     r1,r1,r0
        0x000073f2:    9803        ..      LDR      r0,[sp,#0xc]
        0x000073f4:    1809        ..      ADDS     r1,r1,r0
        0x000073f6:    9804        ..      LDR      r0,[sp,#0x10]
        0x000073f8:    1a40        @.      SUBS     r0,r0,r1
        0x000073fa:    1e40        @.      SUBS     r0,r0,#1
        0x000073fc:    9004        ..      STR      r0,[sp,#0x10]
        0x000073fe:    03e0        ..      LSLS     r0,r4,#15
        0x00007400:    d406        ..      BMI      0x7410 ; _printf_core + 1616
        0x00007402:    4621        !F      MOV      r1,r4
        0x00007404:    9b1a        ..      LDR      r3,[sp,#0x68]
        0x00007406:    9a19        ..      LDR      r2,[sp,#0x64]
        0x00007408:    9804        ..      LDR      r0,[sp,#0x10]
        0x0000740a:    f000f85f    .._.    BL       _printf_pre_padding ; 0x74cc
        0x0000740e:    1945        E.      ADDS     r5,r0,r5
        0x00007410:    9810        ..      LDR      r0,[sp,#0x40]
        0x00007412:    7800        .x      LDRB     r0,[r0,#0]
        0x00007414:    2800        .(      CMP      r0,#0
        0x00007416:    d003        ..      BEQ      0x7420 ; _printf_core + 1632
        0x00007418:    9a1a        ..      LDR      r2,[sp,#0x68]
        0x0000741a:    9919        ..      LDR      r1,[sp,#0x64]
        0x0000741c:    4790        .G      BLX      r2
        0x0000741e:    1c6d        m.      ADDS     r5,r5,#1
        0x00007420:    03e0        ..      LSLS     r0,r4,#15
        0x00007422:    d524        $.      BPL      0x746e ; _printf_core + 1710
        0x00007424:    4621        !F      MOV      r1,r4
        0x00007426:    9b1a        ..      LDR      r3,[sp,#0x68]
        0x00007428:    9a19        ..      LDR      r2,[sp,#0x64]
        0x0000742a:    9804        ..      LDR      r0,[sp,#0x10]
        0x0000742c:    f000f84e    ..N.    BL       _printf_pre_padding ; 0x74cc
        0x00007430:    1945        E.      ADDS     r5,r0,r5
        0x00007432:    e01c        ..      B        0x746e ; _printf_core + 1710
        0x00007434:    9800        ..      LDR      r0,[sp,#0]
        0x00007436:    2800        .(      CMP      r0,#0
        0x00007438:    db07        ..      BLT      0x744a ; _printf_core + 1674
        0x0000743a:    9900        ..      LDR      r1,[sp,#0]
        0x0000743c:    9805        ..      LDR      r0,[sp,#0x14]
        0x0000743e:    4288        .B      CMP      r0,r1
        0x00007440:    dd03        ..      BLE      0x744a ; _printf_core + 1674
        0x00007442:    9815        ..      LDR      r0,[sp,#0x54]
        0x00007444:    5c40        @\      LDRB     r0,[r0,r1]
        0x00007446:    9919        ..      LDR      r1,[sp,#0x64]
        0x00007448:    e001        ..      B        0x744e ; _printf_core + 1678
        0x0000744a:    9919        ..      LDR      r1,[sp,#0x64]
        0x0000744c:    2030        0       MOVS     r0,#0x30
        0x0000744e:    9a1a        ..      LDR      r2,[sp,#0x68]
        0x00007450:    4790        .G      BLX      r2
        0x00007452:    9800        ..      LDR      r0,[sp,#0]
        0x00007454:    1c6d        m.      ADDS     r5,r5,#1
        0x00007456:    1c40        @.      ADDS     r0,r0,#1
        0x00007458:    9000        ..      STR      r0,[sp,#0]
        0x0000745a:    9802        ..      LDR      r0,[sp,#8]
        0x0000745c:    1e40        @.      SUBS     r0,r0,#1
        0x0000745e:    9002        ..      STR      r0,[sp,#8]
        0x00007460:    2800        .(      CMP      r0,#0
        0x00007462:    d104        ..      BNE      0x746e ; _printf_core + 1710
        0x00007464:    9a1a        ..      LDR      r2,[sp,#0x68]
        0x00007466:    202e        .       MOVS     r0,#0x2e
        0x00007468:    9919        ..      LDR      r1,[sp,#0x64]
        0x0000746a:    4790        .G      BLX      r2
        0x0000746c:    1c6d        m.      ADDS     r5,r5,#1
        0x0000746e:    9901        ..      LDR      r1,[sp,#4]
        0x00007470:    1e48        H.      SUBS     r0,r1,#1
        0x00007472:    9001        ..      STR      r0,[sp,#4]
        0x00007474:    2900        .)      CMP      r1,#0
        0x00007476:    dcdd        ..      BGT      0x7434 ; _printf_core + 1652
        0x00007478:    e005        ..      B        0x7486 ; _printf_core + 1734
        0x0000747a:    7838        8x      LDRB     r0,[r7,#0]
        0x0000747c:    9a1a        ..      LDR      r2,[sp,#0x68]
        0x0000747e:    1c7f        ..      ADDS     r7,r7,#1
        0x00007480:    9919        ..      LDR      r1,[sp,#0x64]
        0x00007482:    4790        .G      BLX      r2
        0x00007484:    1c6d        m.      ADDS     r5,r5,#1
        0x00007486:    9903        ..      LDR      r1,[sp,#0xc]
        0x00007488:    1e48        H.      SUBS     r0,r1,#1
        0x0000748a:    9003        ..      STR      r0,[sp,#0xc]
        0x0000748c:    2900        .)      CMP      r1,#0
        0x0000748e:    dcf4        ..      BGT      0x747a ; _printf_core + 1722
        0x00007490:    4621        !F      MOV      r1,r4
        0x00007492:    9b1a        ..      LDR      r3,[sp,#0x68]
        0x00007494:    9a19        ..      LDR      r2,[sp,#0x64]
        0x00007496:    9804        ..      LDR      r0,[sp,#0x10]
        0x00007498:    e6ac        ..      B        0x71f4 ; _printf_core + 1076
    $d
        0x0000749a:    0000        ..      DCW    0
        0x0000749c:    0000002d    -...    DCD    45
        0x000074a0:    0000002b    +...    DCD    43
        0x000074a4:    00000020     ...    DCD    32
        0x000074a8:    00000000    ....    DCD    0
    $t
    i._printf_post_padding
    _printf_post_padding
        0x000074ac:    b5f8        ..      PUSH     {r3-r7,lr}
        0x000074ae:    4604        .F      MOV      r4,r0
        0x000074b0:    2500        .%      MOVS     r5,#0
        0x000074b2:    461e        .F      MOV      r6,r3
        0x000074b4:    4617        .F      MOV      r7,r2
        0x000074b6:    0488        ..      LSLS     r0,r1,#18
        0x000074b8:    d404        ..      BMI      0x74c4 ; _printf_post_padding + 24
        0x000074ba:    e005        ..      B        0x74c8 ; _printf_post_padding + 28
        0x000074bc:    4639        9F      MOV      r1,r7
        0x000074be:    2020                MOVS     r0,#0x20
        0x000074c0:    47b0        .G      BLX      r6
        0x000074c2:    1c6d        m.      ADDS     r5,r5,#1
        0x000074c4:    1e64        d.      SUBS     r4,r4,#1
        0x000074c6:    d5f9        ..      BPL      0x74bc ; _printf_post_padding + 16
        0x000074c8:    4628        (F      MOV      r0,r5
        0x000074ca:    bdf8        ..      POP      {r3-r7,pc}
    i._printf_pre_padding
    _printf_pre_padding
        0x000074cc:    b5ff        ..      PUSH     {r0-r7,lr}
        0x000074ce:    4604        .F      MOV      r4,r0
        0x000074d0:    2500        .%      MOVS     r5,#0
        0x000074d2:    b081        ..      SUB      sp,sp,#4
        0x000074d4:    461e        .F      MOV      r6,r3
        0x000074d6:    03c8        ..      LSLS     r0,r1,#15
        0x000074d8:    d501        ..      BPL      0x74de ; _printf_pre_padding + 18
        0x000074da:    2730        0'      MOVS     r7,#0x30
        0x000074dc:    e000        ..      B        0x74e0 ; _printf_pre_padding + 20
        0x000074de:    2720         '      MOVS     r7,#0x20
        0x000074e0:    0488        ..      LSLS     r0,r1,#18
        0x000074e2:    d504        ..      BPL      0x74ee ; _printf_pre_padding + 34
        0x000074e4:    e005        ..      B        0x74f2 ; _printf_pre_padding + 38
        0x000074e6:    4638        8F      MOV      r0,r7
        0x000074e8:    9903        ..      LDR      r1,[sp,#0xc]
        0x000074ea:    47b0        .G      BLX      r6
        0x000074ec:    1c6d        m.      ADDS     r5,r5,#1
        0x000074ee:    1e64        d.      SUBS     r4,r4,#1
        0x000074f0:    d5f9        ..      BPL      0x74e6 ; _printf_pre_padding + 26
        0x000074f2:    4628        (F      MOV      r0,r5
        0x000074f4:    b005        ..      ADD      sp,sp,#0x14
        0x000074f6:    bdf0        ..      POP      {r4-r7,pc}
    i._sputc
    _sputc
        0x000074f8:    680a        .h      LDR      r2,[r1,#0]
        0x000074fa:    1c53        S.      ADDS     r3,r2,#1
        0x000074fc:    600b        .`      STR      r3,[r1,#0]
        0x000074fe:    7010        .p      STRB     r0,[r2,#0]
        0x00007500:    4770        pG      BX       lr
    i.atof
    atof
        0x00007502:    b530        0.      PUSH     {r4,r5,lr}
        0x00007504:    b083        ..      SUB      sp,sp,#0xc
        0x00007506:    4604        .F      MOV      r4,r0
        0x00007508:    f7fffb7c    ..|.    BL       __read_errno ; 0x6c04
        0x0000750c:    4605        .F      MOV      r5,r0
        0x0000750e:    2000        .       MOVS     r0,#0
        0x00007510:    9000        ..      STR      r0,[sp,#0]
        0x00007512:    4602        .F      MOV      r2,r0
        0x00007514:    9001        ..      STR      r0,[sp,#4]
        0x00007516:    2301        .#      MOVS     r3,#1
        0x00007518:    4621        !F      MOV      r1,r4
        0x0000751a:    4668        hF      MOV      r0,sp
        0x0000751c:    f7f9f8ea    ....    BL       __strtod_int ; 0x6f4
        0x00007520:    4628        (F      MOV      r0,r5
        0x00007522:    f7fffb85    ....    BL       __set_errno ; 0x6c30
        0x00007526:    9901        ..      LDR      r1,[sp,#4]
        0x00007528:    9800        ..      LDR      r0,[sp,#0]
        0x0000752a:    b003        ..      ADD      sp,sp,#0xc
        0x0000752c:    bd30        0.      POP      {r4,r5,pc}
        0x0000752e:    0000        ..      MOVS     r0,r0
    i.malloc
    malloc
        0x00007530:    b5f0        ..      PUSH     {r4-r7,lr}
        0x00007532:    300b        .0      ADDS     r0,r0,#0xb
        0x00007534:    08c1        ..      LSRS     r1,r0,#3
        0x00007536:    00c9        ..      LSLS     r1,r1,#3
        0x00007538:    4f14        .O      LDR      r7,[pc,#80] ; [0x758c] = 0x20000004
        0x0000753a:    2600        .&      MOVS     r6,#0
        0x0000753c:    4a14        .J      LDR      r2,[pc,#80] ; [0x7590] = 0x20000000
        0x0000753e:    e00f        ..      B        0x7560 ; malloc + 48
        0x00007540:    6803        .h      LDR      r3,[r0,#0]
        0x00007542:    428b        .B      CMP      r3,r1
        0x00007544:    d30b        ..      BCC      0x755e ; malloc + 46
        0x00007546:    428b        .B      CMP      r3,r1
        0x00007548:    d905        ..      BLS      0x7556 ; malloc + 38
        0x0000754a:    1a5c        \.      SUBS     r4,r3,r1
        0x0000754c:    1843        C.      ADDS     r3,r0,r1
        0x0000754e:    6845        Eh      LDR      r5,[r0,#4]
        0x00007550:    c330        0.      STM      r3!,{r4,r5}
        0x00007552:    3b08        .;      SUBS     r3,r3,#8
        0x00007554:    e000        ..      B        0x7558 ; malloc + 40
        0x00007556:    6843        Ch      LDR      r3,[r0,#4]
        0x00007558:    6013        .`      STR      r3,[r2,#0]
        0x0000755a:    c002        ..      STM      r0!,{r1}
        0x0000755c:    e004        ..      B        0x7568 ; malloc + 56
        0x0000755e:    1d02        ..      ADDS     r2,r0,#4
        0x00007560:    6810        .h      LDR      r0,[r2,#0]
        0x00007562:    2800        .(      CMP      r0,#0
        0x00007564:    d1ec        ..      BNE      0x7540 ; malloc + 16
        0x00007566:    4630        0F      MOV      r0,r6
        0x00007568:    2800        .(      CMP      r0,#0
        0x0000756a:    d103        ..      BNE      0x7574 ; malloc + 68
        0x0000756c:    6838        8h      LDR      r0,[r7,#0]
        0x0000756e:    2800        .(      CMP      r0,#0
        0x00007570:    d001        ..      BEQ      0x7576 ; malloc + 70
        0x00007572:    2000        .       MOVS     r0,#0
        0x00007574:    bdf0        ..      POP      {r4-r7,pc}
        0x00007576:    4a06        .J      LDR      r2,[pc,#24] ; [0x7590] = 0x20000000
        0x00007578:    4806        .H      LDR      r0,[pc,#24] ; [0x7594] = 0x2000051c
        0x0000757a:    6010        .`      STR      r0,[r2,#0]
        0x0000757c:    4a06        .J      LDR      r2,[pc,#24] ; [0x7598] = 0x20000518
        0x0000757e:    1a12        ..      SUBS     r2,r2,r0
        0x00007580:    08d2        ..      LSRS     r2,r2,#3
        0x00007582:    00d2        ..      LSLS     r2,r2,#3
        0x00007584:    c044        D.      STM      r0!,{r2,r6}
        0x00007586:    2001        .       MOVS     r0,#1
        0x00007588:    6038        8`      STR      r0,[r7,#0]
        0x0000758a:    e7d7        ..      B        0x753c ; malloc + 12
    $d
        0x0000758c:    20000004    ...     DCD    536870916
        0x00007590:    20000000    ...     DCD    536870912
        0x00007594:    2000051c    ...     DCD    536872220
        0x00007598:    20000518    ...     DCD    536872216
    $d.realdata
    .constdata
    __ctype_categories
        0x0000759c:    dddddddd    ....    DCD    3722304989
        0x000075a0:    ddbbbbdc    ....    DCD    3720068060
        0x000075a4:    dddddddd    ....    DCD    3722304989
        0x000075a8:    dddddddd    ....    DCD    3722304989
        0x000075ac:    88888898    ....    DCD    2290649240
        0x000075b0:    88888888    ....    DCD    2290649224
        0x000075b4:    77777777    wwww    DCD    2004318071
        0x000075b8:    88888877    w...    DCD    2290649207
        0x000075bc:    56555585    .UUV    DCD    1448433029
        0x000075c0:    66666666    ffff    DCD    1717986918
        0x000075c4:    66666666    ffff    DCD    1717986918
        0x000075c8:    88886866    fh..    DCD    2290640998
        0x000075cc:    32333383    .332    DCD    842216323
        0x000075d0:    22222222    """"    DCD    572662306
        0x000075d4:    22222222    """"    DCD    572662306
        0x000075d8:    8d882822    "(..    DCD    2374510626
        0x000075dc:    00000000    ....    DCD    0
        0x000075e0:    00000004    ....    DCD    4
        0x000075e4:    00000008    ....    DCD    8
        0x000075e8:    016e3600    .6n.    DCD    24000000
        0x000075ec:    00000000    ....    DCD    0
        0x000075f0:    00000000    ....    DCD    0
        0x000075f4:    02dc6c00    .l..    DCD    48000000
        0x000075f8:    00000000    ....    DCD    0
        0x000075fc:    00009600    ....    DCD    38400
        0x00007600:    00000000    ....    DCD    0
        0x00007604:    00000004    ....    DCD    4
        0x00007608:    0000000c    ....    DCD    12
        0x0000760c:    00000010    ....    DCD    16
        0x00007610:    00000000    ....    DCD    0
        0x00007614:    00000004    ....    DCD    4
        0x00007618:    00000008    ....    DCD    8
        0x0000761c:    0000000c    ....    DCD    12
        0x00007620:    00000000    ....    DCD    0
        0x00007624:    00000004    ....    DCD    4
        0x00007628:    00000008    ....    DCD    8
        0x0000762c:    0000000c    ....    DCD    12
        0x00007630:    00000000    ....    DCD    0
        0x00007634:    00000004    ....    DCD    4
        0x00007638:    00000008    ....    DCD    8
        0x0000763c:    00000010    ....    DCD    16
        0x00007640:    016e3600    .6n.    DCD    24000000
        0x00007644:    00000000    ....    DCD    0
        0x00007648:    00000000    ....    DCD    0
        0x0000764c:    00000000    ....    DCD    0
        0x00007650:    00000000    ....    DCD    0
        0x00007654:    00009600    ....    DCD    38400
        0x00007658:    00000000    ....    DCD    0
        0x0000765c:    02dc6c00    .l..    DCD    48000000
    fontArray
        0x00007660:    00000000    ....    DCD    0
        0x00007664:    00020000    ....    DCD    131072
        0x00007668:    00060007    ....    DCD    393223
        0x0000766c:    00000004    ....    DCD    4
        0x00007670:    00000004    ....    DCD    4
        0x00007674:    00000002    ....    DCD    2
        0x00007678:    00020000    ....    DCD    131072
        0x0000767c:    00000000    ....    DCD    0
        0x00007680:    00000002    ....    DCD    2
        0x00007684:    00020000    ....    DCD    131072
        0x00007688:    00040000    ....    DCD    262144
        0x0000768c:    00000000    ....    DCD    0
        0x00007690:    00050006    ....    DCD    327686
        0x00007694:    00000000    ....    DCD    0
        0x00007698:    00060005    ....    DCD    393221
        0x0000769c:    00020000    ....    DCD    131072
        0x000076a0:    00000000    ....    DCD    0
        0x000076a4:    00000002    ....    DCD    2
        0x000076a8:    00020000    ....    DCD    131072
        0x000076ac:    00000000    ....    DCD    0
        0x000076b0:    00000002    ....    DCD    2
        0x000076b4:    00020000    ....    DCD    131072
        0x000076b8:    00020000    ....    DCD    131072
        0x000076bc:    00040002    ....    DCD    262146
        0x000076c0:    00050006    ....    DCD    327686
        0x000076c4:    00000006    ....    DCD    6
        0x000076c8:    00060000    ....    DCD    393216
        0x000076cc:    00070002    ....    DCD    458754
        0x000076d0:    00000004    ....    DCD    4
        0x000076d4:    00060007    ....    DCD    393223
        0x000076d8:    00020004    ....    DCD    131076
        0x000076dc:    00040006    ....    DCD    262150
        0x000076e0:    00020007    ....    DCD    131079
        0x000076e4:    00070006    ....    DCD    458758
        0x000076e8:    00000002    ....    DCD    2
        0x000076ec:    00060004    ....    DCD    393220
        0x000076f0:    00070006    ....    DCD    458758
        0x000076f4:    00040006    ....    DCD    262150
        0x000076f8:    00060007    ....    DCD    393223
        0x000076fc:    00030000    ....    DCD    196608
        0x00007700:    00020000    ....    DCD    131072
        0x00007704:    00060000    ....    DCD    393216
        0x00007708:    00020000    ....    DCD    131072
        0x0000770c:    00000000    ....    DCD    0
        0x00007710:    00000003    ....    DCD    3
        0x00007714:    00020000    ....    DCD    131072
        0x00007718:    00040000    ....    DCD    262144
        0x0000771c:    00060004    ....    DCD    393220
        0x00007720:    00020000    ....    DCD    131072
        0x00007724:    00060000    ....    DCD    393216
        0x00007728:    00060006    ....    DCD    393222
        0x0000772c:    00070006    ....    DCD    458758
        0x00007730:    00060006    ....    DCD    393222
        0x00007734:    00000005    ....    DCD    5
        0x00007738:    00050006    ....    DCD    327686
        0x0000773c:    00060006    ....    DCD    393222
        0x00007740:    00000007    ....    DCD    7
        0x00007744:    00060006    ....    DCD    393222
        0x00007748:    00060000    ....    DCD    393216
        0x0000774c:    00020007    ....    DCD    131079
        0x00007750:    00020006    ....    DCD    131078
        0x00007754:    00000006    ....    DCD    6
        0x00007758:    00060000    ....    DCD    393216
        0x0000775c:    00010000    ....    DCD    65536
        0x00007760:    00060006    ....    DCD    393222
        0x00007764:    00060002    ....    DCD    393218
        0x00007768:    00010006    ....    DCD    65542
        0x0000776c:    00000000    ....    DCD    0
        0x00007770:    00000002    ....    DCD    2
        0x00007774:    00020002    ....    DCD    131074
        0x00007778:    00020002    ....    DCD    131074
        0x0000777c:    00020003    ....    DCD    131075
        0x00007780:    00060006    ....    DCD    393222
        0x00007784:    00000004    ....    DCD    4
        0x00007788:    00000002    ....    DCD    2
        0x0000778c:    00020002    ....    DCD    131074
        0x00007790:    00040000    ....    DCD    262144
        0x00007794:    00020007    ....    DCD    131079
        0x00007798:    00010006    ....    DCD    65542
        0x0000779c:    00020000    ....    DCD    131072
        0x000077a0:    00020001    ....    DCD    131073
        0x000077a4:    00010002    ....    DCD    65538
        0x000077a8:    00000002    ....    DCD    2
        0x000077ac:    00000002    ....    DCD    2
        0x000077b0:    00020006    ....    DCD    131078
        0x000077b4:    00040006    ....    DCD    262150
        0x000077b8:    00060002    ....    DCD    393218
        0x000077bc:    00070002    ....    DCD    458754
        0x000077c0:    00060004    ....    DCD    393220
        0x000077c4:    00000005    ....    DCD    5
        0x000077c8:    00020004    ....    DCD    131076
        0x000077cc:    00000002    ....    DCD    2
        0x000077d0:    00060005    ....    DCD    393221
        0x000077d4:    00040004    ....    DCD    262148
        0x000077d8:    00000004    ....    DCD    4
        0x000077dc:    00000001    ....    DCD    1
        0x000077e0:    00000004    ....    DCD    4
        0x000077e4:    00020000    ....    DCD    131072
        0x000077e8:    00060007    ....    DCD    393223
        0x000077ec:    00030006    ....    DCD    196614
        0x000077f0:    00020002    ....    DCD    131074
        0x000077f4:    00000003    ....    DCD    3
        0x000077f8:    00030002    ....    DCD    196610
        0x000077fc:    00060006    ....    DCD    393222
        0x00007800:    00000007    ....    DCD    7
        0x00007804:    00060006    ....    DCD    393222
        0x00007808:    00040000    ....    DCD    262144
        0x0000780c:    00060007    ....    DCD    393223
        0x00007810:    00020006    ....    DCD    131078
        0x00007814:    00000002    ....    DCD    2
        0x00007818:    00060000    ....    DCD    393216
        0x0000781c:    00010000    ....    DCD    65536
        0x00007820:    00060006    ....    DCD    393222
        0x00007824:    00060002    ....    DCD    393218
        0x00007828:    00000000    ....    DCD    0
        0x0000782c:    00000006    ....    DCD    6
        0x00007830:    00000002    ....    DCD    2
        0x00007834:    00020002    ....    DCD    131074
        0x00007838:    00020002    ....    DCD    131074
        0x0000783c:    00020003    ....    DCD    131075
        0x00007840:    00060006    ....    DCD    393222
        0x00007844:    00040004    ....    DCD    262148
        0x00007848:    00060006    ....    DCD    393222
        0x0000784c:    00020002    ....    DCD    131074
        0x00007850:    00040000    ....    DCD    262144
        0x00007854:    00020007    ....    DCD    131079
        0x00007858:    00010006    ....    DCD    65542
        0x0000785c:    00020000    ....    DCD    131072
        0x00007860:    00020001    ....    DCD    131073
        0x00007864:    00010002    ....    DCD    65538
        0x00007868:    00000002    ....    DCD    2
        0x0000786c:    00000002    ....    DCD    2
        0x00007870:    00020006    ....    DCD    131078
        0x00007874:    00040006    ....    DCD    262150
        0x00007878:    00060003    ....    DCD    393219
        0x0000787c:    00070002    ....    DCD    458754
        0x00007880:    00060004    ....    DCD    393220
        0x00007884:    00000005    ....    DCD    5
        0x00007888:    00000000    ....    DCD    0
        0x0000788c:    00000000    ....    DCD    0
        0x00007890:    00060005    ....    DCD    393221
        0x00007894:    00000000    ....    DCD    0
        0x00007898:    00000000    ....    DCD    0
        0x0000789c:    00000000    ....    DCD    0
    gau32ClkSrcTbl
        0x000078a0:    016e3600    .6n.    DCD    24000000
        0x000078a4:    00000000    ....    DCD    0
        0x000078a8:    00000000    ....    DCD    0
        0x000078ac:    00009600    ....    DCD    38400
        0x000078b0:    00000000    ....    DCD    0
        0x000078b4:    003d8600    ..=.    DCD    4032000
        0x000078b8:    00000000    ....    DCD    0
        0x000078bc:    02dc6c00    .l..    DCD    48000000
        0x000078c0:    61482020      Ha    DCD    1632116768
        0x000078c4:    61466472    rdFa    DCD    1632003186
        0x000078c8:    21746c75    ult!    DCD    561278069
        0x000078cc:    2a000a0a    ...*    DCD    704645642
        0x000078d0:    49202a2a    ** I    DCD    1226844714
        0x000078d4:    2074696e    nit     DCD    544500078
        0x000078d8:    656e6f44    Done    DCD    1701736260
        0x000078dc:    7355202c    , Us    DCD    1934958636
        0x000078e0:    61207265    er a    DCD    1629516389
        0x000078e4:    6f206464    dd o    DCD    1864393828
        0x000078e8:    61726570    pera    DCD    1634887024
        0x000078ec:    6e6f6974    tion    DCD    1852795252
        0x000078f0:    646f6320     cod    DCD    1685021472
        0x000078f4:    2a2a2065    e **    DCD    707403877
        0x000078f8:    0a000a2a    *...    DCD    167774762
        0x000078fc:    5550430a    .CPU    DCD    1431323402
        0x00007900:    25204020     @ %    DCD    622870560
        0x00007904:    7a484d75    uMHz    DCD    2051558773
        0x00007908:    4250000a    ..PB    DCD    1112539146
        0x0000790c:    4520352e    .5 E    DCD    1159738670
        0x00007910:    30544e49    INT0    DCD    810831433
        0x00007914:    63636f20     occ    DCD    1667460896
        0x00007918:    65727275    urre    DCD    1701999221
        0x0000791c:    000a2e64    d...    DCD    667236
        0x00007920:    342e4250    PB.4    DCD    875446864
        0x00007924:    4e494520     EIN    DCD    1313424672
        0x00007928:    6f203154    T1 o    DCD    1864380756
        0x0000792c:    72756363    ccur    DCD    1920295779
        0x00007930:    2e646572    red.    DCD    778331506
        0x00007934:    4250000a    ..PB    DCD    1112539146
        0x00007938:    4520322e    .2 E    DCD    1159737902
        0x0000793c:    33544e49    INT3    DCD    861163081
        0x00007940:    63636f20     occ    DCD    1667460896
        0x00007944:    65727275    urre    DCD    1701999221
        0x00007948:    000a2e64    d...    DCD    667236
        0x0000794c:    302e4350    PC.0    DCD    808338256
        0x00007950:    544e4920     INT    DCD    1414416672
        0x00007954:    63636f20     occ    DCD    1667460896
        0x00007958:    65727275    urre    DCD    1701999221
        0x0000795c:    000a2e64    d...    DCD    667236
        0x00007960:    302e4450    PD.0    DCD    808338512
        0x00007964:    544e4920     INT    DCD    1414416672
        0x00007968:    63636f20     occ    DCD    1667460896
        0x0000796c:    65727275    urre    DCD    1701999221
        0x00007970:    000a2e64    d...    DCD    667236
        0x00007974:    322e4250    PB.2    DCD    841892432
        0x00007978:    544e4920     INT    DCD    1414416672
        0x0000797c:    63636f20     occ    DCD    1667460896
        0x00007980:    65727275    urre    DCD    1701999221
        0x00007984:    000a2e64    d...    DCD    667236
        0x00007988:    652d6e55    Un-e    DCD    1697476181
        0x0000798c:    63657078    xpec    DCD    1667592312
        0x00007990:    20646574    ted     DCD    543450484
        0x00007994:    65746e69    inte    DCD    1702129257
        0x00007998:    70757272    rrup    DCD    1886745202
        0x0000799c:    0a2e7374    ts..    DCD    170816372
        0x000079a0:    20202000    .       DCD    538976256
        0x000079a4:    00202020       .    DCD    2105376
        0x000079a8:    20202020            DCD    538976288
        0x000079ac:    20003020     0.     DCD    536883232
        0x000079b0:    30202020       0    DCD    807411744
        0x000079b4:    2000302e    .0.     DCD    536883246
        0x000079b8:    2e302020      0.    DCD    774905888
        0x000079bc:    20003030    00.     DCD    536883248
        0x000079c0:    302e3020     0.0    DCD    808333344
        0x000079c4:    20003030    00.     DCD    536883248
        0x000079c8:    30302e30    0.00    DCD    808463920
        0x000079cc:    30003030    00.0    DCD    805318704
        0x000079d0:    30303030    0000    DCD    808464432
        0x000079d4:    31310030    0.11    DCD    825294896
        0x000079d8:    31313131    1111    DCD    825307441
        0x000079dc:    32323200    .222    DCD    842150400
        0x000079e0:    00323232    222.    DCD    3289650
        0x000079e4:    33333333    3333    DCD    858993459
        0x000079e8:    34003333    33.4    DCD    872428339
        0x000079ec:    34343434    4444    DCD    875836468
        0x000079f0:    35350034    4.55    DCD    892665908
        0x000079f4:    35353535    5555    DCD    892679477
        0x000079f8:    36363600    .666    DCD    909522432
        0x000079fc:    00363636    666.    DCD    3552822
        0x00007a00:    37373737    7777    DCD    926365495
        0x00007a04:    38003737    77.8    DCD    939538231
        0x00007a08:    38383838    8888    DCD    943208504
        0x00007a0c:    39390038    8.99    DCD    960036920
        0x00007a10:    39393939    9999    DCD    960051513
        0x00007a14:    00642500    .%d.    DCD    6563072
        0x00007a18:    66312e25    %.1f    DCD    1714499109
        0x00007a1c:    322e2500    .%.2    DCD    841884928
        0x00007a20:    2e250066    f.%.    DCD    774176870
        0x00007a24:    25006633    3f.%    DCD    620783155
        0x00007a28:    0066342e    .4f.    DCD    6698030
        0x00007a2c:    56415320     SAV    DCD    1447121696
        0x00007a30:    00206445    Ed .    DCD    2122821
        0x00007a34:    30332020      30    DCD    808656928
        0x00007a38:    20003030    00.     DCD    536883248
        0x00007a3c:    30303620     600    DCD    808465952
        0x00007a40:    20200030    0.      DCD    538968112
        0x00007a44:    30312020      10    DCD    808525856
        0x00007a48:    30314600    .F10    DCD    808535552
        0x00007a4c:    00304600    .F0.    DCD    3163648
        0x00007a50:    20202020            DCD    538976288
        0x00007a54:    46003120     1.F    DCD    1174417696
        0x00007a58:    46003131    11.F    DCD    1174417713
        0x00007a5c:    64200031    1. d    DCD    1679818801
        0x00007a60:    316c6175    ual1    DCD    829186421
        0x00007a64:    20202000    .       DCD    538976256
        0x00007a68:    00322020      2.    DCD    3285024
        0x00007a6c:    33325372    rS23    DCD    858936178
        0x00007a70:    32460032    2.F2    DCD    843448370
        0x00007a74:    75642000    . du    DCD    1969496064
        0x00007a78:    00326c61    al2.    DCD    3304545
        0x00007a7c:    39003346    F3.9    DCD    956314438
        0x00007a80:    3734382e    .847    DCD    926169134
        0x00007a84:    34460034    4.F4    DCD    877002804
        0x00007a88:    20202000    .       DCD    538976256
        0x00007a8c:    00352020      5.    DCD    3481632
        0x00007a90:    46003546    F5.F    DCD    1174418758
        0x00007a94:    38460037    7.F8    DCD    944111671
        0x00007a98:    00394600    .F9.    DCD    3753472
        0x00007a9c:    47202020       G    DCD    1193287712
        0x00007aa0:    20004172    rA.     DCD    536887666
        0x00007aa4:    53456450    PdES    DCD    1397056592
        0x00007aa8:    20200043    C.      DCD    538968131
        0x00007aac:    46464f20     OFF    DCD    1179012896
        0x00007ab0:    33202000    .  3    DCD    857743360
        0x00007ab4:    00474b30    0KG.    DCD    4672304
        0x00007ab8:    33202020       3    DCD    857743392
        0x00007abc:    2000474b    KG.     DCD    536889163
        0x00007ac0:    4b353120     15K    DCD    1261777184
        0x00007ac4:    20200047    G.      DCD    538968135
        0x00007ac8:    474b3620     6KG    DCD    1196111392
        0x00007acc:    20202000    .       DCD    538976256
        0x00007ad0:    004c4143    CAL.    DCD    4997443
        0x00007ad4:    20202020            DCD    538976288
        0x00007ad8:    20004e4f    ON.     DCD    536890959
        0x00007adc:    53492020      IS    DCD    1397301280
        0x00007ae0:    2020004e    N.      DCD    538968142
        0x00007ae4:    50414320     CAP    DCD    1346454304
        0x00007ae8:    20202000    .       DCD    538976256
        0x00007aec:    00534572    rES.    DCD    5457266
        0x00007af0:    4f4c4620     FLO    DCD    1330398752
        0x00007af4:    20005441    AT.     DCD    536892481
        0x00007af8:    49462020      FI    DCD    1229332512
        0x00007afc:    53200058    X. S    DCD    1394606168
        0x00007b00:    64454550    PEEd    DCD    1682261328
        0x00007b04:    72617400    .tar    DCD    1918989312
        0x00007b08:    66250065    e.%f    DCD    1713700965
        0x00007b0c:    64502000    . Pd    DCD    1682972672
        0x00007b10:    00694345    ECi.    DCD    6898501
        0x00007b14:    6964654d    Medi    DCD    1768187213
        0x00007b18:    46006d75    um.F    DCD    1174433141
        0x00007b1c:    694d2036    6 Mi    DCD    1766662198
        0x00007b20:    6f63006e    n.co    DCD    1868759150
        0x00007b24:    20006e69    in.     DCD    536899177
        0x00007b28:    45534572    rESE    DCD    1163085170
        0x00007b2c:    20200074    t.      DCD    538968180
        0x00007b30:    74736146    Fast    DCD    1953718598
        0x00007b34:    73657200    .res    DCD    1936028160
        0x00007b38:    20200074    t.      DCD    538968180
        0x00007b3c:    776f6c53    Slow    DCD    2003790931
        0x00007b40:    00000000    ....    DCD    0
    Region$$Table$$Base
        0x00007b44:    00007b64    d{..    DCD    31588
        0x00007b48:    20000000    ...     DCD    536870912
        0x00007b4c:    00000038    8...    DCD    56
        0x00007b50:    00006c10    .l..    DCD    27664
        0x00007b54:    00007b9c    .{..    DCD    31644
        0x00007b58:    20000038    8..     DCD    536870968
        0x00007b5c:    00000ce0    ....    DCD    3296
        0x00007b60:    00006c20     l..    DCD    27680
    Region$$Table$$Limit

** Section #2 'ER_RW' (SHT_PROGBITS) [SHF_ALLOC + SHF_WRITE]
    Size   : 56 bytes (alignment 4)
    Address: 0x20000000


** Section #3 'ER_ZI' (SHT_NOBITS) [SHF_ALLOC + SHF_WRITE]
    Size   : 3296 bytes (alignment 8)
    Address: 0x20000038


** Section #4 '.debug_abbrev' (SHT_PROGBITS)
    Size   : 6514 bytes


** Section #5 '.debug_frame' (SHT_PROGBITS)
    Size   : 10212 bytes


** Section #6 '.debug_info' (SHT_PROGBITS)
    Size   : 42906 bytes


** Section #7 '.debug_line' (SHT_PROGBITS)
    Size   : 39645 bytes


** Section #8 '.debug_str' (SHT_PROGBITS)
    Size   : 26109 bytes


** Section #9 '.debug_ranges' (SHT_PROGBITS)
    Size   : 2848 bytes


** Section #10 '.symtab' (SHT_SYMTAB)
    Size   : 24912 bytes (alignment 4)
    String table #11 '.strtab'
    Last local symbol no. 1155


** Section #11 '.strtab' (SHT_STRTAB)
    Size   : 15276 bytes


** Section #12 '.note' (SHT_NOTE)
    Size   : 28 bytes (alignment 4)


** Section #13 '.comment' (SHT_PROGBITS)
    Size   : 1488 bytes


** Section #14 '.shstrtab' (SHT_STRTAB)
    Size   : 136 bytes


