	.text
	.syntax unified
	.eabi_attribute	67, "2.09"	@ Tag_conformance
	.cpu	cortex-m23
	.eabi_attribute	6, 16	@ Tag_CPU_arch
	.eabi_attribute	7, 77	@ Tag_CPU_arch_profile
	.eabi_attribute	8, 0	@ Tag_ARM_ISA_use
	.eabi_attribute	9, 3	@ Tag_THUMB_ISA_use
	.eabi_attribute	34, 0	@ Tag_CPU_unaligned_access
	.eabi_attribute	17, 1	@ Tag_ABI_PCS_GOT_use
	.eabi_attribute	20, 2	@ Tag_ABI_FP_denormal
	.eabi_attribute	21, 0	@ Tag_ABI_FP_exceptions
	.eabi_attribute	23, 1	@ Tag_ABI_FP_number_model
	.eabi_attribute	24, 1	@ Tag_ABI_align_needed
	.eabi_attribute	25, 1	@ Tag_ABI_align_preserved
	.eabi_attribute	38, 1	@ Tag_ABI_FP_16bit_format
	.eabi_attribute	18, 2	@ Tag_ABI_PCS_wchar_t
	.eabi_attribute	26, 1	@ Tag_ABI_enum_size
	.eabi_attribute	14, 0	@ Tag_ABI_PCS_R9_use
	.file	"app.c"
	.file	1 "E:\\BERSY\\sdk\\SampleCode\\NuCodeGen\\scale_v1\\KEIL" "../src/app.c"
	.file	2 "C:\\Keil_v5\\ARM\\ARMCLANG\\Bin\\..\\include" "stdint.h"
	.file	3 "E:\\BERSY\\sdk\\SampleCode\\NuCodeGen\\scale_v1\\KEIL" "..\\Inc/costumLcd.h"
	.file	4 "E:\\BERSY\\sdk\\SampleCode\\NuCodeGen\\scale_v1\\KEIL" "..\\Inc/keypad.h"
	.file	5 "E:\\BERSY\\sdk\\SampleCode\\NuCodeGen\\scale_v1\\KEIL" "..\\Inc/font.h"
	.file	6 "E:\\BERSY\\sdk\\SampleCode\\NuCodeGen\\scale_v1\\KEIL" "../../../../Library/CMSIS/Include\\core_cm23.h"
	.section	.text.APP_Init,"ax",%progbits
	.hidden	APP_Init                        @ -- Begin function APP_Init
	.globl	APP_Init
	.p2align	2
	.type	APP_Init,%function
	.code	16                              @ @APP_Init
	.thumb_func
APP_Init:
.Lfunc_begin0:
	.loc	1 30 0                          @ ../src/app.c:30:0
	.fnstart
	.cfi_sections .debug_frame
	.cfi_startproc
@ %bb.0:
	.save	{r7, lr}
	push	{r7, lr}
	.cfi_def_cfa_offset 8
	.cfi_offset lr, -4
	.cfi_offset r7, -8
	.pad	#16
	sub	sp, #16
	.cfi_def_cfa_offset 24
.Ltmp0:
	.loc	1 32 16 prologue_end            @ ../src/app.c:32:16
	ldr	r0, __arm_cp.0_0
	ldr	r1, __arm_cp.0_1
	str	r1, [r0, #8]
	.loc	1 33 16                         @ ../src/app.c:33:16
	ldr	r1, __arm_cp.0_2
	str	r1, [r0, #4]
	.loc	1 34 15                         @ ../src/app.c:34:15
	ldr	r1, __arm_cp.0_3
	str	r1, [r0]
	.loc	1 36 19                         @ ../src/app.c:36:19
	bl	newLCDObj
	mov	r1, r0
	.loc	1 36 17 is_stmt 0               @ ../src/app.c:36:17
	ldr	r0, __arm_cp.0_4
	str	r0, [sp, #4]                    @ 4-byte Spill
	str	r1, [r0]
	.loc	1 37 2 is_stmt 1                @ ../src/app.c:37:2
	ldr	r0, [r0]
	.loc	1 37 15 is_stmt 0               @ ../src/app.c:37:15
	ldr	r1, [r0]
	.loc	1 37 2                          @ ../src/app.c:37:2
	blx	r1
	ldr	r0, [sp, #4]                    @ 4-byte Reload
	.loc	1 38 2 is_stmt 1                @ ../src/app.c:38:2
	ldr	r0, [r0]
	.loc	1 38 15 is_stmt 0               @ ../src/app.c:38:15
	ldr	r1, [r0, #12]
	.loc	1 38 2                          @ ../src/app.c:38:2
	blx	r1
	ldr	r0, [sp, #4]                    @ 4-byte Reload
	.loc	1 39 2 is_stmt 1                @ ../src/app.c:39:2
	ldr	r0, [r0]
	.loc	1 39 15 is_stmt 0               @ ../src/app.c:39:15
	ldr	r1, [r0, #16]
	.loc	1 39 2                          @ ../src/app.c:39:2
	blx	r1
	.loc	1 42 16 is_stmt 1               @ ../src/app.c:42:16
	ldr	r0, __arm_cp.0_5
	ldr	r1, __arm_cp.0_6
	str	r1, [r0, #8]
	.loc	1 43 16                         @ ../src/app.c:43:16
	ldr	r1, __arm_cp.0_7
	str	r1, [r0, #4]
	.loc	1 44 15                         @ ../src/app.c:44:15
	ldr	r1, __arm_cp.0_8
	str	r1, [r0]
	.loc	1 46 19                         @ ../src/app.c:46:19
	bl	newLCDObj
	mov	r1, r0
	.loc	1 46 17 is_stmt 0               @ ../src/app.c:46:17
	ldr	r0, __arm_cp.0_9
	str	r0, [sp, #8]                    @ 4-byte Spill
	str	r1, [r0]
	.loc	1 47 2 is_stmt 1                @ ../src/app.c:47:2
	ldr	r0, [r0]
	.loc	1 47 15 is_stmt 0               @ ../src/app.c:47:15
	ldr	r1, [r0]
	.loc	1 47 2                          @ ../src/app.c:47:2
	blx	r1
	ldr	r0, [sp, #8]                    @ 4-byte Reload
	.loc	1 48 2 is_stmt 1                @ ../src/app.c:48:2
	ldr	r0, [r0]
	.loc	1 48 15 is_stmt 0               @ ../src/app.c:48:15
	ldr	r1, [r0, #12]
	.loc	1 48 2                          @ ../src/app.c:48:2
	blx	r1
	ldr	r0, [sp, #8]                    @ 4-byte Reload
	.loc	1 49 2 is_stmt 1                @ ../src/app.c:49:2
	ldr	r0, [r0]
	.loc	1 49 15 is_stmt 0               @ ../src/app.c:49:15
	ldr	r1, [r0, #16]
	.loc	1 49 2                          @ ../src/app.c:49:2
	blx	r1
	.loc	1 52 16 is_stmt 1               @ ../src/app.c:52:16
	ldr	r0, __arm_cp.0_10
	ldr	r1, __arm_cp.0_11
	str	r1, [r0, #8]
	.loc	1 53 16                         @ ../src/app.c:53:16
	ldr	r1, __arm_cp.0_12
	str	r1, [r0, #4]
	.loc	1 54 15                         @ ../src/app.c:54:15
	ldr	r1, __arm_cp.0_13
	str	r1, [r0]
	.loc	1 56 19                         @ ../src/app.c:56:19
	bl	newLCDObj
	mov	r1, r0
	.loc	1 56 17 is_stmt 0               @ ../src/app.c:56:17
	ldr	r0, __arm_cp.0_14
	str	r0, [sp, #12]                   @ 4-byte Spill
	str	r1, [r0]
	.loc	1 57 2 is_stmt 1                @ ../src/app.c:57:2
	ldr	r0, [r0]
	.loc	1 57 15 is_stmt 0               @ ../src/app.c:57:15
	ldr	r1, [r0]
	.loc	1 57 2                          @ ../src/app.c:57:2
	blx	r1
	ldr	r0, [sp, #12]                   @ 4-byte Reload
	.loc	1 58 2 is_stmt 1                @ ../src/app.c:58:2
	ldr	r0, [r0]
	.loc	1 58 15 is_stmt 0               @ ../src/app.c:58:15
	ldr	r1, [r0, #12]
	.loc	1 58 2                          @ ../src/app.c:58:2
	blx	r1
	ldr	r0, [sp, #12]                   @ 4-byte Reload
	.loc	1 59 2 is_stmt 1                @ ../src/app.c:59:2
	ldr	r0, [r0]
	.loc	1 59 15 is_stmt 0               @ ../src/app.c:59:15
	ldr	r1, [r0, #16]
	.loc	1 59 2                          @ ../src/app.c:59:2
	blx	r1
	.loc	1 61 17 is_stmt 1               @ ../src/app.c:61:17
	bl	newKeyPadObj
	mov	r1, r0
	.loc	1 61 15 is_stmt 0               @ ../src/app.c:61:15
	ldr	r0, __arm_cp.0_15
	str	r1, [r0]
	.loc	1 62 3 is_stmt 1                @ ../src/app.c:62:3
	ldr	r0, [r0]
	.loc	1 62 16 is_stmt 0               @ ../src/app.c:62:16
	ldr	r2, [r0]
	movs	r0, #5
	movs	r1, #4
	.loc	1 62 3                          @ ../src/app.c:62:3
	blx	r2
	.loc	1 63 5 is_stmt 1                @ ../src/app.c:63:5
	ldr	r1, __arm_cp.0_16
	movs	r0, #1
	str	r0, [r1]
	.loc	1 65 1                          @ ../src/app.c:65:1
	add	sp, #16
	pop	{r7, pc}
.Ltmp1:
	.p2align	2
@ %bb.1:
	.loc	1 0 1 is_stmt 0                 @ ../src/app.c:0:1
__arm_cp.0_0:
	.long	_param1
.Lcpi_end0:
	.size	__arm_cp.0_0, .Lcpi_end0-__arm_cp.0_0
__arm_cp.0_1:
	.long	SCREEN_1_AIP_A0Pin
.Lcpi_end1:
	.size	__arm_cp.0_1, .Lcpi_end1-__arm_cp.0_1
__arm_cp.0_2:
	.long	SCREEN_1_AIP_ResetPin
.Lcpi_end2:
	.size	__arm_cp.0_2, .Lcpi_end2-__arm_cp.0_2
__arm_cp.0_3:
	.long	SCREEN_1_AIP_CSPin
.Lcpi_end3:
	.size	__arm_cp.0_3, .Lcpi_end3-__arm_cp.0_3
__arm_cp.0_4:
	.long	p_LcdObj_S1
.Lcpi_end4:
	.size	__arm_cp.0_4, .Lcpi_end4-__arm_cp.0_4
__arm_cp.0_5:
	.long	_param2
.Lcpi_end5:
	.size	__arm_cp.0_5, .Lcpi_end5-__arm_cp.0_5
__arm_cp.0_6:
	.long	SCREEN_2_AIP_A0Pin
.Lcpi_end6:
	.size	__arm_cp.0_6, .Lcpi_end6-__arm_cp.0_6
__arm_cp.0_7:
	.long	SCREEN_2_AIP_ResetPin
.Lcpi_end7:
	.size	__arm_cp.0_7, .Lcpi_end7-__arm_cp.0_7
__arm_cp.0_8:
	.long	SCREEN_2_AIP_CSPin
.Lcpi_end8:
	.size	__arm_cp.0_8, .Lcpi_end8-__arm_cp.0_8
__arm_cp.0_9:
	.long	p_LcdObj_S2
.Lcpi_end9:
	.size	__arm_cp.0_9, .Lcpi_end9-__arm_cp.0_9
__arm_cp.0_10:
	.long	_param3
.Lcpi_end10:
	.size	__arm_cp.0_10, .Lcpi_end10-__arm_cp.0_10
__arm_cp.0_11:
	.long	SCREEN_3_AIP_A0Pin
.Lcpi_end11:
	.size	__arm_cp.0_11, .Lcpi_end11-__arm_cp.0_11
__arm_cp.0_12:
	.long	SCREEN_3_AIP_ResetPin
.Lcpi_end12:
	.size	__arm_cp.0_12, .Lcpi_end12-__arm_cp.0_12
__arm_cp.0_13:
	.long	SCREEN_3_AIP_CSPin
.Lcpi_end13:
	.size	__arm_cp.0_13, .Lcpi_end13-__arm_cp.0_13
__arm_cp.0_14:
	.long	p_LcdObj_S3
.Lcpi_end14:
	.size	__arm_cp.0_14, .Lcpi_end14-__arm_cp.0_14
__arm_cp.0_15:
	.long	p_KeypadObj
.Lcpi_end15:
	.size	__arm_cp.0_15, .Lcpi_end15-__arm_cp.0_15
__arm_cp.0_16:
	.long	sil
.Lcpi_end16:
	.size	__arm_cp.0_16, .Lcpi_end16-__arm_cp.0_16
.Lfunc_end0:
	.size	APP_Init, .Lfunc_end0-APP_Init
	.cfi_endproc
	.cantunwind
	.fnend
                                        @ -- End function
	.section	.text.SCREEN_1_AIP_A0Pin,"ax",%progbits
	.hidden	SCREEN_1_AIP_A0Pin              @ -- Begin function SCREEN_1_AIP_A0Pin
	.globl	SCREEN_1_AIP_A0Pin
	.p2align	2
	.type	SCREEN_1_AIP_A0Pin,%function
	.code	16                              @ @SCREEN_1_AIP_A0Pin
	.thumb_func
SCREEN_1_AIP_A0Pin:
.Lfunc_begin1:
	.loc	1 113 0 is_stmt 1               @ ../src/app.c:113:0
	.fnstart
	.cfi_startproc
@ %bb.0:
	.pad	#4
	sub	sp, #4
	.cfi_def_cfa_offset 4
	mov	r1, r0
                                        @ kill: def $r0 killed $r1
	mov	r0, sp
	strb	r1, [r0]
.Ltmp2:
	.loc	1 114 6 prologue_end            @ ../src/app.c:114:6
	ldrb	r0, [r0]
	ldr	r1, __arm_cp.1_0
	.loc	1 114 5 is_stmt 0               @ ../src/app.c:114:5
	str	r0, [r1]
	.loc	1 115 1 is_stmt 1               @ ../src/app.c:115:1
	add	sp, #4
	bx	lr
.Ltmp3:
	.p2align	2
@ %bb.1:
	.loc	1 0 1 is_stmt 0                 @ ../src/app.c:0:1
__arm_cp.1_0:
	.long	1073760268                      @ 0x4000480c
.Lcpi_end17:
	.size	__arm_cp.1_0, .Lcpi_end17-__arm_cp.1_0
.Lfunc_end1:
	.size	SCREEN_1_AIP_A0Pin, .Lfunc_end1-SCREEN_1_AIP_A0Pin
	.cfi_endproc
	.cantunwind
	.fnend
                                        @ -- End function
	.section	.text.SCREEN_1_AIP_ResetPin,"ax",%progbits
	.hidden	SCREEN_1_AIP_ResetPin           @ -- Begin function SCREEN_1_AIP_ResetPin
	.globl	SCREEN_1_AIP_ResetPin
	.p2align	2
	.type	SCREEN_1_AIP_ResetPin,%function
	.code	16                              @ @SCREEN_1_AIP_ResetPin
	.thumb_func
SCREEN_1_AIP_ResetPin:
.Lfunc_begin2:
	.loc	1 109 0 is_stmt 1               @ ../src/app.c:109:0
	.fnstart
	.cfi_startproc
@ %bb.0:
	.pad	#4
	sub	sp, #4
	.cfi_def_cfa_offset 4
	mov	r1, r0
                                        @ kill: def $r0 killed $r1
	mov	r0, sp
	strb	r1, [r0]
.Ltmp4:
	.loc	1 110 6 prologue_end            @ ../src/app.c:110:6
	ldrb	r0, [r0]
	ldr	r1, __arm_cp.2_0
	.loc	1 110 5 is_stmt 0               @ ../src/app.c:110:5
	str	r0, [r1]
	.loc	1 111 1 is_stmt 1               @ ../src/app.c:111:1
	add	sp, #4
	bx	lr
.Ltmp5:
	.p2align	2
@ %bb.1:
	.loc	1 0 1 is_stmt 0                 @ ../src/app.c:0:1
__arm_cp.2_0:
	.long	1073760276                      @ 0x40004814
.Lcpi_end18:
	.size	__arm_cp.2_0, .Lcpi_end18-__arm_cp.2_0
.Lfunc_end2:
	.size	SCREEN_1_AIP_ResetPin, .Lfunc_end2-SCREEN_1_AIP_ResetPin
	.cfi_endproc
	.cantunwind
	.fnend
                                        @ -- End function
	.section	.text.SCREEN_1_AIP_CSPin,"ax",%progbits
	.hidden	SCREEN_1_AIP_CSPin              @ -- Begin function SCREEN_1_AIP_CSPin
	.globl	SCREEN_1_AIP_CSPin
	.p2align	2
	.type	SCREEN_1_AIP_CSPin,%function
	.code	16                              @ @SCREEN_1_AIP_CSPin
	.thumb_func
SCREEN_1_AIP_CSPin:
.Lfunc_begin3:
	.loc	1 117 0 is_stmt 1               @ ../src/app.c:117:0
	.fnstart
	.cfi_startproc
@ %bb.0:
	.pad	#4
	sub	sp, #4
	.cfi_def_cfa_offset 4
	mov	r1, r0
                                        @ kill: def $r0 killed $r1
	mov	r0, sp
	strb	r1, [r0]
.Ltmp6:
	.loc	1 118 6 prologue_end            @ ../src/app.c:118:6
	ldrb	r0, [r0]
	ldr	r1, __arm_cp.3_0
	.loc	1 118 5 is_stmt 0               @ ../src/app.c:118:5
	str	r0, [r1]
	.loc	1 119 1 is_stmt 1               @ ../src/app.c:119:1
	add	sp, #4
	bx	lr
.Ltmp7:
	.p2align	2
@ %bb.1:
	.loc	1 0 1 is_stmt 0                 @ ../src/app.c:0:1
__arm_cp.3_0:
	.long	1073760272                      @ 0x40004810
.Lcpi_end19:
	.size	__arm_cp.3_0, .Lcpi_end19-__arm_cp.3_0
.Lfunc_end3:
	.size	SCREEN_1_AIP_CSPin, .Lfunc_end3-SCREEN_1_AIP_CSPin
	.cfi_endproc
	.cantunwind
	.fnend
                                        @ -- End function
	.section	.text.SCREEN_2_AIP_A0Pin,"ax",%progbits
	.hidden	SCREEN_2_AIP_A0Pin              @ -- Begin function SCREEN_2_AIP_A0Pin
	.globl	SCREEN_2_AIP_A0Pin
	.p2align	2
	.type	SCREEN_2_AIP_A0Pin,%function
	.code	16                              @ @SCREEN_2_AIP_A0Pin
	.thumb_func
SCREEN_2_AIP_A0Pin:
.Lfunc_begin4:
	.loc	1 128 0 is_stmt 1               @ ../src/app.c:128:0
	.fnstart
	.cfi_startproc
@ %bb.0:
	.pad	#4
	sub	sp, #4
	.cfi_def_cfa_offset 4
	mov	r1, r0
                                        @ kill: def $r0 killed $r1
	mov	r0, sp
	strb	r1, [r0]
.Ltmp8:
	.loc	1 129 6 prologue_end            @ ../src/app.c:129:6
	ldrb	r0, [r0]
	ldr	r1, __arm_cp.4_0
	.loc	1 129 5 is_stmt 0               @ ../src/app.c:129:5
	str	r0, [r1]
	.loc	1 130 1 is_stmt 1               @ ../src/app.c:130:1
	add	sp, #4
	bx	lr
.Ltmp9:
	.p2align	2
@ %bb.1:
	.loc	1 0 1 is_stmt 0                 @ ../src/app.c:0:1
__arm_cp.4_0:
	.long	1073760340                      @ 0x40004854
.Lcpi_end20:
	.size	__arm_cp.4_0, .Lcpi_end20-__arm_cp.4_0
.Lfunc_end4:
	.size	SCREEN_2_AIP_A0Pin, .Lfunc_end4-SCREEN_2_AIP_A0Pin
	.cfi_endproc
	.cantunwind
	.fnend
                                        @ -- End function
	.section	.text.SCREEN_2_AIP_ResetPin,"ax",%progbits
	.hidden	SCREEN_2_AIP_ResetPin           @ -- Begin function SCREEN_2_AIP_ResetPin
	.globl	SCREEN_2_AIP_ResetPin
	.p2align	2
	.type	SCREEN_2_AIP_ResetPin,%function
	.code	16                              @ @SCREEN_2_AIP_ResetPin
	.thumb_func
SCREEN_2_AIP_ResetPin:
.Lfunc_begin5:
	.loc	1 124 0 is_stmt 1               @ ../src/app.c:124:0
	.fnstart
	.cfi_startproc
@ %bb.0:
	.pad	#4
	sub	sp, #4
	.cfi_def_cfa_offset 4
	mov	r1, r0
                                        @ kill: def $r0 killed $r1
	mov	r0, sp
	strb	r1, [r0]
.Ltmp10:
	.loc	1 125 6 prologue_end            @ ../src/app.c:125:6
	ldrb	r0, [r0]
	ldr	r1, __arm_cp.5_0
	.loc	1 125 5 is_stmt 0               @ ../src/app.c:125:5
	str	r0, [r1]
	.loc	1 126 1 is_stmt 1               @ ../src/app.c:126:1
	add	sp, #4
	bx	lr
.Ltmp11:
	.p2align	2
@ %bb.1:
	.loc	1 0 1 is_stmt 0                 @ ../src/app.c:0:1
__arm_cp.5_0:
	.long	1073760328                      @ 0x40004848
.Lcpi_end21:
	.size	__arm_cp.5_0, .Lcpi_end21-__arm_cp.5_0
.Lfunc_end5:
	.size	SCREEN_2_AIP_ResetPin, .Lfunc_end5-SCREEN_2_AIP_ResetPin
	.cfi_endproc
	.cantunwind
	.fnend
                                        @ -- End function
	.section	.text.SCREEN_2_AIP_CSPin,"ax",%progbits
	.hidden	SCREEN_2_AIP_CSPin              @ -- Begin function SCREEN_2_AIP_CSPin
	.globl	SCREEN_2_AIP_CSPin
	.p2align	2
	.type	SCREEN_2_AIP_CSPin,%function
	.code	16                              @ @SCREEN_2_AIP_CSPin
	.thumb_func
SCREEN_2_AIP_CSPin:
.Lfunc_begin6:
	.loc	1 132 0 is_stmt 1               @ ../src/app.c:132:0
	.fnstart
	.cfi_startproc
@ %bb.0:
	.pad	#4
	sub	sp, #4
	.cfi_def_cfa_offset 4
	mov	r1, r0
                                        @ kill: def $r0 killed $r1
	mov	r0, sp
	strb	r1, [r0]
.Ltmp12:
	.loc	1 133 6 prologue_end            @ ../src/app.c:133:6
	ldrb	r0, [r0]
	ldr	r1, __arm_cp.6_0
	.loc	1 133 5 is_stmt 0               @ ../src/app.c:133:5
	str	r0, [r1]
	.loc	1 134 1 is_stmt 1               @ ../src/app.c:134:1
	add	sp, #4
	bx	lr
.Ltmp13:
	.p2align	2
@ %bb.1:
	.loc	1 0 1 is_stmt 0                 @ ../src/app.c:0:1
__arm_cp.6_0:
	.long	1073760336                      @ 0x40004850
.Lcpi_end22:
	.size	__arm_cp.6_0, .Lcpi_end22-__arm_cp.6_0
.Lfunc_end6:
	.size	SCREEN_2_AIP_CSPin, .Lfunc_end6-SCREEN_2_AIP_CSPin
	.cfi_endproc
	.cantunwind
	.fnend
                                        @ -- End function
	.section	.text.SCREEN_3_AIP_A0Pin,"ax",%progbits
	.hidden	SCREEN_3_AIP_A0Pin              @ -- Begin function SCREEN_3_AIP_A0Pin
	.globl	SCREEN_3_AIP_A0Pin
	.p2align	2
	.type	SCREEN_3_AIP_A0Pin,%function
	.code	16                              @ @SCREEN_3_AIP_A0Pin
	.thumb_func
SCREEN_3_AIP_A0Pin:
.Lfunc_begin7:
	.loc	1 143 0 is_stmt 1               @ ../src/app.c:143:0
	.fnstart
	.cfi_startproc
@ %bb.0:
	.pad	#4
	sub	sp, #4
	.cfi_def_cfa_offset 4
	mov	r1, r0
                                        @ kill: def $r0 killed $r1
	mov	r0, sp
	strb	r1, [r0]
.Ltmp14:
	.loc	1 144 6 prologue_end            @ ../src/app.c:144:6
	ldrb	r0, [r0]
	ldr	r1, __arm_cp.7_0
	.loc	1 144 5 is_stmt 0               @ ../src/app.c:144:5
	str	r0, [r1]
	.loc	1 145 1 is_stmt 1               @ ../src/app.c:145:1
	add	sp, #4
	bx	lr
.Ltmp15:
	.p2align	2
@ %bb.1:
	.loc	1 0 1 is_stmt 0                 @ ../src/app.c:0:1
__arm_cp.7_0:
	.long	1073760352                      @ 0x40004860
.Lcpi_end23:
	.size	__arm_cp.7_0, .Lcpi_end23-__arm_cp.7_0
.Lfunc_end7:
	.size	SCREEN_3_AIP_A0Pin, .Lfunc_end7-SCREEN_3_AIP_A0Pin
	.cfi_endproc
	.cantunwind
	.fnend
                                        @ -- End function
	.section	.text.SCREEN_3_AIP_ResetPin,"ax",%progbits
	.hidden	SCREEN_3_AIP_ResetPin           @ -- Begin function SCREEN_3_AIP_ResetPin
	.globl	SCREEN_3_AIP_ResetPin
	.p2align	2
	.type	SCREEN_3_AIP_ResetPin,%function
	.code	16                              @ @SCREEN_3_AIP_ResetPin
	.thumb_func
SCREEN_3_AIP_ResetPin:
.Lfunc_begin8:
	.loc	1 139 0 is_stmt 1               @ ../src/app.c:139:0
	.fnstart
	.cfi_startproc
@ %bb.0:
	.pad	#4
	sub	sp, #4
	.cfi_def_cfa_offset 4
	mov	r1, r0
                                        @ kill: def $r0 killed $r1
	mov	r0, sp
	strb	r1, [r0]
.Ltmp16:
	.loc	1 140 6 prologue_end            @ ../src/app.c:140:6
	ldrb	r0, [r0]
	ldr	r1, __arm_cp.8_0
	.loc	1 140 5 is_stmt 0               @ ../src/app.c:140:5
	str	r0, [r1]
	.loc	1 141 1 is_stmt 1               @ ../src/app.c:141:1
	add	sp, #4
	bx	lr
.Ltmp17:
	.p2align	2
@ %bb.1:
	.loc	1 0 1 is_stmt 0                 @ ../src/app.c:0:1
__arm_cp.8_0:
	.long	1073760348                      @ 0x4000485c
.Lcpi_end24:
	.size	__arm_cp.8_0, .Lcpi_end24-__arm_cp.8_0
.Lfunc_end8:
	.size	SCREEN_3_AIP_ResetPin, .Lfunc_end8-SCREEN_3_AIP_ResetPin
	.cfi_endproc
	.cantunwind
	.fnend
                                        @ -- End function
	.section	.text.SCREEN_3_AIP_CSPin,"ax",%progbits
	.hidden	SCREEN_3_AIP_CSPin              @ -- Begin function SCREEN_3_AIP_CSPin
	.globl	SCREEN_3_AIP_CSPin
	.p2align	2
	.type	SCREEN_3_AIP_CSPin,%function
	.code	16                              @ @SCREEN_3_AIP_CSPin
	.thumb_func
SCREEN_3_AIP_CSPin:
.Lfunc_begin9:
	.loc	1 147 0 is_stmt 1               @ ../src/app.c:147:0
	.fnstart
	.cfi_startproc
@ %bb.0:
	.pad	#4
	sub	sp, #4
	.cfi_def_cfa_offset 4
	mov	r1, r0
                                        @ kill: def $r0 killed $r1
	mov	r0, sp
	strb	r1, [r0]
.Ltmp18:
	.loc	1 148 6 prologue_end            @ ../src/app.c:148:6
	ldrb	r0, [r0]
	ldr	r1, __arm_cp.9_0
	.loc	1 148 5 is_stmt 0               @ ../src/app.c:148:5
	str	r0, [r1]
	.loc	1 149 1 is_stmt 1               @ ../src/app.c:149:1
	add	sp, #4
	bx	lr
.Ltmp19:
	.p2align	2
@ %bb.1:
	.loc	1 0 1 is_stmt 0                 @ ../src/app.c:0:1
__arm_cp.9_0:
	.long	1073760356                      @ 0x40004864
.Lcpi_end25:
	.size	__arm_cp.9_0, .Lcpi_end25-__arm_cp.9_0
.Lfunc_end9:
	.size	SCREEN_3_AIP_CSPin, .Lfunc_end9-SCREEN_3_AIP_CSPin
	.cfi_endproc
	.cantunwind
	.fnend
                                        @ -- End function
	.section	.text.APP_SetBatteryLevel,"ax",%progbits
	.hidden	APP_SetBatteryLevel             @ -- Begin function APP_SetBatteryLevel
	.globl	APP_SetBatteryLevel
	.p2align	1
	.type	APP_SetBatteryLevel,%function
	.code	16                              @ @APP_SetBatteryLevel
	.thumb_func
APP_SetBatteryLevel:
.Lfunc_begin10:
	.loc	1 67 0 is_stmt 1                @ ../src/app.c:67:0
	.fnstart
	.cfi_startproc
@ %bb.0:
	.save	{r7, lr}
	push	{r7, lr}
	.cfi_def_cfa_offset 8
	.cfi_offset lr, -4
	.cfi_offset r7, -8
	.pad	#24
	sub	sp, #24
	.cfi_def_cfa_offset 32
                                        @ kill: def $r2 killed $r0
	add	r2, sp, #20
	str	r2, [sp, #8]                    @ 4-byte Spill
	strb	r0, [r2]
	str	r1, [sp, #16]
.Ltmp20:
	.loc	1 68 2 prologue_end             @ ../src/app.c:68:2
	ldr	r2, [sp, #16]
	.loc	1 68 5 is_stmt 0                @ ../src/app.c:68:5
	ldr	r3, [r2, #36]
	movs	r1, #1
	.loc	1 68 2                          @ ../src/app.c:68:2
	mov	r0, r1
	blx	r3
	ldr	r0, [sp, #8]                    @ 4-byte Reload
	.loc	1 69 9 is_stmt 1                @ ../src/app.c:69:9
	ldrb	r0, [r0]
	.loc	1 69 2 is_stmt 0                @ ../src/app.c:69:2
	str	r0, [sp, #12]                   @ 4-byte Spill
	cbz	r0, .LBB10_3
	b	.LBB10_1
.LBB10_1:
	ldr	r0, [sp, #12]                   @ 4-byte Reload
	cmp	r0, #1
	beq	.LBB10_4
	b	.LBB10_2
.LBB10_2:
	ldr	r0, [sp, #12]                   @ 4-byte Reload
	cmp	r0, #2
	beq	.LBB10_5
	b	.LBB10_6
.LBB10_3:
.Ltmp21:
	.loc	1 71 4 is_stmt 1                @ ../src/app.c:71:4
	ldr	r2, [sp, #16]
	.loc	1 71 7 is_stmt 0                @ ../src/app.c:71:7
	ldr	r3, [r2, #36]
	movs	r0, #3
	movs	r1, #0
	.loc	1 71 4                          @ ../src/app.c:71:4
	str	r1, [sp, #4]                    @ 4-byte Spill
	blx	r3
	ldr	r1, [sp, #4]                    @ 4-byte Reload
	.loc	1 72 4 is_stmt 1                @ ../src/app.c:72:4
	ldr	r2, [sp, #16]
	.loc	1 72 7 is_stmt 0                @ ../src/app.c:72:7
	ldr	r3, [r2, #36]
	movs	r0, #2
	.loc	1 72 4                          @ ../src/app.c:72:4
	blx	r3
	.loc	1 73 4 is_stmt 1                @ ../src/app.c:73:4
	b	.LBB10_6
.LBB10_4:
	.loc	1 75 4                          @ ../src/app.c:75:4
	ldr	r2, [sp, #16]
	.loc	1 75 7 is_stmt 0                @ ../src/app.c:75:7
	ldr	r3, [r2, #36]
	movs	r0, #3
	movs	r1, #1
	.loc	1 75 4                          @ ../src/app.c:75:4
	blx	r3
	.loc	1 76 4 is_stmt 1                @ ../src/app.c:76:4
	ldr	r2, [sp, #16]
	.loc	1 76 7 is_stmt 0                @ ../src/app.c:76:7
	ldr	r3, [r2, #36]
	movs	r0, #2
	movs	r1, #0
	.loc	1 76 4                          @ ../src/app.c:76:4
	blx	r3
	.loc	1 77 4 is_stmt 1                @ ../src/app.c:77:4
	b	.LBB10_6
.LBB10_5:
	.loc	1 79 4                          @ ../src/app.c:79:4
	ldr	r2, [sp, #16]
	.loc	1 79 7 is_stmt 0                @ ../src/app.c:79:7
	ldr	r3, [r2, #36]
	movs	r0, #3
	movs	r1, #1
	.loc	1 79 4                          @ ../src/app.c:79:4
	str	r1, [sp]                        @ 4-byte Spill
	blx	r3
	ldr	r1, [sp]                        @ 4-byte Reload
	.loc	1 80 4 is_stmt 1                @ ../src/app.c:80:4
	ldr	r2, [sp, #16]
	.loc	1 80 7 is_stmt 0                @ ../src/app.c:80:7
	ldr	r3, [r2, #36]
	movs	r0, #2
	.loc	1 80 4                          @ ../src/app.c:80:4
	blx	r3
	.loc	1 81 4 is_stmt 1                @ ../src/app.c:81:4
	b	.LBB10_6
.Ltmp22:
.LBB10_6:
	.loc	1 83 1                          @ ../src/app.c:83:1
	add	sp, #24
	pop	{r7, pc}
.Ltmp23:
.Lfunc_end10:
	.size	APP_SetBatteryLevel, .Lfunc_end10-APP_SetBatteryLevel
	.cfi_endproc
	.cantunwind
	.fnend
                                        @ -- End function
	.section	.text.APP_Handle,"ax",%progbits
	.hidden	APP_Handle                      @ -- Begin function APP_Handle
	.globl	APP_Handle
	.p2align	2
	.type	APP_Handle,%function
	.code	16                              @ @APP_Handle
	.thumb_func
APP_Handle:
.Lfunc_begin11:
	.loc	1 85 0                          @ ../src/app.c:85:0
	.fnstart
	.cfi_startproc
@ %bb.0:
	.save	{r4, lr}
	push	{r4, lr}
	.cfi_def_cfa_offset 8
	.cfi_offset lr, -4
	.cfi_offset r4, -8
	.pad	#40
	sub	sp, #40
	.cfi_def_cfa_offset 48
.Ltmp24:
	.loc	1 86 2 prologue_end             @ ../src/app.c:86:2
	ldr	r0, __arm_cp.11_0
	str	r0, [sp, #8]                    @ 4-byte Spill
	ldr	r0, [r0]
	.loc	1 86 15 is_stmt 0               @ ../src/app.c:86:15
	ldr	r4, [r0, #32]
	.loc	1 86 2                          @ ../src/app.c:86:2
	str	r0, [sp]
	ldr	r2, __arm_cp.11_1
	ldr	r3, __arm_cp.11_2
	str	r3, [sp, #24]                   @ 4-byte Spill
	movs	r1, #0
	str	r1, [sp, #16]                   @ 4-byte Spill
	mov	r0, r1
	blx	r4
	ldr	r0, [sp, #8]                    @ 4-byte Reload
	.loc	1 87 35 is_stmt 1               @ ../src/app.c:87:35
	ldr	r1, [r0]
	movs	r0, #2
	.loc	1 87 2 is_stmt 0                @ ../src/app.c:87:2
	str	r0, [sp, #28]                   @ 4-byte Spill
	bl	APP_SetBatteryLevel
	ldr	r0, [sp, #8]                    @ 4-byte Reload
	.loc	1 88 2 is_stmt 1                @ ../src/app.c:88:2
	ldr	r0, [r0]
	.loc	1 88 15 is_stmt 0               @ ../src/app.c:88:15
	ldr	r1, [r0, #16]
	.loc	1 88 2                          @ ../src/app.c:88:2
	blx	r1
	ldr	r1, [sp, #16]                   @ 4-byte Reload
	ldr	r3, [sp, #24]                   @ 4-byte Reload
	.loc	1 91 2 is_stmt 1                @ ../src/app.c:91:2
	ldr	r0, __arm_cp.11_3
	str	r0, [sp, #12]                   @ 4-byte Spill
	ldr	r0, [r0]
	.loc	1 91 15 is_stmt 0               @ ../src/app.c:91:15
	ldr	r4, [r0, #32]
	.loc	1 91 2                          @ ../src/app.c:91:2
	str	r0, [sp]
	ldr	r2, __arm_cp.11_4
	str	r2, [sp, #20]                   @ 4-byte Spill
	mov	r0, r1
	blx	r4
	ldr	r1, [sp, #12]                   @ 4-byte Reload
	ldr	r0, [sp, #28]                   @ 4-byte Reload
	.loc	1 92 35 is_stmt 1               @ ../src/app.c:92:35
	ldr	r1, [r1]
	.loc	1 92 2 is_stmt 0                @ ../src/app.c:92:2
	bl	APP_SetBatteryLevel
	ldr	r0, [sp, #12]                   @ 4-byte Reload
	.loc	1 93 2 is_stmt 1                @ ../src/app.c:93:2
	ldr	r0, [r0]
	.loc	1 93 15 is_stmt 0               @ ../src/app.c:93:15
	ldr	r1, [r0, #16]
	.loc	1 93 2                          @ ../src/app.c:93:2
	blx	r1
	ldr	r1, [sp, #16]                   @ 4-byte Reload
	ldr	r2, [sp, #20]                   @ 4-byte Reload
	ldr	r3, [sp, #24]                   @ 4-byte Reload
	.loc	1 96 2 is_stmt 1                @ ../src/app.c:96:2
	ldr	r0, __arm_cp.11_5
	str	r0, [sp, #32]                   @ 4-byte Spill
	ldr	r0, [r0]
	.loc	1 96 15 is_stmt 0               @ ../src/app.c:96:15
	ldr	r4, [r0, #32]
	.loc	1 96 2                          @ ../src/app.c:96:2
	str	r0, [sp]
	mov	r0, r1
	blx	r4
	ldr	r0, [sp, #28]                   @ 4-byte Reload
	ldr	r1, [sp, #32]                   @ 4-byte Reload
	.loc	1 97 35 is_stmt 1               @ ../src/app.c:97:35
	ldr	r1, [r1]
	.loc	1 97 2 is_stmt 0                @ ../src/app.c:97:2
	bl	APP_SetBatteryLevel
	ldr	r0, [sp, #32]                   @ 4-byte Reload
	.loc	1 98 2 is_stmt 1                @ ../src/app.c:98:2
	ldr	r0, [r0]
	.loc	1 98 15 is_stmt 0               @ ../src/app.c:98:15
	ldr	r1, [r0, #16]
	.loc	1 98 2                          @ ../src/app.c:98:2
	blx	r1
	.loc	1 99 2 is_stmt 1                @ ../src/app.c:99:2
	b	.LBB11_1
.LBB11_1:                               @ =>This Inner Loop Header: Depth=1
.Ltmp25:
	.loc	1 100 19                        @ ../src/app.c:100:19
	ldr	r0, __arm_cp.11_6
	ldr	r0, [r0]
	.loc	1 100 32 is_stmt 0              @ ../src/app.c:100:32
	ldr	r0, [r0, #4]
	.loc	1 100 19                        @ ../src/app.c:100:19
	blx	r0
	.loc	1 100 7                         @ ../src/app.c:100:7
	str	r0, [sp, #36]
.Ltmp26:
	.loc	1 101 6 is_stmt 1               @ ../src/app.c:101:6
	ldr	r0, [sp, #36]
.Ltmp27:
	.loc	1 101 6 is_stmt 0               @ ../src/app.c:101:6
	cmp	r0, #1
	blt	.LBB11_3
	b	.LBB11_2
.LBB11_2:                               @   in Loop: Header=BB11_1 Depth=1
.Ltmp28:
	.loc	1 102 26 is_stmt 1              @ ../src/app.c:102:26
	ldr	r1, [sp, #36]
	.loc	1 102 4 is_stmt 0               @ ../src/app.c:102:4
	ldr	r0, __arm_cp.11_7
	bl	printf
	.loc	1 103 3 is_stmt 1               @ ../src/app.c:103:3
	b	.LBB11_3
.Ltmp29:
.LBB11_3:                               @   in Loop: Header=BB11_1 Depth=1
	.loc	1 99 2                          @ ../src/app.c:99:2
	b	.LBB11_1
.Ltmp30:
	.p2align	2
@ %bb.4:
	.loc	1 0 2 is_stmt 0                 @ ../src/app.c:0:2
__arm_cp.11_0:
	.long	p_LcdObj_S1
.Lcpi_end26:
	.size	__arm_cp.11_0, .Lcpi_end26-__arm_cp.11_0
__arm_cp.11_1:
	.long	.L.str
.Lcpi_end27:
	.size	__arm_cp.11_1, .Lcpi_end27-__arm_cp.11_1
__arm_cp.11_2:
	.long	font_small
.Lcpi_end28:
	.size	__arm_cp.11_2, .Lcpi_end28-__arm_cp.11_2
__arm_cp.11_3:
	.long	p_LcdObj_S2
.Lcpi_end29:
	.size	__arm_cp.11_3, .Lcpi_end29-__arm_cp.11_3
__arm_cp.11_4:
	.long	.L.str.1
.Lcpi_end30:
	.size	__arm_cp.11_4, .Lcpi_end30-__arm_cp.11_4
__arm_cp.11_5:
	.long	p_LcdObj_S3
.Lcpi_end31:
	.size	__arm_cp.11_5, .Lcpi_end31-__arm_cp.11_5
__arm_cp.11_6:
	.long	p_KeypadObj
.Lcpi_end32:
	.size	__arm_cp.11_6, .Lcpi_end32-__arm_cp.11_6
__arm_cp.11_7:
	.long	.L.str.2
.Lcpi_end33:
	.size	__arm_cp.11_7, .Lcpi_end33-__arm_cp.11_7
.Lfunc_end11:
	.size	APP_Handle, .Lfunc_end11-APP_Handle
	.cfi_endproc
	.cantunwind
	.fnend
                                        @ -- End function
	.section	.text.APP_StartScreen,"ax",%progbits
	.hidden	APP_StartScreen                 @ -- Begin function APP_StartScreen
	.globl	APP_StartScreen
	.p2align	2
	.type	APP_StartScreen,%function
	.code	16                              @ @APP_StartScreen
	.thumb_func
APP_StartScreen:
.Lfunc_begin12:
	.loc	1 151 0 is_stmt 1               @ ../src/app.c:151:0
	.fnstart
	.cfi_startproc
@ %bb.0:
	.save	{r4, lr}
	push	{r4, lr}
	.cfi_def_cfa_offset 8
	.cfi_offset lr, -4
	.cfi_offset r4, -8
	.pad	#24
	sub	sp, #24
	.cfi_def_cfa_offset 32
.Ltmp31:
	.loc	1 157 2 prologue_end            @ ../src/app.c:157:2
	ldr	r0, __arm_cp.12_0
	str	r0, [sp, #16]                   @ 4-byte Spill
	ldr	r0, [r0]
	.loc	1 157 15 is_stmt 0              @ ../src/app.c:157:15
	ldr	r1, [r0, #12]
	.loc	1 157 2                         @ ../src/app.c:157:2
	blx	r1
	ldr	r0, [sp, #16]                   @ 4-byte Reload
	.loc	1 158 36 is_stmt 1              @ ../src/app.c:158:36
	ldr	r1, [r0]
	movs	r0, #2
	.loc	1 158 3 is_stmt 0               @ ../src/app.c:158:3
	bl	APP_SetBatteryLevel
	.loc	1 159 2 is_stmt 1               @ ../src/app.c:159:2
	bl	APP_All_Point_High
	ldr	r0, [sp, #16]                   @ 4-byte Reload
	.loc	1 160 2                         @ ../src/app.c:160:2
	ldr	r0, [r0]
	.loc	1 160 15 is_stmt 0              @ ../src/app.c:160:15
	ldr	r4, [r0, #32]
	.loc	1 160 2                         @ ../src/app.c:160:2
	str	r0, [sp]
	ldr	r2, __arm_cp.12_1
	ldr	r3, __arm_cp.12_2
	str	r3, [sp, #12]                   @ 4-byte Spill
	movs	r1, #0
	str	r1, [sp, #8]                    @ 4-byte Spill
	mov	r0, r1
	blx	r4
	.loc	1 161 2 is_stmt 1               @ ../src/app.c:161:2
	bl	APP_All_Point_High
	ldr	r0, [sp, #16]                   @ 4-byte Reload
	.loc	1 162 2                         @ ../src/app.c:162:2
	ldr	r0, [r0]
	.loc	1 162 15 is_stmt 0              @ ../src/app.c:162:15
	ldr	r1, [r0, #16]
	.loc	1 162 2                         @ ../src/app.c:162:2
	blx	r1
	ldr	r0, __arm_cp.12_3
	.loc	1 163 2 is_stmt 1               @ ../src/app.c:163:2
	str	r0, [sp, #20]                   @ 4-byte Spill
	bl	CLK_SysTickLongDelay
	ldr	r1, [sp, #8]                    @ 4-byte Reload
	ldr	r3, [sp, #12]                   @ 4-byte Reload
	ldr	r0, [sp, #16]                   @ 4-byte Reload
	.loc	1 164 2                         @ ../src/app.c:164:2
	ldr	r0, [r0]
	.loc	1 164 15 is_stmt 0              @ ../src/app.c:164:15
	ldr	r4, [r0, #32]
	.loc	1 164 2                         @ ../src/app.c:164:2
	str	r0, [sp]
	ldr	r2, __arm_cp.12_4
	mov	r0, r1
	blx	r4
	.loc	1 165 2 is_stmt 1               @ ../src/app.c:165:2
	bl	APP_All_Point_High
	ldr	r0, [sp, #16]                   @ 4-byte Reload
	.loc	1 166 2                         @ ../src/app.c:166:2
	ldr	r0, [r0]
	.loc	1 166 15 is_stmt 0              @ ../src/app.c:166:15
	ldr	r1, [r0, #16]
	.loc	1 166 2                         @ ../src/app.c:166:2
	blx	r1
	ldr	r0, [sp, #20]                   @ 4-byte Reload
	.loc	1 167 2 is_stmt 1               @ ../src/app.c:167:2
	bl	CLK_SysTickLongDelay
	ldr	r1, [sp, #8]                    @ 4-byte Reload
	ldr	r3, [sp, #12]                   @ 4-byte Reload
	ldr	r0, [sp, #16]                   @ 4-byte Reload
	.loc	1 168 2                         @ ../src/app.c:168:2
	ldr	r0, [r0]
	.loc	1 168 15 is_stmt 0              @ ../src/app.c:168:15
	ldr	r4, [r0, #32]
	.loc	1 168 2                         @ ../src/app.c:168:2
	str	r0, [sp]
	ldr	r2, __arm_cp.12_5
	mov	r0, r1
	blx	r4
	.loc	1 169 2 is_stmt 1               @ ../src/app.c:169:2
	bl	APP_All_Point_High
	ldr	r0, [sp, #16]                   @ 4-byte Reload
	.loc	1 170 2                         @ ../src/app.c:170:2
	ldr	r0, [r0]
	.loc	1 170 15 is_stmt 0              @ ../src/app.c:170:15
	ldr	r1, [r0, #16]
	.loc	1 170 2                         @ ../src/app.c:170:2
	blx	r1
	ldr	r0, [sp, #20]                   @ 4-byte Reload
	.loc	1 171 2 is_stmt 1               @ ../src/app.c:171:2
	bl	CLK_SysTickLongDelay
	ldr	r1, [sp, #8]                    @ 4-byte Reload
	ldr	r3, [sp, #12]                   @ 4-byte Reload
	ldr	r0, [sp, #16]                   @ 4-byte Reload
	.loc	1 172 2                         @ ../src/app.c:172:2
	ldr	r0, [r0]
	.loc	1 172 15 is_stmt 0              @ ../src/app.c:172:15
	ldr	r4, [r0, #32]
	.loc	1 172 2                         @ ../src/app.c:172:2
	str	r0, [sp]
	ldr	r2, __arm_cp.12_6
	mov	r0, r1
	blx	r4
	.loc	1 173 2 is_stmt 1               @ ../src/app.c:173:2
	bl	APP_All_Point_High
	ldr	r0, [sp, #16]                   @ 4-byte Reload
	.loc	1 174 2                         @ ../src/app.c:174:2
	ldr	r0, [r0]
	.loc	1 174 15 is_stmt 0              @ ../src/app.c:174:15
	ldr	r1, [r0, #16]
	.loc	1 174 2                         @ ../src/app.c:174:2
	blx	r1
	ldr	r0, [sp, #20]                   @ 4-byte Reload
	.loc	1 175 2 is_stmt 1               @ ../src/app.c:175:2
	bl	CLK_SysTickLongDelay
	ldr	r1, [sp, #8]                    @ 4-byte Reload
	ldr	r3, [sp, #12]                   @ 4-byte Reload
	ldr	r0, [sp, #16]                   @ 4-byte Reload
	.loc	1 176 2                         @ ../src/app.c:176:2
	ldr	r0, [r0]
	.loc	1 176 15 is_stmt 0              @ ../src/app.c:176:15
	ldr	r4, [r0, #32]
	.loc	1 176 2                         @ ../src/app.c:176:2
	str	r0, [sp]
	ldr	r2, __arm_cp.12_7
	mov	r0, r1
	blx	r4
	.loc	1 177 2 is_stmt 1               @ ../src/app.c:177:2
	bl	APP_All_Point_High
	ldr	r0, [sp, #16]                   @ 4-byte Reload
	.loc	1 178 2                         @ ../src/app.c:178:2
	ldr	r0, [r0]
	.loc	1 178 15 is_stmt 0              @ ../src/app.c:178:15
	ldr	r1, [r0, #16]
	.loc	1 178 2                         @ ../src/app.c:178:2
	blx	r1
	ldr	r0, [sp, #20]                   @ 4-byte Reload
	.loc	1 179 2 is_stmt 1               @ ../src/app.c:179:2
	bl	CLK_SysTickLongDelay
	ldr	r1, [sp, #8]                    @ 4-byte Reload
	ldr	r3, [sp, #12]                   @ 4-byte Reload
	ldr	r0, [sp, #16]                   @ 4-byte Reload
	.loc	1 180 2                         @ ../src/app.c:180:2
	ldr	r0, [r0]
	.loc	1 180 15 is_stmt 0              @ ../src/app.c:180:15
	ldr	r4, [r0, #32]
	.loc	1 180 2                         @ ../src/app.c:180:2
	str	r0, [sp]
	ldr	r2, __arm_cp.12_8
	mov	r0, r1
	blx	r4
	.loc	1 181 2 is_stmt 1               @ ../src/app.c:181:2
	bl	APP_All_Point_High
	ldr	r0, [sp, #16]                   @ 4-byte Reload
	.loc	1 182 2                         @ ../src/app.c:182:2
	ldr	r0, [r0]
	.loc	1 182 15 is_stmt 0              @ ../src/app.c:182:15
	ldr	r1, [r0, #16]
	.loc	1 182 2                         @ ../src/app.c:182:2
	blx	r1
	ldr	r0, [sp, #20]                   @ 4-byte Reload
	.loc	1 183 2 is_stmt 1               @ ../src/app.c:183:2
	bl	CLK_SysTickLongDelay
	ldr	r1, [sp, #8]                    @ 4-byte Reload
	ldr	r3, [sp, #12]                   @ 4-byte Reload
	ldr	r0, [sp, #16]                   @ 4-byte Reload
	.loc	1 184 2                         @ ../src/app.c:184:2
	ldr	r0, [r0]
	.loc	1 184 15 is_stmt 0              @ ../src/app.c:184:15
	ldr	r4, [r0, #32]
	.loc	1 184 2                         @ ../src/app.c:184:2
	str	r0, [sp]
	ldr	r2, __arm_cp.12_9
	mov	r0, r1
	blx	r4
	.loc	1 185 2 is_stmt 1               @ ../src/app.c:185:2
	bl	APP_All_Point_High
	ldr	r0, [sp, #16]                   @ 4-byte Reload
	.loc	1 186 2                         @ ../src/app.c:186:2
	ldr	r0, [r0]
	.loc	1 186 15 is_stmt 0              @ ../src/app.c:186:15
	ldr	r1, [r0, #16]
	.loc	1 186 2                         @ ../src/app.c:186:2
	blx	r1
	ldr	r0, [sp, #20]                   @ 4-byte Reload
	.loc	1 187 2 is_stmt 1               @ ../src/app.c:187:2
	bl	CLK_SysTickLongDelay
	ldr	r1, [sp, #8]                    @ 4-byte Reload
	ldr	r3, [sp, #12]                   @ 4-byte Reload
	ldr	r0, [sp, #16]                   @ 4-byte Reload
	.loc	1 188 2                         @ ../src/app.c:188:2
	ldr	r0, [r0]
	.loc	1 188 15 is_stmt 0              @ ../src/app.c:188:15
	ldr	r4, [r0, #32]
	.loc	1 188 2                         @ ../src/app.c:188:2
	str	r0, [sp]
	ldr	r2, __arm_cp.12_10
	mov	r0, r1
	blx	r4
	.loc	1 189 2 is_stmt 1               @ ../src/app.c:189:2
	bl	APP_All_Point_High
	ldr	r0, [sp, #16]                   @ 4-byte Reload
	.loc	1 190 2                         @ ../src/app.c:190:2
	ldr	r0, [r0]
	.loc	1 190 15 is_stmt 0              @ ../src/app.c:190:15
	ldr	r1, [r0, #16]
	.loc	1 190 2                         @ ../src/app.c:190:2
	blx	r1
	ldr	r0, [sp, #20]                   @ 4-byte Reload
	.loc	1 191 2 is_stmt 1               @ ../src/app.c:191:2
	bl	CLK_SysTickLongDelay
	ldr	r1, [sp, #8]                    @ 4-byte Reload
	ldr	r3, [sp, #12]                   @ 4-byte Reload
	ldr	r0, [sp, #16]                   @ 4-byte Reload
	.loc	1 192 2                         @ ../src/app.c:192:2
	ldr	r0, [r0]
	.loc	1 192 15 is_stmt 0              @ ../src/app.c:192:15
	ldr	r4, [r0, #32]
	.loc	1 192 2                         @ ../src/app.c:192:2
	str	r0, [sp]
	ldr	r2, __arm_cp.12_11
	mov	r0, r1
	blx	r4
	.loc	1 193 2 is_stmt 1               @ ../src/app.c:193:2
	bl	APP_All_Point_High
	ldr	r0, [sp, #16]                   @ 4-byte Reload
	.loc	1 194 2                         @ ../src/app.c:194:2
	ldr	r0, [r0]
	.loc	1 194 15 is_stmt 0              @ ../src/app.c:194:15
	ldr	r1, [r0, #16]
	.loc	1 194 2                         @ ../src/app.c:194:2
	blx	r1
	ldr	r0, [sp, #20]                   @ 4-byte Reload
	.loc	1 195 2 is_stmt 1               @ ../src/app.c:195:2
	bl	CLK_SysTickLongDelay
	ldr	r0, [sp, #16]                   @ 4-byte Reload
	.loc	1 196 2                         @ ../src/app.c:196:2
	ldr	r0, [r0]
	.loc	1 196 15 is_stmt 0              @ ../src/app.c:196:15
	ldr	r1, [r0, #16]
	.loc	1 196 2                         @ ../src/app.c:196:2
	blx	r1
	ldr	r1, [sp, #8]                    @ 4-byte Reload
	ldr	r3, [sp, #12]                   @ 4-byte Reload
	ldr	r0, [sp, #16]                   @ 4-byte Reload
	.loc	1 197 2 is_stmt 1               @ ../src/app.c:197:2
	ldr	r0, [r0]
	.loc	1 197 15 is_stmt 0              @ ../src/app.c:197:15
	ldr	r4, [r0, #32]
	.loc	1 197 2                         @ ../src/app.c:197:2
	str	r0, [sp]
	ldr	r2, __arm_cp.12_12
	mov	r0, r1
	blx	r4
	.loc	1 198 2 is_stmt 1               @ ../src/app.c:198:2
	bl	APP_All_Point_High
	ldr	r0, [sp, #16]                   @ 4-byte Reload
	.loc	1 199 2                         @ ../src/app.c:199:2
	ldr	r0, [r0]
	.loc	1 199 15 is_stmt 0              @ ../src/app.c:199:15
	ldr	r1, [r0, #16]
	.loc	1 199 2                         @ ../src/app.c:199:2
	blx	r1
	ldr	r0, [sp, #20]                   @ 4-byte Reload
	.loc	1 200 2 is_stmt 1               @ ../src/app.c:200:2
	bl	CLK_SysTickLongDelay
	.loc	1 202 1                         @ ../src/app.c:202:1
	add	sp, #24
	pop	{r4, pc}
.Ltmp32:
	.p2align	2
@ %bb.1:
	.loc	1 0 1 is_stmt 0                 @ ../src/app.c:0:1
__arm_cp.12_0:
	.long	p_LcdObj_S1
.Lcpi_end34:
	.size	__arm_cp.12_0, .Lcpi_end34-__arm_cp.12_0
__arm_cp.12_1:
	.long	.L.str.3
.Lcpi_end35:
	.size	__arm_cp.12_1, .Lcpi_end35-__arm_cp.12_1
__arm_cp.12_2:
	.long	font_small
.Lcpi_end36:
	.size	__arm_cp.12_2, .Lcpi_end36-__arm_cp.12_2
__arm_cp.12_3:
	.long	1000000                         @ 0xf4240
.Lcpi_end37:
	.size	__arm_cp.12_3, .Lcpi_end37-__arm_cp.12_3
__arm_cp.12_4:
	.long	.L.str.4
.Lcpi_end38:
	.size	__arm_cp.12_4, .Lcpi_end38-__arm_cp.12_4
__arm_cp.12_5:
	.long	.L.str.5
.Lcpi_end39:
	.size	__arm_cp.12_5, .Lcpi_end39-__arm_cp.12_5
__arm_cp.12_6:
	.long	.L.str.6
.Lcpi_end40:
	.size	__arm_cp.12_6, .Lcpi_end40-__arm_cp.12_6
__arm_cp.12_7:
	.long	.L.str.7
.Lcpi_end41:
	.size	__arm_cp.12_7, .Lcpi_end41-__arm_cp.12_7
__arm_cp.12_8:
	.long	.L.str.8
.Lcpi_end42:
	.size	__arm_cp.12_8, .Lcpi_end42-__arm_cp.12_8
__arm_cp.12_9:
	.long	.L.str.9
.Lcpi_end43:
	.size	__arm_cp.12_9, .Lcpi_end43-__arm_cp.12_9
__arm_cp.12_10:
	.long	.L.str.10
.Lcpi_end44:
	.size	__arm_cp.12_10, .Lcpi_end44-__arm_cp.12_10
__arm_cp.12_11:
	.long	.L.str.11
.Lcpi_end45:
	.size	__arm_cp.12_11, .Lcpi_end45-__arm_cp.12_11
__arm_cp.12_12:
	.long	.L.str.12
.Lcpi_end46:
	.size	__arm_cp.12_12, .Lcpi_end46-__arm_cp.12_12
.Lfunc_end12:
	.size	APP_StartScreen, .Lfunc_end12-APP_StartScreen
	.cfi_endproc
	.cantunwind
	.fnend
                                        @ -- End function
	.section	.text.CLK_SysTickLongDelay,"ax",%progbits
	.p2align	2                               @ -- Begin function CLK_SysTickLongDelay
	.type	CLK_SysTickLongDelay,%function
	.code	16                              @ @CLK_SysTickLongDelay
	.thumb_func
CLK_SysTickLongDelay:
.Lfunc_begin13:
	.file	7 "E:\\BERSY\\sdk\\SampleCode\\NuCodeGen\\scale_v1\\KEIL" "../../../../Library/StdDriver/inc\\clk.h"
	.loc	7 620 0 is_stmt 1               @ ../../../../Library/StdDriver/inc\clk.h:620:0
	.fnstart
	.cfi_startproc
@ %bb.0:
	.pad	#8
	sub	sp, #8
	.cfi_def_cfa_offset 8
	str	r0, [sp, #4]
	ldr	r0, __arm_cp.13_0
.Ltmp33:
	.loc	7 624 14 prologue_end           @ ../../../../Library/StdDriver/inc\clk.h:624:14
	str	r0, [sp]
	.loc	7 626 5                         @ ../../../../Library/StdDriver/inc\clk.h:626:5
	b	.LBB13_1
.LBB13_1:                               @ =>This Loop Header: Depth=1
                                        @     Child Loop BB13_5 Depth 2
.Ltmp34:
	.loc	7 628 13                        @ ../../../../Library/StdDriver/inc\clk.h:628:13
	ldr	r0, [sp, #4]
	.loc	7 628 23 is_stmt 0              @ ../../../../Library/StdDriver/inc\clk.h:628:23
	ldr	r1, [sp]
.Ltmp35:
	.loc	7 628 13                        @ ../../../../Library/StdDriver/inc\clk.h:628:13
	cmp	r0, r1
	bls	.LBB13_3
	b	.LBB13_2
.LBB13_2:                               @   in Loop: Header=BB13_1 Depth=1
.Ltmp36:
	.loc	7 630 24 is_stmt 1              @ ../../../../Library/StdDriver/inc\clk.h:630:24
	ldr	r1, [sp]
	.loc	7 630 21 is_stmt 0              @ ../../../../Library/StdDriver/inc\clk.h:630:21
	ldr	r0, [sp, #4]
	subs	r0, r0, r1
	str	r0, [sp, #4]
	.loc	7 631 9 is_stmt 1               @ ../../../../Library/StdDriver/inc\clk.h:631:9
	b	.LBB13_4
.Ltmp37:
.LBB13_3:                               @   in Loop: Header=BB13_1 Depth=1
	.loc	7 634 24                        @ ../../../../Library/StdDriver/inc\clk.h:634:24
	ldr	r0, [sp, #4]
	.loc	7 634 22 is_stmt 0              @ ../../../../Library/StdDriver/inc\clk.h:634:22
	str	r0, [sp]
	movs	r0, #0
	.loc	7 635 21 is_stmt 1              @ ../../../../Library/StdDriver/inc\clk.h:635:21
	str	r0, [sp, #4]
	b	.LBB13_4
.Ltmp38:
.LBB13_4:                               @   in Loop: Header=BB13_1 Depth=1
	.loc	7 638 25                        @ ../../../../Library/StdDriver/inc\clk.h:638:25
	ldr	r1, [sp]
	.loc	7 638 36 is_stmt 0              @ ../../../../Library/StdDriver/inc\clk.h:638:36
	ldr	r0, __arm_cp.13_1
	ldr	r0, [r0]
	.loc	7 638 34                        @ ../../../../Library/StdDriver/inc\clk.h:638:34
	muls	r0, r1, r0
	ldr	r1, __arm_cp.13_2
	.loc	7 638 23                        @ ../../../../Library/StdDriver/inc\clk.h:638:23
	str	r0, [r1]
	ldr	r1, __arm_cp.13_3
	movs	r0, #0
	.loc	7 639 23 is_stmt 1              @ ../../../../Library/StdDriver/inc\clk.h:639:23
	str	r0, [r1]
	ldr	r1, __arm_cp.13_4
	movs	r0, #5
	.loc	7 640 23                        @ ../../../../Library/StdDriver/inc\clk.h:640:23
	str	r0, [r1]
	.loc	7 643 9                         @ ../../../../Library/StdDriver/inc\clk.h:643:9
	b	.LBB13_5
.LBB13_5:                               @   Parent Loop BB13_1 Depth=1
                                        @ =>  This Inner Loop Header: Depth=2
	.loc	7 0 9 is_stmt 0                 @ ../../../../Library/StdDriver/inc\clk.h:0:9
	ldr	r0, __arm_cp.13_4
	.loc	7 643 26                        @ ../../../../Library/StdDriver/inc\clk.h:643:26
	ldr	r0, [r0]
	.loc	7 643 9                         @ ../../../../Library/StdDriver/inc\clk.h:643:9
	lsls	r0, r0, #15
	cmp	r0, #0
	bmi	.LBB13_7
	b	.LBB13_6
.LBB13_6:                               @   in Loop: Header=BB13_5 Depth=2
	b	.LBB13_5
.LBB13_7:                               @   in Loop: Header=BB13_1 Depth=1
	.loc	7 0 9                           @ ../../../../Library/StdDriver/inc\clk.h:0:9
	ldr	r1, __arm_cp.13_4
	movs	r0, #0
	.loc	7 648 23 is_stmt 1              @ ../../../../Library/StdDriver/inc\clk.h:648:23
	str	r0, [r1]
	.loc	7 650 5                         @ ../../../../Library/StdDriver/inc\clk.h:650:5
	b	.LBB13_8
.Ltmp39:
.LBB13_8:                               @   in Loop: Header=BB13_1 Depth=1
	.loc	7 650 14 is_stmt 0              @ ../../../../Library/StdDriver/inc\clk.h:650:14
	ldr	r0, [sp, #4]
.Ltmp40:
	.loc	7 650 5                         @ ../../../../Library/StdDriver/inc\clk.h:650:5
	cmp	r0, #0
	bne	.LBB13_1
	b	.LBB13_9
.Ltmp41:
.LBB13_9:
	.loc	7 652 1 is_stmt 1               @ ../../../../Library/StdDriver/inc\clk.h:652:1
	add	sp, #8
	bx	lr
.Ltmp42:
	.p2align	2
@ %bb.10:
	.loc	7 0 1 is_stmt 0                 @ ../../../../Library/StdDriver/inc\clk.h:0:1
__arm_cp.13_0:
	.long	349525                          @ 0x55555
.Lcpi_end47:
	.size	__arm_cp.13_0, .Lcpi_end47-__arm_cp.13_0
__arm_cp.13_1:
	.long	CyclesPerUs
.Lcpi_end48:
	.size	__arm_cp.13_1, .Lcpi_end48-__arm_cp.13_1
__arm_cp.13_2:
	.long	3758153748                      @ 0xe000e014
.Lcpi_end49:
	.size	__arm_cp.13_2, .Lcpi_end49-__arm_cp.13_2
__arm_cp.13_3:
	.long	3758153752                      @ 0xe000e018
.Lcpi_end50:
	.size	__arm_cp.13_3, .Lcpi_end50-__arm_cp.13_3
__arm_cp.13_4:
	.long	3758153744                      @ 0xe000e010
.Lcpi_end51:
	.size	__arm_cp.13_4, .Lcpi_end51-__arm_cp.13_4
.Lfunc_end13:
	.size	CLK_SysTickLongDelay, .Lfunc_end13-CLK_SysTickLongDelay
	.cfi_endproc
	.cantunwind
	.fnend
                                        @ -- End function
	.section	.text.APP_All_Point_High,"ax",%progbits
	.hidden	APP_All_Point_High              @ -- Begin function APP_All_Point_High
	.globl	APP_All_Point_High
	.p2align	2
	.type	APP_All_Point_High,%function
	.code	16                              @ @APP_All_Point_High
	.thumb_func
APP_All_Point_High:
.Lfunc_begin14:
	.loc	1 204 0 is_stmt 1               @ ../src/app.c:204:0
	.fnstart
	.cfi_startproc
@ %bb.0:
	.save	{r7, lr}
	push	{r7, lr}
	.cfi_def_cfa_offset 8
	.cfi_offset lr, -4
	.cfi_offset r7, -8
	.pad	#8
	sub	sp, #8
	.cfi_def_cfa_offset 16
	movs	r0, #17
.Ltmp43:
	.loc	1 205 10 prologue_end           @ ../src/app.c:205:10
	str	r0, [sp, #4]
	.loc	1 205 6 is_stmt 0               @ ../src/app.c:205:6
	b	.LBB14_1
.LBB14_1:                               @ =>This Inner Loop Header: Depth=1
.Ltmp44:
	.loc	1 205 15                        @ ../src/app.c:205:15
	ldr	r0, [sp, #4]
.Ltmp45:
	.loc	1 205 2                         @ ../src/app.c:205:2
	cmp	r0, #0
	bmi	.LBB14_4
	b	.LBB14_2
.LBB14_2:                               @   in Loop: Header=BB14_1 Depth=1
.Ltmp46:
	.loc	1 206 3 is_stmt 1               @ ../src/app.c:206:3
	ldr	r0, __arm_cp.14_0
	ldr	r2, [r0]
	.loc	1 206 16 is_stmt 0              @ ../src/app.c:206:16
	ldr	r3, [r2, #36]
	add	r0, sp, #4
	.loc	1 206 23                        @ ../src/app.c:206:23
	ldrb	r0, [r0]
	movs	r1, #1
	.loc	1 206 3                         @ ../src/app.c:206:3
	blx	r3
	.loc	1 207 2 is_stmt 1               @ ../src/app.c:207:2
	b	.LBB14_3
.Ltmp47:
.LBB14_3:                               @   in Loop: Header=BB14_1 Depth=1
	.loc	1 205 21                        @ ../src/app.c:205:21
	ldr	r0, [sp, #4]
	subs	r0, r0, #1
	str	r0, [sp, #4]
	.loc	1 205 2 is_stmt 0               @ ../src/app.c:205:2
	b	.LBB14_1
.Ltmp48:
.LBB14_4:
	.loc	1 209 1 is_stmt 1               @ ../src/app.c:209:1
	add	sp, #8
	pop	{r7, pc}
.Ltmp49:
	.p2align	2
@ %bb.5:
	.loc	1 0 1 is_stmt 0                 @ ../src/app.c:0:1
__arm_cp.14_0:
	.long	p_LcdObj_S1
.Lcpi_end52:
	.size	__arm_cp.14_0, .Lcpi_end52-__arm_cp.14_0
.Lfunc_end14:
	.size	APP_All_Point_High, .Lfunc_end14-APP_All_Point_High
	.cfi_endproc
	.cantunwind
	.fnend
                                        @ -- End function
	.hidden	sil                             @ @sil
	.type	sil,%object
	.section	.bss.sil,"aw",%nobits
	.globl	sil
	.p2align	2
sil:
	.long	0                               @ 0x0
	.size	sil, 4

	.type	fontArray,%object               @ @fontArray
	.section	.rodata.fontArray,"a",%progbits
	.p2align	1
fontArray:
	.short	0                               @ 0x0
	.short	0                               @ 0x0
	.short	0                               @ 0x0
	.short	2                               @ 0x2
	.short	7                               @ 0x7
	.short	6                               @ 0x6
	.short	4                               @ 0x4
	.short	0                               @ 0x0
	.short	4                               @ 0x4
	.short	0                               @ 0x0
	.short	2                               @ 0x2
	.short	0                               @ 0x0
	.short	0                               @ 0x0
	.short	2                               @ 0x2
	.short	0                               @ 0x0
	.short	0                               @ 0x0
	.short	2                               @ 0x2
	.short	0                               @ 0x0
	.short	0                               @ 0x0
	.short	2                               @ 0x2
	.short	0                               @ 0x0
	.short	4                               @ 0x4
	.short	0                               @ 0x0
	.short	0                               @ 0x0
	.short	6                               @ 0x6
	.short	5                               @ 0x5
	.short	0                               @ 0x0
	.short	0                               @ 0x0
	.short	5                               @ 0x5
	.short	6                               @ 0x6
	.short	0                               @ 0x0
	.short	2                               @ 0x2
	.short	0                               @ 0x0
	.short	0                               @ 0x0
	.short	2                               @ 0x2
	.short	0                               @ 0x0
	.short	0                               @ 0x0
	.short	2                               @ 0x2
	.short	0                               @ 0x0
	.short	0                               @ 0x0
	.short	2                               @ 0x2
	.short	0                               @ 0x0
	.short	0                               @ 0x0
	.short	2                               @ 0x2
	.short	0                               @ 0x0
	.short	2                               @ 0x2
	.short	2                               @ 0x2
	.short	4                               @ 0x4
	.short	6                               @ 0x6
	.short	5                               @ 0x5
	.short	6                               @ 0x6
	.short	0                               @ 0x0
	.short	0                               @ 0x0
	.short	6                               @ 0x6
	.short	2                               @ 0x2
	.short	7                               @ 0x7
	.short	4                               @ 0x4
	.short	0                               @ 0x0
	.short	7                               @ 0x7
	.short	6                               @ 0x6
	.short	4                               @ 0x4
	.short	2                               @ 0x2
	.short	6                               @ 0x6
	.short	4                               @ 0x4
	.short	7                               @ 0x7
	.short	2                               @ 0x2
	.short	6                               @ 0x6
	.short	7                               @ 0x7
	.short	2                               @ 0x2
	.short	0                               @ 0x0
	.short	4                               @ 0x4
	.short	6                               @ 0x6
	.short	6                               @ 0x6
	.short	7                               @ 0x7
	.short	6                               @ 0x6
	.short	4                               @ 0x4
	.short	7                               @ 0x7
	.short	6                               @ 0x6
	.short	0                               @ 0x0
	.short	3                               @ 0x3
	.short	0                               @ 0x0
	.short	2                               @ 0x2
	.short	0                               @ 0x0
	.short	6                               @ 0x6
	.short	0                               @ 0x0
	.short	2                               @ 0x2
	.short	0                               @ 0x0
	.short	0                               @ 0x0
	.short	3                               @ 0x3
	.short	0                               @ 0x0
	.short	0                               @ 0x0
	.short	2                               @ 0x2
	.short	0                               @ 0x0
	.short	4                               @ 0x4
	.short	4                               @ 0x4
	.short	6                               @ 0x6
	.short	0                               @ 0x0
	.short	2                               @ 0x2
	.short	0                               @ 0x0
	.short	6                               @ 0x6
	.short	6                               @ 0x6
	.short	6                               @ 0x6
	.short	6                               @ 0x6
	.short	7                               @ 0x7
	.short	6                               @ 0x6
	.short	6                               @ 0x6
	.short	5                               @ 0x5
	.short	0                               @ 0x0
	.short	6                               @ 0x6
	.short	5                               @ 0x5
	.short	6                               @ 0x6
	.short	6                               @ 0x6
	.short	7                               @ 0x7
	.short	0                               @ 0x0
	.short	6                               @ 0x6
	.short	6                               @ 0x6
	.short	0                               @ 0x0
	.short	6                               @ 0x6
	.short	7                               @ 0x7
	.short	2                               @ 0x2
	.short	6                               @ 0x6
	.short	2                               @ 0x2
	.short	6                               @ 0x6
	.short	0                               @ 0x0
	.short	0                               @ 0x0
	.short	6                               @ 0x6
	.short	0                               @ 0x0
	.short	1                               @ 0x1
	.short	6                               @ 0x6
	.short	6                               @ 0x6
	.short	2                               @ 0x2
	.short	6                               @ 0x6
	.short	6                               @ 0x6
	.short	1                               @ 0x1
	.short	0                               @ 0x0
	.short	0                               @ 0x0
	.short	2                               @ 0x2
	.short	0                               @ 0x0
	.short	2                               @ 0x2
	.short	2                               @ 0x2
	.short	2                               @ 0x2
	.short	2                               @ 0x2
	.short	3                               @ 0x3
	.short	2                               @ 0x2
	.short	6                               @ 0x6
	.short	6                               @ 0x6
	.short	4                               @ 0x4
	.short	0                               @ 0x0
	.short	2                               @ 0x2
	.short	0                               @ 0x0
	.short	2                               @ 0x2
	.short	2                               @ 0x2
	.short	0                               @ 0x0
	.short	4                               @ 0x4
	.short	7                               @ 0x7
	.short	2                               @ 0x2
	.short	6                               @ 0x6
	.short	1                               @ 0x1
	.short	0                               @ 0x0
	.short	2                               @ 0x2
	.short	1                               @ 0x1
	.short	2                               @ 0x2
	.short	2                               @ 0x2
	.short	1                               @ 0x1
	.short	2                               @ 0x2
	.short	0                               @ 0x0
	.short	2                               @ 0x2
	.short	0                               @ 0x0
	.short	6                               @ 0x6
	.short	2                               @ 0x2
	.short	6                               @ 0x6
	.short	4                               @ 0x4
	.short	2                               @ 0x2
	.short	6                               @ 0x6
	.short	2                               @ 0x2
	.short	7                               @ 0x7
	.short	4                               @ 0x4
	.short	6                               @ 0x6
	.short	5                               @ 0x5
	.short	0                               @ 0x0
	.short	4                               @ 0x4
	.short	2                               @ 0x2
	.short	2                               @ 0x2
	.short	0                               @ 0x0
	.short	5                               @ 0x5
	.short	6                               @ 0x6
	.short	4                               @ 0x4
	.short	4                               @ 0x4
	.short	4                               @ 0x4
	.short	0                               @ 0x0
	.short	1                               @ 0x1
	.short	0                               @ 0x0
	.short	4                               @ 0x4
	.short	0                               @ 0x0
	.short	0                               @ 0x0
	.short	2                               @ 0x2
	.short	7                               @ 0x7
	.short	6                               @ 0x6
	.short	6                               @ 0x6
	.short	3                               @ 0x3
	.short	2                               @ 0x2
	.short	2                               @ 0x2
	.short	3                               @ 0x3
	.short	0                               @ 0x0
	.short	2                               @ 0x2
	.short	3                               @ 0x3
	.short	6                               @ 0x6
	.short	6                               @ 0x6
	.short	7                               @ 0x7
	.short	0                               @ 0x0
	.short	6                               @ 0x6
	.short	6                               @ 0x6
	.short	0                               @ 0x0
	.short	4                               @ 0x4
	.short	7                               @ 0x7
	.short	6                               @ 0x6
	.short	6                               @ 0x6
	.short	2                               @ 0x2
	.short	2                               @ 0x2
	.short	0                               @ 0x0
	.short	0                               @ 0x0
	.short	6                               @ 0x6
	.short	0                               @ 0x0
	.short	1                               @ 0x1
	.short	6                               @ 0x6
	.short	6                               @ 0x6
	.short	2                               @ 0x2
	.short	6                               @ 0x6
	.short	0                               @ 0x0
	.short	0                               @ 0x0
	.short	6                               @ 0x6
	.short	0                               @ 0x0
	.short	2                               @ 0x2
	.short	0                               @ 0x0
	.short	2                               @ 0x2
	.short	2                               @ 0x2
	.short	2                               @ 0x2
	.short	2                               @ 0x2
	.short	3                               @ 0x3
	.short	2                               @ 0x2
	.short	6                               @ 0x6
	.short	6                               @ 0x6
	.short	4                               @ 0x4
	.short	4                               @ 0x4
	.short	6                               @ 0x6
	.short	6                               @ 0x6
	.short	2                               @ 0x2
	.short	2                               @ 0x2
	.short	0                               @ 0x0
	.short	4                               @ 0x4
	.short	7                               @ 0x7
	.short	2                               @ 0x2
	.short	6                               @ 0x6
	.short	1                               @ 0x1
	.short	0                               @ 0x0
	.short	2                               @ 0x2
	.short	1                               @ 0x1
	.short	2                               @ 0x2
	.short	2                               @ 0x2
	.short	1                               @ 0x1
	.short	2                               @ 0x2
	.short	0                               @ 0x0
	.short	2                               @ 0x2
	.short	0                               @ 0x0
	.short	6                               @ 0x6
	.short	2                               @ 0x2
	.short	6                               @ 0x6
	.short	4                               @ 0x4
	.short	3                               @ 0x3
	.short	6                               @ 0x6
	.short	2                               @ 0x2
	.short	7                               @ 0x7
	.short	4                               @ 0x4
	.short	6                               @ 0x6
	.short	5                               @ 0x5
	.short	0                               @ 0x0
	.short	0                               @ 0x0
	.short	0                               @ 0x0
	.short	0                               @ 0x0
	.short	0                               @ 0x0
	.short	5                               @ 0x5
	.short	6                               @ 0x6
	.short	0                               @ 0x0
	.short	0                               @ 0x0
	.short	0                               @ 0x0
	.short	0                               @ 0x0
	.short	0                               @ 0x0
	.short	0                               @ 0x0
	.size	fontArray, 576

	.hidden	font_small                      @ @font_small
	.type	font_small,%object
	.section	.data.font_small,"aw",%progbits
	.globl	font_small
	.p2align	2
font_small:
	.byte	3                               @ 0x3
	.byte	3                               @ 0x3
	.zero	2
	.long	fontArray
	.size	font_small, 8

	.hidden	_param1                         @ @_param1
	.type	_param1,%object
	.section	.bss._param1,"aw",%nobits
	.globl	_param1
	.p2align	2
_param1:
	.zero	32
	.size	_param1, 32

	.hidden	p_LcdObj_S1                     @ @p_LcdObj_S1
	.type	p_LcdObj_S1,%object
	.section	.bss.p_LcdObj_S1,"aw",%nobits
	.globl	p_LcdObj_S1
	.p2align	2
p_LcdObj_S1:
	.long	0
	.size	p_LcdObj_S1, 4

	.hidden	_param2                         @ @_param2
	.type	_param2,%object
	.section	.bss._param2,"aw",%nobits
	.globl	_param2
	.p2align	2
_param2:
	.zero	32
	.size	_param2, 32

	.hidden	p_LcdObj_S2                     @ @p_LcdObj_S2
	.type	p_LcdObj_S2,%object
	.section	.bss.p_LcdObj_S2,"aw",%nobits
	.globl	p_LcdObj_S2
	.p2align	2
p_LcdObj_S2:
	.long	0
	.size	p_LcdObj_S2, 4

	.hidden	_param3                         @ @_param3
	.type	_param3,%object
	.section	.bss._param3,"aw",%nobits
	.globl	_param3
	.p2align	2
_param3:
	.zero	32
	.size	_param3, 32

	.hidden	p_LcdObj_S3                     @ @p_LcdObj_S3
	.type	p_LcdObj_S3,%object
	.section	.bss.p_LcdObj_S3,"aw",%nobits
	.globl	p_LcdObj_S3
	.p2align	2
p_LcdObj_S3:
	.long	0
	.size	p_LcdObj_S3, 4

	.hidden	p_KeypadObj                     @ @p_KeypadObj
	.type	p_KeypadObj,%object
	.section	.bss.p_KeypadObj,"aw",%nobits
	.globl	p_KeypadObj
	.p2align	2
p_KeypadObj:
	.long	0
	.size	p_KeypadObj, 4

	.type	.L.str,%object                  @ @.str
	.section	.rodata.str1.1,"aMS",%progbits,1
.L.str:
	.asciz	"bersy"
	.size	.L.str, 6

	.type	.L.str.1,%object                @ @.str.1
.L.str.1:
	.asciz	"hello"
	.size	.L.str.1, 6

	.type	.L.str.2,%object                @ @.str.2
.L.str.2:
	.asciz	"key : 0x%x\n"
	.size	.L.str.2, 12

	.type	.L.str.3,%object                @ @.str.3
.L.str.3:
	.asciz	"999999"
	.size	.L.str.3, 7

	.type	.L.str.4,%object                @ @.str.4
.L.str.4:
	.asciz	"888888"
	.size	.L.str.4, 7

	.type	.L.str.5,%object                @ @.str.5
.L.str.5:
	.asciz	"777777"
	.size	.L.str.5, 7

	.type	.L.str.6,%object                @ @.str.6
.L.str.6:
	.asciz	"666666"
	.size	.L.str.6, 7

	.type	.L.str.7,%object                @ @.str.7
.L.str.7:
	.asciz	"555555"
	.size	.L.str.7, 7

	.type	.L.str.8,%object                @ @.str.8
.L.str.8:
	.asciz	"444444"
	.size	.L.str.8, 7

	.type	.L.str.9,%object                @ @.str.9
.L.str.9:
	.asciz	"333333"
	.size	.L.str.9, 7

	.type	.L.str.10,%object               @ @.str.10
.L.str.10:
	.asciz	"222222"
	.size	.L.str.10, 7

	.type	.L.str.11,%object               @ @.str.11
.L.str.11:
	.asciz	"111111"
	.size	.L.str.11, 7

	.type	.L.str.12,%object               @ @.str.12
.L.str.12:
	.asciz	"000000"
	.size	.L.str.12, 7

	.section	".note.GNU-stack","",%progbits
	.eabi_attribute	30, 6	@ Tag_ABI_optimization_goals
	.ARM_attribute	16, 1	@ Tag_AV_eba