	.text
	.syntax unified
	.eabi_attribute	67, "2.09"	@ Tag_conformance
	.cpu	cortex-m23
	.eabi_attribute	6, 16	@ Tag_CPU_arch
	.eabi_attribute	7, 77	@ Tag_CPU_arch_profile
	.eabi_attribute	8, 0	@ Tag_ARM_ISA_use
	.eabi_attribute	9, 3	@ Tag_THUMB_ISA_use
	.eabi_attribute	34, 0	@ Tag_CPU_unaligned_access
	.eabi_attribute	17, 1	@ Tag_ABI_PCS_GOT_use
	.eabi_attribute	20, 2	@ Tag_ABI_FP_denormal
	.eabi_attribute	21, 0	@ Tag_ABI_FP_exceptions
	.eabi_attribute	23, 1	@ Tag_ABI_FP_number_model
	.eabi_attribute	24, 1	@ Tag_ABI_align_needed
	.eabi_attribute	25, 1	@ Tag_ABI_align_preserved
	.eabi_attribute	38, 1	@ Tag_ABI_FP_16bit_format
	.eabi_attribute	18, 2	@ Tag_ABI_PCS_wchar_t
	.eabi_attribute	26, 1	@ Tag_ABI_enum_size
	.eabi_attribute	14, 0	@ Tag_ABI_PCS_R9_use
	.file	"clk.c"
	.file	1 "C:\\Keil_v5\\ARM\\ARMCLANG\\Bin\\..\\include" "stdint.h"
	.file	2 "E:\\BERSY\\sdk\\SampleCode\\NuCodeGen\\scale_v1\\KEIL" "../../../../Library/StdDriver/src/clk.c"
	.file	3 "E:\\BERSY\\sdk\\SampleCode\\NuCodeGen\\scale_v1\\KEIL" "../../../../Library/Device/Nuvoton/M251/Include/clk_reg.h"
	.file	4 "E:\\BERSY\\sdk\\SampleCode\\NuCodeGen\\scale_v1\\KEIL" "../../../../Library/CMSIS/Include\\core_cm23.h"
	.file	5 "E:\\BERSY\\sdk\\SampleCode\\NuCodeGen\\scale_v1\\KEIL" "../../../../Library/Device/Nuvoton/M251/Include/sys_reg.h"
	.file	6 "E:\\BERSY\\sdk\\SampleCode\\NuCodeGen\\scale_v1\\KEIL" "../../../../Library/Device/Nuvoton/M251/Include/M251.h"
	.section	.text.CLK_DisableCKO,"ax",%progbits
	.hidden	CLK_DisableCKO                  @ -- Begin function CLK_DisableCKO
	.globl	CLK_DisableCKO
	.p2align	2
	.type	CLK_DisableCKO,%function
	.code	16                              @ @CLK_DisableCKO
	.thumb_func
CLK_DisableCKO:
.Lfunc_begin0:
	.loc	2 33 0                          @ ../../../../Library/StdDriver/src/clk.c:33:0
	.fnstart
	.cfi_sections .debug_frame
	.cfi_startproc
@ %bb.0:
	ldr	r1, __arm_cp.0_0
.Ltmp0:
	.loc	2 35 18 prologue_end            @ ../../../../Library/StdDriver/src/clk.c:35:18
	ldr	r0, [r1]
	movs	r2, #64
	bics	r0, r2
	str	r0, [r1]
	.loc	2 36 1                          @ ../../../../Library/StdDriver/src/clk.c:36:1
	bx	lr
.Ltmp1:
	.p2align	2
@ %bb.1:
	.loc	2 0 1 is_stmt 0                 @ ../../../../Library/StdDriver/src/clk.c:0:1
__arm_cp.0_0:
	.long	1073742344                      @ 0x40000208
.Lcpi_end0:
	.size	__arm_cp.0_0, .Lcpi_end0-__arm_cp.0_0
.Lfunc_end0:
	.size	CLK_DisableCKO, .Lfunc_end0-CLK_DisableCKO
	.cfi_endproc
	.cantunwind
	.fnend
                                        @ -- End function
	.section	.text.CLK_EnableCKO,"ax",%progbits
	.hidden	CLK_EnableCKO                   @ -- Begin function CLK_EnableCKO
	.globl	CLK_EnableCKO
	.p2align	2
	.type	CLK_EnableCKO,%function
	.code	16                              @ @CLK_EnableCKO
	.thumb_func
CLK_EnableCKO:
.Lfunc_begin1:
	.loc	2 61 0 is_stmt 1                @ ../../../../Library/StdDriver/src/clk.c:61:0
	.fnstart
	.cfi_startproc
@ %bb.0:
	.pad	#12
	sub	sp, #12
	.cfi_def_cfa_offset 12
	str	r0, [sp, #8]
	str	r1, [sp, #4]
	str	r2, [sp]
.Ltmp2:
	.loc	2 63 45 prologue_end            @ ../../../../Library/StdDriver/src/clk.c:63:45
	ldr	r0, [sp, #4]
	.loc	2 63 58 is_stmt 0               @ ../../../../Library/StdDriver/src/clk.c:63:58
	ldr	r1, [sp]
	.loc	2 63 73                         @ ../../../../Library/StdDriver/src/clk.c:63:73
	lsls	r1, r1, #5
	.loc	2 63 43                         @ ../../../../Library/StdDriver/src/clk.c:63:43
	orrs	r0, r1
	movs	r1, #16
	.loc	2 63 55                         @ ../../../../Library/StdDriver/src/clk.c:63:55
	orrs	r0, r1
	ldr	r1, __arm_cp.1_0
	.loc	2 63 18                         @ ../../../../Library/StdDriver/src/clk.c:63:18
	str	r0, [r1]
	ldr	r1, __arm_cp.1_1
	.loc	2 66 18 is_stmt 1               @ ../../../../Library/StdDriver/src/clk.c:66:18
	ldr	r0, [r1]
	movs	r2, #64
	orrs	r0, r2
	str	r0, [r1]
	ldr	r1, __arm_cp.1_2
	.loc	2 69 26                         @ ../../../../Library/StdDriver/src/clk.c:69:26
	ldr	r0, [r1]
	movs	r2, #112
	.loc	2 69 34 is_stmt 0               @ ../../../../Library/StdDriver/src/clk.c:69:34
	bics	r0, r2
	.loc	2 69 67                         @ ../../../../Library/StdDriver/src/clk.c:69:67
	ldr	r2, [sp, #8]
	.loc	2 69 64                         @ ../../../../Library/StdDriver/src/clk.c:69:64
	orrs	r0, r2
	.loc	2 69 18                         @ ../../../../Library/StdDriver/src/clk.c:69:18
	str	r0, [r1]
	.loc	2 70 1 is_stmt 1                @ ../../../../Library/StdDriver/src/clk.c:70:1
	add	sp, #12
	bx	lr
.Ltmp3:
	.p2align	2
@ %bb.1:
	.loc	2 0 1 is_stmt 0                 @ ../../../../Library/StdDriver/src/clk.c:0:1
__arm_cp.1_0:
	.long	1073742432                      @ 0x40000260
.Lcpi_end1:
	.size	__arm_cp.1_0, .Lcpi_end1-__arm_cp.1_0
__arm_cp.1_1:
	.long	1073742344                      @ 0x40000208
.Lcpi_end2:
	.size	__arm_cp.1_1, .Lcpi_end2-__arm_cp.1_1
__arm_cp.1_2:
	.long	1073742356                      @ 0x40000214
.Lcpi_end3:
	.size	__arm_cp.1_2, .Lcpi_end3-__arm_cp.1_2
.Lfunc_end1:
	.size	CLK_EnableCKO, .Lfunc_end1-CLK_EnableCKO
	.cfi_endproc
	.cantunwind
	.fnend
                                        @ -- End function
	.section	.text.CLK_PowerDown,"ax",%progbits
	.hidden	CLK_PowerDown                   @ -- Begin function CLK_PowerDown
	.globl	CLK_PowerDown
	.p2align	2
	.type	CLK_PowerDown,%function
	.code	16                              @ @CLK_PowerDown
	.thumb_func
CLK_PowerDown:
.Lfunc_begin2:
	.loc	2 80 0 is_stmt 1                @ ../../../../Library/StdDriver/src/clk.c:80:0
	.fnstart
	.cfi_startproc
@ %bb.0:
	.pad	#8
	sub	sp, #8
	.cfi_def_cfa_offset 8
	ldr	r1, __arm_cp.2_0
.Ltmp4:
	.loc	2 84 14 prologue_end            @ ../../../../Library/StdDriver/src/clk.c:84:14
	ldr	r0, [r1]
	movs	r2, #4
	orrs	r0, r2
	str	r0, [r1]
	ldr	r1, __arm_cp.2_1
	.loc	2 87 17                         @ ../../../../Library/StdDriver/src/clk.c:87:17
	ldr	r0, [r1]
	movs	r2, #128
	orrs	r0, r2
	str	r0, [r1]
	ldr	r2, __arm_cp.2_2
	.loc	2 90 27                         @ ../../../../Library/StdDriver/src/clk.c:90:27
	ldr	r0, [r2]
	.loc	2 90 20 is_stmt 0               @ ../../../../Library/StdDriver/src/clk.c:90:20
	str	r0, [sp, #4]
	ldr	r1, __arm_cp.2_3
	.loc	2 91 27 is_stmt 1               @ ../../../../Library/StdDriver/src/clk.c:91:27
	ldr	r0, [r1]
	.loc	2 91 20 is_stmt 0               @ ../../../../Library/StdDriver/src/clk.c:91:20
	str	r0, [sp]
	.loc	2 94 22 is_stmt 1               @ ../../../../Library/StdDriver/src/clk.c:94:22
	ldr	r0, [r2]
	movs	r3, #3
	mvns	r3, r3
	ands	r0, r3
	str	r0, [r2]
	.loc	2 95 22                         @ ../../../../Library/StdDriver/src/clk.c:95:22
	ldr	r0, [r1]
	ands	r0, r3
	str	r0, [r1]
	.loc	2 98 5                          @ ../../../../Library/StdDriver/src/clk.c:98:5
	wfi
	.loc	2 101 24                        @ ../../../../Library/StdDriver/src/clk.c:101:24
	ldr	r0, [sp, #4]
	.loc	2 101 22 is_stmt 0              @ ../../../../Library/StdDriver/src/clk.c:101:22
	str	r0, [r2]
	.loc	2 102 24 is_stmt 1              @ ../../../../Library/StdDriver/src/clk.c:102:24
	ldr	r0, [sp]
	.loc	2 102 22 is_stmt 0              @ ../../../../Library/StdDriver/src/clk.c:102:22
	str	r0, [r1]
	.loc	2 103 1 is_stmt 1               @ ../../../../Library/StdDriver/src/clk.c:103:1
	add	sp, #8
	bx	lr
.Ltmp5:
	.p2align	2
@ %bb.1:
	.loc	2 0 1 is_stmt 0                 @ ../../../../Library/StdDriver/src/clk.c:0:1
__arm_cp.2_0:
	.long	3758157072                      @ 0xe000ed10
.Lcpi_end4:
	.size	__arm_cp.2_0, .Lcpi_end4-__arm_cp.2_0
__arm_cp.2_1:
	.long	1073742336                      @ 0x40000200
.Lcpi_end5:
	.size	__arm_cp.2_1, .Lcpi_end5-__arm_cp.2_1
__arm_cp.2_2:
	.long	1073742064                      @ 0x400000f0
.Lcpi_end6:
	.size	__arm_cp.2_2, .Lcpi_end6-__arm_cp.2_2
__arm_cp.2_3:
	.long	1073742084                      @ 0x40000104
.Lcpi_end7:
	.size	__arm_cp.2_3, .Lcpi_end7-__arm_cp.2_3
.Lfunc_end2:
	.size	CLK_PowerDown, .Lfunc_end2-CLK_PowerDown
	.cfi_endproc
	.cantunwind
	.fnend
                                        @ -- End function
	.section	.text.CLK_Idle,"ax",%progbits
	.hidden	CLK_Idle                        @ -- Begin function CLK_Idle
	.globl	CLK_Idle
	.p2align	2
	.type	CLK_Idle,%function
	.code	16                              @ @CLK_Idle
	.thumb_func
CLK_Idle:
.Lfunc_begin3:
	.loc	2 113 0 is_stmt 1               @ ../../../../Library/StdDriver/src/clk.c:113:0
	.fnstart
	.cfi_startproc
@ %bb.0:
	ldr	r1, __arm_cp.3_0
.Ltmp6:
	.loc	2 115 14 prologue_end           @ ../../../../Library/StdDriver/src/clk.c:115:14
	ldr	r0, [r1]
	movs	r2, #4
	bics	r0, r2
	str	r0, [r1]
	ldr	r1, __arm_cp.3_1
	.loc	2 118 17                        @ ../../../../Library/StdDriver/src/clk.c:118:17
	ldr	r0, [r1]
	movs	r2, #128
	bics	r0, r2
	str	r0, [r1]
	.loc	2 121 5                         @ ../../../../Library/StdDriver/src/clk.c:121:5
	wfi
	.loc	2 122 1                         @ ../../../../Library/StdDriver/src/clk.c:122:1
	bx	lr
.Ltmp7:
	.p2align	2
@ %bb.1:
	.loc	2 0 1 is_stmt 0                 @ ../../../../Library/StdDriver/src/clk.c:0:1
__arm_cp.3_0:
	.long	3758157072                      @ 0xe000ed10
.Lcpi_end8:
	.size	__arm_cp.3_0, .Lcpi_end8-__arm_cp.3_0
__arm_cp.3_1:
	.long	1073742336                      @ 0x40000200
.Lcpi_end9:
	.size	__arm_cp.3_1, .Lcpi_end9-__arm_cp.3_1
.Lfunc_end3:
	.size	CLK_Idle, .Lfunc_end3-CLK_Idle
	.cfi_endproc
	.cantunwind
	.fnend
                                        @ -- End function
	.section	.text.CLK_GetHXTFreq,"ax",%progbits
	.hidden	CLK_GetHXTFreq                  @ -- Begin function CLK_GetHXTFreq
	.globl	CLK_GetHXTFreq
	.p2align	2
	.type	CLK_GetHXTFreq,%function
	.code	16                              @ @CLK_GetHXTFreq
	.thumb_func
CLK_GetHXTFreq:
.Lfunc_begin4:
	.loc	2 131 0 is_stmt 1               @ ../../../../Library/StdDriver/src/clk.c:131:0
	.fnstart
	.cfi_startproc
@ %bb.0:
	.pad	#4
	sub	sp, #4
	.cfi_def_cfa_offset 4
	ldr	r0, __arm_cp.4_0
.Ltmp8:
	.loc	2 132 14 prologue_end           @ ../../../../Library/StdDriver/src/clk.c:132:14
	ldr	r0, [r0]
.Ltmp9:
	.loc	2 132 9 is_stmt 0               @ ../../../../Library/StdDriver/src/clk.c:132:9
	lsls	r0, r0, #31
	cbz	r0, .LBB4_2
	b	.LBB4_1
.LBB4_1:
	.loc	2 0 9                           @ ../../../../Library/StdDriver/src/clk.c:0:9
	ldr	r0, __arm_cp.4_1
.Ltmp10:
	.loc	2 133 9 is_stmt 1               @ ../../../../Library/StdDriver/src/clk.c:133:9
	str	r0, [sp]
	b	.LBB4_3
.LBB4_2:
	.loc	2 0 9 is_stmt 0                 @ ../../../../Library/StdDriver/src/clk.c:0:9
	movs	r0, #0
	.loc	2 135 9 is_stmt 1               @ ../../../../Library/StdDriver/src/clk.c:135:9
	str	r0, [sp]
	b	.LBB4_3
.Ltmp11:
.LBB4_3:
	.loc	2 136 1                         @ ../../../../Library/StdDriver/src/clk.c:136:1
	ldr	r0, [sp]
	add	sp, #4
	bx	lr
.Ltmp12:
	.p2align	2
@ %bb.4:
	.loc	2 0 1 is_stmt 0                 @ ../../../../Library/StdDriver/src/clk.c:0:1
__arm_cp.4_0:
	.long	1073742336                      @ 0x40000200
.Lcpi_end10:
	.size	__arm_cp.4_0, .Lcpi_end10-__arm_cp.4_0
__arm_cp.4_1:
	.long	24000000                        @ 0x16e3600
.Lcpi_end11:
	.size	__arm_cp.4_1, .Lcpi_end11-__arm_cp.4_1
.Lfunc_end4:
	.size	CLK_GetHXTFreq, .Lfunc_end4-CLK_GetHXTFreq
	.cfi_endproc
	.cantunwind
	.fnend
                                        @ -- End function
	.section	.text.CLK_GetLXTFreq,"ax",%progbits
	.hidden	CLK_GetLXTFreq                  @ -- Begin function CLK_GetLXTFreq
	.globl	CLK_GetLXTFreq
	.p2align	2
	.type	CLK_GetLXTFreq,%function
	.code	16                              @ @CLK_GetLXTFreq
	.thumb_func
CLK_GetLXTFreq:
.Lfunc_begin5:
	.loc	2 145 0 is_stmt 1               @ ../../../../Library/StdDriver/src/clk.c:145:0
	.fnstart
	.cfi_startproc
@ %bb.0:
	.pad	#4
	sub	sp, #4
	.cfi_def_cfa_offset 4
	ldr	r0, __arm_cp.5_0
.Ltmp13:
	.loc	2 146 14 prologue_end           @ ../../../../Library/StdDriver/src/clk.c:146:14
	ldr	r0, [r0]
.Ltmp14:
	.loc	2 146 9 is_stmt 0               @ ../../../../Library/StdDriver/src/clk.c:146:9
	lsls	r0, r0, #30
	cmp	r0, #0
	bpl	.LBB5_2
	b	.LBB5_1
.LBB5_1:
	.loc	2 0 9                           @ ../../../../Library/StdDriver/src/clk.c:0:9
	movs	r0, #0
.Ltmp15:
	.loc	2 147 9 is_stmt 1               @ ../../../../Library/StdDriver/src/clk.c:147:9
	str	r0, [sp]
	b	.LBB5_3
.LBB5_2:
	.loc	2 0 9 is_stmt 0                 @ ../../../../Library/StdDriver/src/clk.c:0:9
	movs	r0, #0
	.loc	2 149 9 is_stmt 1               @ ../../../../Library/StdDriver/src/clk.c:149:9
	str	r0, [sp]
	b	.LBB5_3
.Ltmp16:
.LBB5_3:
	.loc	2 150 1                         @ ../../../../Library/StdDriver/src/clk.c:150:1
	ldr	r0, [sp]
	add	sp, #4
	bx	lr
.Ltmp17:
	.p2align	2
@ %bb.4:
	.loc	2 0 1 is_stmt 0                 @ ../../../../Library/StdDriver/src/clk.c:0:1
__arm_cp.5_0:
	.long	1073742336                      @ 0x40000200
.Lcpi_end12:
	.size	__arm_cp.5_0, .Lcpi_end12-__arm_cp.5_0
.Lfunc_end5:
	.size	CLK_GetLXTFreq, .Lfunc_end5-CLK_GetLXTFreq
	.cfi_endproc
	.cantunwind
	.fnend
                                        @ -- End function
	.section	.text.CLK_GetPCLK0Freq,"ax",%progbits
	.hidden	CLK_GetPCLK0Freq                @ -- Begin function CLK_GetPCLK0Freq
	.globl	CLK_GetPCLK0Freq
	.p2align	2
	.type	CLK_GetPCLK0Freq,%function
	.code	16                              @ @CLK_GetPCLK0Freq
	.thumb_func
CLK_GetPCLK0Freq:
.Lfunc_begin6:
	.loc	2 159 0 is_stmt 1               @ ../../../../Library/StdDriver/src/clk.c:159:0
	.fnstart
	.cfi_startproc
@ %bb.0:
	.save	{r7, lr}
	push	{r7, lr}
	.cfi_def_cfa_offset 8
	.cfi_offset lr, -4
	.cfi_offset r7, -8
	.pad	#8
	sub	sp, #8
	.cfi_def_cfa_offset 16
.Ltmp18:
	.loc	2 160 5 prologue_end            @ ../../../../Library/StdDriver/src/clk.c:160:5
	bl	SystemCoreClockUpdate
	ldr	r0, __arm_cp.6_0
	.loc	2 162 18                        @ ../../../../Library/StdDriver/src/clk.c:162:18
	ldr	r0, [r0]
	movs	r1, #7
	.loc	2 162 26 is_stmt 0              @ ../../../../Library/StdDriver/src/clk.c:162:26
	ands	r0, r1
	.loc	2 162 5                         @ ../../../../Library/StdDriver/src/clk.c:162:5
	str	r0, [sp]                        @ 4-byte Spill
	cmp	r0, #5
	bhi	.LBB6_9
@ %bb.1:
	.loc	2 0 5                           @ ../../../../Library/StdDriver/src/clk.c:0:5
	ldr	r1, [sp]                        @ 4-byte Reload
	lsls	r2, r1, #2
	adr	r0, .LJTI6_0
	adds	r0, r0, r2
	mov	pc, r0
@ %bb.2:
	.p2align	2
.LJTI6_0:
	b.w	.LBB6_3
	b.w	.LBB6_4
	b.w	.LBB6_5
	b.w	.LBB6_6
	b.w	.LBB6_7
	b.w	.LBB6_8
.LBB6_3:
.Ltmp19:
	.loc	2 165 20 is_stmt 1              @ ../../../../Library/StdDriver/src/clk.c:165:20
	ldr	r0, __arm_cp.6_1
	ldr	r0, [r0]
	.loc	2 165 13 is_stmt 0              @ ../../../../Library/StdDriver/src/clk.c:165:13
	str	r0, [sp, #4]
	b	.LBB6_10
.LBB6_4:
	.loc	2 168 20 is_stmt 1              @ ../../../../Library/StdDriver/src/clk.c:168:20
	ldr	r0, __arm_cp.6_1
	ldr	r0, [r0]
	.loc	2 168 36 is_stmt 0              @ ../../../../Library/StdDriver/src/clk.c:168:36
	lsrs	r0, r0, #1
	.loc	2 168 13                        @ ../../../../Library/StdDriver/src/clk.c:168:13
	str	r0, [sp, #4]
	b	.LBB6_10
.LBB6_5:
	.loc	2 171 20 is_stmt 1              @ ../../../../Library/StdDriver/src/clk.c:171:20
	ldr	r0, __arm_cp.6_1
	ldr	r0, [r0]
	.loc	2 171 36 is_stmt 0              @ ../../../../Library/StdDriver/src/clk.c:171:36
	lsrs	r0, r0, #2
	.loc	2 171 13                        @ ../../../../Library/StdDriver/src/clk.c:171:13
	str	r0, [sp, #4]
	b	.LBB6_10
.LBB6_6:
	.loc	2 174 20 is_stmt 1              @ ../../../../Library/StdDriver/src/clk.c:174:20
	ldr	r0, __arm_cp.6_1
	ldr	r0, [r0]
	.loc	2 174 36 is_stmt 0              @ ../../../../Library/StdDriver/src/clk.c:174:36
	lsrs	r0, r0, #3
	.loc	2 174 13                        @ ../../../../Library/StdDriver/src/clk.c:174:13
	str	r0, [sp, #4]
	b	.LBB6_10
.LBB6_7:
	.loc	2 177 20 is_stmt 1              @ ../../../../Library/StdDriver/src/clk.c:177:20
	ldr	r0, __arm_cp.6_1
	ldr	r0, [r0]
	.loc	2 177 36 is_stmt 0              @ ../../../../Library/StdDriver/src/clk.c:177:36
	lsrs	r0, r0, #4
	.loc	2 177 13                        @ ../../../../Library/StdDriver/src/clk.c:177:13
	str	r0, [sp, #4]
	b	.LBB6_10
.LBB6_8:
	.loc	2 180 20 is_stmt 1              @ ../../../../Library/StdDriver/src/clk.c:180:20
	ldr	r0, __arm_cp.6_1
	ldr	r0, [r0]
	.loc	2 180 36 is_stmt 0              @ ../../../../Library/StdDriver/src/clk.c:180:36
	lsrs	r0, r0, #5
	.loc	2 180 13                        @ ../../../../Library/StdDriver/src/clk.c:180:13
	str	r0, [sp, #4]
	b	.LBB6_10
.LBB6_9:
	.loc	2 0 13                          @ ../../../../Library/StdDriver/src/clk.c:0:13
	movs	r0, #0
	.loc	2 183 13 is_stmt 1              @ ../../../../Library/StdDriver/src/clk.c:183:13
	str	r0, [sp, #4]
	b	.LBB6_10
.Ltmp20:
.LBB6_10:
	.loc	2 185 1                         @ ../../../../Library/StdDriver/src/clk.c:185:1
	ldr	r0, [sp, #4]
	add	sp, #8
	pop	{r7, pc}
.Ltmp21:
	.p2align	2
@ %bb.11:
	.loc	2 0 1 is_stmt 0                 @ ../../../../Library/StdDriver/src/clk.c:0:1
__arm_cp.6_0:
	.long	1073742388                      @ 0x40000234
.Lcpi_end13:
	.size	__arm_cp.6_0, .Lcpi_end13-__arm_cp.6_0
__arm_cp.6_1:
	.long	SystemCoreClock
.Lcpi_end14:
	.size	__arm_cp.6_1, .Lcpi_end14-__arm_cp.6_1
.Lfunc_end6:
	.size	CLK_GetPCLK0Freq, .Lfunc_end6-CLK_GetPCLK0Freq
	.cfi_endproc
	.cantunwind
	.fnend
                                        @ -- End function
	.section	.text.CLK_GetPCLK1Freq,"ax",%progbits
	.hidden	CLK_GetPCLK1Freq                @ -- Begin function CLK_GetPCLK1Freq
	.globl	CLK_GetPCLK1Freq
	.p2align	2
	.type	CLK_GetPCLK1Freq,%function
	.code	16                              @ @CLK_GetPCLK1Freq
	.thumb_func
CLK_GetPCLK1Freq:
.Lfunc_begin7:
	.loc	2 194 0 is_stmt 1               @ ../../../../Library/StdDriver/src/clk.c:194:0
	.fnstart
	.cfi_startproc
@ %bb.0:
	.save	{r7, lr}
	push	{r7, lr}
	.cfi_def_cfa_offset 8
	.cfi_offset lr, -4
	.cfi_offset r7, -8
	.pad	#8
	sub	sp, #8
	.cfi_def_cfa_offset 16
.Ltmp22:
	.loc	2 195 5 prologue_end            @ ../../../../Library/StdDriver/src/clk.c:195:5
	bl	SystemCoreClockUpdate
	ldr	r0, __arm_cp.7_0
	.loc	2 197 18                        @ ../../../../Library/StdDriver/src/clk.c:197:18
	ldr	r0, [r0]
	movs	r1, #112
	.loc	2 197 26 is_stmt 0              @ ../../../../Library/StdDriver/src/clk.c:197:26
	ands	r0, r1
	.loc	2 197 5                         @ ../../../../Library/StdDriver/src/clk.c:197:5
	str	r0, [sp]                        @ 4-byte Spill
	cbz	r0, .LBB7_6
	b	.LBB7_1
.LBB7_1:
	ldr	r0, [sp]                        @ 4-byte Reload
	cmp	r0, #16
	beq	.LBB7_7
	b	.LBB7_2
.LBB7_2:
	ldr	r0, [sp]                        @ 4-byte Reload
	cmp	r0, #32
	beq	.LBB7_8
	b	.LBB7_3
.LBB7_3:
	ldr	r0, [sp]                        @ 4-byte Reload
	cmp	r0, #48
	beq	.LBB7_9
	b	.LBB7_4
.LBB7_4:
	ldr	r0, [sp]                        @ 4-byte Reload
	cmp	r0, #64
	beq	.LBB7_10
	b	.LBB7_5
.LBB7_5:
	ldr	r0, [sp]                        @ 4-byte Reload
	cmp	r0, #80
	beq	.LBB7_11
	b	.LBB7_12
.LBB7_6:
.Ltmp23:
	.loc	2 200 20 is_stmt 1              @ ../../../../Library/StdDriver/src/clk.c:200:20
	ldr	r0, __arm_cp.7_1
	ldr	r0, [r0]
	.loc	2 200 13 is_stmt 0              @ ../../../../Library/StdDriver/src/clk.c:200:13
	str	r0, [sp, #4]
	b	.LBB7_13
.LBB7_7:
	.loc	2 203 20 is_stmt 1              @ ../../../../Library/StdDriver/src/clk.c:203:20
	ldr	r0, __arm_cp.7_1
	ldr	r0, [r0]
	.loc	2 203 36 is_stmt 0              @ ../../../../Library/StdDriver/src/clk.c:203:36
	lsrs	r0, r0, #1
	.loc	2 203 13                        @ ../../../../Library/StdDriver/src/clk.c:203:13
	str	r0, [sp, #4]
	b	.LBB7_13
.LBB7_8:
	.loc	2 206 20 is_stmt 1              @ ../../../../Library/StdDriver/src/clk.c:206:20
	ldr	r0, __arm_cp.7_1
	ldr	r0, [r0]
	.loc	2 206 36 is_stmt 0              @ ../../../../Library/StdDriver/src/clk.c:206:36
	lsrs	r0, r0, #2
	.loc	2 206 13                        @ ../../../../Library/StdDriver/src/clk.c:206:13
	str	r0, [sp, #4]
	b	.LBB7_13
.LBB7_9:
	.loc	2 209 20 is_stmt 1              @ ../../../../Library/StdDriver/src/clk.c:209:20
	ldr	r0, __arm_cp.7_1
	ldr	r0, [r0]
	.loc	2 209 36 is_stmt 0              @ ../../../../Library/StdDriver/src/clk.c:209:36
	lsrs	r0, r0, #3
	.loc	2 209 13                        @ ../../../../Library/StdDriver/src/clk.c:209:13
	str	r0, [sp, #4]
	b	.LBB7_13
.LBB7_10:
	.loc	2 212 20 is_stmt 1              @ ../../../../Library/StdDriver/src/clk.c:212:20
	ldr	r0, __arm_cp.7_1
	ldr	r0, [r0]
	.loc	2 212 36 is_stmt 0              @ ../../../../Library/StdDriver/src/clk.c:212:36
	lsrs	r0, r0, #4
	.loc	2 212 13                        @ ../../../../Library/StdDriver/src/clk.c:212:13
	str	r0, [sp, #4]
	b	.LBB7_13
.LBB7_11:
	.loc	2 215 20 is_stmt 1              @ ../../../../Library/StdDriver/src/clk.c:215:20
	ldr	r0, __arm_cp.7_1
	ldr	r0, [r0]
	.loc	2 215 36 is_stmt 0              @ ../../../../Library/StdDriver/src/clk.c:215:36
	lsrs	r0, r0, #5
	.loc	2 215 13                        @ ../../../../Library/StdDriver/src/clk.c:215:13
	str	r0, [sp, #4]
	b	.LBB7_13
.LBB7_12:
	.loc	2 0 13                          @ ../../../../Library/StdDriver/src/clk.c:0:13
	movs	r0, #0
	.loc	2 218 13 is_stmt 1              @ ../../../../Library/StdDriver/src/clk.c:218:13
	str	r0, [sp, #4]
	b	.LBB7_13
.Ltmp24:
.LBB7_13:
	.loc	2 220 1                         @ ../../../../Library/StdDriver/src/clk.c:220:1
	ldr	r0, [sp, #4]
	add	sp, #8
	pop	{r7, pc}
.Ltmp25:
	.p2align	2
@ %bb.14:
	.loc	2 0 1 is_stmt 0                 @ ../../../../Library/StdDriver/src/clk.c:0:1
__arm_cp.7_0:
	.long	1073742388                      @ 0x40000234
.Lcpi_end15:
	.size	__arm_cp.7_0, .Lcpi_end15-__arm_cp.7_0
__arm_cp.7_1:
	.long	SystemCoreClock
.Lcpi_end16:
	.size	__arm_cp.7_1, .Lcpi_end16-__arm_cp.7_1
.Lfunc_end7:
	.size	CLK_GetPCLK1Freq, .Lfunc_end7-CLK_GetPCLK1Freq
	.cfi_endproc
	.cantunwind
	.fnend
                                        @ -- End function
	.section	.text.CLK_GetHCLKFreq,"ax",%progbits
	.hidden	CLK_GetHCLKFreq                 @ -- Begin function CLK_GetHCLKFreq
	.globl	CLK_GetHCLKFreq
	.p2align	2
	.type	CLK_GetHCLKFreq,%function
	.code	16                              @ @CLK_GetHCLKFreq
	.thumb_func
CLK_GetHCLKFreq:
.Lfunc_begin8:
	.loc	2 229 0 is_stmt 1               @ ../../../../Library/StdDriver/src/clk.c:229:0
	.fnstart
	.cfi_startproc
@ %bb.0:
	.save	{r7, lr}
	push	{r7, lr}
	.cfi_def_cfa_offset 8
	.cfi_offset lr, -4
	.cfi_offset r7, -8
.Ltmp26:
	.loc	2 230 5 prologue_end            @ ../../../../Library/StdDriver/src/clk.c:230:5
	bl	SystemCoreClockUpdate
	.loc	2 231 12                        @ ../../../../Library/StdDriver/src/clk.c:231:12
	ldr	r0, __arm_cp.8_0
	ldr	r0, [r0]
	.loc	2 231 5 is_stmt 0               @ ../../../../Library/StdDriver/src/clk.c:231:5
	pop	{r7, pc}
.Ltmp27:
	.p2align	2
@ %bb.1:
	.loc	2 0 5                           @ ../../../../Library/StdDriver/src/clk.c:0:5
__arm_cp.8_0:
	.long	SystemCoreClock
.Lcpi_end17:
	.size	__arm_cp.8_0, .Lcpi_end17-__arm_cp.8_0
.Lfunc_end8:
	.size	CLK_GetHCLKFreq, .Lfunc_end8-CLK_GetHCLKFreq
	.cfi_endproc
	.cantunwind
	.fnend
                                        @ -- End function
	.section	.text.CLK_GetCPUFreq,"ax",%progbits
	.hidden	CLK_GetCPUFreq                  @ -- Begin function CLK_GetCPUFreq
	.globl	CLK_GetCPUFreq
	.p2align	2
	.type	CLK_GetCPUFreq,%function
	.code	16                              @ @CLK_GetCPUFreq
	.thumb_func
CLK_GetCPUFreq:
.Lfunc_begin9:
	.loc	2 241 0 is_stmt 1               @ ../../../../Library/StdDriver/src/clk.c:241:0
	.fnstart
	.cfi_startproc
@ %bb.0:
	.save	{r7, lr}
	push	{r7, lr}
	.cfi_def_cfa_offset 8
	.cfi_offset lr, -4
	.cfi_offset r7, -8
.Ltmp28:
	.loc	2 242 5 prologue_end            @ ../../../../Library/StdDriver/src/clk.c:242:5
	bl	SystemCoreClockUpdate
	.loc	2 243 12                        @ ../../../../Library/StdDriver/src/clk.c:243:12
	ldr	r0, __arm_cp.9_0
	ldr	r0, [r0]
	.loc	2 243 5 is_stmt 0               @ ../../../../Library/StdDriver/src/clk.c:243:5
	pop	{r7, pc}
.Ltmp29:
	.p2align	2
@ %bb.1:
	.loc	2 0 5                           @ ../../../../Library/StdDriver/src/clk.c:0:5
__arm_cp.9_0:
	.long	SystemCoreClock
.Lcpi_end18:
	.size	__arm_cp.9_0, .Lcpi_end18-__arm_cp.9_0
.Lfunc_end9:
	.size	CLK_GetCPUFreq, .Lfunc_end9-CLK_GetCPUFreq
	.cfi_endproc
	.cantunwind
	.fnend
                                        @ -- End function
	.section	.text.CLK_GetPLLClockFreq,"ax",%progbits
	.hidden	CLK_GetPLLClockFreq             @ -- Begin function CLK_GetPLLClockFreq
	.globl	CLK_GetPLLClockFreq
	.p2align	2
	.type	CLK_GetPLLClockFreq,%function
	.code	16                              @ @CLK_GetPLLClockFreq
	.thumb_func
CLK_GetPLLClockFreq:
.Lfunc_begin10:
	.loc	2 256 0 is_stmt 1               @ ../../../../Library/StdDriver/src/clk.c:256:0
	.fnstart
	.cfi_startproc
@ %bb.0:
	.pad	#28
	sub	sp, #28
	.cfi_def_cfa_offset 28
	movs	r0, #0
.Ltmp30:
	.loc	2 260 16 prologue_end           @ ../../../../Library/StdDriver/src/clk.c:260:16
	str	r0, [sp, #24]
	ldr	r0, __arm_cp.10_0
	.loc	2 261 19                        @ ../../../../Library/StdDriver/src/clk.c:261:19
	ldr	r0, [r0]
	.loc	2 261 12 is_stmt 0              @ ../../../../Library/StdDriver/src/clk.c:261:12
	str	r0, [sp, #20]
	add	r0, sp, #20
	.loc	2 263 9 is_stmt 1               @ ../../../../Library/StdDriver/src/clk.c:263:9
	ldrb	r0, [r0, #2]
	movs	r1, #5
	tst	r0, r1
	bne	.LBB10_11
	b	.LBB10_1
.LBB10_1:
	.loc	2 0 9 is_stmt 0                 @ ../../../../Library/StdDriver/src/clk.c:0:9
	add	r0, sp, #20
.Ltmp31:
	.loc	2 268 13 is_stmt 1              @ ../../../../Library/StdDriver/src/clk.c:268:13
	ldrb	r0, [r0, #2]
	lsls	r0, r0, #27
	lsrs	r0, r0, #30
	cbz	r0, .LBB10_6
	b	.LBB10_2
.LBB10_2:
.Ltmp32:
	.loc	2 270 18                        @ ../../../../Library/StdDriver/src/clk.c:270:18
	ldr	r0, [sp, #20]
	movs	r1, #3
	lsls	r1, r1, #19
	.loc	2 270 25 is_stmt 0              @ ../../../../Library/StdDriver/src/clk.c:270:25
	ands	r0, r1
.Ltmp33:
	.loc	2 270 17                        @ ../../../../Library/StdDriver/src/clk.c:270:17
	cmp	r0, r1
	bne	.LBB10_4
	b	.LBB10_3
.LBB10_3:
	.loc	2 0 17                          @ ../../../../Library/StdDriver/src/clk.c:0:17
	ldr	r0, __arm_cp.10_3
.Ltmp34:
	.loc	2 271 24 is_stmt 1              @ ../../../../Library/StdDriver/src/clk.c:271:24
	str	r0, [sp, #16]
	.loc	2 271 17 is_stmt 0              @ ../../../../Library/StdDriver/src/clk.c:271:17
	b	.LBB10_5
.LBB10_4:
	.loc	2 0 17                          @ ../../../../Library/StdDriver/src/clk.c:0:17
	ldr	r0, __arm_cp.10_2
	.loc	2 273 24 is_stmt 1              @ ../../../../Library/StdDriver/src/clk.c:273:24
	str	r0, [sp, #16]
	b	.LBB10_5
.Ltmp35:
.LBB10_5:
	.loc	2 274 9                         @ ../../../../Library/StdDriver/src/clk.c:274:9
	b	.LBB10_7
.Ltmp36:
.LBB10_6:
	.loc	2 0 9 is_stmt 0                 @ ../../../../Library/StdDriver/src/clk.c:0:9
	ldr	r0, __arm_cp.10_1
	.loc	2 276 20 is_stmt 1              @ ../../../../Library/StdDriver/src/clk.c:276:20
	str	r0, [sp, #16]
	b	.LBB10_7
.Ltmp37:
.LBB10_7:
	.loc	2 0 20 is_stmt 0                @ ../../../../Library/StdDriver/src/clk.c:0:20
	add	r0, sp, #20
	.loc	2 278 13 is_stmt 1              @ ../../../../Library/StdDriver/src/clk.c:278:13
	ldrb	r0, [r0, #2]
	lsls	r0, r0, #30
	cmp	r0, #0
	bpl	.LBB10_9
	b	.LBB10_8
.LBB10_8:
.Ltmp38:
	.loc	2 281 26                        @ ../../../../Library/StdDriver/src/clk.c:281:26
	ldr	r0, [sp, #16]
	.loc	2 281 24 is_stmt 0              @ ../../../../Library/StdDriver/src/clk.c:281:24
	str	r0, [sp, #24]
	.loc	2 282 9 is_stmt 1               @ ../../../../Library/StdDriver/src/clk.c:282:9
	b	.LBB10_10
.Ltmp39:
.LBB10_9:
	.loc	2 0 9 is_stmt 0                 @ ../../../../Library/StdDriver/src/clk.c:0:9
	ldr	r0, __arm_cp.10_4
.Ltmp40:
	.loc	2 286 27 is_stmt 1              @ ../../../../Library/StdDriver/src/clk.c:286:27
	str	r0, [sp]
	add	r0, sp, #20
	.loc	2 289 32                        @ ../../../../Library/StdDriver/src/clk.c:289:32
	ldrh	r0, [r0]
	.loc	2 289 64 is_stmt 0              @ ../../../../Library/StdDriver/src/clk.c:289:64
	lsrs	r1, r0, #14
	mov	r0, sp
	.loc	2 289 21                        @ ../../../../Library/StdDriver/src/clk.c:289:21
	adds	r0, r0, r1
	ldrb	r0, [r0]
	.loc	2 289 19                        @ ../../../../Library/StdDriver/src/clk.c:289:19
	str	r0, [sp, #4]
	.loc	2 290 24 is_stmt 1              @ ../../../../Library/StdDriver/src/clk.c:290:24
	ldr	r0, [sp, #20]
	movs	r1, #63
	.loc	2 290 31 is_stmt 0              @ ../../../../Library/StdDriver/src/clk.c:290:31
	ands	r0, r1
	.loc	2 290 20                        @ ../../../../Library/StdDriver/src/clk.c:290:20
	str	r0, [sp, #12]
	.loc	2 291 24 is_stmt 1              @ ../../../../Library/StdDriver/src/clk.c:291:24
	ldr	r0, [sp, #20]
	movw	r1, #7680
	.loc	2 291 31 is_stmt 0              @ ../../../../Library/StdDriver/src/clk.c:291:31
	ands	r0, r1
	.loc	2 291 55                        @ ../../../../Library/StdDriver/src/clk.c:291:55
	lsrs	r0, r0, #9
	.loc	2 291 20                        @ ../../../../Library/StdDriver/src/clk.c:291:20
	str	r0, [sp, #8]
	.loc	2 293 29 is_stmt 1              @ ../../../../Library/StdDriver/src/clk.c:293:29
	ldr	r0, [sp, #16]
	.loc	2 293 36 is_stmt 0              @ ../../../../Library/StdDriver/src/clk.c:293:36
	lsrs	r1, r0, #2
	.loc	2 293 44                        @ ../../../../Library/StdDriver/src/clk.c:293:44
	ldr	r0, [sp, #12]
	.loc	2 293 42                        @ ../../../../Library/StdDriver/src/clk.c:293:42
	muls	r0, r1, r0
	.loc	2 293 54                        @ ../../../../Library/StdDriver/src/clk.c:293:54
	ldr	r2, [sp, #8]
	.loc	2 293 62                        @ ../../../../Library/StdDriver/src/clk.c:293:62
	ldr	r1, [sp, #4]
	.loc	2 293 60                        @ ../../../../Library/StdDriver/src/clk.c:293:60
	muls	r1, r2, r1
	.loc	2 293 51                        @ ../../../../Library/StdDriver/src/clk.c:293:51
	udiv	r0, r0, r1
	.loc	2 293 69                        @ ../../../../Library/StdDriver/src/clk.c:293:69
	lsls	r0, r0, #2
	.loc	2 293 24                        @ ../../../../Library/StdDriver/src/clk.c:293:24
	str	r0, [sp, #24]
	b	.LBB10_10
.Ltmp41:
.LBB10_10:
	.loc	2 295 5 is_stmt 1               @ ../../../../Library/StdDriver/src/clk.c:295:5
	b	.LBB10_11
.Ltmp42:
.LBB10_11:
	.loc	2 297 12                        @ ../../../../Library/StdDriver/src/clk.c:297:12
	ldr	r0, [sp, #24]
	.loc	2 297 5 is_stmt 0               @ ../../../../Library/StdDriver/src/clk.c:297:5
	add	sp, #28
	bx	lr
.Ltmp43:
	.p2align	2
@ %bb.12:
	.loc	2 0 5                           @ ../../../../Library/StdDriver/src/clk.c:0:5
__arm_cp.10_0:
	.long	1073742400                      @ 0x40000240
.Lcpi_end19:
	.size	__arm_cp.10_0, .Lcpi_end19-__arm_cp.10_0
__arm_cp.10_1:
	.long	24000000                        @ 0x16e3600
.Lcpi_end20:
	.size	__arm_cp.10_1, .Lcpi_end20-__arm_cp.10_1
__arm_cp.10_2:
	.long	12000000                        @ 0xb71b00
.Lcpi_end21:
	.size	__arm_cp.10_2, .Lcpi_end21-__arm_cp.10_2
__arm_cp.10_3:
	.long	4032000                         @ 0x3d8600
.Lcpi_end22:
	.size	__arm_cp.10_3, .Lcpi_end22-__arm_cp.10_3
__arm_cp.10_4:
	.long	67371521                        @ 0x4040201
.Lcpi_end23:
	.size	__arm_cp.10_4, .Lcpi_end23-__arm_cp.10_4
.Lfunc_end10:
	.size	CLK_GetPLLClockFreq, .Lfunc_end10-CLK_GetPLLClockFreq
	.cfi_endproc
	.cantunwind
	.fnend
                                        @ -- End function
	.section	.text.CLK_DisablePLL,"ax",%progbits
	.hidden	CLK_DisablePLL                  @ -- Begin function CLK_DisablePLL
	.globl	CLK_DisablePLL
	.p2align	2
	.type	CLK_DisablePLL,%function
	.code	16                              @ @CLK_DisablePLL
	.thumb_func
CLK_DisablePLL:
.Lfunc_begin11:
	.loc	2 308 0 is_stmt 1               @ ../../../../Library/StdDriver/src/clk.c:308:0
	.fnstart
	.cfi_startproc
@ %bb.0:
	ldr	r1, __arm_cp.11_0
.Ltmp44:
	.loc	2 309 17 prologue_end           @ ../../../../Library/StdDriver/src/clk.c:309:17
	ldr	r0, [r1]
	movs	r2, #1
	lsls	r2, r2, #16
	orrs	r0, r2
	str	r0, [r1]
	.loc	2 310 1                         @ ../../../../Library/StdDriver/src/clk.c:310:1
	bx	lr
.Ltmp45:
	.p2align	2
@ %bb.1:
	.loc	2 0 1 is_stmt 0                 @ ../../../../Library/StdDriver/src/clk.c:0:1
__arm_cp.11_0:
	.long	1073742400                      @ 0x40000240
.Lcpi_end24:
	.size	__arm_cp.11_0, .Lcpi_end24-__arm_cp.11_0
.Lfunc_end11:
	.size	CLK_DisablePLL, .Lfunc_end11-CLK_DisablePLL
	.cfi_endproc
	.cantunwind
	.fnend
                                        @ -- End function
	.section	.text.CLK_EnablePLL,"ax",%progbits
	.hidden	CLK_EnablePLL                   @ -- Begin function CLK_EnablePLL
	.globl	CLK_EnablePLL
	.p2align	2
	.type	CLK_EnablePLL,%function
	.code	16                              @ @CLK_EnablePLL
	.thumb_func
CLK_EnablePLL:
.Lfunc_begin12:
	.loc	2 325 0 is_stmt 1               @ ../../../../Library/StdDriver/src/clk.c:325:0
	.fnstart
	.cfi_startproc
@ %bb.0:
	.save	{r7, lr}
	push	{r7, lr}
	.cfi_def_cfa_offset 8
	.cfi_offset lr, -4
	.cfi_offset r7, -8
	.pad	#72
	sub	sp, #72
	.cfi_def_cfa_offset 80
	str	r0, [sp, #64]
	str	r1, [sp, #60]
.Ltmp46:
	.loc	2 330 5 prologue_end            @ ../../../../Library/StdDriver/src/clk.c:330:5
	bl	CLK_DisablePLL
.Ltmp47:
	.loc	2 333 9                         @ ../../../../Library/StdDriver/src/clk.c:333:9
	ldr	r0, [sp, #64]
.Ltmp48:
	.loc	2 333 9 is_stmt 0               @ ../../../../Library/StdDriver/src/clk.c:333:9
	cbnz	r0, .LBB12_2
	b	.LBB12_1
.LBB12_1:
	.loc	2 0 9                           @ ../../../../Library/StdDriver/src/clk.c:0:9
	ldr	r2, __arm_cp.12_0
.Ltmp49:
	.loc	2 336 29 is_stmt 1              @ ../../../../Library/StdDriver/src/clk.c:336:29
	ldr	r1, [r2]
	movs	r0, #1
	.loc	2 336 61 is_stmt 0              @ ../../../../Library/StdDriver/src/clk.c:336:61
	orrs	r1, r0
	.loc	2 336 21                        @ ../../../../Library/StdDriver/src/clk.c:336:21
	str	r1, [r2]
	.loc	2 339 9 is_stmt 1               @ ../../../../Library/StdDriver/src/clk.c:339:9
	bl	CLK_WaitClockReady
	movs	r0, #0
	.loc	2 342 19                        @ ../../../../Library/StdDriver/src/clk.c:342:19
	str	r0, [sp, #40]
	ldr	r0, __arm_cp.12_3
	.loc	2 343 22                        @ ../../../../Library/StdDriver/src/clk.c:343:22
	str	r0, [sp, #56]
	.loc	2 344 5                         @ ../../../../Library/StdDriver/src/clk.c:344:5
	b	.LBB12_6
.Ltmp50:
.LBB12_2:
	.loc	2 346 14                        @ ../../../../Library/StdDriver/src/clk.c:346:14
	ldr	r0, [sp, #64]
	movs	r1, #1
	lsls	r1, r1, #19
.Ltmp51:
	.loc	2 346 14 is_stmt 0              @ ../../../../Library/StdDriver/src/clk.c:346:14
	cmp	r0, r1
	bne	.LBB12_4
	b	.LBB12_3
.LBB12_3:
	.loc	2 0 14                          @ ../../../../Library/StdDriver/src/clk.c:0:14
	ldr	r1, __arm_cp.12_0
.Ltmp52:
	.loc	2 349 21 is_stmt 1              @ ../../../../Library/StdDriver/src/clk.c:349:21
	ldr	r0, [r1]
	movs	r2, #4
	orrs	r0, r2
	str	r0, [r1]
	.loc	2 351 21                        @ ../../../../Library/StdDriver/src/clk.c:351:21
	ldr	r0, [r1]
	movs	r2, #1
	lsls	r2, r2, #19
	str	r2, [sp, #4]                    @ 4-byte Spill
	orrs	r0, r2
	str	r0, [r1]
	movs	r0, #16
	.loc	2 354 9                         @ ../../../../Library/StdDriver/src/clk.c:354:9
	bl	CLK_WaitClockReady
	movs	r0, #64
	.loc	2 356 9                         @ ../../../../Library/StdDriver/src/clk.c:356:9
	bl	CLK_WaitClockReady
                                        @ kill: def $r1 killed $r0
	.loc	2 359 19                        @ ../../../../Library/StdDriver/src/clk.c:359:19
	ldr	r0, [sp, #4]                    @ 4-byte Reload
	str	r0, [sp, #40]
	ldr	r0, __arm_cp.12_2
	.loc	2 360 22                        @ ../../../../Library/StdDriver/src/clk.c:360:22
	str	r0, [sp, #56]
	.loc	2 361 5                         @ ../../../../Library/StdDriver/src/clk.c:361:5
	b	.LBB12_5
.Ltmp53:
.LBB12_4:
	.loc	2 0 5 is_stmt 0                 @ ../../../../Library/StdDriver/src/clk.c:0:5
	ldr	r1, __arm_cp.12_0
.Ltmp54:
	.loc	2 365 21 is_stmt 1              @ ../../../../Library/StdDriver/src/clk.c:365:21
	ldr	r0, [r1]
	movs	r2, #1
	lsls	r2, r2, #19
	orrs	r0, r2
	str	r0, [r1]
	.loc	2 367 21                        @ ../../../../Library/StdDriver/src/clk.c:367:21
	ldr	r0, [r1]
	movs	r2, #4
	orrs	r0, r2
	str	r0, [r1]
	movs	r0, #64
	.loc	2 370 9                         @ ../../../../Library/StdDriver/src/clk.c:370:9
	bl	CLK_WaitClockReady
	movs	r0, #16
	.loc	2 372 9                         @ ../../../../Library/StdDriver/src/clk.c:372:9
	bl	CLK_WaitClockReady
	movs	r0, #3
	lsls	r0, r0, #19
	.loc	2 375 19                        @ ../../../../Library/StdDriver/src/clk.c:375:19
	str	r0, [sp, #40]
	ldr	r0, __arm_cp.12_1
	.loc	2 376 22                        @ ../../../../Library/StdDriver/src/clk.c:376:22
	str	r0, [sp, #56]
	b	.LBB12_5
.Ltmp55:
.LBB12_5:
	.loc	2 0 22 is_stmt 0                @ ../../../../Library/StdDriver/src/clk.c:0:22
	b	.LBB12_6
.LBB12_6:
.Ltmp56:
	.loc	2 379 10 is_stmt 1              @ ../../../../Library/StdDriver/src/clk.c:379:10
	ldr	r0, [sp, #60]
	ldr	r1, __arm_cp.12_4
	.loc	2 379 37 is_stmt 0              @ ../../../../Library/StdDriver/src/clk.c:379:37
	cmp	r0, r1
	bls	.LBB12_7
	b	.LBB12_50
.LBB12_7:
	.loc	2 379 41                        @ ../../../../Library/StdDriver/src/clk.c:379:41
	ldr	r0, [sp, #60]
	ldr	r1, __arm_cp.12_5
.Ltmp57:
	.loc	2 379 9                         @ ../../../../Library/StdDriver/src/clk.c:379:9
	cmp	r0, r1
	bhs	.LBB12_8
	b	.LBB12_50
.LBB12_8:
	.loc	2 0 9                           @ ../../../../Library/StdDriver/src/clk.c:0:9
	movs	r0, #0
	mvns	r1, r0
.Ltmp58:
	.loc	2 382 16 is_stmt 1              @ ../../../../Library/StdDriver/src/clk.c:382:16
	str	r1, [sp, #24]
	.loc	2 383 18                        @ ../../../../Library/StdDriver/src/clk.c:383:18
	str	r0, [sp, #16]
	.loc	2 384 18                        @ ../../../../Library/StdDriver/src/clk.c:384:18
	str	r0, [sp, #20]
	.loc	2 385 18                        @ ../../../../Library/StdDriver/src/clk.c:385:18
	str	r0, [sp, #12]
	.loc	2 386 26                        @ ../../../../Library/StdDriver/src/clk.c:386:26
	ldr	r1, [sp, #60]
	.loc	2 386 24 is_stmt 0              @ ../../../../Library/StdDriver/src/clk.c:386:24
	str	r1, [sp, #8]
.Ltmp59:
	.loc	2 388 20 is_stmt 1              @ ../../../../Library/StdDriver/src/clk.c:388:20
	str	r0, [sp, #44]
	.loc	2 388 14 is_stmt 0              @ ../../../../Library/StdDriver/src/clk.c:388:14
	b	.LBB12_9
.LBB12_9:                               @ =>This Loop Header: Depth=1
                                        @     Child Loop BB12_20 Depth 2
                                        @       Child Loop BB12_24 Depth 3
.Ltmp60:
	.loc	2 388 27                        @ ../../../../Library/StdDriver/src/clk.c:388:27
	ldr	r0, [sp, #44]
.Ltmp61:
	.loc	2 388 9                         @ ../../../../Library/StdDriver/src/clk.c:388:9
	cmp	r0, #3
	bls	.LBB12_10
	b	.LBB12_49
.LBB12_10:                              @   in Loop: Header=BB12_9 Depth=1
.Ltmp62:
	.loc	2 391 17 is_stmt 1              @ ../../../../Library/StdDriver/src/clk.c:391:17
	ldr	r0, [sp, #24]
.Ltmp63:
	.loc	2 391 17 is_stmt 0              @ ../../../../Library/StdDriver/src/clk.c:391:17
	cbnz	r0, .LBB12_12
	b	.LBB12_11
.LBB12_11:
.Ltmp64:
	.loc	2 392 17 is_stmt 1              @ ../../../../Library/StdDriver/src/clk.c:392:17
	b	.LBB12_49
.Ltmp65:
.LBB12_12:                              @   in Loop: Header=BB12_9 Depth=1
	.loc	2 394 17                        @ ../../../../Library/StdDriver/src/clk.c:394:17
	ldr	r0, [sp, #44]
.Ltmp66:
	.loc	2 394 17 is_stmt 0              @ ../../../../Library/StdDriver/src/clk.c:394:17
	cmp	r0, #2
	bne	.LBB12_13
	b	.LBB12_47
.LBB12_13:                              @   in Loop: Header=BB12_9 Depth=1
.Ltmp67:
	.loc	2 396 21 is_stmt 1              @ ../../../../Library/StdDriver/src/clk.c:396:21
	ldr	r0, [sp, #44]
.Ltmp68:
	.loc	2 396 21 is_stmt 0              @ ../../../../Library/StdDriver/src/clk.c:396:21
	cmp	r0, #3
	bne	.LBB12_15
	b	.LBB12_14
.LBB12_14:                              @   in Loop: Header=BB12_9 Depth=1
.Ltmp69:
	.loc	2 398 34 is_stmt 1              @ ../../../../Library/StdDriver/src/clk.c:398:34
	ldr	r0, [sp, #8]
	.loc	2 398 49 is_stmt 0              @ ../../../../Library/StdDriver/src/clk.c:398:49
	lsls	r0, r0, #2
	.loc	2 398 32                        @ ../../../../Library/StdDriver/src/clk.c:398:32
	str	r0, [sp, #60]
	.loc	2 399 17 is_stmt 1              @ ../../../../Library/StdDriver/src/clk.c:399:17
	b	.LBB12_19
.Ltmp70:
.LBB12_15:                              @   in Loop: Header=BB12_9 Depth=1
	.loc	2 400 26                        @ ../../../../Library/StdDriver/src/clk.c:400:26
	ldr	r0, [sp, #44]
.Ltmp71:
	.loc	2 400 26 is_stmt 0              @ ../../../../Library/StdDriver/src/clk.c:400:26
	cmp	r0, #1
	bne	.LBB12_17
	b	.LBB12_16
.LBB12_16:                              @   in Loop: Header=BB12_9 Depth=1
.Ltmp72:
	.loc	2 402 34 is_stmt 1              @ ../../../../Library/StdDriver/src/clk.c:402:34
	ldr	r0, [sp, #8]
	.loc	2 402 49 is_stmt 0              @ ../../../../Library/StdDriver/src/clk.c:402:49
	lsls	r0, r0, #1
	.loc	2 402 32                        @ ../../../../Library/StdDriver/src/clk.c:402:32
	str	r0, [sp, #60]
	.loc	2 403 17 is_stmt 1              @ ../../../../Library/StdDriver/src/clk.c:403:17
	b	.LBB12_18
.Ltmp73:
.LBB12_17:                              @   in Loop: Header=BB12_9 Depth=1
	.loc	2 0 17 is_stmt 0                @ ../../../../Library/StdDriver/src/clk.c:0:17
	b	.LBB12_18
.LBB12_18:                              @   in Loop: Header=BB12_9 Depth=1
	b	.LBB12_19
.LBB12_19:                              @   in Loop: Header=BB12_9 Depth=1
	movs	r0, #1
.Ltmp74:
	.loc	2 408 28 is_stmt 1              @ ../../../../Library/StdDriver/src/clk.c:408:28
	str	r0, [sp, #52]
	.loc	2 408 22 is_stmt 0              @ ../../../../Library/StdDriver/src/clk.c:408:22
	b	.LBB12_20
.LBB12_20:                              @   Parent Loop BB12_9 Depth=1
                                        @ =>  This Loop Header: Depth=2
                                        @       Child Loop BB12_24 Depth 3
.Ltmp75:
	.loc	2 408 35                        @ ../../../../Library/StdDriver/src/clk.c:408:35
	ldr	r0, [sp, #52]
.Ltmp76:
	.loc	2 408 17                        @ ../../../../Library/StdDriver/src/clk.c:408:17
	cmp	r0, #6
	bhi	.LBB12_46
	b	.LBB12_21
.LBB12_21:                              @   in Loop: Header=BB12_20 Depth=2
.Ltmp77:
	.loc	2 410 30 is_stmt 1              @ ../../../../Library/StdDriver/src/clk.c:410:30
	ldr	r0, [sp, #56]
	.loc	2 410 45 is_stmt 0              @ ../../../../Library/StdDriver/src/clk.c:410:45
	ldr	r1, [sp, #52]
	.loc	2 410 43                        @ ../../../../Library/StdDriver/src/clk.c:410:43
	udiv	r0, r0, r1
	.loc	2 410 28                        @ ../../../../Library/StdDriver/src/clk.c:410:28
	str	r0, [sp, #36]
.Ltmp78:
	.loc	2 412 25 is_stmt 1              @ ../../../../Library/StdDriver/src/clk.c:412:25
	ldr	r0, [sp, #36]
	ldr	r1, __arm_cp.12_14
	.loc	2 412 45 is_stmt 0              @ ../../../../Library/StdDriver/src/clk.c:412:45
	cmp	r0, r1
	blo	.LBB12_44
	b	.LBB12_22
.LBB12_22:                              @   in Loop: Header=BB12_20 Depth=2
	.loc	2 412 48                        @ ../../../../Library/StdDriver/src/clk.c:412:48
	ldr	r0, [sp, #36]
	ldr	r1, __arm_cp.12_15
.Ltmp79:
	.loc	2 412 25                        @ ../../../../Library/StdDriver/src/clk.c:412:25
	cmp	r0, r1
	bhi	.LBB12_44
	b	.LBB12_23
.LBB12_23:                              @   in Loop: Header=BB12_20 Depth=2
	.loc	2 0 25                          @ ../../../../Library/StdDriver/src/clk.c:0:25
	movs	r0, #8
.Ltmp80:
	.loc	2 414 36 is_stmt 1              @ ../../../../Library/StdDriver/src/clk.c:414:36
	str	r0, [sp, #48]
	.loc	2 414 30 is_stmt 0              @ ../../../../Library/StdDriver/src/clk.c:414:30
	b	.LBB12_24
.LBB12_24:                              @   Parent Loop BB12_9 Depth=1
                                        @     Parent Loop BB12_20 Depth=2
                                        @ =>    This Inner Loop Header: Depth=3
.Ltmp81:
	.loc	2 414 43                        @ ../../../../Library/StdDriver/src/clk.c:414:43
	ldr	r0, [sp, #48]
.Ltmp82:
	.loc	2 414 25                        @ ../../../../Library/StdDriver/src/clk.c:414:25
	cmp	r0, #25
	bhi	.LBB12_43
	b	.LBB12_25
.LBB12_25:                              @   in Loop: Header=BB12_24 Depth=3
.Ltmp83:
	.loc	2 416 39 is_stmt 1              @ ../../../../Library/StdDriver/src/clk.c:416:39
	ldr	r1, [sp, #36]
	.loc	2 416 48 is_stmt 0              @ ../../../../Library/StdDriver/src/clk.c:416:48
	ldr	r0, [sp, #48]
	.loc	2 416 46                        @ ../../../../Library/StdDriver/src/clk.c:416:46
	muls	r0, r1, r0
	.loc	2 416 37                        @ ../../../../Library/StdDriver/src/clk.c:416:37
	str	r0, [sp, #32]
.Ltmp84:
	.loc	2 418 34 is_stmt 1              @ ../../../../Library/StdDriver/src/clk.c:418:34
	ldr	r0, [sp, #32]
	ldr	r1, __arm_cp.12_16
	.loc	2 418 57 is_stmt 0              @ ../../../../Library/StdDriver/src/clk.c:418:57
	cmp	r0, r1
	blo	.LBB12_41
	b	.LBB12_26
.LBB12_26:                              @   in Loop: Header=BB12_24 Depth=3
	.loc	2 418 61                        @ ../../../../Library/StdDriver/src/clk.c:418:61
	ldr	r0, [sp, #32]
	ldr	r1, __arm_cp.12_4
.Ltmp85:
	.loc	2 418 33                        @ ../../../../Library/StdDriver/src/clk.c:418:33
	cmp	r0, r1
	bhi	.LBB12_41
	b	.LBB12_27
.LBB12_27:                              @   in Loop: Header=BB12_24 Depth=3
.Ltmp86:
	.loc	2 420 44 is_stmt 1              @ ../../../../Library/StdDriver/src/clk.c:420:44
	ldr	r0, [sp, #32]
	.loc	2 420 54 is_stmt 0              @ ../../../../Library/StdDriver/src/clk.c:420:54
	ldr	r1, [sp, #60]
	.loc	2 420 43                        @ ../../../../Library/StdDriver/src/clk.c:420:43
	cmp	r0, r1
	bls	.LBB12_29
	b	.LBB12_28
.LBB12_28:                              @   in Loop: Header=BB12_24 Depth=3
	.loc	2 420 69                        @ ../../../../Library/StdDriver/src/clk.c:420:69
	ldr	r0, [sp, #32]
	.loc	2 420 79                        @ ../../../../Library/StdDriver/src/clk.c:420:79
	ldr	r1, [sp, #60]
	.loc	2 420 77                        @ ../../../../Library/StdDriver/src/clk.c:420:77
	subs	r0, r0, r1
	.loc	2 420 43                        @ ../../../../Library/StdDriver/src/clk.c:420:43
	str	r0, [sp]                        @ 4-byte Spill
	b	.LBB12_30
.LBB12_29:                              @   in Loop: Header=BB12_24 Depth=3
	.loc	2 420 94                        @ ../../../../Library/StdDriver/src/clk.c:420:94
	ldr	r0, [sp, #60]
	.loc	2 420 107                       @ ../../../../Library/StdDriver/src/clk.c:420:107
	ldr	r1, [sp, #32]
	.loc	2 420 105                       @ ../../../../Library/StdDriver/src/clk.c:420:105
	subs	r0, r0, r1
	.loc	2 420 43                        @ ../../../../Library/StdDriver/src/clk.c:420:43
	str	r0, [sp]                        @ 4-byte Spill
	b	.LBB12_30
.LBB12_30:                              @   in Loop: Header=BB12_24 Depth=3
	ldr	r0, [sp]                        @ 4-byte Reload
	.loc	2 420 41                        @ ../../../../Library/StdDriver/src/clk.c:420:41
	str	r0, [sp, #28]
.Ltmp87:
	.loc	2 422 37 is_stmt 1              @ ../../../../Library/StdDriver/src/clk.c:422:37
	ldr	r0, [sp, #44]
.Ltmp88:
	.loc	2 422 37 is_stmt 0              @ ../../../../Library/StdDriver/src/clk.c:422:37
	cmp	r0, #3
	bne	.LBB12_32
	b	.LBB12_31
.LBB12_31:                              @   in Loop: Header=BB12_24 Depth=3
.Ltmp89:
	.loc	2 424 47 is_stmt 1              @ ../../../../Library/StdDriver/src/clk.c:424:47
	ldr	r0, [sp, #28]
	.loc	2 424 55 is_stmt 0              @ ../../../../Library/StdDriver/src/clk.c:424:55
	lsrs	r0, r0, #2
	.loc	2 424 45                        @ ../../../../Library/StdDriver/src/clk.c:424:45
	str	r0, [sp, #28]
	.loc	2 425 33 is_stmt 1              @ ../../../../Library/StdDriver/src/clk.c:425:33
	b	.LBB12_36
.Ltmp90:
.LBB12_32:                              @   in Loop: Header=BB12_24 Depth=3
	.loc	2 426 42                        @ ../../../../Library/StdDriver/src/clk.c:426:42
	ldr	r0, [sp, #44]
.Ltmp91:
	.loc	2 426 42 is_stmt 0              @ ../../../../Library/StdDriver/src/clk.c:426:42
	cmp	r0, #1
	bne	.LBB12_34
	b	.LBB12_33
.LBB12_33:                              @   in Loop: Header=BB12_24 Depth=3
.Ltmp92:
	.loc	2 428 47 is_stmt 1              @ ../../../../Library/StdDriver/src/clk.c:428:47
	ldr	r0, [sp, #28]
	.loc	2 428 55 is_stmt 0              @ ../../../../Library/StdDriver/src/clk.c:428:55
	lsrs	r0, r0, #1
	.loc	2 428 45                        @ ../../../../Library/StdDriver/src/clk.c:428:45
	str	r0, [sp, #28]
	.loc	2 429 33 is_stmt 1              @ ../../../../Library/StdDriver/src/clk.c:429:33
	b	.LBB12_35
.Ltmp93:
.LBB12_34:                              @   in Loop: Header=BB12_24 Depth=3
	.loc	2 0 33 is_stmt 0                @ ../../../../Library/StdDriver/src/clk.c:0:33
	b	.LBB12_35
.LBB12_35:                              @   in Loop: Header=BB12_24 Depth=3
	b	.LBB12_36
.LBB12_36:                              @   in Loop: Header=BB12_24 Depth=3
.Ltmp94:
	.loc	2 434 37 is_stmt 1              @ ../../../../Library/StdDriver/src/clk.c:434:37
	ldr	r0, [sp, #28]
	.loc	2 434 47 is_stmt 0              @ ../../../../Library/StdDriver/src/clk.c:434:47
	ldr	r1, [sp, #24]
.Ltmp95:
	.loc	2 434 37                        @ ../../../../Library/StdDriver/src/clk.c:434:37
	cmp	r0, r1
	bhs	.LBB12_40
	b	.LBB12_37
.LBB12_37:                              @   in Loop: Header=BB12_24 Depth=3
.Ltmp96:
	.loc	2 436 46 is_stmt 1              @ ../../../../Library/StdDriver/src/clk.c:436:46
	ldr	r0, [sp, #28]
	.loc	2 436 44 is_stmt 0              @ ../../../../Library/StdDriver/src/clk.c:436:44
	str	r0, [sp, #24]
	.loc	2 437 48 is_stmt 1              @ ../../../../Library/StdDriver/src/clk.c:437:48
	ldr	r0, [sp, #52]
	.loc	2 437 46 is_stmt 0              @ ../../../../Library/StdDriver/src/clk.c:437:46
	str	r0, [sp, #16]
	.loc	2 438 48 is_stmt 1              @ ../../../../Library/StdDriver/src/clk.c:438:48
	ldr	r0, [sp, #48]
	.loc	2 438 46 is_stmt 0              @ ../../../../Library/StdDriver/src/clk.c:438:46
	str	r0, [sp, #20]
	.loc	2 439 48 is_stmt 1              @ ../../../../Library/StdDriver/src/clk.c:439:48
	ldr	r0, [sp, #44]
	.loc	2 439 46 is_stmt 0              @ ../../../../Library/StdDriver/src/clk.c:439:46
	str	r0, [sp, #12]
.Ltmp97:
	.loc	2 442 41 is_stmt 1              @ ../../../../Library/StdDriver/src/clk.c:442:41
	ldr	r0, [sp, #24]
.Ltmp98:
	.loc	2 442 41 is_stmt 0              @ ../../../../Library/StdDriver/src/clk.c:442:41
	cbnz	r0, .LBB12_39
	b	.LBB12_38
.LBB12_38:                              @   in Loop: Header=BB12_20 Depth=2
.Ltmp99:
	.loc	2 443 41 is_stmt 1              @ ../../../../Library/StdDriver/src/clk.c:443:41
	b	.LBB12_43
.Ltmp100:
.LBB12_39:                              @   in Loop: Header=BB12_24 Depth=3
	.loc	2 444 33                        @ ../../../../Library/StdDriver/src/clk.c:444:33
	b	.LBB12_40
.Ltmp101:
.LBB12_40:                              @   in Loop: Header=BB12_24 Depth=3
	.loc	2 445 29                        @ ../../../../Library/StdDriver/src/clk.c:445:29
	b	.LBB12_41
.Ltmp102:
.LBB12_41:                              @   in Loop: Header=BB12_24 Depth=3
	.loc	2 446 25                        @ ../../../../Library/StdDriver/src/clk.c:446:25
	b	.LBB12_42
.Ltmp103:
.LBB12_42:                              @   in Loop: Header=BB12_24 Depth=3
	.loc	2 414 63                        @ ../../../../Library/StdDriver/src/clk.c:414:63
	ldr	r0, [sp, #48]
	adds	r0, r0, #1
	str	r0, [sp, #48]
	.loc	2 414 25 is_stmt 0              @ ../../../../Library/StdDriver/src/clk.c:414:25
	b	.LBB12_24
.Ltmp104:
.LBB12_43:                              @   in Loop: Header=BB12_20 Depth=2
	.loc	2 447 21 is_stmt 1              @ ../../../../Library/StdDriver/src/clk.c:447:21
	b	.LBB12_44
.Ltmp105:
.LBB12_44:                              @   in Loop: Header=BB12_20 Depth=2
	.loc	2 448 17                        @ ../../../../Library/StdDriver/src/clk.c:448:17
	b	.LBB12_45
.Ltmp106:
.LBB12_45:                              @   in Loop: Header=BB12_20 Depth=2
	.loc	2 408 54                        @ ../../../../Library/StdDriver/src/clk.c:408:54
	ldr	r0, [sp, #52]
	adds	r0, r0, #1
	str	r0, [sp, #52]
	.loc	2 408 17 is_stmt 0              @ ../../../../Library/StdDriver/src/clk.c:408:17
	b	.LBB12_20
.Ltmp107:
.LBB12_46:                              @   in Loop: Header=BB12_9 Depth=1
	.loc	2 449 13 is_stmt 1              @ ../../../../Library/StdDriver/src/clk.c:449:13
	b	.LBB12_47
.Ltmp108:
.LBB12_47:                              @   in Loop: Header=BB12_9 Depth=1
	.loc	2 450 9                         @ ../../../../Library/StdDriver/src/clk.c:450:9
	b	.LBB12_48
.Ltmp109:
.LBB12_48:                              @   in Loop: Header=BB12_9 Depth=1
	.loc	2 388 46                        @ ../../../../Library/StdDriver/src/clk.c:388:46
	ldr	r0, [sp, #44]
	adds	r0, r0, #1
	str	r0, [sp, #44]
	.loc	2 388 9 is_stmt 0               @ ../../../../Library/StdDriver/src/clk.c:388:9
	b	.LBB12_9
.Ltmp110:
.LBB12_49:
	.loc	2 451 5 is_stmt 1               @ ../../../../Library/StdDriver/src/clk.c:451:5
	b	.LBB12_51
.Ltmp111:
.LBB12_50:
	.loc	2 455 9                         @ ../../../../Library/StdDriver/src/clk.c:455:9
	b	.LBB12_52
.Ltmp112:
.LBB12_51:
	.loc	2 459 19                        @ ../../../../Library/StdDriver/src/clk.c:459:19
	ldr	r0, [sp, #40]
	.loc	2 459 32 is_stmt 0              @ ../../../../Library/StdDriver/src/clk.c:459:32
	ldr	r1, [sp, #12]
	.loc	2 459 41                        @ ../../../../Library/StdDriver/src/clk.c:459:41
	lsls	r1, r1, #14
	.loc	2 459 29                        @ ../../../../Library/StdDriver/src/clk.c:459:29
	orrs	r0, r1
	.loc	2 459 52                        @ ../../../../Library/StdDriver/src/clk.c:459:52
	ldr	r1, [sp, #16]
	.loc	2 459 62                        @ ../../../../Library/StdDriver/src/clk.c:459:62
	lsls	r1, r1, #9
	.loc	2 459 48                        @ ../../../../Library/StdDriver/src/clk.c:459:48
	orrs	r0, r1
	.loc	2 459 71                        @ ../../../../Library/StdDriver/src/clk.c:459:71
	ldr	r1, [sp, #20]
	.loc	2 459 68                        @ ../../../../Library/StdDriver/src/clk.c:459:68
	orrs	r0, r1
	ldr	r1, __arm_cp.12_7
	.loc	2 459 17                        @ ../../../../Library/StdDriver/src/clk.c:459:17
	str	r0, [r1]
	movs	r0, #4
	.loc	2 462 5 is_stmt 1               @ ../../../../Library/StdDriver/src/clk.c:462:5
	bl	CLK_WaitClockReady
	.loc	2 465 12                        @ ../../../../Library/StdDriver/src/clk.c:465:12
	ldr	r0, [sp, #56]
	.loc	2 465 29 is_stmt 0              @ ../../../../Library/StdDriver/src/clk.c:465:29
	ldr	r1, [sp, #12]
	.loc	2 465 38                        @ ../../../../Library/StdDriver/src/clk.c:465:38
	adds	r2, r1, #1
	.loc	2 465 47                        @ ../../../../Library/StdDriver/src/clk.c:465:47
	ldr	r1, [sp, #16]
	.loc	2 465 45                        @ ../../../../Library/StdDriver/src/clk.c:465:45
	muls	r1, r2, r1
	.loc	2 465 25                        @ ../../../../Library/StdDriver/src/clk.c:465:25
	udiv	r1, r0, r1
	.loc	2 465 59                        @ ../../../../Library/StdDriver/src/clk.c:465:59
	ldr	r0, [sp, #20]
	.loc	2 465 57                        @ ../../../../Library/StdDriver/src/clk.c:465:57
	muls	r0, r1, r0
	.loc	2 465 5                         @ ../../../../Library/StdDriver/src/clk.c:465:5
	str	r0, [sp, #68]
	b	.LBB12_68
.LBB12_52:
.Ltmp113:
	@DEBUG_LABEL: CLK_EnablePLL:lexit
	.loc	2 470 9 is_stmt 1               @ ../../../../Library/StdDriver/src/clk.c:470:9
	ldr	r0, [sp, #60]
	ldr	r1, __arm_cp.12_6
.Ltmp114:
	.loc	2 470 9 is_stmt 0               @ ../../../../Library/StdDriver/src/clk.c:470:9
	cmp	r0, r1
	bhi	.LBB12_60
	b	.LBB12_53
.LBB12_53:
.Ltmp115:
	.loc	2 472 13 is_stmt 1              @ ../../../../Library/StdDriver/src/clk.c:472:13
	ldr	r0, [sp, #64]
.Ltmp116:
	.loc	2 472 13 is_stmt 0              @ ../../../../Library/StdDriver/src/clk.c:472:13
	cbnz	r0, .LBB12_55
	b	.LBB12_54
.LBB12_54:
	.loc	2 0 13                          @ ../../../../Library/StdDriver/src/clk.c:0:13
	ldr	r1, __arm_cp.12_7
	ldr	r0, __arm_cp.12_13
.Ltmp117:
	.loc	2 473 25 is_stmt 1              @ ../../../../Library/StdDriver/src/clk.c:473:25
	str	r0, [r1]
	.loc	2 473 13 is_stmt 0              @ ../../../../Library/StdDriver/src/clk.c:473:13
	b	.LBB12_59
.LBB12_55:
.Ltmp118:
	.loc	2 474 18 is_stmt 1              @ ../../../../Library/StdDriver/src/clk.c:474:18
	ldr	r0, [sp, #64]
	movs	r1, #1
	lsls	r1, r1, #19
.Ltmp119:
	.loc	2 474 18 is_stmt 0              @ ../../../../Library/StdDriver/src/clk.c:474:18
	cmp	r0, r1
	bne	.LBB12_57
	b	.LBB12_56
.LBB12_56:
	.loc	2 0 18                          @ ../../../../Library/StdDriver/src/clk.c:0:18
	ldr	r1, __arm_cp.12_7
	ldr	r0, __arm_cp.12_12
.Ltmp120:
	.loc	2 475 25 is_stmt 1              @ ../../../../Library/StdDriver/src/clk.c:475:25
	str	r0, [r1]
	.loc	2 475 13 is_stmt 0              @ ../../../../Library/StdDriver/src/clk.c:475:13
	b	.LBB12_58
.LBB12_57:
	.loc	2 0 13                          @ ../../../../Library/StdDriver/src/clk.c:0:13
	ldr	r1, __arm_cp.12_7
	ldr	r0, __arm_cp.12_11
	.loc	2 477 25 is_stmt 1              @ ../../../../Library/StdDriver/src/clk.c:477:25
	str	r0, [r1]
	b	.LBB12_58
.Ltmp121:
.LBB12_58:
	.loc	2 0 25 is_stmt 0                @ ../../../../Library/StdDriver/src/clk.c:0:25
	b	.LBB12_59
.LBB12_59:
	.loc	2 478 5 is_stmt 1               @ ../../../../Library/StdDriver/src/clk.c:478:5
	b	.LBB12_67
.Ltmp122:
.LBB12_60:
	.loc	2 481 13                        @ ../../../../Library/StdDriver/src/clk.c:481:13
	ldr	r0, [sp, #64]
.Ltmp123:
	.loc	2 481 13 is_stmt 0              @ ../../../../Library/StdDriver/src/clk.c:481:13
	cbnz	r0, .LBB12_62
	b	.LBB12_61
.LBB12_61:
	.loc	2 0 13                          @ ../../../../Library/StdDriver/src/clk.c:0:13
	ldr	r1, __arm_cp.12_7
	ldr	r0, __arm_cp.12_10
.Ltmp124:
	.loc	2 482 25 is_stmt 1              @ ../../../../Library/StdDriver/src/clk.c:482:25
	str	r0, [r1]
	.loc	2 482 13 is_stmt 0              @ ../../../../Library/StdDriver/src/clk.c:482:13
	b	.LBB12_66
.LBB12_62:
.Ltmp125:
	.loc	2 483 18 is_stmt 1              @ ../../../../Library/StdDriver/src/clk.c:483:18
	ldr	r0, [sp, #64]
	movs	r1, #1
	lsls	r1, r1, #19
.Ltmp126:
	.loc	2 483 18 is_stmt 0              @ ../../../../Library/StdDriver/src/clk.c:483:18
	cmp	r0, r1
	bne	.LBB12_64
	b	.LBB12_63
.LBB12_63:
	.loc	2 0 18                          @ ../../../../Library/StdDriver/src/clk.c:0:18
	ldr	r1, __arm_cp.12_7
	ldr	r0, __arm_cp.12_9
.Ltmp127:
	.loc	2 484 25 is_stmt 1              @ ../../../../Library/StdDriver/src/clk.c:484:25
	str	r0, [r1]
	.loc	2 484 13 is_stmt 0              @ ../../../../Library/StdDriver/src/clk.c:484:13
	b	.LBB12_65
.LBB12_64:
	.loc	2 0 13                          @ ../../../../Library/StdDriver/src/clk.c:0:13
	ldr	r1, __arm_cp.12_7
	ldr	r0, __arm_cp.12_8
	.loc	2 486 25 is_stmt 1              @ ../../../../Library/StdDriver/src/clk.c:486:25
	str	r0, [r1]
	b	.LBB12_65
.Ltmp128:
.LBB12_65:
	.loc	2 0 25 is_stmt 0                @ ../../../../Library/StdDriver/src/clk.c:0:25
	b	.LBB12_66
.LBB12_66:
	b	.LBB12_67
.LBB12_67:
	movs	r0, #4
	.loc	2 490 5 is_stmt 1               @ ../../../../Library/StdDriver/src/clk.c:490:5
	bl	CLK_WaitClockReady
	.loc	2 492 12                        @ ../../../../Library/StdDriver/src/clk.c:492:12
	bl	CLK_GetPLLClockFreq
	.loc	2 492 5 is_stmt 0               @ ../../../../Library/StdDriver/src/clk.c:492:5
	str	r0, [sp, #68]
	b	.LBB12_68
.LBB12_68:
	.loc	2 494 1 is_stmt 1               @ ../../../../Library/StdDriver/src/clk.c:494:1
	ldr	r0, [sp, #68]
	add	sp, #72
	pop	{r7, pc}
.Ltmp129:
	.p2align	2
@ %bb.69:
	.loc	2 0 1 is_stmt 0                 @ ../../../../Library/StdDriver/src/clk.c:0:1
__arm_cp.12_0:
	.long	1073742336                      @ 0x40000200
.Lcpi_end25:
	.size	__arm_cp.12_0, .Lcpi_end25-__arm_cp.12_0
__arm_cp.12_1:
	.long	4032000                         @ 0x3d8600
.Lcpi_end26:
	.size	__arm_cp.12_1, .Lcpi_end26-__arm_cp.12_1
__arm_cp.12_2:
	.long	12000000                        @ 0xb71b00
.Lcpi_end27:
	.size	__arm_cp.12_2, .Lcpi_end27-__arm_cp.12_2
__arm_cp.12_3:
	.long	24000000                        @ 0x16e3600
.Lcpi_end28:
	.size	__arm_cp.12_3, .Lcpi_end28-__arm_cp.12_3
__arm_cp.12_4:
	.long	100000000                       @ 0x5f5e100
.Lcpi_end29:
	.size	__arm_cp.12_4, .Lcpi_end29-__arm_cp.12_4
__arm_cp.12_5:
	.long	16000000                        @ 0xf42400
.Lcpi_end30:
	.size	__arm_cp.12_5, .Lcpi_end30-__arm_cp.12_5
__arm_cp.12_6:
	.long	15999999                        @ 0xf423ff
.Lcpi_end31:
	.size	__arm_cp.12_6, .Lcpi_end31-__arm_cp.12_6
__arm_cp.12_7:
	.long	1073742400                      @ 0x40000240
.Lcpi_end32:
	.size	__arm_cp.12_7, .Lcpi_end32-__arm_cp.12_7
__arm_cp.12_8:
	.long	1573401                         @ 0x180219
.Lcpi_end33:
	.size	__arm_cp.12_8, .Lcpi_end33-__arm_cp.12_8
__arm_cp.12_9:
	.long	525849                          @ 0x80619
.Lcpi_end34:
	.size	__arm_cp.12_9, .Lcpi_end34-__arm_cp.12_9
__arm_cp.12_10:
	.long	1561                            @ 0x619
.Lcpi_end35:
	.size	__arm_cp.12_10, .Lcpi_end35-__arm_cp.12_10
__arm_cp.12_11:
	.long	1622544                         @ 0x18c210
.Lcpi_end36:
	.size	__arm_cp.12_11, .Lcpi_end36-__arm_cp.12_11
__arm_cp.12_12:
	.long	574992                          @ 0x8c610
.Lcpi_end37:
	.size	__arm_cp.12_12, .Lcpi_end37-__arm_cp.12_12
__arm_cp.12_13:
	.long	50704                           @ 0xc610
.Lcpi_end38:
	.size	__arm_cp.12_13, .Lcpi_end38-__arm_cp.12_13
__arm_cp.12_14:
	.long	4000000                         @ 0x3d0900
.Lcpi_end39:
	.size	__arm_cp.12_14, .Lcpi_end39-__arm_cp.12_14
__arm_cp.12_15:
	.long	8000000                         @ 0x7a1200
.Lcpi_end40:
	.size	__arm_cp.12_15, .Lcpi_end40-__arm_cp.12_15
__arm_cp.12_16:
	.long	64000000                        @ 0x3d09000
.Lcpi_end41:
	.size	__arm_cp.12_16, .Lcpi_end41-__arm_cp.12_16
.Lfunc_end12:
	.size	CLK_EnablePLL, .Lfunc_end12-CLK_EnablePLL
	.cfi_endproc
	.cantunwind
	.fnend
                                        @ -- End function
	.section	.text.CLK_WaitClockReady,"ax",%progbits
	.hidden	CLK_WaitClockReady              @ -- Begin function CLK_WaitClockReady
	.globl	CLK_WaitClockReady
	.p2align	2
	.type	CLK_WaitClockReady,%function
	.code	16                              @ @CLK_WaitClockReady
	.thumb_func
CLK_WaitClockReady:
.Lfunc_begin13:
	.loc	2 911 0 is_stmt 1               @ ../../../../Library/StdDriver/src/clk.c:911:0
	.fnstart
	.cfi_startproc
@ %bb.0:
	.pad	#12
	sub	sp, #12
	.cfi_def_cfa_offset 12
	str	r0, [sp, #8]
.Ltmp130:
	.loc	2 912 30 prologue_end           @ ../../../../Library/StdDriver/src/clk.c:912:30
	ldr	r0, __arm_cp.13_0
	ldr	r0, [r0]
	.loc	2 912 14 is_stmt 0              @ ../../../../Library/StdDriver/src/clk.c:912:14
	str	r0, [sp, #4]
	movs	r0, #1
	.loc	2 913 14 is_stmt 1              @ ../../../../Library/StdDriver/src/clk.c:913:14
	str	r0, [sp]
	.loc	2 915 22                        @ ../../../../Library/StdDriver/src/clk.c:915:22
	ldr	r1, __arm_cp.13_1
	movs	r0, #0
	str	r0, [r1]
	.loc	2 917 5                         @ ../../../../Library/StdDriver/src/clk.c:917:5
	b	.LBB13_1
.LBB13_1:                               @ =>This Inner Loop Header: Depth=1
	.loc	2 0 5 is_stmt 0                 @ ../../../../Library/StdDriver/src/clk.c:0:5
	ldr	r0, __arm_cp.13_2
	.loc	2 917 18                        @ ../../../../Library/StdDriver/src/clk.c:917:18
	ldr	r0, [r0]
	.loc	2 917 27                        @ ../../../../Library/StdDriver/src/clk.c:917:27
	ldr	r1, [sp, #8]
	.loc	2 917 25                        @ ../../../../Library/StdDriver/src/clk.c:917:25
	ands	r0, r1
	.loc	2 917 5                         @ ../../../../Library/StdDriver/src/clk.c:917:5
	cmp	r0, r1
	beq	.LBB13_5
	b	.LBB13_2
.LBB13_2:                               @   in Loop: Header=BB13_1 Depth=1
.Ltmp131:
	.loc	2 919 13 is_stmt 1              @ ../../../../Library/StdDriver/src/clk.c:919:13
	ldr	r0, [sp, #4]
	subs	r0, r0, #1
	str	r0, [sp, #4]
.Ltmp132:
	.loc	2 919 13 is_stmt 0              @ ../../../../Library/StdDriver/src/clk.c:919:13
	cbnz	r0, .LBB13_4
	b	.LBB13_3
.LBB13_3:
	.loc	2 0 13                          @ ../../../../Library/StdDriver/src/clk.c:0:13
	movs	r0, #0
.Ltmp133:
	.loc	2 921 20 is_stmt 1              @ ../../../../Library/StdDriver/src/clk.c:921:20
	str	r0, [sp]
	.loc	2 922 13                        @ ../../../../Library/StdDriver/src/clk.c:922:13
	b	.LBB13_5
.Ltmp134:
.LBB13_4:                               @   in Loop: Header=BB13_1 Depth=1
	.loc	2 917 5                         @ ../../../../Library/StdDriver/src/clk.c:917:5
	b	.LBB13_1
.LBB13_5:
.Ltmp135:
	.loc	2 926 9                         @ ../../../../Library/StdDriver/src/clk.c:926:9
	ldr	r0, [sp, #4]
.Ltmp136:
	.loc	2 926 9 is_stmt 0               @ ../../../../Library/StdDriver/src/clk.c:926:9
	cbnz	r0, .LBB13_7
	b	.LBB13_6
.LBB13_6:
.Ltmp137:
	.loc	2 927 26 is_stmt 1              @ ../../../../Library/StdDriver/src/clk.c:927:26
	ldr	r1, __arm_cp.13_1
	movs	r0, #0
	mvns	r0, r0
	str	r0, [r1]
	.loc	2 927 9 is_stmt 0               @ ../../../../Library/StdDriver/src/clk.c:927:9
	b	.LBB13_7
.Ltmp138:
.LBB13_7:
	.loc	2 929 12 is_stmt 1              @ ../../../../Library/StdDriver/src/clk.c:929:12
	ldr	r0, [sp]
	.loc	2 929 5 is_stmt 0               @ ../../../../Library/StdDriver/src/clk.c:929:5
	add	sp, #12
	bx	lr
.Ltmp139:
	.p2align	2
@ %bb.8:
	.loc	2 0 5                           @ ../../../../Library/StdDriver/src/clk.c:0:5
__arm_cp.13_0:
	.long	SystemCoreClock
.Lcpi_end42:
	.size	__arm_cp.13_0, .Lcpi_end42-__arm_cp.13_0
__arm_cp.13_1:
	.long	g_CLK_i32ErrCode
.Lcpi_end43:
	.size	__arm_cp.13_1, .Lcpi_end43-__arm_cp.13_1
__arm_cp.13_2:
	.long	1073742416                      @ 0x40000250
.Lcpi_end44:
	.size	__arm_cp.13_2, .Lcpi_end44-__arm_cp.13_2
.Lfunc_end13:
	.size	CLK_WaitClockReady, .Lfunc_end13-CLK_WaitClockReady
	.cfi_endproc
	.cantunwind
	.fnend
                                        @ -- End function
	.section	.text.CLK_SetHCLK,"ax",%progbits
	.hidden	CLK_SetHCLK                     @ -- Begin function CLK_SetHCLK
	.globl	CLK_SetHCLK
	.p2align	2
	.type	CLK_SetHCLK,%function
	.code	16                              @ @CLK_SetHCLK
	.thumb_func
CLK_SetHCLK:
.Lfunc_begin14:
	.loc	2 513 0 is_stmt 1               @ ../../../../Library/StdDriver/src/clk.c:513:0
	.fnstart
	.cfi_startproc
@ %bb.0:
	.save	{r4, lr}
	push	{r4, lr}
	.cfi_def_cfa_offset 8
	.cfi_offset lr, -4
	.cfi_offset r4, -8
	.pad	#16
	sub	sp, #16
	.cfi_def_cfa_offset 24
	str	r0, [sp, #12]
	str	r1, [sp, #8]
	ldr	r0, __arm_cp.14_0
.Ltmp140:
	.loc	2 517 26 prologue_end           @ ../../../../Library/StdDriver/src/clk.c:517:26
	ldr	r1, [r0]
	movs	r0, #16
	.loc	2 517 33 is_stmt 0              @ ../../../../Library/StdDriver/src/clk.c:517:33
	ands	r1, r0
	.loc	2 517 19                        @ ../../../../Library/StdDriver/src/clk.c:517:19
	str	r1, [sp, #4]
	ldr	r2, __arm_cp.14_1
	.loc	2 520 17 is_stmt 1              @ ../../../../Library/StdDriver/src/clk.c:520:17
	ldr	r1, [r2]
	movs	r3, #4
	orrs	r1, r3
	str	r1, [r2]
	.loc	2 521 5                         @ ../../../../Library/StdDriver/src/clk.c:521:5
	bl	CLK_WaitClockReady
	ldr	r1, __arm_cp.14_2
	.loc	2 522 26                        @ ../../../../Library/StdDriver/src/clk.c:522:26
	ldr	r0, [r1]
	movs	r2, #7
	.loc	2 522 64 is_stmt 0              @ ../../../../Library/StdDriver/src/clk.c:522:64
	orrs	r0, r2
	.loc	2 522 18                        @ ../../../../Library/StdDriver/src/clk.c:522:18
	str	r0, [r1]
	ldr	r3, __arm_cp.14_3
	.loc	2 525 26 is_stmt 1              @ ../../../../Library/StdDriver/src/clk.c:525:26
	ldr	r0, [r3]
	movs	r4, #15
	.loc	2 525 34 is_stmt 0              @ ../../../../Library/StdDriver/src/clk.c:525:34
	bics	r0, r4
	.loc	2 525 66                        @ ../../../../Library/StdDriver/src/clk.c:525:66
	ldr	r4, [sp, #8]
	.loc	2 525 64                        @ ../../../../Library/StdDriver/src/clk.c:525:64
	orrs	r0, r4
	.loc	2 525 18                        @ ../../../../Library/StdDriver/src/clk.c:525:18
	str	r0, [r3]
	.loc	2 528 26 is_stmt 1              @ ../../../../Library/StdDriver/src/clk.c:528:26
	ldr	r0, [r1]
	.loc	2 528 34 is_stmt 0              @ ../../../../Library/StdDriver/src/clk.c:528:34
	bics	r0, r2
	.loc	2 528 66                        @ ../../../../Library/StdDriver/src/clk.c:528:66
	ldr	r2, [sp, #12]
	.loc	2 528 64                        @ ../../../../Library/StdDriver/src/clk.c:528:64
	orrs	r0, r2
	.loc	2 528 18                        @ ../../../../Library/StdDriver/src/clk.c:528:18
	str	r0, [r1]
	.loc	2 531 5 is_stmt 1               @ ../../../../Library/StdDriver/src/clk.c:531:5
	bl	SystemCoreClockUpdate
.Ltmp141:
	.loc	2 534 9                         @ ../../../../Library/StdDriver/src/clk.c:534:9
	ldr	r0, [sp, #4]
.Ltmp142:
	.loc	2 534 9 is_stmt 0               @ ../../../../Library/StdDriver/src/clk.c:534:9
	cbnz	r0, .LBB14_2
	b	.LBB14_1
.LBB14_1:
	.loc	2 0 9                           @ ../../../../Library/StdDriver/src/clk.c:0:9
	ldr	r1, __arm_cp.14_1
.Ltmp143:
	.loc	2 535 21 is_stmt 1              @ ../../../../Library/StdDriver/src/clk.c:535:21
	ldr	r0, [r1]
	movs	r2, #4
	bics	r0, r2
	str	r0, [r1]
	.loc	2 535 9 is_stmt 0               @ ../../../../Library/StdDriver/src/clk.c:535:9
	b	.LBB14_2
.Ltmp144:
.LBB14_2:
	.loc	2 536 1 is_stmt 1               @ ../../../../Library/StdDriver/src/clk.c:536:1
	add	sp, #16
	pop	{r4, pc}
.Ltmp145:
	.p2align	2
@ %bb.3:
	.loc	2 0 1 is_stmt 0                 @ ../../../../Library/StdDriver/src/clk.c:0:1
__arm_cp.14_0:
	.long	1073742416                      @ 0x40000250
.Lcpi_end45:
	.size	__arm_cp.14_0, .Lcpi_end45-__arm_cp.14_0
__arm_cp.14_1:
	.long	1073742336                      @ 0x40000200
.Lcpi_end46:
	.size	__arm_cp.14_1, .Lcpi_end46-__arm_cp.14_1
__arm_cp.14_2:
	.long	1073742352                      @ 0x40000210
.Lcpi_end47:
	.size	__arm_cp.14_2, .Lcpi_end47-__arm_cp.14_2
__arm_cp.14_3:
	.long	1073742368                      @ 0x40000220
.Lcpi_end48:
	.size	__arm_cp.14_3, .Lcpi_end48-__arm_cp.14_3
.Lfunc_end14:
	.size	CLK_SetHCLK, .Lfunc_end14-CLK_SetHCLK
	.cfi_endproc
	.cantunwind
	.fnend
                                        @ -- End function
	.section	.text.CLK_SetCoreClock,"ax",%progbits
	.hidden	CLK_SetCoreClock                @ -- Begin function CLK_SetCoreClock
	.globl	CLK_SetCoreClock
	.p2align	2
	.type	CLK_SetCoreClock,%function
	.code	16                              @ @CLK_SetCoreClock
	.thumb_func
CLK_SetCoreClock:
.Lfunc_begin15:
	.loc	2 548 0 is_stmt 1               @ ../../../../Library/StdDriver/src/clk.c:548:0
	.fnstart
	.cfi_startproc
@ %bb.0:
	.save	{r7, lr}
	push	{r7, lr}
	.cfi_def_cfa_offset 8
	.cfi_offset lr, -4
	.cfi_offset r7, -8
	.pad	#16
	sub	sp, #16
	.cfi_def_cfa_offset 24
	str	r0, [sp, #8]
.Ltmp146:
	.loc	2 552 9 prologue_end            @ ../../../../Library/StdDriver/src/clk.c:552:9
	ldr	r0, [sp, #8]
	ldr	r1, __arm_cp.15_0
.Ltmp147:
	.loc	2 552 9 is_stmt 0               @ ../../../../Library/StdDriver/src/clk.c:552:9
	cmp	r0, r1
	blo	.LBB15_2
	b	.LBB15_1
.LBB15_1:
	.loc	2 0 9                           @ ../../../../Library/StdDriver/src/clk.c:0:9
	ldr	r0, __arm_cp.15_1
.Ltmp148:
	.loc	2 553 17 is_stmt 1              @ ../../../../Library/StdDriver/src/clk.c:553:17
	str	r0, [sp, #8]
	.loc	2 553 9 is_stmt 0               @ ../../../../Library/StdDriver/src/clk.c:553:9
	b	.LBB15_2
.Ltmp149:
.LBB15_2:
	.loc	2 555 9 is_stmt 1               @ ../../../../Library/StdDriver/src/clk.c:555:9
	ldr	r0, [sp, #8]
	ldr	r1, __arm_cp.15_2
.Ltmp150:
	.loc	2 555 9 is_stmt 0               @ ../../../../Library/StdDriver/src/clk.c:555:9
	cmp	r0, r1
	bhi	.LBB15_4
	b	.LBB15_3
.LBB15_3:
	.loc	2 0 9                           @ ../../../../Library/StdDriver/src/clk.c:0:9
	ldr	r0, __arm_cp.15_3
.Ltmp151:
	.loc	2 556 17 is_stmt 1              @ ../../../../Library/StdDriver/src/clk.c:556:17
	str	r0, [sp, #8]
	.loc	2 556 9 is_stmt 0               @ ../../../../Library/StdDriver/src/clk.c:556:9
	b	.LBB15_4
.Ltmp152:
.LBB15_4:
	.loc	2 0 9                           @ ../../../../Library/StdDriver/src/clk.c:0:9
	ldr	r1, __arm_cp.15_4
	.loc	2 559 17 is_stmt 1              @ ../../../../Library/StdDriver/src/clk.c:559:17
	ldr	r0, [r1]
	movs	r2, #1
	lsls	r2, r2, #19
	orrs	r0, r2
	str	r0, [r1]
	movs	r0, #64
	.loc	2 560 5                         @ ../../../../Library/StdDriver/src/clk.c:560:5
	bl	CLK_WaitClockReady
	movs	r0, #5
	movs	r1, #0
	.loc	2 561 5                         @ ../../../../Library/StdDriver/src/clk.c:561:5
	bl	CLK_SetHCLK
	.loc	2 563 21                        @ ../../../../Library/StdDriver/src/clk.c:563:21
	ldr	r0, [sp, #8]
	.loc	2 563 29 is_stmt 0              @ ../../../../Library/StdDriver/src/clk.c:563:29
	lsls	r0, r0, #1
	.loc	2 563 18                        @ ../../../../Library/StdDriver/src/clk.c:563:18
	str	r0, [sp, #4]
	ldr	r0, __arm_cp.15_5
.Ltmp153:
	.loc	2 566 14 is_stmt 1              @ ../../../../Library/StdDriver/src/clk.c:566:14
	ldr	r0, [r0]
.Ltmp154:
	.loc	2 566 9 is_stmt 0               @ ../../../../Library/StdDriver/src/clk.c:566:9
	lsls	r0, r0, #31
	cbz	r0, .LBB15_6
	b	.LBB15_5
.LBB15_5:
.Ltmp155:
	.loc	2 567 61 is_stmt 1              @ ../../../../Library/StdDriver/src/clk.c:567:61
	ldr	r1, [sp, #4]
	movs	r0, #0
	.loc	2 567 24 is_stmt 0              @ ../../../../Library/StdDriver/src/clk.c:567:24
	bl	CLK_EnablePLL
	.loc	2 567 22                        @ ../../../../Library/StdDriver/src/clk.c:567:22
	str	r0, [sp, #4]
	.loc	2 567 9                         @ ../../../../Library/StdDriver/src/clk.c:567:9
	b	.LBB15_11
.LBB15_6:
	.loc	2 0 9                           @ ../../../../Library/StdDriver/src/clk.c:0:9
	ldr	r0, __arm_cp.15_5
.Ltmp156:
	.loc	2 570 20 is_stmt 1              @ ../../../../Library/StdDriver/src/clk.c:570:20
	ldr	r0, [r0]
	.loc	2 570 53 is_stmt 0              @ ../../../../Library/StdDriver/src/clk.c:570:53
	lsls	r0, r0, #25
	cmp	r0, #0
	bpl	.LBB15_9
	b	.LBB15_7
.LBB15_7:
	.loc	2 0 53                          @ ../../../../Library/StdDriver/src/clk.c:0:53
	ldr	r0, __arm_cp.15_5
	.loc	2 570 62                        @ ../../../../Library/StdDriver/src/clk.c:570:62
	ldr	r0, [r0]
.Ltmp157:
	.loc	2 570 14                        @ ../../../../Library/StdDriver/src/clk.c:570:14
	lsls	r0, r0, #27
	cmp	r0, #0
	bpl	.LBB15_9
	b	.LBB15_8
.LBB15_8:
.Ltmp158:
	.loc	2 572 67 is_stmt 1              @ ../../../../Library/StdDriver/src/clk.c:572:67
	ldr	r1, [sp, #4]
	movs	r0, #1
	lsls	r0, r0, #19
	.loc	2 572 24 is_stmt 0              @ ../../../../Library/StdDriver/src/clk.c:572:24
	bl	CLK_EnablePLL
	.loc	2 572 22                        @ ../../../../Library/StdDriver/src/clk.c:572:22
	str	r0, [sp, #4]
	.loc	2 573 5 is_stmt 1               @ ../../../../Library/StdDriver/src/clk.c:573:5
	b	.LBB15_10
.Ltmp159:
.LBB15_9:
	.loc	2 0 5 is_stmt 0                 @ ../../../../Library/StdDriver/src/clk.c:0:5
	movs	r0, #0
	.loc	2 575 9 is_stmt 1               @ ../../../../Library/StdDriver/src/clk.c:575:9
	str	r0, [sp, #12]
	b	.LBB15_12
.Ltmp160:
.LBB15_10:
	.loc	2 0 9 is_stmt 0                 @ ../../../../Library/StdDriver/src/clk.c:0:9
	b	.LBB15_11
.LBB15_11:
	movs	r0, #2
	movs	r1, #1
	.loc	2 582 5 is_stmt 1               @ ../../../../Library/StdDriver/src/clk.c:582:5
	bl	CLK_SetHCLK
	.loc	2 583 13                        @ ../../../../Library/StdDriver/src/clk.c:583:13
	ldr	r0, [sp, #4]
	.loc	2 583 26 is_stmt 0              @ ../../../../Library/StdDriver/src/clk.c:583:26
	lsrs	r0, r0, #1
	.loc	2 583 5                         @ ../../../../Library/StdDriver/src/clk.c:583:5
	str	r0, [sp, #12]
	b	.LBB15_12
.LBB15_12:
	.loc	2 584 1 is_stmt 1               @ ../../../../Library/StdDriver/src/clk.c:584:1
	ldr	r0, [sp, #12]
	add	sp, #16
	pop	{r7, pc}
.Ltmp161:
	.p2align	2
@ %bb.13:
	.loc	2 0 1 is_stmt 0                 @ ../../../../Library/StdDriver/src/clk.c:0:1
__arm_cp.15_0:
	.long	48000001                        @ 0x2dc6c01
.Lcpi_end49:
	.size	__arm_cp.15_0, .Lcpi_end49-__arm_cp.15_0
__arm_cp.15_1:
	.long	48000000                        @ 0x2dc6c00
.Lcpi_end50:
	.size	__arm_cp.15_1, .Lcpi_end50-__arm_cp.15_1
__arm_cp.15_2:
	.long	24999999                        @ 0x17d783f
.Lcpi_end51:
	.size	__arm_cp.15_2, .Lcpi_end51-__arm_cp.15_2
__arm_cp.15_3:
	.long	25000000                        @ 0x17d7840
.Lcpi_end52:
	.size	__arm_cp.15_3, .Lcpi_end52-__arm_cp.15_3
__arm_cp.15_4:
	.long	1073742336                      @ 0x40000200
.Lcpi_end53:
	.size	__arm_cp.15_4, .Lcpi_end53-__arm_cp.15_4
__arm_cp.15_5:
	.long	1073742416                      @ 0x40000250
.Lcpi_end54:
	.size	__arm_cp.15_5, .Lcpi_end54-__arm_cp.15_5
.Lfunc_end15:
	.size	CLK_SetCoreClock, .Lfunc_end15-CLK_SetCoreClock
	.cfi_endproc
	.cantunwind
	.fnend
                                        @ -- End function
	.section	.text.CLK_SetModuleClock,"ax",%progbits
	.hidden	CLK_SetModuleClock              @ -- Begin function CLK_SetModuleClock
	.globl	CLK_SetModuleClock
	.p2align	2
	.type	CLK_SetModuleClock,%function
	.code	16                              @ @CLK_SetModuleClock
	.thumb_func
CLK_SetModuleClock:
.Lfunc_begin16:
	.loc	2 696 0 is_stmt 1               @ ../../../../Library/StdDriver/src/clk.c:696:0
	.fnstart
	.cfi_startproc
@ %bb.0:
	.pad	#52
	sub	sp, #52
	.cfi_def_cfa_offset 52
	str	r0, [sp, #48]
	str	r1, [sp, #44]
	str	r2, [sp, #40]
.Ltmp162:
	.loc	2 697 9 prologue_end            @ ../../../../Library/StdDriver/src/clk.c:697:9
	ldr	r0, [sp, #48]
	lsrs	r0, r0, #10
.Ltmp163:
	.loc	2 697 9 is_stmt 0               @ ../../../../Library/StdDriver/src/clk.c:697:9
	lsls	r0, r0, #24
	cbz	r0, .LBB16_2
	b	.LBB16_1
.LBB16_1:
.Ltmp164:
	.loc	2 700 24 is_stmt 1              @ ../../../../Library/StdDriver/src/clk.c:700:24
	ldr	r0, __arm_cp.16_0
	ldr	r1, [r0, #12]
	str	r1, [sp, #32]
	ldr	r1, [r0, #8]
	str	r1, [sp, #28]
	ldr	r1, [r0, #4]
	str	r1, [sp, #24]
	ldr	r0, [r0]
	str	r0, [sp, #20]
	add	r0, sp, #48
	.loc	2 703 56                        @ ../../../../Library/StdDriver/src/clk.c:703:56
	ldrh	r1, [r0, #2]
	movs	r0, #12
	.loc	2 703 45 is_stmt 0              @ ../../../../Library/StdDriver/src/clk.c:703:45
	ands	r1, r0
	add	r0, sp, #20
	ldr	r0, [r0, r1]
	ldr	r1, __arm_cp.16_1
	.loc	2 703 42                        @ ../../../../Library/StdDriver/src/clk.c:703:42
	adds	r0, r0, r1
	.loc	2 703 16                        @ ../../../../Library/StdDriver/src/clk.c:703:16
	str	r0, [sp, #36]
	.loc	2 705 24 is_stmt 1              @ ../../../../Library/StdDriver/src/clk.c:705:24
	ldr	r0, [sp, #36]
	ldr	r0, [r0]
	.loc	2 705 41 is_stmt 0              @ ../../../../Library/StdDriver/src/clk.c:705:41
	ldr	r2, [sp, #48]
	lsrs	r1, r2, #10
	uxtb	r1, r1
	.loc	2 705 76                        @ ../../../../Library/StdDriver/src/clk.c:705:76
	lsls	r2, r2, #22
	lsrs	r2, r2, #27
	.loc	2 705 73                        @ ../../../../Library/StdDriver/src/clk.c:705:73
	lsls	r1, r2
	.loc	2 705 36                        @ ../../../../Library/StdDriver/src/clk.c:705:36
	bics	r0, r1
	.loc	2 705 113                       @ ../../../../Library/StdDriver/src/clk.c:705:113
	ldr	r1, [sp, #40]
	.loc	2 705 111                       @ ../../../../Library/StdDriver/src/clk.c:705:111
	orrs	r0, r1
	.loc	2 705 9                         @ ../../../../Library/StdDriver/src/clk.c:705:9
	ldr	r1, [sp, #36]
	.loc	2 705 21                        @ ../../../../Library/StdDriver/src/clk.c:705:21
	str	r0, [r1]
	.loc	2 706 5 is_stmt 1               @ ../../../../Library/StdDriver/src/clk.c:706:5
	b	.LBB16_2
.Ltmp165:
.LBB16_2:
	.loc	2 708 9                         @ ../../../../Library/StdDriver/src/clk.c:708:9
	ldr	r0, [sp, #48]
	lsls	r0, r0, #4
	lsrs	r0, r0, #29
.Ltmp166:
	.loc	2 708 9 is_stmt 0               @ ../../../../Library/StdDriver/src/clk.c:708:9
	cbz	r0, .LBB16_4
	b	.LBB16_3
.LBB16_3:
.Ltmp167:
	.loc	2 711 24 is_stmt 1              @ ../../../../Library/StdDriver/src/clk.c:711:24
	ldr	r0, __arm_cp.16_2
	ldr	r1, [r0, #12]
	str	r1, [sp, #12]
	ldr	r1, [r0, #8]
	str	r1, [sp, #8]
	ldr	r1, [r0, #4]
	str	r1, [sp, #4]
	ldr	r0, [r0]
	str	r0, [sp]
	.loc	2 714 56                        @ ../../../../Library/StdDriver/src/clk.c:714:56
	ldr	r0, [sp, #48]
	.loc	2 714 45 is_stmt 0              @ ../../../../Library/StdDriver/src/clk.c:714:45
	lsrs	r1, r0, #26
	movs	r0, #12
	ands	r1, r0
	mov	r0, sp
	ldr	r0, [r0, r1]
	ldr	r1, __arm_cp.16_3
	.loc	2 714 42                        @ ../../../../Library/StdDriver/src/clk.c:714:42
	adds	r0, r0, r1
	.loc	2 714 16                        @ ../../../../Library/StdDriver/src/clk.c:714:16
	str	r0, [sp, #16]
	.loc	2 716 24 is_stmt 1              @ ../../../../Library/StdDriver/src/clk.c:716:24
	ldr	r0, [sp, #16]
	ldr	r0, [r0]
	.loc	2 716 41 is_stmt 0              @ ../../../../Library/StdDriver/src/clk.c:716:41
	ldr	r2, [sp, #48]
	lsls	r1, r2, #4
	lsrs	r1, r1, #29
	.loc	2 716 76                        @ ../../../../Library/StdDriver/src/clk.c:716:76
	lsls	r2, r2, #7
	lsrs	r2, r2, #27
	.loc	2 716 73                        @ ../../../../Library/StdDriver/src/clk.c:716:73
	lsls	r1, r2
	.loc	2 716 36                        @ ../../../../Library/StdDriver/src/clk.c:716:36
	bics	r0, r1
	.loc	2 716 113                       @ ../../../../Library/StdDriver/src/clk.c:716:113
	ldr	r1, [sp, #44]
	.loc	2 716 111                       @ ../../../../Library/StdDriver/src/clk.c:716:111
	orrs	r0, r1
	.loc	2 716 9                         @ ../../../../Library/StdDriver/src/clk.c:716:9
	ldr	r1, [sp, #16]
	.loc	2 716 21                        @ ../../../../Library/StdDriver/src/clk.c:716:21
	str	r0, [r1]
	.loc	2 717 5 is_stmt 1               @ ../../../../Library/StdDriver/src/clk.c:717:5
	b	.LBB16_4
.Ltmp168:
.LBB16_4:
	.loc	2 718 1                         @ ../../../../Library/StdDriver/src/clk.c:718:1
	add	sp, #52
	bx	lr
.Ltmp169:
	.p2align	2
@ %bb.5:
	.loc	2 0 1 is_stmt 0                 @ ../../../../Library/StdDriver/src/clk.c:0:1
__arm_cp.16_0:
	.long	.L__const.CLK_SetModuleClock.au32DivTbl
.Lcpi_end55:
	.size	__arm_cp.16_0, .Lcpi_end55-__arm_cp.16_0
__arm_cp.16_1:
	.long	1073742368                      @ 0x40000220
.Lcpi_end56:
	.size	__arm_cp.16_1, .Lcpi_end56-__arm_cp.16_1
__arm_cp.16_2:
	.long	.L__const.CLK_SetModuleClock.au32SelTbl
.Lcpi_end57:
	.size	__arm_cp.16_2, .Lcpi_end57-__arm_cp.16_2
__arm_cp.16_3:
	.long	1073742352                      @ 0x40000210
.Lcpi_end58:
	.size	__arm_cp.16_3, .Lcpi_end58-__arm_cp.16_3
.Lfunc_end16:
	.size	CLK_SetModuleClock, .Lfunc_end16-CLK_SetModuleClock
	.cfi_endproc
	.cantunwind
	.fnend
                                        @ -- End function
	.section	.text.CLK_SetSysTickClockSrc,"ax",%progbits
	.hidden	CLK_SetSysTickClockSrc          @ -- Begin function CLK_SetSysTickClockSrc
	.globl	CLK_SetSysTickClockSrc
	.p2align	2
	.type	CLK_SetSysTickClockSrc,%function
	.code	16                              @ @CLK_SetSysTickClockSrc
	.thumb_func
CLK_SetSysTickClockSrc:
.Lfunc_begin17:
	.loc	2 733 0 is_stmt 1               @ ../../../../Library/StdDriver/src/clk.c:733:0
	.fnstart
	.cfi_startproc
@ %bb.0:
	.pad	#4
	sub	sp, #4
	.cfi_def_cfa_offset 4
	str	r0, [sp]
	ldr	r1, __arm_cp.17_0
.Ltmp170:
	.loc	2 734 26 prologue_end           @ ../../../../Library/StdDriver/src/clk.c:734:26
	ldr	r0, [r1]
	movs	r2, #56
	.loc	2 734 34 is_stmt 0              @ ../../../../Library/StdDriver/src/clk.c:734:34
	bics	r0, r2
	.loc	2 734 65                        @ ../../../../Library/StdDriver/src/clk.c:734:65
	ldr	r2, [sp]
	.loc	2 734 63                        @ ../../../../Library/StdDriver/src/clk.c:734:63
	orrs	r0, r2
	.loc	2 734 18                        @ ../../../../Library/StdDriver/src/clk.c:734:18
	str	r0, [r1]
	.loc	2 735 1 is_stmt 1               @ ../../../../Library/StdDriver/src/clk.c:735:1
	add	sp, #4
	bx	lr
.Ltmp171:
	.p2align	2
@ %bb.1:
	.loc	2 0 1 is_stmt 0                 @ ../../../../Library/StdDriver/src/clk.c:0:1
__arm_cp.17_0:
	.long	1073742352                      @ 0x40000210
.Lcpi_end59:
	.size	__arm_cp.17_0, .Lcpi_end59-__arm_cp.17_0
.Lfunc_end17:
	.size	CLK_SetSysTickClockSrc, .Lfunc_end17-CLK_SetSysTickClockSrc
	.cfi_endproc
	.cantunwind
	.fnend
                                        @ -- End function
	.section	.text.CLK_EnableXtalRC,"ax",%progbits
	.hidden	CLK_EnableXtalRC                @ -- Begin function CLK_EnableXtalRC
	.globl	CLK_EnableXtalRC
	.p2align	2
	.type	CLK_EnableXtalRC,%function
	.code	16                              @ @CLK_EnableXtalRC
	.thumb_func
CLK_EnableXtalRC:
.Lfunc_begin18:
	.loc	2 755 0 is_stmt 1               @ ../../../../Library/StdDriver/src/clk.c:755:0
	.fnstart
	.cfi_startproc
@ %bb.0:
	.pad	#4
	sub	sp, #4
	.cfi_def_cfa_offset 4
	str	r0, [sp]
.Ltmp172:
	.loc	2 756 20 prologue_end           @ ../../../../Library/StdDriver/src/clk.c:756:20
	ldr	r2, [sp]
	ldr	r1, __arm_cp.18_0
	.loc	2 756 17 is_stmt 0              @ ../../../../Library/StdDriver/src/clk.c:756:17
	ldr	r0, [r1]
	orrs	r0, r2
	str	r0, [r1]
	.loc	2 757 1 is_stmt 1               @ ../../../../Library/StdDriver/src/clk.c:757:1
	add	sp, #4
	bx	lr
.Ltmp173:
	.p2align	2
@ %bb.1:
	.loc	2 0 1 is_stmt 0                 @ ../../../../Library/StdDriver/src/clk.c:0:1
__arm_cp.18_0:
	.long	1073742336                      @ 0x40000200
.Lcpi_end60:
	.size	__arm_cp.18_0, .Lcpi_end60-__arm_cp.18_0
.Lfunc_end18:
	.size	CLK_EnableXtalRC, .Lfunc_end18-CLK_EnableXtalRC
	.cfi_endproc
	.cantunwind
	.fnend
                                        @ -- End function
	.section	.text.CLK_DisableXtalRC,"ax",%progbits
	.hidden	CLK_DisableXtalRC               @ -- Begin function CLK_DisableXtalRC
	.globl	CLK_DisableXtalRC
	.p2align	2
	.type	CLK_DisableXtalRC,%function
	.code	16                              @ @CLK_DisableXtalRC
	.thumb_func
CLK_DisableXtalRC:
.Lfunc_begin19:
	.loc	2 772 0 is_stmt 1               @ ../../../../Library/StdDriver/src/clk.c:772:0
	.fnstart
	.cfi_startproc
@ %bb.0:
	.pad	#4
	sub	sp, #4
	.cfi_def_cfa_offset 4
	str	r0, [sp]
.Ltmp174:
	.loc	2 773 21 prologue_end           @ ../../../../Library/StdDriver/src/clk.c:773:21
	ldr	r2, [sp]
	ldr	r1, __arm_cp.19_0
	.loc	2 773 17 is_stmt 0              @ ../../../../Library/StdDriver/src/clk.c:773:17
	ldr	r0, [r1]
	bics	r0, r2
	str	r0, [r1]
	.loc	2 774 1 is_stmt 1               @ ../../../../Library/StdDriver/src/clk.c:774:1
	add	sp, #4
	bx	lr
.Ltmp175:
	.p2align	2
@ %bb.1:
	.loc	2 0 1 is_stmt 0                 @ ../../../../Library/StdDriver/src/clk.c:0:1
__arm_cp.19_0:
	.long	1073742336                      @ 0x40000200
.Lcpi_end61:
	.size	__arm_cp.19_0, .Lcpi_end61-__arm_cp.19_0
.Lfunc_end19:
	.size	CLK_DisableXtalRC, .Lfunc_end19-CLK_DisableXtalRC
	.cfi_endproc
	.cantunwind
	.fnend
                                        @ -- End function
	.section	.text.CLK_EnableModuleClock,"ax",%progbits
	.hidden	CLK_EnableModuleClock           @ -- Begin function CLK_EnableModuleClock
	.globl	CLK_EnableModuleClock
	.p2align	2
	.type	CLK_EnableModuleClock,%function
	.code	16                              @ @CLK_EnableModuleClock
	.thumb_func
CLK_EnableModuleClock:
.Lfunc_begin20:
	.loc	2 830 0 is_stmt 1               @ ../../../../Library/StdDriver/src/clk.c:830:0
	.fnstart
	.cfi_startproc
@ %bb.0:
	.pad	#16
	sub	sp, #16
	.cfi_def_cfa_offset 16
	str	r0, [sp, #12]
.Ltmp176:
	.loc	2 831 20 prologue_end           @ ../../../../Library/StdDriver/src/clk.c:831:20
	ldr	r0, __arm_cp.20_0
	ldr	r1, [r0, #8]
	str	r1, [sp, #8]
	ldr	r1, [r0, #4]
	str	r1, [sp, #4]
	ldr	r0, [r0]
	str	r0, [sp]
	.loc	2 833 105                       @ ../../../../Library/StdDriver/src/clk.c:833:105
	ldr	r0, [sp, #12]
	movs	r2, #31
	mov	r1, r0
	ands	r1, r2
	movs	r3, #1
	.loc	2 833 102 is_stmt 0             @ ../../../../Library/StdDriver/src/clk.c:833:102
	lsls	r3, r1
	.loc	2 833 65                        @ ../../../../Library/StdDriver/src/clk.c:833:65
	lsrs	r0, r0, #30
	lsls	r1, r0, #2
	mov	r0, sp
	.loc	2 833 54                        @ ../../../../Library/StdDriver/src/clk.c:833:54
	ldr	r1, [r0, r1]
	ldr	r2, __arm_cp.20_1
	.loc	2 833 97                        @ ../../../../Library/StdDriver/src/clk.c:833:97
	ldr	r0, [r1, r2]
	orrs	r0, r3
	str	r0, [r1, r2]
	.loc	2 834 1 is_stmt 1               @ ../../../../Library/StdDriver/src/clk.c:834:1
	add	sp, #16
	bx	lr
.Ltmp177:
	.p2align	2
@ %bb.1:
	.loc	2 0 1 is_stmt 0                 @ ../../../../Library/StdDriver/src/clk.c:0:1
__arm_cp.20_0:
	.long	.L__const.CLK_EnableModuleClock.au32ClkTbl
.Lcpi_end62:
	.size	__arm_cp.20_0, .Lcpi_end62-__arm_cp.20_0
__arm_cp.20_1:
	.long	1073742340                      @ 0x40000204
.Lcpi_end63:
	.size	__arm_cp.20_1, .Lcpi_end63-__arm_cp.20_1
.Lfunc_end20:
	.size	CLK_EnableModuleClock, .Lfunc_end20-CLK_EnableModuleClock
	.cfi_endproc
	.cantunwind
	.fnend
                                        @ -- End function
	.section	.text.CLK_DisableModuleClock,"ax",%progbits
	.hidden	CLK_DisableModuleClock          @ -- Begin function CLK_DisableModuleClock
	.globl	CLK_DisableModuleClock
	.p2align	2
	.type	CLK_DisableModuleClock,%function
	.code	16                              @ @CLK_DisableModuleClock
	.thumb_func
CLK_DisableModuleClock:
.Lfunc_begin21:
	.loc	2 890 0 is_stmt 1               @ ../../../../Library/StdDriver/src/clk.c:890:0
	.fnstart
	.cfi_startproc
@ %bb.0:
	.pad	#16
	sub	sp, #16
	.cfi_def_cfa_offset 16
	str	r0, [sp, #12]
.Ltmp178:
	.loc	2 891 20 prologue_end           @ ../../../../Library/StdDriver/src/clk.c:891:20
	ldr	r0, __arm_cp.21_0
	ldr	r1, [r0, #8]
	str	r1, [sp, #8]
	ldr	r1, [r0, #4]
	str	r1, [sp, #4]
	ldr	r0, [r0]
	str	r0, [sp]
	.loc	2 893 107                       @ ../../../../Library/StdDriver/src/clk.c:893:107
	ldr	r0, [sp, #12]
	movs	r2, #31
	mov	r1, r0
	ands	r1, r2
	movs	r3, #1
	.loc	2 893 104 is_stmt 0             @ ../../../../Library/StdDriver/src/clk.c:893:104
	lsls	r3, r1
	.loc	2 893 65                        @ ../../../../Library/StdDriver/src/clk.c:893:65
	lsrs	r0, r0, #30
	lsls	r1, r0, #2
	mov	r0, sp
	.loc	2 893 54                        @ ../../../../Library/StdDriver/src/clk.c:893:54
	ldr	r1, [r0, r1]
	ldr	r2, __arm_cp.21_1
	.loc	2 893 97                        @ ../../../../Library/StdDriver/src/clk.c:893:97
	ldr	r0, [r1, r2]
	bics	r0, r3
	str	r0, [r1, r2]
	.loc	2 894 1 is_stmt 1               @ ../../../../Library/StdDriver/src/clk.c:894:1
	add	sp, #16
	bx	lr
.Ltmp179:
	.p2align	2
@ %bb.1:
	.loc	2 0 1 is_stmt 0                 @ ../../../../Library/StdDriver/src/clk.c:0:1
__arm_cp.21_0:
	.long	.L__const.CLK_DisableModuleClock.au32ClkTbl
.Lcpi_end64:
	.size	__arm_cp.21_0, .Lcpi_end64-__arm_cp.21_0
__arm_cp.21_1:
	.long	1073742340                      @ 0x40000204
.Lcpi_end65:
	.size	__arm_cp.21_1, .Lcpi_end65-__arm_cp.21_1
.Lfunc_end21:
	.size	CLK_DisableModuleClock, .Lfunc_end21-CLK_DisableModuleClock
	.cfi_endproc
	.cantunwind
	.fnend
                                        @ -- End function
	.section	.text.CLK_EnableSysTick,"ax",%progbits
	.hidden	CLK_EnableSysTick               @ -- Begin function CLK_EnableSysTick
	.globl	CLK_EnableSysTick
	.p2align	2
	.type	CLK_EnableSysTick,%function
	.code	16                              @ @CLK_EnableSysTick
	.thumb_func
CLK_EnableSysTick:
.Lfunc_begin22:
	.loc	2 947 0 is_stmt 1               @ ../../../../Library/StdDriver/src/clk.c:947:0
	.fnstart
	.cfi_startproc
@ %bb.0:
	.pad	#8
	sub	sp, #8
	.cfi_def_cfa_offset 8
	str	r0, [sp, #4]
	str	r1, [sp]
	ldr	r1, __arm_cp.22_0
	movs	r0, #0
.Ltmp180:
	.loc	2 949 19 prologue_end           @ ../../../../Library/StdDriver/src/clk.c:949:19
	str	r0, [r1]
.Ltmp181:
	.loc	2 952 9                         @ ../../../../Library/StdDriver/src/clk.c:952:9
	ldr	r0, [sp, #4]
.Ltmp182:
	.loc	2 952 9 is_stmt 0               @ ../../../../Library/StdDriver/src/clk.c:952:9
	cmp	r0, #4
	bne	.LBB22_2
	b	.LBB22_1
.LBB22_1:
	.loc	2 0 9                           @ ../../../../Library/StdDriver/src/clk.c:0:9
	ldr	r1, __arm_cp.22_1
.Ltmp183:
	.loc	2 955 21 is_stmt 1              @ ../../../../Library/StdDriver/src/clk.c:955:21
	ldr	r0, [r1]
	movs	r2, #16
	bics	r0, r2
	str	r0, [r1]
	ldr	r1, __arm_cp.22_0
	.loc	2 958 23                        @ ../../../../Library/StdDriver/src/clk.c:958:23
	ldr	r0, [r1]
	movs	r2, #4
	orrs	r0, r2
	str	r0, [r1]
	.loc	2 959 5                         @ ../../../../Library/StdDriver/src/clk.c:959:5
	b	.LBB22_3
.Ltmp184:
.LBB22_2:
	.loc	2 0 5 is_stmt 0                 @ ../../../../Library/StdDriver/src/clk.c:0:5
	ldr	r1, __arm_cp.22_1
.Ltmp185:
	.loc	2 963 21 is_stmt 1              @ ../../../../Library/StdDriver/src/clk.c:963:21
	ldr	r0, [r1]
	movs	r2, #16
	orrs	r0, r2
	str	r0, [r1]
	ldr	r1, __arm_cp.22_2
	.loc	2 966 30                        @ ../../../../Library/StdDriver/src/clk.c:966:30
	ldr	r0, [r1]
	movs	r2, #56
	.loc	2 966 38 is_stmt 0              @ ../../../../Library/StdDriver/src/clk.c:966:38
	bics	r0, r2
	.loc	2 966 69                        @ ../../../../Library/StdDriver/src/clk.c:966:69
	ldr	r2, [sp, #4]
	.loc	2 966 67                        @ ../../../../Library/StdDriver/src/clk.c:966:67
	orrs	r0, r2
	.loc	2 966 22                        @ ../../../../Library/StdDriver/src/clk.c:966:22
	str	r0, [r1]
	ldr	r1, __arm_cp.22_0
	.loc	2 969 23 is_stmt 1              @ ../../../../Library/StdDriver/src/clk.c:969:23
	ldr	r0, [r1]
	movs	r2, #4
	bics	r0, r2
	str	r0, [r1]
	b	.LBB22_3
.Ltmp186:
.LBB22_3:
	.loc	2 973 21                        @ ../../../../Library/StdDriver/src/clk.c:973:21
	ldr	r0, [sp]
	ldr	r1, __arm_cp.22_3
	.loc	2 973 19 is_stmt 0              @ ../../../../Library/StdDriver/src/clk.c:973:19
	str	r0, [r1]
	ldr	r1, __arm_cp.22_4
	movs	r0, #0
	.loc	2 976 18 is_stmt 1              @ ../../../../Library/StdDriver/src/clk.c:976:18
	str	r0, [r1]
	ldr	r1, __arm_cp.22_0
	.loc	2 979 19                        @ ../../../../Library/StdDriver/src/clk.c:979:19
	ldr	r0, [r1]
	movs	r2, #3
	orrs	r0, r2
	str	r0, [r1]
	.loc	2 980 1                         @ ../../../../Library/StdDriver/src/clk.c:980:1
	add	sp, #8
	bx	lr
.Ltmp187:
	.p2align	2
@ %bb.4:
	.loc	2 0 1 is_stmt 0                 @ ../../../../Library/StdDriver/src/clk.c:0:1
__arm_cp.22_0:
	.long	3758153744                      @ 0xe000e010
.Lcpi_end66:
	.size	__arm_cp.22_0, .Lcpi_end66-__arm_cp.22_0
__arm_cp.22_1:
	.long	1073742340                      @ 0x40000204
.Lcpi_end67:
	.size	__arm_cp.22_1, .Lcpi_end67-__arm_cp.22_1
__arm_cp.22_2:
	.long	1073742352                      @ 0x40000210
.Lcpi_end68:
	.size	__arm_cp.22_2, .Lcpi_end68-__arm_cp.22_2
__arm_cp.22_3:
	.long	3758153748                      @ 0xe000e014
.Lcpi_end69:
	.size	__arm_cp.22_3, .Lcpi_end69-__arm_cp.22_3
__arm_cp.22_4:
	.long	3758153752                      @ 0xe000e018
.Lcpi_end70:
	.size	__arm_cp.22_4, .Lcpi_end70-__arm_cp.22_4
.Lfunc_end22:
	.size	CLK_EnableSysTick, .Lfunc_end22-CLK_EnableSysTick
	.cfi_endproc
	.cantunwind
	.fnend
                                        @ -- End function
	.section	.text.CLK_DisableSysTick,"ax",%progbits
	.hidden	CLK_DisableSysTick              @ -- Begin function CLK_DisableSysTick
	.globl	CLK_DisableSysTick
	.p2align	2
	.type	CLK_DisableSysTick,%function
	.code	16                              @ @CLK_DisableSysTick
	.thumb_func
CLK_DisableSysTick:
.Lfunc_begin23:
	.loc	2 989 0 is_stmt 1               @ ../../../../Library/StdDriver/src/clk.c:989:0
	.fnstart
	.cfi_startproc
@ %bb.0:
	ldr	r1, __arm_cp.23_0
	movs	r0, #0
.Ltmp188:
	.loc	2 991 19 prologue_end           @ ../../../../Library/StdDriver/src/clk.c:991:19
	str	r0, [r1]
	.loc	2 992 1                         @ ../../../../Library/StdDriver/src/clk.c:992:1
	bx	lr
.Ltmp189:
	.p2align	2
@ %bb.1:
	.loc	2 0 1 is_stmt 0                 @ ../../../../Library/StdDriver/src/clk.c:0:1
__arm_cp.23_0:
	.long	3758153744                      @ 0xe000e010
.Lcpi_end71:
	.size	__arm_cp.23_0, .Lcpi_end71-__arm_cp.23_0
.Lfunc_end23:
	.size	CLK_DisableSysTick, .Lfunc_end23-CLK_DisableSysTick
	.cfi_endproc
	.cantunwind
	.fnend
                                        @ -- End function
	.section	.text.CLK_SetPowerDownMode,"ax",%progbits
	.hidden	CLK_SetPowerDownMode            @ -- Begin function CLK_SetPowerDownMode
	.globl	CLK_SetPowerDownMode
	.p2align	2
	.type	CLK_SetPowerDownMode,%function
	.code	16                              @ @CLK_SetPowerDownMode
	.thumb_func
CLK_SetPowerDownMode:
.Lfunc_begin24:
	.loc	2 1006 0 is_stmt 1              @ ../../../../Library/StdDriver/src/clk.c:1006:0
	.fnstart
	.cfi_startproc
@ %bb.0:
	.pad	#4
	sub	sp, #4
	.cfi_def_cfa_offset 4
	str	r0, [sp]
	ldr	r1, __arm_cp.24_0
.Ltmp190:
	.loc	2 1007 25 prologue_end          @ ../../../../Library/StdDriver/src/clk.c:1007:25
	ldr	r0, [r1]
	movs	r2, #7
	.loc	2 1007 32 is_stmt 0             @ ../../../../Library/StdDriver/src/clk.c:1007:32
	bics	r0, r2
	.loc	2 1007 62                       @ ../../../../Library/StdDriver/src/clk.c:1007:62
	ldr	r2, [sp]
	.loc	2 1007 60                       @ ../../../../Library/StdDriver/src/clk.c:1007:60
	orrs	r0, r2
	.loc	2 1007 17                       @ ../../../../Library/StdDriver/src/clk.c:1007:17
	str	r0, [r1]
	.loc	2 1008 1 is_stmt 1              @ ../../../../Library/StdDriver/src/clk.c:1008:1
	add	sp, #4
	bx	lr
.Ltmp191:
	.p2align	2
@ %bb.1:
	.loc	2 0 1 is_stmt 0                 @ ../../../../Library/StdDriver/src/clk.c:0:1
__arm_cp.24_0:
	.long	1073742480                      @ 0x40000290
.Lcpi_end72:
	.size	__arm_cp.24_0, .Lcpi_end72-__arm_cp.24_0
.Lfunc_end24:
	.size	CLK_SetPowerDownMode, .Lfunc_end24-CLK_SetPowerDownMode
	.cfi_endproc
	.cantunwind
	.fnend
                                        @ -- End function
	.section	.text.CLK_EnableDPDWKPin,"ax",%progbits
	.hidden	CLK_EnableDPDWKPin              @ -- Begin function CLK_EnableDPDWKPin
	.globl	CLK_EnableDPDWKPin
	.p2align	2
	.type	CLK_EnableDPDWKPin,%function
	.code	16                              @ @CLK_EnableDPDWKPin
	.thumb_func
CLK_EnableDPDWKPin:
.Lfunc_begin25:
	.loc	2 1030 0 is_stmt 1              @ ../../../../Library/StdDriver/src/clk.c:1030:0
	.fnstart
	.cfi_startproc
@ %bb.0:
	.pad	#12
	sub	sp, #12
	.cfi_def_cfa_offset 12
	str	r0, [sp, #8]
	str	r1, [sp, #4]
.Ltmp192:
	.loc	2 1031 13 prologue_end          @ ../../../../Library/StdDriver/src/clk.c:1031:13
	ldr	r0, [sp, #8]
	.loc	2 1031 5 is_stmt 0              @ ../../../../Library/StdDriver/src/clk.c:1031:5
	str	r0, [sp]                        @ 4-byte Spill
	cmp	r0, #4
	bhi	.LBB25_8
@ %bb.1:
	.loc	2 0 5                           @ ../../../../Library/StdDriver/src/clk.c:0:5
	ldr	r1, [sp]                        @ 4-byte Reload
	lsls	r2, r1, #2
	adr	r0, .LJTI25_0
	adds	r0, r0, r2
	mov	pc, r0
@ %bb.2:
	.p2align	2
.LJTI25_0:
	b.w	.LBB25_3
	b.w	.LBB25_4
	b.w	.LBB25_5
	b.w	.LBB25_6
	b.w	.LBB25_7
.LBB25_3:
	ldr	r1, __arm_cp.25_0
.Ltmp193:
	.loc	2 1034 33 is_stmt 1             @ ../../../../Library/StdDriver/src/clk.c:1034:33
	ldr	r0, [r1]
	movs	r2, #3
	lsls	r2, r2, #16
	.loc	2 1034 40 is_stmt 0             @ ../../../../Library/StdDriver/src/clk.c:1034:40
	bics	r0, r2
	.loc	2 1034 73                       @ ../../../../Library/StdDriver/src/clk.c:1034:73
	ldr	r2, [sp, #4]
	.loc	2 1034 88                       @ ../../../../Library/StdDriver/src/clk.c:1034:88
	lsls	r2, r2, #16
	.loc	2 1034 70                       @ ../../../../Library/StdDriver/src/clk.c:1034:70
	orrs	r0, r2
	.loc	2 1034 25                       @ ../../../../Library/StdDriver/src/clk.c:1034:25
	str	r0, [r1]
	.loc	2 1035 13 is_stmt 1             @ ../../../../Library/StdDriver/src/clk.c:1035:13
	b	.LBB25_8
.LBB25_4:
	.loc	2 0 13 is_stmt 0                @ ../../../../Library/StdDriver/src/clk.c:0:13
	ldr	r1, __arm_cp.25_0
	.loc	2 1038 33 is_stmt 1             @ ../../../../Library/StdDriver/src/clk.c:1038:33
	ldr	r0, [r1]
	movs	r2, #3
	lsls	r2, r2, #24
	.loc	2 1038 40 is_stmt 0             @ ../../../../Library/StdDriver/src/clk.c:1038:40
	bics	r0, r2
	.loc	2 1038 73                       @ ../../../../Library/StdDriver/src/clk.c:1038:73
	ldr	r2, [sp, #4]
	.loc	2 1038 88                       @ ../../../../Library/StdDriver/src/clk.c:1038:88
	lsls	r2, r2, #24
	.loc	2 1038 70                       @ ../../../../Library/StdDriver/src/clk.c:1038:70
	orrs	r0, r2
	.loc	2 1038 25                       @ ../../../../Library/StdDriver/src/clk.c:1038:25
	str	r0, [r1]
	.loc	2 1039 13 is_stmt 1             @ ../../../../Library/StdDriver/src/clk.c:1039:13
	b	.LBB25_8
.LBB25_5:
	.loc	2 0 13 is_stmt 0                @ ../../../../Library/StdDriver/src/clk.c:0:13
	ldr	r1, __arm_cp.25_0
	.loc	2 1042 33 is_stmt 1             @ ../../../../Library/StdDriver/src/clk.c:1042:33
	ldr	r0, [r1]
	movs	r2, #3
	lsls	r2, r2, #26
	.loc	2 1042 40 is_stmt 0             @ ../../../../Library/StdDriver/src/clk.c:1042:40
	bics	r0, r2
	.loc	2 1042 73                       @ ../../../../Library/StdDriver/src/clk.c:1042:73
	ldr	r2, [sp, #4]
	.loc	2 1042 88                       @ ../../../../Library/StdDriver/src/clk.c:1042:88
	lsls	r2, r2, #26
	.loc	2 1042 70                       @ ../../../../Library/StdDriver/src/clk.c:1042:70
	orrs	r0, r2
	.loc	2 1042 25                       @ ../../../../Library/StdDriver/src/clk.c:1042:25
	str	r0, [r1]
	.loc	2 1043 13 is_stmt 1             @ ../../../../Library/StdDriver/src/clk.c:1043:13
	b	.LBB25_8
.LBB25_6:
	.loc	2 0 13 is_stmt 0                @ ../../../../Library/StdDriver/src/clk.c:0:13
	ldr	r1, __arm_cp.25_0
	.loc	2 1046 33 is_stmt 1             @ ../../../../Library/StdDriver/src/clk.c:1046:33
	ldr	r0, [r1]
	movs	r2, #3
	lsls	r2, r2, #28
	.loc	2 1046 40 is_stmt 0             @ ../../../../Library/StdDriver/src/clk.c:1046:40
	bics	r0, r2
	.loc	2 1046 73                       @ ../../../../Library/StdDriver/src/clk.c:1046:73
	ldr	r2, [sp, #4]
	.loc	2 1046 88                       @ ../../../../Library/StdDriver/src/clk.c:1046:88
	lsls	r2, r2, #28
	.loc	2 1046 70                       @ ../../../../Library/StdDriver/src/clk.c:1046:70
	orrs	r0, r2
	.loc	2 1046 25                       @ ../../../../Library/StdDriver/src/clk.c:1046:25
	str	r0, [r1]
	.loc	2 1047 13 is_stmt 1             @ ../../../../Library/StdDriver/src/clk.c:1047:13
	b	.LBB25_8
.LBB25_7:
	.loc	2 0 13 is_stmt 0                @ ../../../../Library/StdDriver/src/clk.c:0:13
	ldr	r1, __arm_cp.25_0
	.loc	2 1050 33 is_stmt 1             @ ../../../../Library/StdDriver/src/clk.c:1050:33
	ldr	r0, [r1]
	movs	r2, #3
	lsls	r2, r2, #30
	.loc	2 1050 40 is_stmt 0             @ ../../../../Library/StdDriver/src/clk.c:1050:40
	bics	r0, r2
	.loc	2 1050 73                       @ ../../../../Library/StdDriver/src/clk.c:1050:73
	ldr	r2, [sp, #4]
	.loc	2 1050 88                       @ ../../../../Library/StdDriver/src/clk.c:1050:88
	lsls	r2, r2, #30
	.loc	2 1050 70                       @ ../../../../Library/StdDriver/src/clk.c:1050:70
	adds	r0, r0, r2
	.loc	2 1050 25                       @ ../../../../Library/StdDriver/src/clk.c:1050:25
	str	r0, [r1]
	.loc	2 1051 13 is_stmt 1             @ ../../../../Library/StdDriver/src/clk.c:1051:13
	b	.LBB25_8
.Ltmp194:
.LBB25_8:
	.loc	2 1053 1                        @ ../../../../Library/StdDriver/src/clk.c:1053:1
	add	sp, #12
	bx	lr
.Ltmp195:
	.p2align	2
@ %bb.9:
	.loc	2 0 1 is_stmt 0                 @ ../../../../Library/StdDriver/src/clk.c:0:1
__arm_cp.25_0:
	.long	1073742480                      @ 0x40000290
.Lcpi_end73:
	.size	__arm_cp.25_0, .Lcpi_end73-__arm_cp.25_0
.Lfunc_end25:
	.size	CLK_EnableDPDWKPin, .Lfunc_end25-CLK_EnableDPDWKPin
	.cfi_endproc
	.cantunwind
	.fnend
                                        @ -- End function
	.section	.text.CLK_EnableDPDWKPin0,"ax",%progbits
	.hidden	CLK_EnableDPDWKPin0             @ -- Begin function CLK_EnableDPDWKPin0
	.globl	CLK_EnableDPDWKPin0
	.p2align	2
	.type	CLK_EnableDPDWKPin0,%function
	.code	16                              @ @CLK_EnableDPDWKPin0
	.thumb_func
CLK_EnableDPDWKPin0:
.Lfunc_begin26:
	.loc	2 1068 0 is_stmt 1              @ ../../../../Library/StdDriver/src/clk.c:1068:0
	.fnstart
	.cfi_startproc
@ %bb.0:
	.pad	#4
	sub	sp, #4
	.cfi_def_cfa_offset 4
	str	r0, [sp]
	ldr	r1, __arm_cp.26_0
.Ltmp196:
	.loc	2 1069 25 prologue_end          @ ../../../../Library/StdDriver/src/clk.c:1069:25
	ldr	r0, [r1]
	movs	r2, #3
	lsls	r2, r2, #16
	.loc	2 1069 32 is_stmt 0             @ ../../../../Library/StdDriver/src/clk.c:1069:32
	bics	r0, r2
	.loc	2 1069 64                       @ ../../../../Library/StdDriver/src/clk.c:1069:64
	ldr	r2, [sp]
	.loc	2 1069 62                       @ ../../../../Library/StdDriver/src/clk.c:1069:62
	orrs	r0, r2
	.loc	2 1069 17                       @ ../../../../Library/StdDriver/src/clk.c:1069:17
	str	r0, [r1]
	.loc	2 1070 1 is_stmt 1              @ ../../../../Library/StdDriver/src/clk.c:1070:1
	add	sp, #4
	bx	lr
.Ltmp197:
	.p2align	2
@ %bb.1:
	.loc	2 0 1 is_stmt 0                 @ ../../../../Library/StdDriver/src/clk.c:0:1
__arm_cp.26_0:
	.long	1073742480                      @ 0x40000290
.Lcpi_end74:
	.size	__arm_cp.26_0, .Lcpi_end74-__arm_cp.26_0
.Lfunc_end26:
	.size	CLK_EnableDPDWKPin0, .Lfunc_end26-CLK_EnableDPDWKPin0
	.cfi_endproc
	.cantunwind
	.fnend
                                        @ -- End function
	.section	.text.CLK_EnableDPDWKPin1,"ax",%progbits
	.hidden	CLK_EnableDPDWKPin1             @ -- Begin function CLK_EnableDPDWKPin1
	.globl	CLK_EnableDPDWKPin1
	.p2align	2
	.type	CLK_EnableDPDWKPin1,%function
	.code	16                              @ @CLK_EnableDPDWKPin1
	.thumb_func
CLK_EnableDPDWKPin1:
.Lfunc_begin27:
	.loc	2 1085 0 is_stmt 1              @ ../../../../Library/StdDriver/src/clk.c:1085:0
	.fnstart
	.cfi_startproc
@ %bb.0:
	.pad	#4
	sub	sp, #4
	.cfi_def_cfa_offset 4
	str	r0, [sp]
	ldr	r1, __arm_cp.27_0
.Ltmp198:
	.loc	2 1086 25 prologue_end          @ ../../../../Library/StdDriver/src/clk.c:1086:25
	ldr	r0, [r1]
	movs	r2, #3
	lsls	r2, r2, #24
	.loc	2 1086 32 is_stmt 0             @ ../../../../Library/StdDriver/src/clk.c:1086:32
	bics	r0, r2
	.loc	2 1086 64                       @ ../../../../Library/StdDriver/src/clk.c:1086:64
	ldr	r2, [sp]
	.loc	2 1086 62                       @ ../../../../Library/StdDriver/src/clk.c:1086:62
	orrs	r0, r2
	.loc	2 1086 17                       @ ../../../../Library/StdDriver/src/clk.c:1086:17
	str	r0, [r1]
	.loc	2 1087 1 is_stmt 1              @ ../../../../Library/StdDriver/src/clk.c:1087:1
	add	sp, #4
	bx	lr
.Ltmp199:
	.p2align	2
@ %bb.1:
	.loc	2 0 1 is_stmt 0                 @ ../../../../Library/StdDriver/src/clk.c:0:1
__arm_cp.27_0:
	.long	1073742480                      @ 0x40000290
.Lcpi_end75:
	.size	__arm_cp.27_0, .Lcpi_end75-__arm_cp.27_0
.Lfunc_end27:
	.size	CLK_EnableDPDWKPin1, .Lfunc_end27-CLK_EnableDPDWKPin1
	.cfi_endproc
	.cantunwind
	.fnend
                                        @ -- End function
	.section	.text.CLK_EnableDPDWKPin2,"ax",%progbits
	.hidden	CLK_EnableDPDWKPin2             @ -- Begin function CLK_EnableDPDWKPin2
	.globl	CLK_EnableDPDWKPin2
	.p2align	2
	.type	CLK_EnableDPDWKPin2,%function
	.code	16                              @ @CLK_EnableDPDWKPin2
	.thumb_func
CLK_EnableDPDWKPin2:
.Lfunc_begin28:
	.loc	2 1102 0 is_stmt 1              @ ../../../../Library/StdDriver/src/clk.c:1102:0
	.fnstart
	.cfi_startproc
@ %bb.0:
	.pad	#4
	sub	sp, #4
	.cfi_def_cfa_offset 4
	str	r0, [sp]
	ldr	r1, __arm_cp.28_0
.Ltmp200:
	.loc	2 1103 25 prologue_end          @ ../../../../Library/StdDriver/src/clk.c:1103:25
	ldr	r0, [r1]
	movs	r2, #3
	lsls	r2, r2, #26
	.loc	2 1103 32 is_stmt 0             @ ../../../../Library/StdDriver/src/clk.c:1103:32
	bics	r0, r2
	.loc	2 1103 64                       @ ../../../../Library/StdDriver/src/clk.c:1103:64
	ldr	r2, [sp]
	.loc	2 1103 62                       @ ../../../../Library/StdDriver/src/clk.c:1103:62
	orrs	r0, r2
	.loc	2 1103 17                       @ ../../../../Library/StdDriver/src/clk.c:1103:17
	str	r0, [r1]
	.loc	2 1104 1 is_stmt 1              @ ../../../../Library/StdDriver/src/clk.c:1104:1
	add	sp, #4
	bx	lr
.Ltmp201:
	.p2align	2
@ %bb.1:
	.loc	2 0 1 is_stmt 0                 @ ../../../../Library/StdDriver/src/clk.c:0:1
__arm_cp.28_0:
	.long	1073742480                      @ 0x40000290
.Lcpi_end76:
	.size	__arm_cp.28_0, .Lcpi_end76-__arm_cp.28_0
.Lfunc_end28:
	.size	CLK_EnableDPDWKPin2, .Lfunc_end28-CLK_EnableDPDWKPin2
	.cfi_endproc
	.cantunwind
	.fnend
                                        @ -- End function
	.section	.text.CLK_EnableDPDWKPin3,"ax",%progbits
	.hidden	CLK_EnableDPDWKPin3             @ -- Begin function CLK_EnableDPDWKPin3
	.globl	CLK_EnableDPDWKPin3
	.p2align	2
	.type	CLK_EnableDPDWKPin3,%function
	.code	16                              @ @CLK_EnableDPDWKPin3
	.thumb_func
CLK_EnableDPDWKPin3:
.Lfunc_begin29:
	.loc	2 1119 0 is_stmt 1              @ ../../../../Library/StdDriver/src/clk.c:1119:0
	.fnstart
	.cfi_startproc
@ %bb.0:
	.pad	#4
	sub	sp, #4
	.cfi_def_cfa_offset 4
	str	r0, [sp]
	ldr	r1, __arm_cp.29_0
.Ltmp202:
	.loc	2 1120 25 prologue_end          @ ../../../../Library/StdDriver/src/clk.c:1120:25
	ldr	r0, [r1]
	movs	r2, #3
	lsls	r2, r2, #28
	.loc	2 1120 32 is_stmt 0             @ ../../../../Library/StdDriver/src/clk.c:1120:32
	bics	r0, r2
	.loc	2 1120 64                       @ ../../../../Library/StdDriver/src/clk.c:1120:64
	ldr	r2, [sp]
	.loc	2 1120 62                       @ ../../../../Library/StdDriver/src/clk.c:1120:62
	orrs	r0, r2
	.loc	2 1120 17                       @ ../../../../Library/StdDriver/src/clk.c:1120:17
	str	r0, [r1]
	.loc	2 1121 1 is_stmt 1              @ ../../../../Library/StdDriver/src/clk.c:1121:1
	add	sp, #4
	bx	lr
.Ltmp203:
	.p2align	2
@ %bb.1:
	.loc	2 0 1 is_stmt 0                 @ ../../../../Library/StdDriver/src/clk.c:0:1
__arm_cp.29_0:
	.long	1073742480                      @ 0x40000290
.Lcpi_end77:
	.size	__arm_cp.29_0, .Lcpi_end77-__arm_cp.29_0
.Lfunc_end29:
	.size	CLK_EnableDPDWKPin3, .Lfunc_end29-CLK_EnableDPDWKPin3
	.cfi_endproc
	.cantunwind
	.fnend
                                        @ -- End function
	.section	.text.CLK_EnableDPDWKPin4,"ax",%progbits
	.hidden	CLK_EnableDPDWKPin4             @ -- Begin function CLK_EnableDPDWKPin4
	.globl	CLK_EnableDPDWKPin4
	.p2align	2
	.type	CLK_EnableDPDWKPin4,%function
	.code	16                              @ @CLK_EnableDPDWKPin4
	.thumb_func
CLK_EnableDPDWKPin4:
.Lfunc_begin30:
	.loc	2 1136 0 is_stmt 1              @ ../../../../Library/StdDriver/src/clk.c:1136:0
	.fnstart
	.cfi_startproc
@ %bb.0:
	.pad	#4
	sub	sp, #4
	.cfi_def_cfa_offset 4
	str	r0, [sp]
	ldr	r1, __arm_cp.30_0
.Ltmp204:
	.loc	2 1137 25 prologue_end          @ ../../../../Library/StdDriver/src/clk.c:1137:25
	ldr	r0, [r1]
	movs	r2, #3
	lsls	r2, r2, #30
	.loc	2 1137 32 is_stmt 0             @ ../../../../Library/StdDriver/src/clk.c:1137:32
	bics	r0, r2
	.loc	2 1137 64                       @ ../../../../Library/StdDriver/src/clk.c:1137:64
	ldr	r2, [sp]
	.loc	2 1137 62                       @ ../../../../Library/StdDriver/src/clk.c:1137:62
	orrs	r0, r2
	.loc	2 1137 17                       @ ../../../../Library/StdDriver/src/clk.c:1137:17
	str	r0, [r1]
	.loc	2 1138 1 is_stmt 1              @ ../../../../Library/StdDriver/src/clk.c:1138:1
	add	sp, #4
	bx	lr
.Ltmp205:
	.p2align	2
@ %bb.1:
	.loc	2 0 1 is_stmt 0                 @ ../../../../Library/StdDriver/src/clk.c:0:1
__arm_cp.30_0:
	.long	1073742480                      @ 0x40000290
.Lcpi_end78:
	.size	__arm_cp.30_0, .Lcpi_end78-__arm_cp.30_0
.Lfunc_end30:
	.size	CLK_EnableDPDWKPin4, .Lfunc_end30-CLK_EnableDPDWKPin4
	.cfi_endproc
	.cantunwind
	.fnend
                                        @ -- End function
	.section	.text.CLK_GetPMUWKSrc,"ax",%progbits
	.hidden	CLK_GetPMUWKSrc                 @ -- Begin function CLK_GetPMUWKSrc
	.globl	CLK_GetPMUWKSrc
	.p2align	2
	.type	CLK_GetPMUWKSrc,%function
	.code	16                              @ @CLK_GetPMUWKSrc
	.thumb_func
CLK_GetPMUWKSrc:
.Lfunc_begin31:
	.loc	2 1150 0 is_stmt 1              @ ../../../../Library/StdDriver/src/clk.c:1150:0
	.fnstart
	.cfi_startproc
@ %bb.0:
	ldr	r0, __arm_cp.31_0
.Ltmp206:
	.loc	2 1151 18 prologue_end          @ ../../../../Library/StdDriver/src/clk.c:1151:18
	ldr	r0, [r0]
	.loc	2 1151 5 is_stmt 0              @ ../../../../Library/StdDriver/src/clk.c:1151:5
	bx	lr
.Ltmp207:
	.p2align	2
@ %bb.1:
	.loc	2 0 5                           @ ../../../../Library/StdDriver/src/clk.c:0:5
__arm_cp.31_0:
	.long	1073742484                      @ 0x40000294
.Lcpi_end79:
	.size	__arm_cp.31_0, .Lcpi_end79-__arm_cp.31_0
.Lfunc_end31:
	.size	CLK_GetPMUWKSrc, .Lfunc_end31-CLK_GetPMUWKSrc
	.cfi_endproc
	.cantunwind
	.fnend
                                        @ -- End function
	.section	.text.CLK_GetModuleClockSource,"ax",%progbits
	.hidden	CLK_GetModuleClockSource        @ -- Begin function CLK_GetModuleClockSource
	.globl	CLK_GetModuleClockSource
	.p2align	2
	.type	CLK_GetModuleClockSource,%function
	.code	16                              @ @CLK_GetModuleClockSource
	.thumb_func
CLK_GetModuleClockSource:
.Lfunc_begin32:
	.loc	2 1184 0 is_stmt 1              @ ../../../../Library/StdDriver/src/clk.c:1184:0
	.fnstart
	.cfi_startproc
@ %bb.0:
	.pad	#28
	sub	sp, #28
	.cfi_def_cfa_offset 28
	str	r0, [sp, #24]
	movs	r0, #0
.Ltmp208:
	.loc	2 1185 14 prologue_end          @ ../../../../Library/StdDriver/src/clk.c:1185:14
	str	r0, [sp, #20]
.Ltmp209:
	.loc	2 1188 9                        @ ../../../../Library/StdDriver/src/clk.c:1188:9
	ldr	r0, [sp, #24]
	ldr	r1, __arm_cp.32_0
.Ltmp210:
	.loc	2 1188 9 is_stmt 0              @ ../../../../Library/StdDriver/src/clk.c:1188:9
	cmp	r0, r1
	bne	.LBB32_2
	b	.LBB32_1
.LBB32_1:
	.loc	2 0 9                           @ ../../../../Library/StdDriver/src/clk.c:0:9
	ldr	r0, __arm_cp.32_6
.Ltmp211:
	.loc	2 1190 28 is_stmt 1             @ ../../../../Library/StdDriver/src/clk.c:1190:28
	ldr	r0, [r0]
	movs	r1, #1
	.loc	2 1190 36 is_stmt 0             @ ../../../../Library/StdDriver/src/clk.c:1190:36
	ands	r0, r1
	.loc	2 1190 19                       @ ../../../../Library/StdDriver/src/clk.c:1190:19
	str	r0, [sp, #20]
	.loc	2 1191 5 is_stmt 1              @ ../../../../Library/StdDriver/src/clk.c:1191:5
	b	.LBB32_14
.Ltmp212:
.LBB32_2:
	.loc	2 1192 14                       @ ../../../../Library/StdDriver/src/clk.c:1192:14
	ldr	r0, [sp, #24]
	ldr	r1, __arm_cp.32_1
.Ltmp213:
	.loc	2 1192 14 is_stmt 0             @ ../../../../Library/StdDriver/src/clk.c:1192:14
	cmp	r0, r1
	bne	.LBB32_4
	b	.LBB32_3
.LBB32_3:
	.loc	2 0 14                          @ ../../../../Library/StdDriver/src/clk.c:0:14
	ldr	r0, __arm_cp.32_6
.Ltmp214:
	.loc	2 1194 28 is_stmt 1             @ ../../../../Library/StdDriver/src/clk.c:1194:28
	ldr	r0, [r0]
	movs	r1, #2
	.loc	2 1194 36 is_stmt 0             @ ../../../../Library/StdDriver/src/clk.c:1194:36
	ands	r0, r1
	.loc	2 1194 63                       @ ../../../../Library/StdDriver/src/clk.c:1194:63
	lsrs	r0, r0, #1
	.loc	2 1194 19                       @ ../../../../Library/StdDriver/src/clk.c:1194:19
	str	r0, [sp, #20]
	.loc	2 1195 5 is_stmt 1              @ ../../../../Library/StdDriver/src/clk.c:1195:5
	b	.LBB32_13
.Ltmp215:
.LBB32_4:
	.loc	2 1196 14                       @ ../../../../Library/StdDriver/src/clk.c:1196:14
	ldr	r0, [sp, #24]
	ldr	r1, __arm_cp.32_2
.Ltmp216:
	.loc	2 1196 14 is_stmt 0             @ ../../../../Library/StdDriver/src/clk.c:1196:14
	cmp	r0, r1
	bne	.LBB32_6
	b	.LBB32_5
.LBB32_5:
	.loc	2 0 14                          @ ../../../../Library/StdDriver/src/clk.c:0:14
	ldr	r0, __arm_cp.32_6
.Ltmp217:
	.loc	2 1198 28 is_stmt 1             @ ../../../../Library/StdDriver/src/clk.c:1198:28
	ldr	r0, [r0]
	movw	r1, #256
	.loc	2 1198 36 is_stmt 0             @ ../../../../Library/StdDriver/src/clk.c:1198:36
	ands	r0, r1
	.loc	2 1198 64                       @ ../../../../Library/StdDriver/src/clk.c:1198:64
	lsrs	r0, r0, #8
	.loc	2 1198 19                       @ ../../../../Library/StdDriver/src/clk.c:1198:19
	str	r0, [sp, #20]
	.loc	2 1199 5 is_stmt 1              @ ../../../../Library/StdDriver/src/clk.c:1199:5
	b	.LBB32_12
.Ltmp218:
.LBB32_6:
	.loc	2 1200 14                       @ ../../../../Library/StdDriver/src/clk.c:1200:14
	ldr	r0, [sp, #24]
	ldr	r1, __arm_cp.32_3
.Ltmp219:
	.loc	2 1200 14 is_stmt 0             @ ../../../../Library/StdDriver/src/clk.c:1200:14
	cmp	r0, r1
	bne	.LBB32_8
	b	.LBB32_7
.LBB32_7:
	.loc	2 0 14                          @ ../../../../Library/StdDriver/src/clk.c:0:14
	ldr	r0, __arm_cp.32_6
.Ltmp220:
	.loc	2 1202 28 is_stmt 1             @ ../../../../Library/StdDriver/src/clk.c:1202:28
	ldr	r0, [r0]
	movw	r1, #512
	.loc	2 1202 36 is_stmt 0             @ ../../../../Library/StdDriver/src/clk.c:1202:36
	ands	r0, r1
	.loc	2 1202 64                       @ ../../../../Library/StdDriver/src/clk.c:1202:64
	lsrs	r0, r0, #9
	.loc	2 1202 19                       @ ../../../../Library/StdDriver/src/clk.c:1202:19
	str	r0, [sp, #20]
	.loc	2 1203 5 is_stmt 1              @ ../../../../Library/StdDriver/src/clk.c:1203:5
	b	.LBB32_11
.Ltmp221:
.LBB32_8:
	.loc	2 1204 14                       @ ../../../../Library/StdDriver/src/clk.c:1204:14
	ldr	r0, [sp, #24]
	lsls	r0, r0, #4
	lsrs	r0, r0, #29
.Ltmp222:
	.loc	2 1204 14 is_stmt 0             @ ../../../../Library/StdDriver/src/clk.c:1204:14
	cbz	r0, .LBB32_10
	b	.LBB32_9
.LBB32_9:
.Ltmp223:
	.loc	2 1207 24 is_stmt 1             @ ../../../../Library/StdDriver/src/clk.c:1207:24
	ldr	r0, __arm_cp.32_4
	ldr	r1, [r0, #12]
	str	r1, [sp, #12]
	ldr	r1, [r0, #8]
	str	r1, [sp, #8]
	ldr	r1, [r0, #4]
	str	r1, [sp, #4]
	ldr	r0, [r0]
	str	r0, [sp]
	.loc	2 1210 60                       @ ../../../../Library/StdDriver/src/clk.c:1210:60
	ldr	r0, [sp, #24]
	.loc	2 1210 49 is_stmt 0             @ ../../../../Library/StdDriver/src/clk.c:1210:49
	lsrs	r1, r0, #26
	movs	r0, #12
	ands	r1, r0
	mov	r0, sp
	ldr	r0, [r0, r1]
	ldr	r1, __arm_cp.32_5
	.loc	2 1210 46                       @ ../../../../Library/StdDriver/src/clk.c:1210:46
	adds	r0, r0, r1
	.loc	2 1210 20                       @ ../../../../Library/StdDriver/src/clk.c:1210:20
	str	r0, [sp, #16]
	.loc	2 1213 23 is_stmt 1             @ ../../../../Library/StdDriver/src/clk.c:1213:23
	ldr	r0, [sp, #16]
	ldr	r0, [r0]
	.loc	2 1213 55 is_stmt 0             @ ../../../../Library/StdDriver/src/clk.c:1213:55
	ldr	r1, [sp, #24]
	lsls	r2, r1, #4
	lsrs	r2, r2, #29
	.loc	2 1213 90                       @ ../../../../Library/StdDriver/src/clk.c:1213:90
	lsls	r1, r1, #7
	lsrs	r1, r1, #27
	.loc	2 1213 87                       @ ../../../../Library/StdDriver/src/clk.c:1213:87
	lsls	r2, r1
	.loc	2 1213 52                       @ ../../../../Library/StdDriver/src/clk.c:1213:52
	ands	r0, r2
	.loc	2 1213 124                      @ ../../../../Library/StdDriver/src/clk.c:1213:124
	lsrs	r0, r1
	.loc	2 1213 19                       @ ../../../../Library/StdDriver/src/clk.c:1213:19
	str	r0, [sp, #20]
	.loc	2 1214 5 is_stmt 1              @ ../../../../Library/StdDriver/src/clk.c:1214:5
	b	.LBB32_10
.Ltmp224:
.LBB32_10:
	.loc	2 0 5 is_stmt 0                 @ ../../../../Library/StdDriver/src/clk.c:0:5
	b	.LBB32_11
.LBB32_11:
	b	.LBB32_12
.LBB32_12:
	b	.LBB32_13
.LBB32_13:
	b	.LBB32_14
.LBB32_14:
	.loc	2 1216 12 is_stmt 1             @ ../../../../Library/StdDriver/src/clk.c:1216:12
	ldr	r0, [sp, #20]
	.loc	2 1216 5 is_stmt 0              @ ../../../../Library/StdDriver/src/clk.c:1216:5
	add	sp, #28
	bx	lr
.Ltmp225:
	.p2align	2
@ %bb.15:
	.loc	2 0 5                           @ ../../../../Library/StdDriver/src/clk.c:0:5
__arm_cp.32_0:
	.long	2717909008                      @ 0xa2000010
.Lcpi_end80:
	.size	__arm_cp.32_0, .Lcpi_end80-__arm_cp.32_0
__arm_cp.32_1:
	.long	2718957585                      @ 0xa2100011
.Lcpi_end81:
	.size	__arm_cp.32_1, .Lcpi_end81-__arm_cp.32_1
__arm_cp.32_2:
	.long	2726297618                      @ 0xa2800012
.Lcpi_end82:
	.size	__arm_cp.32_2, .Lcpi_end82-__arm_cp.32_2
__arm_cp.32_3:
	.long	2727346195                      @ 0xa2900013
.Lcpi_end83:
	.size	__arm_cp.32_3, .Lcpi_end83-__arm_cp.32_3
__arm_cp.32_4:
	.long	.L__const.CLK_GetModuleClockSource.au32SelTbl
.Lcpi_end84:
	.size	__arm_cp.32_4, .Lcpi_end84-__arm_cp.32_4
__arm_cp.32_5:
	.long	1073742352                      @ 0x40000210
.Lcpi_end85:
	.size	__arm_cp.32_5, .Lcpi_end85-__arm_cp.32_5
__arm_cp.32_6:
	.long	1073742360                      @ 0x40000218
.Lcpi_end86:
	.size	__arm_cp.32_6, .Lcpi_end86-__arm_cp.32_6
.Lfunc_end32:
	.size	CLK_GetModuleClockSource, .Lfunc_end32-CLK_GetModuleClockSource
	.cfi_endproc
	.cantunwind
	.fnend
                                        @ -- End function
	.section	.text.CLK_GetModuleClockDivider,"ax",%progbits
	.hidden	CLK_GetModuleClockDivider       @ -- Begin function CLK_GetModuleClockDivider
	.globl	CLK_GetModuleClockDivider
	.p2align	2
	.type	CLK_GetModuleClockDivider,%function
	.code	16                              @ @CLK_GetModuleClockDivider
	.thumb_func
CLK_GetModuleClockDivider:
.Lfunc_begin33:
	.loc	2 1234 0 is_stmt 1              @ ../../../../Library/StdDriver/src/clk.c:1234:0
	.fnstart
	.cfi_startproc
@ %bb.0:
	.pad	#28
	sub	sp, #28
	.cfi_def_cfa_offset 28
	str	r0, [sp, #24]
	movs	r0, #0
.Ltmp226:
	.loc	2 1235 14 prologue_end          @ ../../../../Library/StdDriver/src/clk.c:1235:14
	str	r0, [sp, #20]
.Ltmp227:
	.loc	2 1237 9                        @ ../../../../Library/StdDriver/src/clk.c:1237:9
	ldr	r0, [sp, #24]
	lsrs	r0, r0, #10
.Ltmp228:
	.loc	2 1237 9 is_stmt 0              @ ../../../../Library/StdDriver/src/clk.c:1237:9
	lsls	r0, r0, #24
	cbz	r0, .LBB33_2
	b	.LBB33_1
.LBB33_1:
.Ltmp229:
	.loc	2 1240 24 is_stmt 1             @ ../../../../Library/StdDriver/src/clk.c:1240:24
	ldr	r0, __arm_cp.33_0
	ldr	r1, [r0, #12]
	str	r1, [sp, #12]
	ldr	r1, [r0, #8]
	str	r1, [sp, #8]
	ldr	r1, [r0, #4]
	str	r1, [sp, #4]
	ldr	r0, [r0]
	str	r0, [sp]
	add	r0, sp, #24
	.loc	2 1243 60                       @ ../../../../Library/StdDriver/src/clk.c:1243:60
	ldrh	r1, [r0, #2]
	movs	r0, #12
	.loc	2 1243 49 is_stmt 0             @ ../../../../Library/StdDriver/src/clk.c:1243:49
	ands	r1, r0
	mov	r0, sp
	ldr	r0, [r0, r1]
	ldr	r1, __arm_cp.33_1
	.loc	2 1243 46                       @ ../../../../Library/StdDriver/src/clk.c:1243:46
	adds	r0, r0, r1
	.loc	2 1243 20                       @ ../../../../Library/StdDriver/src/clk.c:1243:20
	str	r0, [sp, #16]
	.loc	2 1245 23 is_stmt 1             @ ../../../../Library/StdDriver/src/clk.c:1245:23
	ldr	r0, [sp, #16]
	ldr	r0, [r0]
	.loc	2 1245 55 is_stmt 0             @ ../../../../Library/StdDriver/src/clk.c:1245:55
	ldr	r1, [sp, #24]
	lsrs	r2, r1, #10
	uxtb	r2, r2
	.loc	2 1245 90                       @ ../../../../Library/StdDriver/src/clk.c:1245:90
	lsls	r1, r1, #22
	lsrs	r1, r1, #27
	.loc	2 1245 87                       @ ../../../../Library/StdDriver/src/clk.c:1245:87
	lsls	r2, r1
	.loc	2 1245 52                       @ ../../../../Library/StdDriver/src/clk.c:1245:52
	ands	r0, r2
	.loc	2 1245 124                      @ ../../../../Library/StdDriver/src/clk.c:1245:124
	lsrs	r0, r1
	.loc	2 1245 19                       @ ../../../../Library/StdDriver/src/clk.c:1245:19
	str	r0, [sp, #20]
	.loc	2 1246 5 is_stmt 1              @ ../../../../Library/StdDriver/src/clk.c:1246:5
	b	.LBB33_2
.Ltmp230:
.LBB33_2:
	.loc	2 1248 12                       @ ../../../../Library/StdDriver/src/clk.c:1248:12
	ldr	r0, [sp, #20]
	.loc	2 1248 5 is_stmt 0              @ ../../../../Library/StdDriver/src/clk.c:1248:5
	add	sp, #28
	bx	lr
.Ltmp231:
	.p2align	2
@ %bb.3:
	.loc	2 0 5                           @ ../../../../Library/StdDriver/src/clk.c:0:5
__arm_cp.33_0:
	.long	.L__const.CLK_GetModuleClockDivider.au32DivTbl
.Lcpi_end87:
	.size	__arm_cp.33_0, .Lcpi_end87-__arm_cp.33_0
__arm_cp.33_1:
	.long	1073742368                      @ 0x40000220
.Lcpi_end88:
	.size	__arm_cp.33_1, .Lcpi_end88-__arm_cp.33_1
.Lfunc_end33:
	.size	CLK_GetModuleClockDivider, .Lfunc_end33-CLK_GetModuleClockDivider
	.cfi_endproc
	.cantunwind
	.fnend
                                        @ -- End function
	.hidden	g_CLK_i32ErrCode                @ @g_CLK_i32ErrCode
	.type	g_CLK_i32ErrCode,%object
	.section	.bss.g_CLK_i32ErrCode,"aw",%nobits
	.globl	g_CLK_i32ErrCode
	.p2align	2
g_CLK_i32ErrCode:
	.long	0                               @ 0x0
	.size	g_CLK_i32ErrCode, 4

	.type	.L__const.CLK_GetPLLClockFreq.au8NoTbl,%object @ @__const.CLK_GetPLLClockFreq.au8NoTbl
	.section	.rodata.cst4,"aM",%progbits,4
.L__const.CLK_GetPLLClockFreq.au8NoTbl:
	.ascii	"\001\002\004\004"
	.size	.L__const.CLK_GetPLLClockFreq.au8NoTbl, 4

	.type	.L__const.CLK_SetModuleClock.au32DivTbl,%object @ @__const.CLK_SetModuleClock.au32DivTbl
	.section	.rodata.cst16,"aM",%progbits,16
	.p2align	2
.L__const.CLK_SetModuleClock.au32DivTbl:
	.long	0                               @ 0x0
	.long	4                               @ 0x4
	.long	12                              @ 0xc
	.long	16                              @ 0x10
	.size	.L__const.CLK_SetModuleClock.au32DivTbl, 16

	.type	.L__const.CLK_SetModuleClock.au32SelTbl,%object @ @__const.CLK_SetModuleClock.au32SelTbl
	.p2align	2
.L__const.CLK_SetModuleClock.au32SelTbl:
	.long	0                               @ 0x0
	.long	4                               @ 0x4
	.long	8                               @ 0x8
	.long	12                              @ 0xc
	.size	.L__const.CLK_SetModuleClock.au32SelTbl, 16

	.type	.L__const.CLK_EnableModuleClock.au32ClkTbl,%object @ @__const.CLK_EnableModuleClock.au32ClkTbl
	.section	.rodata..L__const.CLK_EnableModuleClock.au32ClkTbl,"a",%progbits
	.p2align	2
.L__const.CLK_EnableModuleClock.au32ClkTbl:
	.long	0                               @ 0x0
	.long	4                               @ 0x4
	.long	8                               @ 0x8
	.size	.L__const.CLK_EnableModuleClock.au32ClkTbl, 12

	.type	.L__const.CLK_DisableModuleClock.au32ClkTbl,%object @ @__const.CLK_DisableModuleClock.au32ClkTbl
	.section	.rodata..L__const.CLK_DisableModuleClock.au32ClkTbl,"a",%progbits
	.p2align	2
.L__const.CLK_DisableModuleClock.au32ClkTbl:
	.long	0                               @ 0x0
	.long	4                               @ 0x4
	.long	8                               @ 0x8
	.size	.L__const.CLK_DisableModuleClock.au32ClkTbl, 12

	.type	.L__const.CLK_GetModuleClockSource.au32SelTbl,%object @ @__const.CLK_GetModuleClockSource.au32SelTbl
	.section	.rodata.cst16,"aM",%progbits,16
	.p2align	2
.L__const.CLK_GetModuleClockSource.au32SelTbl:
	.long	0                               @ 0x0
	.long	4                               @ 0x4
	.long	8                               @ 0x8
	.long	12                              @ 0xc
	.size	.L__const.CLK_GetModuleClockSource.au32SelTbl, 16

	.type	.L__const.CLK_GetModuleClockDivider.au32DivTbl,%object @ @__const.CLK_GetModuleClockDivider.au32DivTbl
	.p2align	2
.L__const.CLK_GetModuleClockDivider.au32DivTbl:
	.long	0                               @ 0x0
	.long	4                               @ 0x4
	.long	8                               @ 0x8
	.long	16                              @ 0x10
	.size	.L__const.CLK_GetModuleClockDivider.au32DivTbl, 16

	.section	".note.GNU-stack","",%progbits
	.eabi_attribute	30, 6	@ Tag_ABI_optimization_goals
	.ARM_attribute	16, 1	@ Tag_AV_eba