	.text
	.syntax unified
	.eabi_attribute	67, "2.09"	@ Tag_conformance
	.cpu	cortex-m23
	.eabi_attribute	6, 16	@ Tag_CPU_arch
	.eabi_attribute	7, 77	@ Tag_CPU_arch_profile
	.eabi_attribute	8, 0	@ Tag_ARM_ISA_use
	.eabi_attribute	9, 3	@ Tag_THUMB_ISA_use
	.eabi_attribute	34, 0	@ Tag_CPU_unaligned_access
	.eabi_attribute	17, 1	@ Tag_ABI_PCS_GOT_use
	.eabi_attribute	20, 2	@ Tag_ABI_FP_denormal
	.eabi_attribute	21, 0	@ Tag_ABI_FP_exceptions
	.eabi_attribute	23, 1	@ Tag_ABI_FP_number_model
	.eabi_attribute	24, 1	@ Tag_ABI_align_needed
	.eabi_attribute	25, 1	@ Tag_ABI_align_preserved
	.eabi_attribute	38, 1	@ Tag_ABI_FP_16bit_format
	.eabi_attribute	18, 2	@ Tag_ABI_PCS_wchar_t
	.eabi_attribute	26, 1	@ Tag_ABI_enum_size
	.eabi_attribute	14, 0	@ Tag_ABI_PCS_R9_use
	.file	"costumLcd.c"
	.file	1 "E:\\BERSY\\sdk\\SampleCode\\NuCodeGen\\scale_v1\\KEIL" "..\\Inc/costumLcd.h"
	.file	2 "C:\\Keil_v5\\ARM\\ARMCLANG\\Bin\\..\\include" "stdint.h"
	.file	3 "E:\\BERSY\\sdk\\SampleCode\\NuCodeGen\\scale_v1\\KEIL" "../../../../Library/Device/Nuvoton/M251/Include/spi_reg.h"
	.section	.text.SCREEN_1_AIP_ResetPin,"ax",%progbits
	.hidden	SCREEN_1_AIP_ResetPin           @ -- Begin function SCREEN_1_AIP_ResetPin
	.weak	SCREEN_1_AIP_ResetPin
	.p2align	1
	.type	SCREEN_1_AIP_ResetPin,%function
	.code	16                              @ @SCREEN_1_AIP_ResetPin
	.thumb_func
SCREEN_1_AIP_ResetPin:
.Lfunc_begin0:
	.file	4 "E:\\BERSY\\sdk\\SampleCode\\NuCodeGen\\scale_v1\\KEIL" "../src/costumLcd.c"
	.loc	4 13 0                          @ ../src/costumLcd.c:13:0
	.fnstart
	.cfi_sections .debug_frame
	.cfi_startproc
@ %bb.0:
	.pad	#4
	sub	sp, #4
	.cfi_def_cfa_offset 4
                                        @ kill: def $r1 killed $r0
	mov	r1, sp
	strb	r0, [r1]
.Ltmp0:
	.loc	4 15 1 prologue_end             @ ../src/costumLcd.c:15:1
	add	sp, #4
	bx	lr
.Ltmp1:
.Lfunc_end0:
	.size	SCREEN_1_AIP_ResetPin, .Lfunc_end0-SCREEN_1_AIP_ResetPin
	.cfi_endproc
	.cantunwind
	.fnend
                                        @ -- End function
	.section	.text.SCREEN_1_AIP_A0Pin,"ax",%progbits
	.hidden	SCREEN_1_AIP_A0Pin              @ -- Begin function SCREEN_1_AIP_A0Pin
	.weak	SCREEN_1_AIP_A0Pin
	.p2align	1
	.type	SCREEN_1_AIP_A0Pin,%function
	.code	16                              @ @SCREEN_1_AIP_A0Pin
	.thumb_func
SCREEN_1_AIP_A0Pin:
.Lfunc_begin1:
	.loc	4 17 0                          @ ../src/costumLcd.c:17:0
	.fnstart
	.cfi_startproc
@ %bb.0:
	.pad	#4
	sub	sp, #4
	.cfi_def_cfa_offset 4
                                        @ kill: def $r1 killed $r0
	mov	r1, sp
	strb	r0, [r1]
.Ltmp2:
	.loc	4 19 1 prologue_end             @ ../src/costumLcd.c:19:1
	add	sp, #4
	bx	lr
.Ltmp3:
.Lfunc_end1:
	.size	SCREEN_1_AIP_A0Pin, .Lfunc_end1-SCREEN_1_AIP_A0Pin
	.cfi_endproc
	.cantunwind
	.fnend
                                        @ -- End function
	.section	.text.SCREEN_1_AIP_CSPin,"ax",%progbits
	.hidden	SCREEN_1_AIP_CSPin              @ -- Begin function SCREEN_1_AIP_CSPin
	.weak	SCREEN_1_AIP_CSPin
	.p2align	1
	.type	SCREEN_1_AIP_CSPin,%function
	.code	16                              @ @SCREEN_1_AIP_CSPin
	.thumb_func
SCREEN_1_AIP_CSPin:
.Lfunc_begin2:
	.loc	4 22 0                          @ ../src/costumLcd.c:22:0
	.fnstart
	.cfi_startproc
@ %bb.0:
	.pad	#4
	sub	sp, #4
	.cfi_def_cfa_offset 4
                                        @ kill: def $r1 killed $r0
	mov	r1, sp
	strb	r0, [r1]
.Ltmp4:
	.loc	4 24 1 prologue_end             @ ../src/costumLcd.c:24:1
	add	sp, #4
	bx	lr
.Ltmp5:
.Lfunc_end2:
	.size	SCREEN_1_AIP_CSPin, .Lfunc_end2-SCREEN_1_AIP_CSPin
	.cfi_endproc
	.cantunwind
	.fnend
                                        @ -- End function
	.section	.text.SCREEN_2_AIP_ResetPin,"ax",%progbits
	.hidden	SCREEN_2_AIP_ResetPin           @ -- Begin function SCREEN_2_AIP_ResetPin
	.weak	SCREEN_2_AIP_ResetPin
	.p2align	1
	.type	SCREEN_2_AIP_ResetPin,%function
	.code	16                              @ @SCREEN_2_AIP_ResetPin
	.thumb_func
SCREEN_2_AIP_ResetPin:
.Lfunc_begin3:
	.loc	4 26 0                          @ ../src/costumLcd.c:26:0
	.fnstart
	.cfi_startproc
@ %bb.0:
	.pad	#4
	sub	sp, #4
	.cfi_def_cfa_offset 4
                                        @ kill: def $r1 killed $r0
	mov	r1, sp
	strb	r0, [r1]
.Ltmp6:
	.loc	4 28 1 prologue_end             @ ../src/costumLcd.c:28:1
	add	sp, #4
	bx	lr
.Ltmp7:
.Lfunc_end3:
	.size	SCREEN_2_AIP_ResetPin, .Lfunc_end3-SCREEN_2_AIP_ResetPin
	.cfi_endproc
	.cantunwind
	.fnend
                                        @ -- End function
	.section	.text.SCREEN_2_AIP_A0Pin,"ax",%progbits
	.hidden	SCREEN_2_AIP_A0Pin              @ -- Begin function SCREEN_2_AIP_A0Pin
	.weak	SCREEN_2_AIP_A0Pin
	.p2align	1
	.type	SCREEN_2_AIP_A0Pin,%function
	.code	16                              @ @SCREEN_2_AIP_A0Pin
	.thumb_func
SCREEN_2_AIP_A0Pin:
.Lfunc_begin4:
	.loc	4 30 0                          @ ../src/costumLcd.c:30:0
	.fnstart
	.cfi_startproc
@ %bb.0:
	.pad	#4
	sub	sp, #4
	.cfi_def_cfa_offset 4
                                        @ kill: def $r1 killed $r0
	mov	r1, sp
	strb	r0, [r1]
.Ltmp8:
	.loc	4 32 1 prologue_end             @ ../src/costumLcd.c:32:1
	add	sp, #4
	bx	lr
.Ltmp9:
.Lfunc_end4:
	.size	SCREEN_2_AIP_A0Pin, .Lfunc_end4-SCREEN_2_AIP_A0Pin
	.cfi_endproc
	.cantunwind
	.fnend
                                        @ -- End function
	.section	.text.SCREEN_2_AIP_CSPin,"ax",%progbits
	.hidden	SCREEN_2_AIP_CSPin              @ -- Begin function SCREEN_2_AIP_CSPin
	.weak	SCREEN_2_AIP_CSPin
	.p2align	1
	.type	SCREEN_2_AIP_CSPin,%function
	.code	16                              @ @SCREEN_2_AIP_CSPin
	.thumb_func
SCREEN_2_AIP_CSPin:
.Lfunc_begin5:
	.loc	4 35 0                          @ ../src/costumLcd.c:35:0
	.fnstart
	.cfi_startproc
@ %bb.0:
	.pad	#4
	sub	sp, #4
	.cfi_def_cfa_offset 4
                                        @ kill: def $r1 killed $r0
	mov	r1, sp
	strb	r0, [r1]
.Ltmp10:
	.loc	4 37 1 prologue_end             @ ../src/costumLcd.c:37:1
	add	sp, #4
	bx	lr
.Ltmp11:
.Lfunc_end5:
	.size	SCREEN_2_AIP_CSPin, .Lfunc_end5-SCREEN_2_AIP_CSPin
	.cfi_endproc
	.cantunwind
	.fnend
                                        @ -- End function
	.section	.text.SCREEN_3_AIP_ResetPin,"ax",%progbits
	.hidden	SCREEN_3_AIP_ResetPin           @ -- Begin function SCREEN_3_AIP_ResetPin
	.weak	SCREEN_3_AIP_ResetPin
	.p2align	1
	.type	SCREEN_3_AIP_ResetPin,%function
	.code	16                              @ @SCREEN_3_AIP_ResetPin
	.thumb_func
SCREEN_3_AIP_ResetPin:
.Lfunc_begin6:
	.loc	4 39 0                          @ ../src/costumLcd.c:39:0
	.fnstart
	.cfi_startproc
@ %bb.0:
	.pad	#4
	sub	sp, #4
	.cfi_def_cfa_offset 4
                                        @ kill: def $r1 killed $r0
	mov	r1, sp
	strb	r0, [r1]
.Ltmp12:
	.loc	4 41 1 prologue_end             @ ../src/costumLcd.c:41:1
	add	sp, #4
	bx	lr
.Ltmp13:
.Lfunc_end6:
	.size	SCREEN_3_AIP_ResetPin, .Lfunc_end6-SCREEN_3_AIP_ResetPin
	.cfi_endproc
	.cantunwind
	.fnend
                                        @ -- End function
	.section	.text.SCREEN_3_AIP_A0Pin,"ax",%progbits
	.hidden	SCREEN_3_AIP_A0Pin              @ -- Begin function SCREEN_3_AIP_A0Pin
	.weak	SCREEN_3_AIP_A0Pin
	.p2align	1
	.type	SCREEN_3_AIP_A0Pin,%function
	.code	16                              @ @SCREEN_3_AIP_A0Pin
	.thumb_func
SCREEN_3_AIP_A0Pin:
.Lfunc_begin7:
	.loc	4 43 0                          @ ../src/costumLcd.c:43:0
	.fnstart
	.cfi_startproc
@ %bb.0:
	.pad	#4
	sub	sp, #4
	.cfi_def_cfa_offset 4
                                        @ kill: def $r1 killed $r0
	mov	r1, sp
	strb	r0, [r1]
.Ltmp14:
	.loc	4 45 1 prologue_end             @ ../src/costumLcd.c:45:1
	add	sp, #4
	bx	lr
.Ltmp15:
.Lfunc_end7:
	.size	SCREEN_3_AIP_A0Pin, .Lfunc_end7-SCREEN_3_AIP_A0Pin
	.cfi_endproc
	.cantunwind
	.fnend
                                        @ -- End function
	.section	.text.SCREEN_3_AIP_CSPin,"ax",%progbits
	.hidden	SCREEN_3_AIP_CSPin              @ -- Begin function SCREEN_3_AIP_CSPin
	.weak	SCREEN_3_AIP_CSPin
	.p2align	1
	.type	SCREEN_3_AIP_CSPin,%function
	.code	16                              @ @SCREEN_3_AIP_CSPin
	.thumb_func
SCREEN_3_AIP_CSPin:
.Lfunc_begin8:
	.loc	4 47 0                          @ ../src/costumLcd.c:47:0
	.fnstart
	.cfi_startproc
@ %bb.0:
	.pad	#4
	sub	sp, #4
	.cfi_def_cfa_offset 4
                                        @ kill: def $r1 killed $r0
	mov	r1, sp
	strb	r0, [r1]
.Ltmp16:
	.loc	4 49 1 prologue_end             @ ../src/costumLcd.c:49:1
	add	sp, #4
	bx	lr
.Ltmp17:
.Lfunc_end8:
	.size	SCREEN_3_AIP_CSPin, .Lfunc_end8-SCREEN_3_AIP_CSPin
	.cfi_endproc
	.cantunwind
	.fnend
                                        @ -- End function
	.section	.text.newLCDObj,"ax",%progbits
	.hidden	newLCDObj                       @ -- Begin function newLCDObj
	.globl	newLCDObj
	.p2align	2
	.type	newLCDObj,%function
	.code	16                              @ @newLCDObj
	.thumb_func
newLCDObj:
.Lfunc_begin9:
	.loc	4 51 0                          @ ../src/costumLcd.c:51:0
	.fnstart
	.cfi_startproc
@ %bb.0:
	.save	{r7, lr}
	push	{r7, lr}
	.cfi_def_cfa_offset 8
	.cfi_offset lr, -4
	.cfi_offset r7, -8
	.pad	#8
	sub	sp, #8
	.cfi_def_cfa_offset 16
	str	r0, [sp, #4]
	movs	r0, #68
.Ltmp18:
	.loc	4 52 18 prologue_end            @ ../src/costumLcd.c:52:18
	bl	malloc
	.loc	4 52 7 is_stmt 0                @ ../src/costumLcd.c:52:7
	str	r0, [sp]
.Ltmp19:
	.loc	4 53 5 is_stmt 1                @ ../src/costumLcd.c:53:5
	ldr	r0, [sp]
.Ltmp20:
	.loc	4 53 5 is_stmt 0                @ ../src/costumLcd.c:53:5
	cbnz	r0, .LBB9_3
	b	.LBB9_1
.LBB9_1:
.Ltmp21:
	.loc	4 57 3 is_stmt 1                @ ../src/costumLcd.c:57:3
	b	.LBB9_2
.LBB9_2:                                @ =>This Inner Loop Header: Depth=1
	b	.LBB9_2
.Ltmp22:
.LBB9_3:
	.loc	4 0 3 is_stmt 0                 @ ../src/costumLcd.c:0:3
	b	.LBB9_4
.LBB9_4:
	.loc	4 65 2 is_stmt 1                @ ../src/costumLcd.c:65:2
	ldr	r1, [sp]
	.loc	4 65 22 is_stmt 0               @ ../src/costumLcd.c:65:22
	ldr	r0, __arm_cp.9_0
	str	r0, [r1]
	.loc	4 66 2 is_stmt 1                @ ../src/costumLcd.c:66:2
	ldr	r1, [sp]
	.loc	4 66 25 is_stmt 0               @ ../src/costumLcd.c:66:25
	ldr	r0, __arm_cp.9_1
	str	r0, [r1, #4]
	.loc	4 67 2 is_stmt 1                @ ../src/costumLcd.c:67:2
	ldr	r1, [sp]
	.loc	4 67 26 is_stmt 0               @ ../src/costumLcd.c:67:26
	ldr	r0, __arm_cp.9_2
	str	r0, [r1, #8]
	.loc	4 68 2 is_stmt 1                @ ../src/costumLcd.c:68:2
	ldr	r1, [sp]
	.loc	4 68 25 is_stmt 0               @ ../src/costumLcd.c:68:25
	ldr	r0, __arm_cp.9_3
	str	r0, [r1, #12]
	.loc	4 69 2 is_stmt 1                @ ../src/costumLcd.c:69:2
	ldr	r1, [sp]
	.loc	4 69 26 is_stmt 0               @ ../src/costumLcd.c:69:26
	ldr	r0, __arm_cp.9_4
	str	r0, [r1, #16]
	.loc	4 70 2 is_stmt 1                @ ../src/costumLcd.c:70:2
	ldr	r1, [sp]
	.loc	4 70 24 is_stmt 0               @ ../src/costumLcd.c:70:24
	ldr	r0, __arm_cp.9_5
	str	r0, [r1, #20]
	.loc	4 71 2 is_stmt 1                @ ../src/costumLcd.c:71:2
	ldr	r1, [sp]
	.loc	4 71 24 is_stmt 0               @ ../src/costumLcd.c:71:24
	ldr	r0, __arm_cp.9_6
	str	r0, [r1, #24]
	.loc	4 72 2 is_stmt 1                @ ../src/costumLcd.c:72:2
	ldr	r1, [sp]
	.loc	4 72 24 is_stmt 0               @ ../src/costumLcd.c:72:24
	ldr	r0, __arm_cp.9_7
	str	r0, [r1, #28]
	.loc	4 73 2 is_stmt 1                @ ../src/costumLcd.c:73:2
	ldr	r1, [sp]
	.loc	4 73 26 is_stmt 0               @ ../src/costumLcd.c:73:26
	ldr	r0, __arm_cp.9_8
	str	r0, [r1, #32]
	.loc	4 74 2 is_stmt 1                @ ../src/costumLcd.c:74:2
	ldr	r1, [sp]
	.loc	4 74 26 is_stmt 0               @ ../src/costumLcd.c:74:26
	ldr	r0, __arm_cp.9_9
	str	r0, [r1, #36]
	.loc	4 75 2 is_stmt 1                @ ../src/costumLcd.c:75:2
	ldr	r1, [sp]
	.loc	4 75 23 is_stmt 0               @ ../src/costumLcd.c:75:23
	ldr	r0, __arm_cp.9_10
	str	r0, [r1, #40]
	.loc	4 76 2 is_stmt 1                @ ../src/costumLcd.c:76:2
	ldr	r1, [sp]
	.loc	4 76 26 is_stmt 0               @ ../src/costumLcd.c:76:26
	ldr	r0, __arm_cp.9_11
	str	r0, [r1, #44]
	.loc	4 77 28 is_stmt 1               @ ../src/costumLcd.c:77:28
	ldr	r0, [sp, #4]
	.loc	4 77 37 is_stmt 0               @ ../src/costumLcd.c:77:37
	ldr	r0, [r0]
	.loc	4 77 2                          @ ../src/costumLcd.c:77:2
	ldr	r1, [sp]
	.loc	4 77 26                         @ ../src/costumLcd.c:77:26
	str	r0, [r1, #48]
	.loc	4 78 27 is_stmt 1               @ ../src/costumLcd.c:78:27
	ldr	r0, [sp, #4]
	.loc	4 78 36 is_stmt 0               @ ../src/costumLcd.c:78:36
	ldr	r0, [r0, #8]
	.loc	4 78 2                          @ ../src/costumLcd.c:78:2
	ldr	r1, [sp]
	.loc	4 78 25                         @ ../src/costumLcd.c:78:25
	str	r0, [r1, #56]
	.loc	4 79 27 is_stmt 1               @ ../src/costumLcd.c:79:27
	ldr	r0, [sp, #4]
	.loc	4 79 36 is_stmt 0               @ ../src/costumLcd.c:79:36
	ldr	r0, [r0, #4]
	.loc	4 79 2                          @ ../src/costumLcd.c:79:2
	ldr	r1, [sp]
	.loc	4 79 25                         @ ../src/costumLcd.c:79:25
	str	r0, [r1, #52]
	.loc	4 80 26 is_stmt 1               @ ../src/costumLcd.c:80:26
	ldr	r0, [sp, #4]
	.loc	4 80 35 is_stmt 0               @ ../src/costumLcd.c:80:35
	adds	r0, #12
	.loc	4 80 2                          @ ../src/costumLcd.c:80:2
	ldr	r1, [sp]
	.loc	4 80 24                         @ ../src/costumLcd.c:80:24
	str	r0, [r1, #60]
	.loc	4 81 9 is_stmt 1                @ ../src/costumLcd.c:81:9
	ldr	r0, [sp]
	.loc	4 81 2 is_stmt 0                @ ../src/costumLcd.c:81:2
	add	sp, #8
	pop	{r7, pc}
.Ltmp23:
	.p2align	2
@ %bb.5:
	.loc	4 0 2                           @ ../src/costumLcd.c:0:2
__arm_cp.9_0:
	.long	AIP_Init
.Lcpi_end0:
	.size	__arm_cp.9_0, .Lcpi_end0-__arm_cp.9_0
__arm_cp.9_1:
	.long	AIP_writeData
.Lcpi_end1:
	.size	__arm_cp.9_1, .Lcpi_end1-__arm_cp.9_1
__arm_cp.9_2:
	.long	AIP_writeCommand
.Lcpi_end2:
	.size	__arm_cp.9_2, .Lcpi_end2-__arm_cp.9_2
__arm_cp.9_3:
	.long	AIP_ClearScreen
.Lcpi_end3:
	.size	__arm_cp.9_3, .Lcpi_end3-__arm_cp.9_3
__arm_cp.9_4:
	.long	AIP_UpdateScreen
.Lcpi_end4:
	.size	__arm_cp.9_4, .Lcpi_end4-__arm_cp.9_4
__arm_cp.9_5:
	.long	AIP_draw_pixel
.Lcpi_end5:
	.size	__arm_cp.9_5, .Lcpi_end5-__arm_cp.9_5
__arm_cp.9_6:
	.long	AIP_writeChar
.Lcpi_end6:
	.size	__arm_cp.9_6, .Lcpi_end6-__arm_cp.9_6
__arm_cp.9_7:
	.long	AIP_SetCursor
.Lcpi_end7:
	.size	__arm_cp.9_7, .Lcpi_end7-__arm_cp.9_7
__arm_cp.9_8:
	.long	AIP_WriteString
.Lcpi_end8:
	.size	__arm_cp.9_8, .Lcpi_end8-__arm_cp.9_8
__arm_cp.9_9:
	.long	AIP_WriteStringLen
.Lcpi_end9:
	.size	__arm_cp.9_9, .Lcpi_end9-__arm_cp.9_9
__arm_cp.9_10:
	.long	AIP_Spoint
.Lcpi_end10:
	.size	__arm_cp.9_10, .Lcpi_end10-__arm_cp.9_10
__arm_cp.9_11:
	.long	AIP_writeNumber
.Lcpi_end11:
	.size	__arm_cp.9_11, .Lcpi_end11-__arm_cp.9_11
.Lfunc_end9:
	.size	newLCDObj, .Lfunc_end9-newLCDObj
	.cfi_endproc
	.cantunwind
	.fnend
                                        @ -- End function
	.section	.text.AIP_Init,"ax",%progbits
	.p2align	1                               @ -- Begin function AIP_Init
	.type	AIP_Init,%function
	.code	16                              @ @AIP_Init
	.thumb_func
AIP_Init:
.Lfunc_begin10:
	.loc	4 97 0 is_stmt 1                @ ../src/costumLcd.c:97:0
	.fnstart
	.cfi_startproc
@ %bb.0:
	.save	{r7, lr}
	push	{r7, lr}
	.cfi_def_cfa_offset 8
	.cfi_offset lr, -4
	.cfi_offset r7, -8
	.pad	#16
	sub	sp, #16
	.cfi_def_cfa_offset 24
	str	r0, [sp, #12]
.Ltmp24:
	.loc	4 99 3 prologue_end             @ ../src/costumLcd.c:99:3
	ldr	r0, [sp, #12]
	.loc	4 99 6 is_stmt 0                @ ../src/costumLcd.c:99:6
	ldr	r1, [r0, #52]
	movs	r0, #1
	.loc	4 99 3                          @ ../src/costumLcd.c:99:3
	str	r0, [sp, #4]                    @ 4-byte Spill
	blx	r1
	ldr	r0, [sp, #4]                    @ 4-byte Reload
	.loc	4 100 3 is_stmt 1               @ ../src/costumLcd.c:100:3
	ldr	r1, [sp, #12]
	.loc	4 100 6 is_stmt 0               @ ../src/costumLcd.c:100:6
	ldr	r1, [r1, #56]
	.loc	4 100 3                         @ ../src/costumLcd.c:100:3
	blx	r1
	.loc	4 101 25 is_stmt 1              @ ../src/costumLcd.c:101:25
	ldr	r1, [sp, #12]
	movs	r0, #226
	.loc	4 101 3 is_stmt 0               @ ../src/costumLcd.c:101:3
	bl	AIP_writeCommand
	.loc	4 102 25 is_stmt 1              @ ../src/costumLcd.c:102:25
	ldr	r1, [sp, #12]
	movs	r0, #47
	.loc	4 102 3 is_stmt 0               @ ../src/costumLcd.c:102:3
	bl	AIP_writeCommand
	.loc	4 103 25 is_stmt 1              @ ../src/costumLcd.c:103:25
	ldr	r1, [sp, #12]
	movs	r0, #160
	.loc	4 103 3 is_stmt 0               @ ../src/costumLcd.c:103:3
	bl	AIP_writeCommand
	.loc	4 104 25 is_stmt 1              @ ../src/costumLcd.c:104:25
	ldr	r1, [sp, #12]
	movs	r0, #192
	.loc	4 104 3 is_stmt 0               @ ../src/costumLcd.c:104:3
	bl	AIP_writeCommand
	.loc	4 105 25 is_stmt 1              @ ../src/costumLcd.c:105:25
	ldr	r1, [sp, #12]
	movs	r0, #164
	.loc	4 105 3 is_stmt 0               @ ../src/costumLcd.c:105:3
	str	r0, [sp, #8]                    @ 4-byte Spill
	bl	AIP_writeCommand
	.loc	4 106 25 is_stmt 1              @ ../src/costumLcd.c:106:25
	ldr	r1, [sp, #12]
	movs	r0, #159
	.loc	4 106 3 is_stmt 0               @ ../src/costumLcd.c:106:3
	bl	AIP_writeCommand
	.loc	4 107 25 is_stmt 1              @ ../src/costumLcd.c:107:25
	ldr	r1, [sp, #12]
	movs	r0, #166
	.loc	4 107 3 is_stmt 0               @ ../src/costumLcd.c:107:3
	bl	AIP_writeCommand
	.loc	4 108 25 is_stmt 1              @ ../src/costumLcd.c:108:25
	ldr	r1, [sp, #12]
	movs	r0, #176
	.loc	4 108 3 is_stmt 0               @ ../src/costumLcd.c:108:3
	bl	AIP_writeCommand
	.loc	4 109 25 is_stmt 1              @ ../src/costumLcd.c:109:25
	ldr	r1, [sp, #12]
	movs	r0, #241
	.loc	4 109 3 is_stmt 0               @ ../src/costumLcd.c:109:3
	bl	AIP_writeCommand
	.loc	4 110 25 is_stmt 1              @ ../src/costumLcd.c:110:25
	ldr	r1, [sp, #12]
	movs	r0, #91
	.loc	4 110 3 is_stmt 0               @ ../src/costumLcd.c:110:3
	bl	AIP_writeCommand
	.loc	4 111 25 is_stmt 1              @ ../src/costumLcd.c:111:25
	ldr	r1, [sp, #12]
	movs	r0, #112
	.loc	4 111 3 is_stmt 0               @ ../src/costumLcd.c:111:3
	bl	AIP_writeCommand
	.loc	4 112 25 is_stmt 1              @ ../src/costumLcd.c:112:25
	ldr	r1, [sp, #12]
	movs	r0, #96
	.loc	4 112 3 is_stmt 0               @ ../src/costumLcd.c:112:3
	bl	AIP_writeCommand
	ldr	r0, [sp, #8]                    @ 4-byte Reload
	.loc	4 113 25 is_stmt 1              @ ../src/costumLcd.c:113:25
	ldr	r1, [sp, #12]
	.loc	4 113 3 is_stmt 0               @ ../src/costumLcd.c:113:3
	bl	AIP_writeCommand
	.loc	4 114 25 is_stmt 1              @ ../src/costumLcd.c:114:25
	ldr	r1, [sp, #12]
	movs	r0, #240
	.loc	4 114 3 is_stmt 0               @ ../src/costumLcd.c:114:3
	bl	AIP_writeCommand
	.loc	4 115 25 is_stmt 1              @ ../src/costumLcd.c:115:25
	ldr	r1, [sp, #12]
	movs	r0, #175
	.loc	4 115 3 is_stmt 0               @ ../src/costumLcd.c:115:3
	bl	AIP_writeCommand
	.loc	4 116 26 is_stmt 1              @ ../src/costumLcd.c:116:26
	ldr	r1, [sp, #12]
	movs	r0, #0
	.loc	4 116 4 is_stmt 0               @ ../src/costumLcd.c:116:4
	bl	AIP_writeCommand
	.loc	4 117 27 is_stmt 1              @ ../src/costumLcd.c:117:27
	ldr	r1, [sp, #12]
	movs	r0, #16
	.loc	4 117 5 is_stmt 0               @ ../src/costumLcd.c:117:5
	bl	AIP_writeCommand
	.loc	4 130 1 is_stmt 1               @ ../src/costumLcd.c:130:1
	add	sp, #16
	pop	{r7, pc}
.Ltmp25:
.Lfunc_end10:
	.size	AIP_Init, .Lfunc_end10-AIP_Init
	.cfi_endproc
	.cantunwind
	.fnend
                                        @ -- End function
	.section	.text.AIP_writeData,"ax",%progbits
	.p2align	1                               @ -- Begin function AIP_writeData
	.type	AIP_writeData,%function
	.code	16                              @ @AIP_writeData
	.thumb_func
AIP_writeData:
.Lfunc_begin11:
	.loc	4 134 0                         @ ../src/costumLcd.c:134:0
	.fnstart
	.cfi_startproc
@ %bb.0:
	.save	{r7, lr}
	push	{r7, lr}
	.cfi_def_cfa_offset 8
	.cfi_offset lr, -4
	.cfi_offset r7, -8
	.pad	#24
	sub	sp, #24
	.cfi_def_cfa_offset 32
                                        @ kill: def $r3 killed $r1
	str	r0, [sp, #20]
	add	r0, sp, #16
	strb	r1, [r0]
	str	r2, [sp, #12]
.Ltmp26:
	.loc	4 135 2 prologue_end            @ ../src/costumLcd.c:135:2
	ldr	r0, [sp, #12]
	.loc	4 135 5 is_stmt 0               @ ../src/costumLcd.c:135:5
	ldr	r1, [r0, #56]
	movs	r0, #1
	.loc	4 135 2                         @ ../src/costumLcd.c:135:2
	blx	r1
	.loc	4 136 2 is_stmt 1               @ ../src/costumLcd.c:136:2
	ldr	r0, [sp, #12]
	.loc	4 136 5 is_stmt 0               @ ../src/costumLcd.c:136:5
	ldr	r1, [r0, #48]
	movs	r0, #0
	.loc	4 136 2                         @ ../src/costumLcd.c:136:2
	str	r0, [sp, #4]                    @ 4-byte Spill
	blx	r1
	ldr	r0, [sp, #4]                    @ 4-byte Reload
.Ltmp27:
	.loc	4 137 10 is_stmt 1              @ ../src/costumLcd.c:137:10
	str	r0, [sp, #8]
	.loc	4 137 6 is_stmt 0               @ ../src/costumLcd.c:137:6
	b	.LBB11_1
.LBB11_1:                               @ =>This Inner Loop Header: Depth=1
.Ltmp28:
	.loc	4 137 14                        @ ../src/costumLcd.c:137:14
	ldr	r0, [sp, #8]
	add	r1, sp, #16
	.loc	4 137 16                        @ ../src/costumLcd.c:137:16
	ldrb	r1, [r1]
.Ltmp29:
	.loc	4 137 2                         @ ../src/costumLcd.c:137:2
	cmp	r0, r1
	bge	.LBB11_4
	b	.LBB11_2
.LBB11_2:                               @   in Loop: Header=BB11_1 Depth=1
.Ltmp30:
	.loc	4 138 17 is_stmt 1              @ ../src/costumLcd.c:138:17
	ldr	r0, [sp, #20]
	.loc	4 138 22 is_stmt 0              @ ../src/costumLcd.c:138:22
	ldr	r1, [sp, #8]
	.loc	4 138 21                        @ ../src/costumLcd.c:138:21
	adds	r0, r0, r1
	.loc	4 138 3                         @ ../src/costumLcd.c:138:3
	bl	spi_transfer
	.loc	4 139 2 is_stmt 1               @ ../src/costumLcd.c:139:2
	b	.LBB11_3
.Ltmp31:
.LBB11_3:                               @   in Loop: Header=BB11_1 Depth=1
	.loc	4 137 21                        @ ../src/costumLcd.c:137:21
	ldr	r0, [sp, #8]
	adds	r0, r0, #1
	str	r0, [sp, #8]
	.loc	4 137 2 is_stmt 0               @ ../src/costumLcd.c:137:2
	b	.LBB11_1
.Ltmp32:
.LBB11_4:
	.loc	4 140 2 is_stmt 1               @ ../src/costumLcd.c:140:2
	ldr	r0, [sp, #12]
	.loc	4 140 5 is_stmt 0               @ ../src/costumLcd.c:140:5
	ldr	r1, [r0, #48]
	movs	r0, #1
	.loc	4 140 2                         @ ../src/costumLcd.c:140:2
	blx	r1
	.loc	4 142 1 is_stmt 1               @ ../src/costumLcd.c:142:1
	add	sp, #24
	pop	{r7, pc}
.Ltmp33:
.Lfunc_end11:
	.size	AIP_writeData, .Lfunc_end11-AIP_writeData
	.cfi_endproc
	.cantunwind
	.fnend
                                        @ -- End function
	.section	.text.AIP_writeCommand,"ax",%progbits
	.p2align	1                               @ -- Begin function AIP_writeCommand
	.type	AIP_writeCommand,%function
	.code	16                              @ @AIP_writeCommand
	.thumb_func
AIP_writeCommand:
.Lfunc_begin12:
	.loc	4 144 0                         @ ../src/costumLcd.c:144:0
	.fnstart
	.cfi_startproc
@ %bb.0:
	.save	{r7, lr}
	push	{r7, lr}
	.cfi_def_cfa_offset 8
	.cfi_offset lr, -4
	.cfi_offset r7, -8
	.pad	#16
	sub	sp, #16
	.cfi_def_cfa_offset 24
                                        @ kill: def $r2 killed $r0
	add	r2, sp, #12
	str	r2, [sp, #4]                    @ 4-byte Spill
	strb	r0, [r2]
	str	r1, [sp, #8]
.Ltmp34:
	.loc	4 145 2 prologue_end            @ ../src/costumLcd.c:145:2
	ldr	r0, [sp, #8]
	.loc	4 145 5 is_stmt 0               @ ../src/costumLcd.c:145:5
	ldr	r1, [r0, #56]
	movs	r0, #0
	.loc	4 145 2                         @ ../src/costumLcd.c:145:2
	str	r0, [sp]                        @ 4-byte Spill
	blx	r1
	ldr	r0, [sp]                        @ 4-byte Reload
	.loc	4 146 2 is_stmt 1               @ ../src/costumLcd.c:146:2
	ldr	r1, [sp, #8]
	.loc	4 146 5 is_stmt 0               @ ../src/costumLcd.c:146:5
	ldr	r1, [r1, #48]
	.loc	4 146 2                         @ ../src/costumLcd.c:146:2
	blx	r1
	ldr	r0, [sp, #4]                    @ 4-byte Reload
	.loc	4 147 2 is_stmt 1               @ ../src/costumLcd.c:147:2
	bl	spi_transfer
	.loc	4 148 2                         @ ../src/costumLcd.c:148:2
	ldr	r0, [sp, #8]
	.loc	4 148 5 is_stmt 0               @ ../src/costumLcd.c:148:5
	ldr	r1, [r0, #48]
	movs	r0, #1
	.loc	4 148 2                         @ ../src/costumLcd.c:148:2
	blx	r1
	.loc	4 149 1 is_stmt 1               @ ../src/costumLcd.c:149:1
	add	sp, #16
	pop	{r7, pc}
.Ltmp35:
.Lfunc_end12:
	.size	AIP_writeCommand, .Lfunc_end12-AIP_writeCommand
	.cfi_endproc
	.cantunwind
	.fnend
                                        @ -- End function
	.section	.text.AIP_ClearScreen,"ax",%progbits
	.p2align	1                               @ -- Begin function AIP_ClearScreen
	.type	AIP_ClearScreen,%function
	.code	16                              @ @AIP_ClearScreen
	.thumb_func
AIP_ClearScreen:
.Lfunc_begin13:
	.loc	4 152 0                         @ ../src/costumLcd.c:152:0
	.fnstart
	.cfi_startproc
@ %bb.0:
	.save	{r7, lr}
	push	{r7, lr}
	.cfi_def_cfa_offset 8
	.cfi_offset lr, -4
	.cfi_offset r7, -8
	.pad	#8
	sub	sp, #8
	.cfi_def_cfa_offset 16
	str	r0, [sp, #4]
.Ltmp36:
	.loc	4 153 9 prologue_end            @ ../src/costumLcd.c:153:9
	ldr	r0, [sp, #4]
	.loc	4 153 12 is_stmt 0              @ ../src/costumLcd.c:153:12
	ldr	r0, [r0, #60]
	movs	r1, #19
	.loc	4 153 2                         @ ../src/costumLcd.c:153:2
	bl	__aeabi_memclr
	.loc	4 154 21 is_stmt 1              @ ../src/costumLcd.c:154:21
	ldr	r2, [sp, #4]
	movs	r1, #0
	.loc	4 154 3 is_stmt 0               @ ../src/costumLcd.c:154:3
	mov	r0, r1
	bl	AIP_SetCursor
	.loc	4 155 1 is_stmt 1               @ ../src/costumLcd.c:155:1
	add	sp, #8
	pop	{r7, pc}
.Ltmp37:
.Lfunc_end13:
	.size	AIP_ClearScreen, .Lfunc_end13-AIP_ClearScreen
	.cfi_endproc
	.cantunwind
	.fnend
                                        @ -- End function
	.section	.text.AIP_UpdateScreen,"ax",%progbits
	.p2align	1                               @ -- Begin function AIP_UpdateScreen
	.type	AIP_UpdateScreen,%function
	.code	16                              @ @AIP_UpdateScreen
	.thumb_func
AIP_UpdateScreen:
.Lfunc_begin14:
	.loc	4 159 0                         @ ../src/costumLcd.c:159:0
	.fnstart
	.cfi_startproc
@ %bb.0:
	.save	{r7, lr}
	push	{r7, lr}
	.cfi_def_cfa_offset 8
	.cfi_offset lr, -4
	.cfi_offset r7, -8
	.pad	#32
	sub	sp, #32
	.cfi_def_cfa_offset 40
	str	r0, [sp, #28]
.Ltmp38:
	.loc	4 162 24 prologue_end           @ ../src/costumLcd.c:162:24
	ldr	r1, [sp, #28]
	movs	r0, #176
	.loc	4 162 2 is_stmt 0               @ ../src/costumLcd.c:162:2
	bl	AIP_writeCommand
	.loc	4 163 24 is_stmt 1              @ ../src/costumLcd.c:163:24
	ldr	r1, [sp, #28]
	movs	r0, #0
	.loc	4 163 2 is_stmt 0               @ ../src/costumLcd.c:163:2
	str	r0, [sp]                        @ 4-byte Spill
	bl	AIP_writeCommand
	.loc	4 164 24 is_stmt 1              @ ../src/costumLcd.c:164:24
	ldr	r1, [sp, #28]
	movs	r0, #16
	.loc	4 164 2 is_stmt 0               @ ../src/costumLcd.c:164:2
	bl	AIP_writeCommand
	.loc	4 165 16 is_stmt 1              @ ../src/costumLcd.c:165:16
	ldr	r2, [sp, #28]
	.loc	4 165 19 is_stmt 0              @ ../src/costumLcd.c:165:19
	ldr	r0, [r2, #60]
	movs	r1, #19
	.loc	4 165 2                         @ ../src/costumLcd.c:165:2
	bl	AIP_writeData
	ldr	r0, [sp]                        @ 4-byte Reload
	.loc	4 166 10 is_stmt 1              @ ../src/costumLcd.c:166:10
	str	r0, [sp, #24]
	str	r0, [sp, #20]
	str	r0, [sp, #16]
	str	r0, [sp, #12]
	str	r0, [sp, #8]
.Ltmp39:
	.loc	4 167 10                        @ ../src/costumLcd.c:167:10
	str	r0, [sp, #4]
	.loc	4 167 6 is_stmt 0               @ ../src/costumLcd.c:167:6
	b	.LBB14_1
.LBB14_1:                               @ =>This Inner Loop Header: Depth=1
.Ltmp40:
	.loc	4 167 15                        @ ../src/costumLcd.c:167:15
	ldr	r0, [sp, #4]
.Ltmp41:
	.loc	4 167 2                         @ ../src/costumLcd.c:167:2
	cmp	r0, #18
	bgt	.LBB14_4
	b	.LBB14_2
.LBB14_2:                               @   in Loop: Header=BB14_1 Depth=1
.Ltmp42:
	.loc	4 168 14 is_stmt 1              @ ../src/costumLcd.c:168:14
	ldr	r0, [sp, #28]
	.loc	4 168 17 is_stmt 0              @ ../src/costumLcd.c:168:17
	ldr	r0, [r0, #60]
	.loc	4 168 24                        @ ../src/costumLcd.c:168:24
	ldr	r2, [sp, #4]
	.loc	4 168 14                        @ ../src/costumLcd.c:168:14
	ldrb	r0, [r0, r2]
	add	r1, sp, #8
	.loc	4 168 12                        @ ../src/costumLcd.c:168:12
	strb	r0, [r1, r2]
	.loc	4 169 2 is_stmt 1               @ ../src/costumLcd.c:169:2
	b	.LBB14_3
.Ltmp43:
.LBB14_3:                               @   in Loop: Header=BB14_1 Depth=1
	.loc	4 167 21                        @ ../src/costumLcd.c:167:21
	ldr	r0, [sp, #4]
	adds	r0, r0, #1
	str	r0, [sp, #4]
	.loc	4 167 2 is_stmt 0               @ ../src/costumLcd.c:167:2
	b	.LBB14_1
.Ltmp44:
.LBB14_4:
	.loc	4 170 1 is_stmt 1               @ ../src/costumLcd.c:170:1
	add	sp, #32
	pop	{r7, pc}
.Ltmp45:
.Lfunc_end14:
	.size	AIP_UpdateScreen, .Lfunc_end14-AIP_UpdateScreen
	.cfi_endproc
	.cantunwind
	.fnend
                                        @ -- End function
	.section	.text.AIP_draw_pixel,"ax",%progbits
	.p2align	1                               @ -- Begin function AIP_draw_pixel
	.type	AIP_draw_pixel,%function
	.code	16                              @ @AIP_draw_pixel
	.thumb_func
AIP_draw_pixel:
.Lfunc_begin15:
	.loc	4 172 0                         @ ../src/costumLcd.c:172:0
	.fnstart
	.cfi_startproc
@ %bb.0:
	.save	{r4, lr}
	push	{r4, lr}
	.cfi_def_cfa_offset 8
	.cfi_offset lr, -4
	.cfi_offset r4, -8
	.pad	#16
	sub	sp, #16
	.cfi_def_cfa_offset 24
	mov	r4, r0
                                        @ kill: def $r0 killed $r2
                                        @ kill: def $r0 killed $r1
                                        @ kill: def $r0 killed $r4
	add	r0, sp, #12
	strb	r4, [r0]
	add	r4, sp, #8
	strb	r1, [r4]
	add	r1, sp, #4
	strb	r2, [r1]
	str	r3, [sp]
.Ltmp46:
	.loc	4 173 5 prologue_end            @ ../src/costumLcd.c:173:5
	ldrb	r0, [r0]
	.loc	4 173 14 is_stmt 0              @ ../src/costumLcd.c:173:14
	cmp	r0, #18
	bgt	.LBB15_2
	b	.LBB15_1
.LBB15_1:
	.loc	4 0 14                          @ ../src/costumLcd.c:0:14
	add	r0, sp, #8
	.loc	4 173 17                        @ ../src/costumLcd.c:173:17
	ldrb	r0, [r0]
.Ltmp47:
	.loc	4 173 5                         @ ../src/costumLcd.c:173:5
	cmp	r0, #4
	blt	.LBB15_3
	b	.LBB15_2
.LBB15_2:
.Ltmp48:
	.loc	4 174 3 is_stmt 1               @ ../src/costumLcd.c:174:3
	b	.LBB15_6
.Ltmp49:
.LBB15_3:
	.loc	4 0 3 is_stmt 0                 @ ../src/costumLcd.c:0:3
	add	r0, sp, #4
.Ltmp50:
	.loc	4 176 8 is_stmt 1               @ ../src/costumLcd.c:176:8
	ldrb	r0, [r0]
.Ltmp51:
	.loc	4 176 8 is_stmt 0               @ ../src/costumLcd.c:176:8
	cmp	r0, #1
	bne	.LBB15_5
	b	.LBB15_4
.LBB15_4:
	.loc	4 0 8                           @ ../src/costumLcd.c:0:8
	add	r0, sp, #8
.Ltmp52:
	.loc	4 177 29 is_stmt 1              @ ../src/costumLcd.c:177:29
	ldrb	r0, [r0]
	movs	r1, #3
	.loc	4 177 30 is_stmt 0              @ ../src/costumLcd.c:177:30
	ands	r0, r1
	movs	r3, #1
	.loc	4 177 26                        @ ../src/costumLcd.c:177:26
	lsls	r3, r0
	.loc	4 177 9                         @ ../src/costumLcd.c:177:9
	ldr	r0, [sp]
	.loc	4 177 12                        @ ../src/costumLcd.c:177:12
	ldr	r1, [r0, #60]
	add	r0, sp, #12
	.loc	4 177 19                        @ ../src/costumLcd.c:177:19
	ldrb	r2, [r0]
	.loc	4 177 22                        @ ../src/costumLcd.c:177:22
	ldrb	r0, [r1, r2]
	orrs	r0, r3
	strb	r0, [r1, r2]
	.loc	4 178 5 is_stmt 1               @ ../src/costumLcd.c:178:5
	b	.LBB15_6
.Ltmp53:
.LBB15_5:
	.loc	4 0 5 is_stmt 0                 @ ../src/costumLcd.c:0:5
	add	r0, sp, #8
.Ltmp54:
	.loc	4 179 32 is_stmt 1              @ ../src/costumLcd.c:179:32
	ldrb	r0, [r0]
	movs	r1, #3
	.loc	4 179 33 is_stmt 0              @ ../src/costumLcd.c:179:33
	ands	r0, r1
	movs	r3, #1
	.loc	4 179 29                        @ ../src/costumLcd.c:179:29
	lsls	r3, r0
	.loc	4 179 10                        @ ../src/costumLcd.c:179:10
	ldr	r0, [sp]
	.loc	4 179 13                        @ ../src/costumLcd.c:179:13
	ldr	r1, [r0, #60]
	add	r0, sp, #12
	.loc	4 179 20                        @ ../src/costumLcd.c:179:20
	ldrb	r2, [r0]
	.loc	4 179 23                        @ ../src/costumLcd.c:179:23
	ldrb	r0, [r1, r2]
	bics	r0, r3
	strb	r0, [r1, r2]
	b	.LBB15_6
.Ltmp55:
.LBB15_6:
	.loc	4 181 1 is_stmt 1               @ ../src/costumLcd.c:181:1
	add	sp, #16
	pop	{r4, pc}
.Ltmp56:
.Lfunc_end15:
	.size	AIP_draw_pixel, .Lfunc_end15-AIP_draw_pixel
	.cfi_endproc
	.cantunwind
	.fnend
                                        @ -- End function
	.section	.text.AIP_writeChar,"ax",%progbits
	.p2align	1                               @ -- Begin function AIP_writeChar
	.type	AIP_writeChar,%function
	.code	16                              @ @AIP_writeChar
	.thumb_func
AIP_writeChar:
.Lfunc_begin16:
	.loc	4 184 0                         @ ../src/costumLcd.c:184:0
	.fnstart
	.cfi_startproc
@ %bb.0:
	.save	{r7, lr}
	push	{r7, lr}
	.cfi_def_cfa_offset 8
	.cfi_offset lr, -4
	.cfi_offset r7, -8
	.pad	#32
	sub	sp, #32
	.cfi_def_cfa_offset 40
	str	r0, [sp, #24]
	str	r1, [sp, #20]
	str	r2, [sp, #16]
.Ltmp57:
	.loc	4 186 8 prologue_end            @ ../src/costumLcd.c:186:8
	ldr	r0, [sp, #24]
	.loc	4 186 7 is_stmt 0               @ ../src/costumLcd.c:186:7
	ldrb	r0, [r0]
	.loc	4 186 18                        @ ../src/costumLcd.c:186:18
	cmp	r0, #32
	blt	.LBB16_2
	b	.LBB16_1
.LBB16_1:
	.loc	4 186 22                        @ ../src/costumLcd.c:186:22
	ldr	r0, [sp, #24]
	.loc	4 186 21                        @ ../src/costumLcd.c:186:21
	ldrb	r0, [r0]
.Ltmp58:
	.loc	4 186 7                         @ ../src/costumLcd.c:186:7
	cmp	r0, #127
	blt	.LBB16_3
	b	.LBB16_2
.LBB16_2:
	.loc	4 0 7                           @ ../src/costumLcd.c:0:7
	add	r1, sp, #28
	movs	r0, #0
.Ltmp59:
	.loc	4 187 9 is_stmt 1               @ ../src/costumLcd.c:187:9
	strb	r0, [r1]
	b	.LBB16_17
.Ltmp60:
.LBB16_3:
	.loc	4 189 10                        @ ../src/costumLcd.c:189:10
	ldr	r0, [sp, #16]
	movs	r1, #64
	.loc	4 189 28 is_stmt 0              @ ../src/costumLcd.c:189:28
	ldrb	r0, [r0, r1]
	.loc	4 189 36                        @ ../src/costumLcd.c:189:36
	ldr	r1, [sp, #20]
	.loc	4 189 42                        @ ../src/costumLcd.c:189:42
	ldrb	r1, [r1]
	.loc	4 189 34                        @ ../src/costumLcd.c:189:34
	adds	r0, r0, r1
.Ltmp61:
	.loc	4 189 9                         @ ../src/costumLcd.c:189:9
	cmp	r0, #20
	blt	.LBB16_5
	b	.LBB16_4
.LBB16_4:
	.loc	4 0 9                           @ ../src/costumLcd.c:0:9
	add	r1, sp, #28
	movs	r0, #0
.Ltmp62:
	.loc	4 191 9 is_stmt 1               @ ../src/costumLcd.c:191:9
	strb	r0, [r1]
	b	.LBB16_17
.Ltmp63:
.LBB16_5:
	.loc	4 0 9 is_stmt 0                 @ ../src/costumLcd.c:0:9
	add	r1, sp, #8
	movs	r0, #0
.Ltmp64:
	.loc	4 194 14 is_stmt 1              @ ../src/costumLcd.c:194:14
	strb	r0, [r1]
	.loc	4 194 6 is_stmt 0               @ ../src/costumLcd.c:194:6
	b	.LBB16_6
.LBB16_6:                               @ =>This Loop Header: Depth=1
                                        @     Child Loop BB16_8 Depth 2
	.loc	4 0 6                           @ ../src/costumLcd.c:0:6
	add	r0, sp, #8
.Ltmp65:
	.loc	4 194 21                        @ ../src/costumLcd.c:194:21
	ldrb	r0, [r0]
	.loc	4 194 25                        @ ../src/costumLcd.c:194:25
	ldr	r1, [sp, #20]
	.loc	4 194 31                        @ ../src/costumLcd.c:194:31
	ldrb	r1, [r1]
.Ltmp66:
	.loc	4 194 2                         @ ../src/costumLcd.c:194:2
	cmp	r0, r1
	bge	.LBB16_16
	b	.LBB16_7
.LBB16_7:                               @   in Loop: Header=BB16_6 Depth=1
.Ltmp67:
	.loc	4 195 8 is_stmt 1               @ ../src/costumLcd.c:195:8
	ldr	r1, [sp, #20]
	.loc	4 195 14 is_stmt 0              @ ../src/costumLcd.c:195:14
	ldr	r0, [r1, #4]
	.loc	4 195 21                        @ ../src/costumLcd.c:195:21
	ldr	r2, [sp, #24]
	.loc	4 195 20                        @ ../src/costumLcd.c:195:20
	ldrb	r2, [r2]
	.loc	4 195 26                        @ ../src/costumLcd.c:195:26
	subs	r2, #32
	.loc	4 195 40                        @ ../src/costumLcd.c:195:40
	ldrb	r1, [r1]
	.loc	4 195 32                        @ ../src/costumLcd.c:195:32
	muls	r1, r2, r1
	add	r2, sp, #8
	.loc	4 195 52                        @ ../src/costumLcd.c:195:52
	ldrb	r2, [r2]
	.loc	4 195 50                        @ ../src/costumLcd.c:195:50
	adds	r1, r1, r2
	.loc	4 195 8                         @ ../src/costumLcd.c:195:8
	lsls	r1, r1, #1
	ldrb	r0, [r0, r1]
	add	r1, sp, #12
	.loc	4 195 5                         @ ../src/costumLcd.c:195:5
	strb	r0, [r1]
.Ltmp68:
	.loc	4 196 19 is_stmt 1              @ ../src/costumLcd.c:196:19
	ldr	r0, [sp, #20]
	.loc	4 196 25 is_stmt 0              @ ../src/costumLcd.c:196:25
	ldrb	r0, [r0, #1]
	add	r1, sp, #4
	.loc	4 196 15                        @ ../src/costumLcd.c:196:15
	strb	r0, [r1]
	.loc	4 196 7                         @ ../src/costumLcd.c:196:7
	b	.LBB16_8
.LBB16_8:                               @   Parent Loop BB16_6 Depth=1
                                        @ =>  This Inner Loop Header: Depth=2
	.loc	4 0 7                           @ ../src/costumLcd.c:0:7
	add	r0, sp, #4
.Ltmp69:
	.loc	4 196 37                        @ ../src/costumLcd.c:196:37
	ldrb	r0, [r0]
.Ltmp70:
	.loc	4 196 3                         @ ../src/costumLcd.c:196:3
	cmp	r0, #1
	blt	.LBB16_14
	b	.LBB16_9
.LBB16_9:                               @   in Loop: Header=BB16_8 Depth=2
	.loc	4 0 3                           @ ../src/costumLcd.c:0:3
	add	r0, sp, #12
.Ltmp71:
	.loc	4 197 9 is_stmt 1               @ ../src/costumLcd.c:197:9
	ldrb	r0, [r0]
	add	r1, sp, #4
	.loc	4 197 13 is_stmt 0              @ ../src/costumLcd.c:197:13
	ldrb	r1, [r1]
	.loc	4 197 14                        @ ../src/costumLcd.c:197:14
	adds	r1, r1, #1
	.loc	4 197 10                        @ ../src/costumLcd.c:197:10
	lsls	r0, r1
.Ltmp72:
	.loc	4 197 7                         @ ../src/costumLcd.c:197:7
	lsls	r0, r0, #27
	cmp	r0, #0
	bpl	.LBB16_11
	b	.LBB16_10
.LBB16_10:                              @   in Loop: Header=BB16_8 Depth=2
.Ltmp73:
	.loc	4 198 21 is_stmt 1              @ ../src/costumLcd.c:198:21
	ldr	r3, [sp, #16]
	movs	r0, #64
	ldrb	r0, [r3, r0]
	.loc	4 198 45 is_stmt 0              @ ../src/costumLcd.c:198:45
	ldr	r1, [sp, #8]
	.loc	4 198 44                        @ ../src/costumLcd.c:198:44
	adds	r0, r0, r1
	.loc	4 198 48                        @ ../src/costumLcd.c:198:48
	ldr	r1, [sp, #20]
	ldrb	r1, [r1, #1]
	.loc	4 198 65                        @ ../src/costumLcd.c:198:65
	ldr	r2, [sp, #4]
	.loc	4 198 64                        @ ../src/costumLcd.c:198:64
	subs	r1, r1, r2
	.loc	4 198 5                         @ ../src/costumLcd.c:198:5
	uxtb	r0, r0
	uxtb	r1, r1
	movs	r2, #1
	bl	AIP_draw_pixel
	.loc	4 199 4 is_stmt 1               @ ../src/costumLcd.c:199:4
	b	.LBB16_12
.Ltmp74:
.LBB16_11:                              @   in Loop: Header=BB16_8 Depth=2
	.loc	4 201 21                        @ ../src/costumLcd.c:201:21
	ldr	r3, [sp, #16]
	movs	r0, #64
	ldrb	r0, [r3, r0]
	.loc	4 201 45 is_stmt 0              @ ../src/costumLcd.c:201:45
	ldr	r1, [sp, #8]
	.loc	4 201 44                        @ ../src/costumLcd.c:201:44
	adds	r0, r0, r1
	.loc	4 201 48                        @ ../src/costumLcd.c:201:48
	ldr	r1, [sp, #20]
	ldrb	r1, [r1, #1]
	.loc	4 201 65                        @ ../src/costumLcd.c:201:65
	ldr	r2, [sp, #4]
	.loc	4 201 64                        @ ../src/costumLcd.c:201:64
	subs	r1, r1, r2
	.loc	4 201 5                         @ ../src/costumLcd.c:201:5
	uxtb	r0, r0
	uxtb	r1, r1
	movs	r2, #0
	bl	AIP_draw_pixel
	b	.LBB16_12
.Ltmp75:
.LBB16_12:                              @   in Loop: Header=BB16_8 Depth=2
	.loc	4 203 3 is_stmt 1               @ ../src/costumLcd.c:203:3
	b	.LBB16_13
.Ltmp76:
.LBB16_13:                              @   in Loop: Header=BB16_8 Depth=2
	.loc	4 196 43                        @ ../src/costumLcd.c:196:43
	ldr	r0, [sp, #4]
	subs	r0, r0, #1
	add	r1, sp, #4
	strb	r0, [r1]
	.loc	4 196 3 is_stmt 0               @ ../src/costumLcd.c:196:3
	b	.LBB16_8
.Ltmp77:
.LBB16_14:                              @   in Loop: Header=BB16_6 Depth=1
	.loc	4 204 2 is_stmt 1               @ ../src/costumLcd.c:204:2
	b	.LBB16_15
.Ltmp78:
.LBB16_15:                              @   in Loop: Header=BB16_6 Depth=1
	.loc	4 194 43                        @ ../src/costumLcd.c:194:43
	ldr	r0, [sp, #8]
	adds	r0, r0, #1
	add	r1, sp, #8
	strb	r0, [r1]
	.loc	4 194 2 is_stmt 0               @ ../src/costumLcd.c:194:2
	b	.LBB16_6
.Ltmp79:
.LBB16_16:
	.loc	4 205 28 is_stmt 1              @ ../src/costumLcd.c:205:28
	ldr	r0, [sp, #20]
	ldrb	r3, [r0]
	.loc	4 205 3 is_stmt 0               @ ../src/costumLcd.c:205:3
	ldr	r1, [sp, #16]
	movs	r2, #64
	.loc	4 205 26                        @ ../src/costumLcd.c:205:26
	ldrb	r0, [r1, r2]
	adds	r0, r0, r3
	strb	r0, [r1, r2]
	add	r1, sp, #28
	movs	r0, #1
	.loc	4 206 2 is_stmt 1               @ ../src/costumLcd.c:206:2
	strb	r0, [r1]
	b	.LBB16_17
.LBB16_17:
	.loc	4 0 2 is_stmt 0                 @ ../src/costumLcd.c:0:2
	add	r0, sp, #28
	.loc	4 207 1 is_stmt 1               @ ../src/costumLcd.c:207:1
	ldrb	r0, [r0]
	add	sp, #32
	pop	{r7, pc}
.Ltmp80:
.Lfunc_end16:
	.size	AIP_writeChar, .Lfunc_end16-AIP_writeChar
	.cfi_endproc
	.cantunwind
	.fnend
                                        @ -- End function
	.section	.text.AIP_SetCursor,"ax",%progbits
	.p2align	1                               @ -- Begin function AIP_SetCursor
	.type	AIP_SetCursor,%function
	.code	16                              @ @AIP_SetCursor
	.thumb_func
AIP_SetCursor:
.Lfunc_begin17:
	.loc	4 210 0                         @ ../src/costumLcd.c:210:0
	.fnstart
	.cfi_startproc
@ %bb.0:
	.pad	#12
	sub	sp, #12
	.cfi_def_cfa_offset 12
                                        @ kill: def $r3 killed $r1
                                        @ kill: def $r3 killed $r0
	add	r3, sp, #8
	strb	r0, [r3]
	add	r0, sp, #4
	strb	r1, [r0]
	str	r2, [sp]
.Ltmp81:
	.loc	4 211 31 prologue_end           @ ../src/costumLcd.c:211:31
	ldr	r0, [sp, #8]
	.loc	4 211 5 is_stmt 0               @ ../src/costumLcd.c:211:5
	ldr	r1, [sp]
	movs	r2, #64
	.loc	4 211 29                        @ ../src/costumLcd.c:211:29
	strb	r0, [r1, r2]
	.loc	4 212 31 is_stmt 1              @ ../src/costumLcd.c:212:31
	ldr	r0, [sp, #4]
	.loc	4 212 5 is_stmt 0               @ ../src/costumLcd.c:212:5
	ldr	r1, [sp]
	movs	r2, #65
	.loc	4 212 29                        @ ../src/costumLcd.c:212:29
	strb	r0, [r1, r2]
	.loc	4 213 1 is_stmt 1               @ ../src/costumLcd.c:213:1
	add	sp, #12
	bx	lr
.Ltmp82:
.Lfunc_end17:
	.size	AIP_SetCursor, .Lfunc_end17-AIP_SetCursor
	.cfi_endproc
	.cantunwind
	.fnend
                                        @ -- End function
	.section	.text.AIP_WriteString,"ax",%progbits
	.p2align	1                               @ -- Begin function AIP_WriteString
	.type	AIP_WriteString,%function
	.code	16                              @ @AIP_WriteString
	.thumb_func
AIP_WriteString:
.Lfunc_begin18:
	.loc	4 215 0                         @ ../src/costumLcd.c:215:0
	.fnstart
	.cfi_startproc
@ %bb.0:
	.save	{r4, lr}
	push	{r4, lr}
	.cfi_def_cfa_offset 8
	.cfi_offset lr, -4
	.cfi_offset r4, -8
	.pad	#32
	sub	sp, #32
	.cfi_def_cfa_offset 40
	ldr	r4, [sp, #40]
                                        @ kill: def $r4 killed $r1
                                        @ kill: def $r4 killed $r0
	add	r4, sp, #28
	str	r4, [sp, #4]                    @ 4-byte Spill
	strb	r0, [r4]
	add	r0, sp, #24
	str	r0, [sp, #8]                    @ 4-byte Spill
	strb	r1, [r0]
	str	r2, [sp, #20]
	str	r3, [sp, #16]
	add	r1, sp, #12
	movs	r0, #0
.Ltmp83:
	.loc	4 216 10 prologue_end           @ ../src/costumLcd.c:216:10
	strb	r0, [r1]
	.loc	4 217 19                        @ ../src/costumLcd.c:217:19
	ldr	r0, [sp, #40]
	.loc	4 217 3 is_stmt 0               @ ../src/costumLcd.c:217:3
	bl	AIP_ClearScreen
	ldr	r0, [sp, #4]                    @ 4-byte Reload
	ldr	r1, [sp, #8]                    @ 4-byte Reload
	.loc	4 218 17 is_stmt 1              @ ../src/costumLcd.c:218:17
	ldrb	r0, [r0]
	.loc	4 218 19 is_stmt 0              @ ../src/costumLcd.c:218:19
	ldrb	r1, [r1]
	.loc	4 218 21                        @ ../src/costumLcd.c:218:21
	ldr	r2, [sp, #40]
	.loc	4 218 3                         @ ../src/costumLcd.c:218:3
	bl	AIP_SetCursor
	.loc	4 219 5 is_stmt 1               @ ../src/costumLcd.c:219:5
	b	.LBB18_1
.LBB18_1:                               @ =>This Inner Loop Header: Depth=1
	.loc	4 219 13 is_stmt 0              @ ../src/costumLcd.c:219:13
	ldr	r0, [sp, #20]
	.loc	4 219 12                        @ ../src/costumLcd.c:219:12
	ldrb	r0, [r0]
	.loc	4 219 5                         @ ../src/costumLcd.c:219:5
	cbz	r0, .LBB18_5
	b	.LBB18_2
.LBB18_2:                               @   in Loop: Header=BB18_1 Depth=1
.Ltmp84:
	.loc	4 220 11 is_stmt 1              @ ../src/costumLcd.c:220:11
	ldr	r0, [sp, #12]
	adds	r0, r0, #1
	add	r1, sp, #12
	strb	r0, [r1]
.Ltmp85:
	.loc	4 221 8                         @ ../src/costumLcd.c:221:8
	ldr	r0, [sp, #20]
	.loc	4 221 7 is_stmt 0               @ ../src/costumLcd.c:221:7
	ldrb	r0, [r0]
.Ltmp86:
	.loc	4 221 7                         @ ../src/costumLcd.c:221:7
	cmp	r0, #46
	bne	.LBB18_4
	b	.LBB18_3
.LBB18_3:                               @   in Loop: Header=BB18_1 Depth=1
.Ltmp87:
	.loc	4 222 17 is_stmt 1              @ ../src/costumLcd.c:222:17
	ldr	r0, [sp, #12]
	.loc	4 222 24 is_stmt 0              @ ../src/costumLcd.c:222:24
	lsls	r0, r0, #1
	.loc	4 222 27                        @ ../src/costumLcd.c:222:27
	adds	r0, r0, #1
	.loc	4 222 32                        @ ../src/costumLcd.c:222:32
	ldr	r2, [sp, #40]
	.loc	4 222 5                         @ ../src/costumLcd.c:222:5
	uxtb	r0, r0
	movs	r1, #1
	bl	AIP_Spoint
	.loc	4 223 12 is_stmt 1              @ ../src/costumLcd.c:223:12
	ldr	r0, [sp, #20]
	adds	r0, r0, #1
	str	r0, [sp, #20]
	.loc	4 224 5                         @ ../src/costumLcd.c:224:5
	b	.LBB18_1
.Ltmp88:
.LBB18_4:                               @   in Loop: Header=BB18_1 Depth=1
	.loc	4 226 19                        @ ../src/costumLcd.c:226:19
	ldr	r0, [sp, #20]
	.loc	4 226 24 is_stmt 0              @ ../src/costumLcd.c:226:24
	ldr	r1, [sp, #16]
	.loc	4 226 29                        @ ../src/costumLcd.c:226:29
	ldr	r2, [sp, #40]
	.loc	4 226 5                         @ ../src/costumLcd.c:226:5
	bl	AIP_writeChar
	.loc	4 227 12 is_stmt 1              @ ../src/costumLcd.c:227:12
	ldr	r0, [sp, #20]
	adds	r0, r0, #1
	str	r0, [sp, #20]
.Ltmp89:
	.loc	4 219 5                         @ ../src/costumLcd.c:219:5
	b	.LBB18_1
.LBB18_5:
	.loc	4 229 1                         @ ../src/costumLcd.c:229:1
	add	sp, #32
	pop	{r4, pc}
.Ltmp90:
.Lfunc_end18:
	.size	AIP_WriteString, .Lfunc_end18-AIP_WriteString
	.cfi_endproc
	.cantunwind
	.fnend
                                        @ -- End function
	.section	.text.AIP_WriteStringLen,"ax",%progbits
	.p2align	1                               @ -- Begin function AIP_WriteStringLen
	.type	AIP_WriteStringLen,%function
	.code	16                              @ @AIP_WriteStringLen
	.thumb_func
AIP_WriteStringLen:
.Lfunc_begin19:
	.loc	4 230 0                         @ ../src/costumLcd.c:230:0
	.fnstart
	.cfi_startproc
@ %bb.0:
	.save	{r4, r5, r7, lr}
	push	{r4, r5, r7, lr}
	.cfi_def_cfa_offset 16
	.cfi_offset lr, -4
	.cfi_offset r7, -8
	.cfi_offset r5, -12
	.cfi_offset r4, -16
	.pad	#40
	sub	sp, #40
	.cfi_def_cfa_offset 56
	mov	r4, r0
	ldr	r0, [sp, #60]
	ldr	r5, [sp, #56]
                                        @ kill: def $r5 killed $r1
                                        @ kill: def $r5 killed $r4
	add	r5, sp, #36
	str	r5, [sp]                        @ 4-byte Spill
	strb	r4, [r5]
	add	r4, sp, #32
	str	r4, [sp, #4]                    @ 4-byte Spill
	strb	r1, [r4]
	str	r2, [sp, #28]
	str	r3, [sp, #24]
	add	r1, sp, #20
	strb	r0, [r1]
	add	r1, sp, #16
	movs	r0, #0
.Ltmp91:
	.loc	4 231 10 prologue_end           @ ../src/costumLcd.c:231:10
	str	r0, [sp, #8]                    @ 4-byte Spill
	strb	r0, [r1]
	.loc	4 232 19                        @ ../src/costumLcd.c:232:19
	ldr	r0, [sp, #56]
	.loc	4 232 3 is_stmt 0               @ ../src/costumLcd.c:232:3
	bl	AIP_ClearScreen
	ldr	r0, [sp]                        @ 4-byte Reload
	ldr	r1, [sp, #4]                    @ 4-byte Reload
	.loc	4 233 17 is_stmt 1              @ ../src/costumLcd.c:233:17
	ldrb	r0, [r0]
	.loc	4 233 19 is_stmt 0              @ ../src/costumLcd.c:233:19
	ldrb	r1, [r1]
	.loc	4 233 21                        @ ../src/costumLcd.c:233:21
	ldr	r2, [sp, #56]
	.loc	4 233 3                         @ ../src/costumLcd.c:233:3
	bl	AIP_SetCursor
	ldr	r0, [sp, #8]                    @ 4-byte Reload
	add	r1, sp, #12
.Ltmp92:
	.loc	4 234 15 is_stmt 1              @ ../src/costumLcd.c:234:15
	strb	r0, [r1]
	.loc	4 234 7 is_stmt 0               @ ../src/costumLcd.c:234:7
	b	.LBB19_1
.LBB19_1:                               @ =>This Inner Loop Header: Depth=1
	.loc	4 0 7                           @ ../src/costumLcd.c:0:7
	add	r0, sp, #12
.Ltmp93:
	.loc	4 234 19                        @ ../src/costumLcd.c:234:19
	ldrb	r0, [r0]
	add	r1, sp, #20
	.loc	4 234 21                        @ ../src/costumLcd.c:234:21
	ldrb	r1, [r1]
.Ltmp94:
	.loc	4 234 3                         @ ../src/costumLcd.c:234:3
	cmp	r0, r1
	bge	.LBB19_6
	b	.LBB19_2
.LBB19_2:                               @   in Loop: Header=BB19_1 Depth=1
.Ltmp95:
	.loc	4 235 11 is_stmt 1              @ ../src/costumLcd.c:235:11
	ldr	r0, [sp, #16]
	adds	r0, r0, #1
	add	r1, sp, #16
	strb	r0, [r1]
.Ltmp96:
	.loc	4 236 7                         @ ../src/costumLcd.c:236:7
	ldr	r0, [sp, #28]
	add	r1, sp, #12
	.loc	4 236 11 is_stmt 0              @ ../src/costumLcd.c:236:11
	ldrb	r1, [r1]
	.loc	4 236 7                         @ ../src/costumLcd.c:236:7
	ldrb	r0, [r0, r1]
.Ltmp97:
	.loc	4 236 7                         @ ../src/costumLcd.c:236:7
	cmp	r0, #46
	bne	.LBB19_4
	b	.LBB19_3
.LBB19_3:                               @   in Loop: Header=BB19_1 Depth=1
.Ltmp98:
	.loc	4 237 17 is_stmt 1              @ ../src/costumLcd.c:237:17
	ldr	r0, [sp, #16]
	.loc	4 237 24 is_stmt 0              @ ../src/costumLcd.c:237:24
	lsls	r0, r0, #1
	.loc	4 237 27                        @ ../src/costumLcd.c:237:27
	adds	r0, r0, #1
	.loc	4 237 32                        @ ../src/costumLcd.c:237:32
	ldr	r2, [sp, #56]
	.loc	4 237 5                         @ ../src/costumLcd.c:237:5
	uxtb	r0, r0
	movs	r1, #1
	bl	AIP_Spoint
	.loc	4 238 5 is_stmt 1               @ ../src/costumLcd.c:238:5
	b	.LBB19_5
.Ltmp99:
.LBB19_4:                               @   in Loop: Header=BB19_1 Depth=1
	.loc	4 240 20                        @ ../src/costumLcd.c:240:20
	ldr	r0, [sp, #28]
	add	r1, sp, #12
	.loc	4 240 24 is_stmt 0              @ ../src/costumLcd.c:240:24
	ldrb	r1, [r1]
	.loc	4 240 20                        @ ../src/costumLcd.c:240:20
	adds	r0, r0, r1
	.loc	4 240 28                        @ ../src/costumLcd.c:240:28
	ldr	r1, [sp, #24]
	.loc	4 240 33                        @ ../src/costumLcd.c:240:33
	ldr	r2, [sp, #56]
	.loc	4 240 5                         @ ../src/costumLcd.c:240:5
	bl	AIP_writeChar
	.loc	4 241 3 is_stmt 1               @ ../src/costumLcd.c:241:3
	b	.LBB19_5
.Ltmp100:
.LBB19_5:                               @   in Loop: Header=BB19_1 Depth=1
	.loc	4 234 27                        @ ../src/costumLcd.c:234:27
	ldr	r0, [sp, #12]
	adds	r0, r0, #1
	add	r1, sp, #12
	strb	r0, [r1]
	.loc	4 234 3 is_stmt 0               @ ../src/costumLcd.c:234:3
	b	.LBB19_1
.Ltmp101:
.LBB19_6:
	.loc	4 242 1 is_stmt 1               @ ../src/costumLcd.c:242:1
	add	sp, #40
	pop	{r4, r5, r7, pc}
.Ltmp102:
.Lfunc_end19:
	.size	AIP_WriteStringLen, .Lfunc_end19-AIP_WriteStringLen
	.cfi_endproc
	.cantunwind
	.fnend
                                        @ -- End function
	.section	.text.AIP_Spoint,"ax",%progbits
	.p2align	2                               @ -- Begin function AIP_Spoint
	.type	AIP_Spoint,%function
	.code	16                              @ @AIP_Spoint
	.thumb_func
AIP_Spoint:
.Lfunc_begin20:
	.loc	4 244 0                         @ ../src/costumLcd.c:244:0
	.fnstart
	.cfi_startproc
@ %bb.0:
	.save	{r7, lr}
	push	{r7, lr}
	.cfi_def_cfa_offset 8
	.cfi_offset lr, -4
	.cfi_offset r7, -8
	.pad	#16
	sub	sp, #16
	.cfi_def_cfa_offset 24
	mov	r3, r0
                                        @ kill: def $r0 killed $r1
                                        @ kill: def $r0 killed $r3
	add	r0, sp, #12
	strb	r3, [r0]
	add	r3, sp, #8
	strb	r1, [r3]
	str	r2, [sp, #4]
.Ltmp103:
	.loc	4 245 9 prologue_end            @ ../src/costumLcd.c:245:9
	ldrb	r0, [r0]
	.loc	4 245 2 is_stmt 0               @ ../src/costumLcd.c:245:2
	subs	r0, r0, #1
	str	r0, [sp]                        @ 4-byte Spill
	cmp	r0, #16
	bls	.LBB20_1
	b	.LBB20_20
.LBB20_1:
	.loc	4 0 2                           @ ../src/costumLcd.c:0:2
	ldr	r1, [sp]                        @ 4-byte Reload
	lsls	r2, r1, #2
	adr	r0, .LJTI20_0
	adds	r0, r0, r2
	mov	pc, r0
@ %bb.2:
	.p2align	2
.LJTI20_0:
	b.w	.LBB20_3
	b.w	.LBB20_4
	b.w	.LBB20_5
	b.w	.LBB20_6
	b.w	.LBB20_7
	b.w	.LBB20_8
	b.w	.LBB20_9
	b.w	.LBB20_10
	b.w	.LBB20_11
	b.w	.LBB20_12
	b.w	.LBB20_13
	b.w	.LBB20_14
	b.w	.LBB20_15
	b.w	.LBB20_16
	b.w	.LBB20_17
	b.w	.LBB20_18
	b.w	.LBB20_19
.LBB20_3:
	add	r0, sp, #8
.Ltmp104:
	.loc	4 247 23 is_stmt 1              @ ../src/costumLcd.c:247:23
	ldrb	r2, [r0]
	.loc	4 247 28 is_stmt 0              @ ../src/costumLcd.c:247:28
	ldr	r3, [sp, #4]
	movs	r0, #2
	movs	r1, #3
	.loc	4 247 4                         @ ../src/costumLcd.c:247:4
	bl	AIP_draw_pixel
	.loc	4 248 4 is_stmt 1               @ ../src/costumLcd.c:248:4
	b	.LBB20_20
.LBB20_4:
	.loc	4 0 4 is_stmt 0                 @ ../src/costumLcd.c:0:4
	add	r0, sp, #8
	.loc	4 250 24 is_stmt 1              @ ../src/costumLcd.c:250:24
	ldrb	r2, [r0]
	.loc	4 250 29 is_stmt 0              @ ../src/costumLcd.c:250:29
	ldr	r3, [sp, #4]
	movs	r0, #1
	movs	r1, #3
	.loc	4 250 4                         @ ../src/costumLcd.c:250:4
	bl	AIP_draw_pixel
	.loc	4 251 4 is_stmt 1               @ ../src/costumLcd.c:251:4
	b	.LBB20_20
.LBB20_5:
	.loc	4 0 4 is_stmt 0                 @ ../src/costumLcd.c:0:4
	add	r0, sp, #8
	.loc	4 253 24 is_stmt 1              @ ../src/costumLcd.c:253:24
	ldrb	r2, [r0]
	.loc	4 253 29 is_stmt 0              @ ../src/costumLcd.c:253:29
	ldr	r3, [sp, #4]
	movs	r0, #0
	movs	r1, #3
	.loc	4 253 4                         @ ../src/costumLcd.c:253:4
	bl	AIP_draw_pixel
	.loc	4 254 4 is_stmt 1               @ ../src/costumLcd.c:254:4
	b	.LBB20_20
.LBB20_6:
	.loc	4 0 4 is_stmt 0                 @ ../src/costumLcd.c:0:4
	add	r0, sp, #8
	.loc	4 256 24 is_stmt 1              @ ../src/costumLcd.c:256:24
	ldrb	r2, [r0]
	.loc	4 256 29 is_stmt 0              @ ../src/costumLcd.c:256:29
	ldr	r3, [sp, #4]
	movs	r1, #0
	.loc	4 256 4                         @ ../src/costumLcd.c:256:4
	mov	r0, r1
	bl	AIP_draw_pixel
	.loc	4 257 4 is_stmt 1               @ ../src/costumLcd.c:257:4
	b	.LBB20_20
.LBB20_7:
	.loc	4 0 4 is_stmt 0                 @ ../src/costumLcd.c:0:4
	add	r0, sp, #8
	.loc	4 259 24 is_stmt 1              @ ../src/costumLcd.c:259:24
	ldrb	r2, [r0]
	.loc	4 259 29 is_stmt 0              @ ../src/costumLcd.c:259:29
	ldr	r3, [sp, #4]
	movs	r0, #2
	movs	r1, #0
	.loc	4 259 4                         @ ../src/costumLcd.c:259:4
	bl	AIP_draw_pixel
	.loc	4 260 4 is_stmt 1               @ ../src/costumLcd.c:260:4
	b	.LBB20_20
.LBB20_8:
	.loc	4 0 4 is_stmt 0                 @ ../src/costumLcd.c:0:4
	add	r0, sp, #8
	.loc	4 262 24 is_stmt 1              @ ../src/costumLcd.c:262:24
	ldrb	r2, [r0]
	.loc	4 262 29 is_stmt 0              @ ../src/costumLcd.c:262:29
	ldr	r3, [sp, #4]
	movs	r0, #3
	movs	r1, #0
	.loc	4 262 4                         @ ../src/costumLcd.c:262:4
	bl	AIP_draw_pixel
	.loc	4 263 4 is_stmt 1               @ ../src/costumLcd.c:263:4
	b	.LBB20_20
.LBB20_9:
	.loc	4 0 4 is_stmt 0                 @ ../src/costumLcd.c:0:4
	add	r0, sp, #8
	.loc	4 265 24 is_stmt 1              @ ../src/costumLcd.c:265:24
	ldrb	r2, [r0]
	.loc	4 265 29 is_stmt 0              @ ../src/costumLcd.c:265:29
	ldr	r3, [sp, #4]
	movs	r0, #5
	movs	r1, #0
	.loc	4 265 4                         @ ../src/costumLcd.c:265:4
	bl	AIP_draw_pixel
	.loc	4 266 4 is_stmt 1               @ ../src/costumLcd.c:266:4
	b	.LBB20_20
.LBB20_10:
	.loc	4 0 4 is_stmt 0                 @ ../src/costumLcd.c:0:4
	add	r0, sp, #8
	.loc	4 268 24 is_stmt 1              @ ../src/costumLcd.c:268:24
	ldrb	r2, [r0]
	.loc	4 268 29 is_stmt 0              @ ../src/costumLcd.c:268:29
	ldr	r3, [sp, #4]
	movs	r0, #6
	movs	r1, #0
	.loc	4 268 4                         @ ../src/costumLcd.c:268:4
	bl	AIP_draw_pixel
	.loc	4 269 4 is_stmt 1               @ ../src/costumLcd.c:269:4
	b	.LBB20_20
.LBB20_11:
	.loc	4 0 4 is_stmt 0                 @ ../src/costumLcd.c:0:4
	add	r0, sp, #8
	.loc	4 271 24 is_stmt 1              @ ../src/costumLcd.c:271:24
	ldrb	r2, [r0]
	.loc	4 271 29 is_stmt 0              @ ../src/costumLcd.c:271:29
	ldr	r3, [sp, #4]
	movs	r0, #8
	movs	r1, #0
	.loc	4 271 4                         @ ../src/costumLcd.c:271:4
	bl	AIP_draw_pixel
	.loc	4 272 4 is_stmt 1               @ ../src/costumLcd.c:272:4
	b	.LBB20_20
.LBB20_12:
	.loc	4 0 4 is_stmt 0                 @ ../src/costumLcd.c:0:4
	add	r0, sp, #8
	.loc	4 274 24 is_stmt 1              @ ../src/costumLcd.c:274:24
	ldrb	r2, [r0]
	.loc	4 274 29 is_stmt 0              @ ../src/costumLcd.c:274:29
	ldr	r3, [sp, #4]
	movs	r0, #9
	movs	r1, #0
	.loc	4 274 4                         @ ../src/costumLcd.c:274:4
	bl	AIP_draw_pixel
	.loc	4 275 4 is_stmt 1               @ ../src/costumLcd.c:275:4
	b	.LBB20_20
.LBB20_13:
	.loc	4 0 4 is_stmt 0                 @ ../src/costumLcd.c:0:4
	add	r0, sp, #8
	.loc	4 277 25 is_stmt 1              @ ../src/costumLcd.c:277:25
	ldrb	r2, [r0]
	.loc	4 277 30 is_stmt 0              @ ../src/costumLcd.c:277:30
	ldr	r3, [sp, #4]
	movs	r0, #11
	movs	r1, #0
	.loc	4 277 4                         @ ../src/costumLcd.c:277:4
	bl	AIP_draw_pixel
	.loc	4 278 4 is_stmt 1               @ ../src/costumLcd.c:278:4
	b	.LBB20_20
.LBB20_14:
	.loc	4 0 4 is_stmt 0                 @ ../src/costumLcd.c:0:4
	add	r0, sp, #8
	.loc	4 280 25 is_stmt 1              @ ../src/costumLcd.c:280:25
	ldrb	r2, [r0]
	.loc	4 280 30 is_stmt 0              @ ../src/costumLcd.c:280:30
	ldr	r3, [sp, #4]
	movs	r0, #12
	movs	r1, #0
	.loc	4 280 4                         @ ../src/costumLcd.c:280:4
	bl	AIP_draw_pixel
	.loc	4 281 4 is_stmt 1               @ ../src/costumLcd.c:281:4
	b	.LBB20_20
.LBB20_15:
	.loc	4 0 4 is_stmt 0                 @ ../src/costumLcd.c:0:4
	add	r0, sp, #8
	.loc	4 283 25 is_stmt 1              @ ../src/costumLcd.c:283:25
	ldrb	r2, [r0]
	.loc	4 283 30 is_stmt 0              @ ../src/costumLcd.c:283:30
	ldr	r3, [sp, #4]
	movs	r0, #14
	movs	r1, #0
	.loc	4 283 4                         @ ../src/costumLcd.c:283:4
	bl	AIP_draw_pixel
	.loc	4 284 4 is_stmt 1               @ ../src/costumLcd.c:284:4
	b	.LBB20_20
.LBB20_16:
	.loc	4 0 4 is_stmt 0                 @ ../src/costumLcd.c:0:4
	add	r0, sp, #8
	.loc	4 286 25 is_stmt 1              @ ../src/costumLcd.c:286:25
	ldrb	r2, [r0]
	.loc	4 286 30 is_stmt 0              @ ../src/costumLcd.c:286:30
	ldr	r3, [sp, #4]
	movs	r0, #15
	movs	r1, #0
	.loc	4 286 4                         @ ../src/costumLcd.c:286:4
	bl	AIP_draw_pixel
	.loc	4 287 4 is_stmt 1               @ ../src/costumLcd.c:287:4
	b	.LBB20_20
.LBB20_17:
	.loc	4 0 4 is_stmt 0                 @ ../src/costumLcd.c:0:4
	add	r0, sp, #8
	.loc	4 289 25 is_stmt 1              @ ../src/costumLcd.c:289:25
	ldrb	r2, [r0]
	.loc	4 289 30 is_stmt 0              @ ../src/costumLcd.c:289:30
	ldr	r3, [sp, #4]
	movs	r0, #17
	movs	r1, #0
	.loc	4 289 4                         @ ../src/costumLcd.c:289:4
	bl	AIP_draw_pixel
	.loc	4 290 4 is_stmt 1               @ ../src/costumLcd.c:290:4
	b	.LBB20_20
.LBB20_18:
	.loc	4 0 4 is_stmt 0                 @ ../src/costumLcd.c:0:4
	add	r0, sp, #8
	.loc	4 292 25 is_stmt 1              @ ../src/costumLcd.c:292:25
	ldrb	r2, [r0]
	.loc	4 292 30 is_stmt 0              @ ../src/costumLcd.c:292:30
	ldr	r3, [sp, #4]
	movs	r0, #18
	movs	r1, #0
	.loc	4 292 4                         @ ../src/costumLcd.c:292:4
	bl	AIP_draw_pixel
	.loc	4 293 4 is_stmt 1               @ ../src/costumLcd.c:293:4
	b	.LBB20_20
.LBB20_19:
	.loc	4 0 4 is_stmt 0                 @ ../src/costumLcd.c:0:4
	add	r0, sp, #8
	.loc	4 295 25 is_stmt 1              @ ../src/costumLcd.c:295:25
	ldrb	r2, [r0]
	.loc	4 295 30 is_stmt 0              @ ../src/costumLcd.c:295:30
	ldr	r3, [sp, #4]
	movs	r0, #18
	movs	r1, #1
	.loc	4 295 4                         @ ../src/costumLcd.c:295:4
	bl	AIP_draw_pixel
	.loc	4 296 4 is_stmt 1               @ ../src/costumLcd.c:296:4
	b	.LBB20_20
.Ltmp105:
.LBB20_20:
	.loc	4 299 1                         @ ../src/costumLcd.c:299:1
	add	sp, #16
	pop	{r7, pc}
.Ltmp106:
.Lfunc_end20:
	.size	AIP_Spoint, .Lfunc_end20-AIP_Spoint
	.cfi_endproc
	.cantunwind
	.fnend
                                        @ -- End function
	.section	.text.AIP_writeNumber,"ax",%progbits
	.p2align	1                               @ -- Begin function AIP_writeNumber
	.type	AIP_writeNumber,%function
	.code	16                              @ @AIP_writeNumber
	.thumb_func
AIP_writeNumber:
.Lfunc_begin21:
	.loc	4 302 0                         @ ../src/costumLcd.c:302:0
	.fnstart
	.cfi_startproc
@ %bb.0:
	.save	{r4, lr}
	push	{r4, lr}
	.cfi_def_cfa_offset 8
	.cfi_offset lr, -4
	.cfi_offset r4, -8
	.pad	#24
	sub	sp, #24
	.cfi_def_cfa_offset 32
                                        @ kill: def $r4 killed $r1
                                        @ kill: def $r4 killed $r0
	add	r4, sp, #20
	strb	r0, [r4]
	add	r0, sp, #16
	strb	r1, [r0]
	str	r2, [sp, #12]
	str	r3, [sp, #8]
.Ltmp107:
	.loc	4 303 29 prologue_end           @ ../src/costumLcd.c:303:29
	ldr	r1, [sp, #16]
	movs	r0, #3
	.loc	4 303 35 is_stmt 0              @ ../src/costumLcd.c:303:35
	muls	r0, r1, r0
	.loc	4 303 3                         @ ../src/costumLcd.c:303:3
	ldr	r1, [sp, #8]
	movs	r2, #64
	.loc	4 303 27                        @ ../src/costumLcd.c:303:27
	strb	r0, [r1, r2]
	.loc	4 304 4 is_stmt 1               @ ../src/costumLcd.c:304:4
	ldr	r1, [sp, #8]
	movs	r2, #65
	movs	r0, #0
	.loc	4 304 28 is_stmt 0              @ ../src/costumLcd.c:304:28
	strb	r0, [r1, r2]
	.loc	4 305 20 is_stmt 1              @ ../src/costumLcd.c:305:20
	ldr	r1, [sp, #20]
	.loc	4 305 28 is_stmt 0              @ ../src/costumLcd.c:305:28
	adds	r1, #48
	add	r0, sp, #4
	.loc	4 305 10                        @ ../src/costumLcd.c:305:10
	strb	r1, [r0]
	.loc	4 306 25 is_stmt 1              @ ../src/costumLcd.c:306:25
	ldr	r1, [sp, #12]
	.loc	4 306 30 is_stmt 0              @ ../src/costumLcd.c:306:30
	ldr	r2, [sp, #8]
	.loc	4 306 2                         @ ../src/costumLcd.c:306:2
	bl	AIP_writeChar
	.loc	4 307 1 is_stmt 1               @ ../src/costumLcd.c:307:1
	add	sp, #24
	pop	{r4, pc}
.Ltmp108:
.Lfunc_end21:
	.size	AIP_writeNumber, .Lfunc_end21-AIP_writeNumber
	.cfi_endproc
	.cantunwind
	.fnend
                                        @ -- End function
	.section	.text.spi_transfer,"ax",%progbits
	.p2align	2                               @ -- Begin function spi_transfer
	.type	spi_transfer,%function
	.code	16                              @ @spi_transfer
	.thumb_func
spi_transfer:
.Lfunc_begin22:
	.loc	4 86 0                          @ ../src/costumLcd.c:86:0
	.fnstart
	.cfi_startproc
@ %bb.0:
	.pad	#8
	sub	sp, #8
	.cfi_def_cfa_offset 8
	str	r0, [sp, #4]
.Ltmp109:
	.loc	4 88 3 prologue_end             @ ../src/costumLcd.c:88:3
	ldr	r0, [sp, #4]
	ldrb	r0, [r0]
	ldr	r1, __arm_cp.22_0
	str	r0, [r1]
	.loc	4 89 5                          @ ../src/costumLcd.c:89:5
	b	.LBB22_1
.LBB22_1:                               @ =>This Inner Loop Header: Depth=1
	.loc	4 0 5 is_stmt 0                 @ ../src/costumLcd.c:0:5
	ldr	r0, __arm_cp.22_1
	.loc	4 89 12                         @ ../src/costumLcd.c:89:12
	ldr	r0, [r0]
	.loc	4 89 5                          @ ../src/costumLcd.c:89:5
	lsls	r0, r0, #31
	cbz	r0, .LBB22_3
	b	.LBB22_2
.LBB22_2:                               @   in Loop: Header=BB22_1 Depth=1
	b	.LBB22_1
.LBB22_3:
	.loc	4 90 3 is_stmt 1                @ ../src/costumLcd.c:90:3
	b	.LBB22_4
.LBB22_4:                               @ =>This Inner Loop Header: Depth=1
	.loc	4 0 3 is_stmt 0                 @ ../src/costumLcd.c:0:3
	ldr	r0, __arm_cp.22_1
	.loc	4 90 10                         @ ../src/costumLcd.c:90:10
	ldr	r0, [r0]
	movw	r1, #256
	ands	r0, r1
	lsrs	r0, r0, #8
	.loc	4 90 3                          @ ../src/costumLcd.c:90:3
	cbnz	r0, .LBB22_6
	b	.LBB22_5
.LBB22_5:                               @   in Loop: Header=BB22_4 Depth=1
	.loc	4 0 3                           @ ../src/costumLcd.c:0:3
	ldr	r0, __arm_cp.22_2
.Ltmp110:
	.loc	4 91 11 is_stmt 1               @ ../src/costumLcd.c:91:11
	ldr	r0, [r0]
	mov	r1, sp
	.loc	4 91 9 is_stmt 0                @ ../src/costumLcd.c:91:9
	strb	r0, [r1]
.Ltmp111:
	.loc	4 90 3 is_stmt 1                @ ../src/costumLcd.c:90:3
	b	.LBB22_4
.LBB22_6:
	.loc	4 0 3 is_stmt 0                 @ ../src/costumLcd.c:0:3
	mov	r0, sp
	.loc	4 93 9 is_stmt 1                @ ../src/costumLcd.c:93:9
	ldrb	r0, [r0]
	.loc	4 93 2 is_stmt 0                @ ../src/costumLcd.c:93:2
	add	sp, #8
	bx	lr
.Ltmp112:
	.p2align	2
@ %bb.7:
	.loc	4 0 2                           @ ../src/costumLcd.c:0:2
__arm_cp.22_0:
	.long	1074139168                      @ 0x40061020
.Lcpi_end12:
	.size	__arm_cp.22_0, .Lcpi_end12-__arm_cp.22_0
__arm_cp.22_1:
	.long	1074139156                      @ 0x40061014
.Lcpi_end13:
	.size	__arm_cp.22_1, .Lcpi_end13-__arm_cp.22_1
__arm_cp.22_2:
	.long	1074139184                      @ 0x40061030
.Lcpi_end14:
	.size	__arm_cp.22_2, .Lcpi_end14-__arm_cp.22_2
.Lfunc_end22:
	.size	spi_transfer, .Lfunc_end22-spi_transfer
	.cfi_endproc
	.cantunwind
	.fnend
                                        @ -- End function
	.section	".note.GNU-stack","",%progbits
	.eabi_attribute	30, 6	@ Tag_ABI_optimization_goals
	.ARM_attribute	16, 1	@ Tag_AV_eba