	.text
	.syntax unified
	.eabi_attribute	67, "2.09"	@ Tag_conformance
	.cpu	cortex-m23
	.eabi_attribute	6, 16	@ Tag_CPU_arch
	.eabi_attribute	7, 77	@ Tag_CPU_arch_profile
	.eabi_attribute	8, 0	@ Tag_ARM_ISA_use
	.eabi_attribute	9, 3	@ Tag_THUMB_ISA_use
	.eabi_attribute	34, 0	@ Tag_CPU_unaligned_access
	.eabi_attribute	17, 1	@ Tag_ABI_PCS_GOT_use
	.eabi_attribute	20, 2	@ Tag_ABI_FP_denormal
	.eabi_attribute	21, 0	@ Tag_ABI_FP_exceptions
	.eabi_attribute	23, 1	@ Tag_ABI_FP_number_model
	.eabi_attribute	24, 1	@ Tag_ABI_align_needed
	.eabi_attribute	25, 1	@ Tag_ABI_align_preserved
	.eabi_attribute	38, 1	@ Tag_ABI_FP_16bit_format
	.eabi_attribute	18, 2	@ Tag_ABI_PCS_wchar_t
	.eabi_attribute	26, 1	@ Tag_ABI_enum_size
	.eabi_attribute	14, 0	@ Tag_ABI_PCS_R9_use
	.file	"eeproom.c"
	.file	1 "E:\\BERSY\\sdk\\SampleCode\\NuCodeGen\\Scale\\KEIL" "..\\Inc/menu.h"
	.file	2 "C:\\Keil_v5\\ARM\\ARMCLANG\\Bin\\..\\include" "stdint.h"
	.file	3 "E:\\BERSY\\sdk\\SampleCode\\NuCodeGen\\Scale\\KEIL" "../../../../Library/Device/Nuvoton/M251/Include/fmc_reg.h"
	.file	4 "E:\\BERSY\\sdk\\SampleCode\\NuCodeGen\\Scale\\KEIL" "../../../../Library/Device/Nuvoton/M251/Include/sys_reg.h"
	.section	.text.eeprom_write_array,"ax",%progbits
	.hidden	eeprom_write_array              @ -- Begin function eeprom_write_array
	.globl	eeprom_write_array
	.p2align	2
	.type	eeprom_write_array,%function
	.code	16                              @ @eeprom_write_array
	.thumb_func
eeprom_write_array:
.Lfunc_begin0:
	.file	5 "E:\\BERSY\\sdk\\SampleCode\\NuCodeGen\\Scale\\KEIL" "../src/eeproom.c"
	.loc	5 18 0                          @ ../src/eeproom.c:18:0
	.fnstart
	.cfi_sections .debug_frame
	.cfi_startproc
@ %bb.0:
	.save	{r7, lr}
	push	{r7, lr}
	.cfi_def_cfa_offset 8
	.cfi_offset lr, -4
	.cfi_offset r7, -8
	.pad	#32
	sub	sp, #32
	.cfi_def_cfa_offset 40
                                        @ kill: def $r3 killed $r2
	str	r0, [sp, #28]
	str	r1, [sp, #24]
	add	r0, sp, #20
	str	r0, [sp, #4]                    @ 4-byte Spill
	strb	r2, [r0]
	add	r1, sp, #16
	str	r1, [sp, #8]                    @ 4-byte Spill
	movs	r0, #0
.Ltmp0:
	.loc	5 19 13 prologue_end            @ ../src/eeproom.c:19:13
	str	r0, [sp, #12]                   @ 4-byte Spill
	strb	r0, [r1]
	.loc	5 21 3                          @ ../src/eeproom.c:21:3
	bl	SYS_UnlockReg
	.loc	5 22 3                          @ ../src/eeproom.c:22:3
	bl	FMC_Open
	ldr	r1, __arm_cp.0_0
	.loc	5 23 3                          @ ../src/eeproom.c:23:3
	ldr	r0, [r1]
	movs	r2, #8
	orrs	r0, r2
	str	r0, [r1]
	.loc	5 24 13                         @ ../src/eeproom.c:24:13
	ldr	r0, [sp, #28]
	.loc	5 24 3 is_stmt 0                @ ../src/eeproom.c:24:3
	bl	FMC_Erase
	ldr	r1, [sp, #4]                    @ 4-byte Reload
	.loc	5 25 14 is_stmt 1               @ ../src/eeproom.c:25:14
	ldr	r0, [sp, #28]
	.loc	5 25 23 is_stmt 0               @ ../src/eeproom.c:25:23
	ldrb	r1, [r1]
	.loc	5 25 4                          @ ../src/eeproom.c:25:4
	bl	FMC_Write
	ldr	r1, [sp, #8]                    @ 4-byte Reload
	ldr	r0, [sp, #12]                   @ 4-byte Reload
.Ltmp1:
	.loc	5 26 10 is_stmt 1               @ ../src/eeproom.c:26:10
	strb	r0, [r1]
	.loc	5 26 9 is_stmt 0                @ ../src/eeproom.c:26:9
	b	.LBB0_1
.LBB0_1:                                @ =>This Inner Loop Header: Depth=1
	.loc	5 0 9                           @ ../src/eeproom.c:0:9
	add	r0, sp, #16
.Ltmp2:
	.loc	5 26 13                         @ ../src/eeproom.c:26:13
	ldrb	r0, [r0]
	add	r1, sp, #20
	.loc	5 26 15                         @ ../src/eeproom.c:26:15
	ldrb	r1, [r1]
.Ltmp3:
	.loc	5 26 5                          @ ../src/eeproom.c:26:5
	cmp	r0, r1
	bge	.LBB0_4
	b	.LBB0_2
.LBB0_2:                                @   in Loop: Header=BB0_1 Depth=1
.Ltmp4:
	.loc	5 27 13 is_stmt 1               @ ../src/eeproom.c:27:13
	ldr	r0, [sp, #28]
	adds	r0, r0, #4
	str	r0, [sp, #28]
	.loc	5 28 19                         @ ../src/eeproom.c:28:19
	ldr	r0, [sp, #28]
	.loc	5 28 28 is_stmt 0               @ ../src/eeproom.c:28:28
	ldr	r1, [sp, #24]
	add	r2, sp, #16
	.loc	5 28 35                         @ ../src/eeproom.c:28:35
	ldrb	r2, [r2]
	.loc	5 28 28                         @ ../src/eeproom.c:28:28
	lsls	r2, r2, #2
	ldr	r1, [r1, r2]
	.loc	5 28 9                          @ ../src/eeproom.c:28:9
	bl	FMC_Write
	.loc	5 32 5 is_stmt 1                @ ../src/eeproom.c:32:5
	b	.LBB0_3
.Ltmp5:
.LBB0_3:                                @   in Loop: Header=BB0_1 Depth=1
	.loc	5 26 21                         @ ../src/eeproom.c:26:21
	ldr	r0, [sp, #16]
	adds	r0, r0, #1
	add	r1, sp, #16
	strb	r0, [r1]
	.loc	5 26 5 is_stmt 0                @ ../src/eeproom.c:26:5
	b	.LBB0_1
.Ltmp6:
.LBB0_4:
	.loc	5 0 5                           @ ../src/eeproom.c:0:5
	ldr	r1, __arm_cp.0_0
	.loc	5 33 3 is_stmt 1                @ ../src/eeproom.c:33:3
	ldr	r0, [r1]
	movs	r2, #8
	bics	r0, r2
	str	r0, [r1]
	.loc	5 34 3                          @ ../src/eeproom.c:34:3
	bl	FMC_Close
	.loc	5 35 3                          @ ../src/eeproom.c:35:3
	bl	SYS_LockReg
	.loc	5 36 1                          @ ../src/eeproom.c:36:1
	add	sp, #32
	pop	{r7, pc}
.Ltmp7:
	.p2align	2
@ %bb.5:
	.loc	5 0 1 is_stmt 0                 @ ../src/eeproom.c:0:1
__arm_cp.0_0:
	.long	1073790976                      @ 0x4000c000
.Lcpi_end0:
	.size	__arm_cp.0_0, .Lcpi_end0-__arm_cp.0_0
.Lfunc_end0:
	.size	eeprom_write_array, .Lfunc_end0-eeprom_write_array
	.cfi_endproc
	.cantunwind
	.fnend
                                        @ -- End function
	.section	.text.SYS_UnlockReg,"ax",%progbits
	.p2align	2                               @ -- Begin function SYS_UnlockReg
	.type	SYS_UnlockReg,%function
	.code	16                              @ @SYS_UnlockReg
	.thumb_func
SYS_UnlockReg:
.Lfunc_begin1:
	.file	6 "E:\\BERSY\\sdk\\SampleCode\\NuCodeGen\\Scale\\KEIL" "../../../../Library/StdDriver/inc\\sys.h"
	.loc	6 1348 0 is_stmt 1              @ ../../../../Library/StdDriver/inc\sys.h:1348:0
	.fnstart
	.cfi_startproc
@ %bb.0:
	.loc	6 1349 5 prologue_end           @ ../../../../Library/StdDriver/inc\sys.h:1349:5
	b	.LBB1_1
.LBB1_1:                                @ =>This Inner Loop Header: Depth=1
	.loc	6 0 5 is_stmt 0                 @ ../../../../Library/StdDriver/inc\sys.h:0:5
	ldr	r1, __arm_cp.1_0
	movs	r0, #89
.Ltmp8:
	.loc	6 1351 22 is_stmt 1             @ ../../../../Library/StdDriver/inc\sys.h:1351:22
	str	r0, [r1]
	movs	r0, #22
	.loc	6 1352 22                       @ ../../../../Library/StdDriver/inc\sys.h:1352:22
	str	r0, [r1]
	movs	r0, #136
	.loc	6 1353 22                       @ ../../../../Library/StdDriver/inc\sys.h:1353:22
	str	r0, [r1]
	.loc	6 1354 5                        @ ../../../../Library/StdDriver/inc\sys.h:1354:5
	b	.LBB1_2
.Ltmp9:
.LBB1_2:                                @   in Loop: Header=BB1_1 Depth=1
	.loc	6 0 5 is_stmt 0                 @ ../../../../Library/StdDriver/inc\sys.h:0:5
	ldr	r0, __arm_cp.1_0
	.loc	6 1354 19                       @ ../../../../Library/StdDriver/inc\sys.h:1354:19
	ldr	r0, [r0]
.Ltmp10:
	.loc	6 1354 5                        @ ../../../../Library/StdDriver/inc\sys.h:1354:5
	cmp	r0, #0
	beq	.LBB1_1
	b	.LBB1_3
.Ltmp11:
.LBB1_3:
	.loc	6 1355 1 is_stmt 1              @ ../../../../Library/StdDriver/inc\sys.h:1355:1
	bx	lr
.Ltmp12:
	.p2align	2
@ %bb.4:
	.loc	6 0 1 is_stmt 0                 @ ../../../../Library/StdDriver/inc\sys.h:0:1
__arm_cp.1_0:
	.long	1073742080                      @ 0x40000100
.Lcpi_end1:
	.size	__arm_cp.1_0, .Lcpi_end1-__arm_cp.1_0
.Lfunc_end1:
	.size	SYS_UnlockReg, .Lfunc_end1-SYS_UnlockReg
	.cfi_endproc
	.cantunwind
	.fnend
                                        @ -- End function
	.section	.text.SYS_LockReg,"ax",%progbits
	.p2align	2                               @ -- Begin function SYS_LockReg
	.type	SYS_LockReg,%function
	.code	16                              @ @SYS_LockReg
	.thumb_func
SYS_LockReg:
.Lfunc_begin2:
	.loc	6 1365 0 is_stmt 1              @ ../../../../Library/StdDriver/inc\sys.h:1365:0
	.fnstart
	.cfi_startproc
@ %bb.0:
	ldr	r1, __arm_cp.2_0
	movs	r0, #0
.Ltmp13:
	.loc	6 1366 18 prologue_end          @ ../../../../Library/StdDriver/inc\sys.h:1366:18
	str	r0, [r1]
	.loc	6 1367 1                        @ ../../../../Library/StdDriver/inc\sys.h:1367:1
	bx	lr
.Ltmp14:
	.p2align	2
@ %bb.1:
	.loc	6 0 1 is_stmt 0                 @ ../../../../Library/StdDriver/inc\sys.h:0:1
__arm_cp.2_0:
	.long	1073742080                      @ 0x40000100
.Lcpi_end2:
	.size	__arm_cp.2_0, .Lcpi_end2-__arm_cp.2_0
.Lfunc_end2:
	.size	SYS_LockReg, .Lfunc_end2-SYS_LockReg
	.cfi_endproc
	.cantunwind
	.fnend
                                        @ -- End function
	.section	.text.eeprom_read_array,"ax",%progbits
	.hidden	eeprom_read_array               @ -- Begin function eeprom_read_array
	.globl	eeprom_read_array
	.p2align	2
	.type	eeprom_read_array,%function
	.code	16                              @ @eeprom_read_array
	.thumb_func
eeprom_read_array:
.Lfunc_begin3:
	.loc	5 37 0 is_stmt 1                @ ../src/eeproom.c:37:0
	.fnstart
	.cfi_startproc
@ %bb.0:
	.save	{r7, lr}
	push	{r7, lr}
	.cfi_def_cfa_offset 8
	.cfi_offset lr, -4
	.cfi_offset r7, -8
	.pad	#24
	sub	sp, #24
	.cfi_def_cfa_offset 32
	str	r0, [sp, #16]
	str	r1, [sp, #12]
.Ltmp15:
	.loc	5 39 3 prologue_end             @ ../src/eeproom.c:39:3
	bl	SYS_UnlockReg
	.loc	5 40 3                          @ ../src/eeproom.c:40:3
	bl	FMC_Open
	ldr	r1, __arm_cp.3_0
	.loc	5 41 3                          @ ../src/eeproom.c:41:3
	ldr	r0, [r1]
	movs	r2, #8
	orrs	r0, r2
	str	r0, [r1]
	.loc	5 42 28                         @ ../src/eeproom.c:42:28
	ldr	r0, [sp, #16]
	.loc	5 42 19 is_stmt 0               @ ../src/eeproom.c:42:19
	bl	FMC_Read
	.loc	5 42 14                         @ ../src/eeproom.c:42:14
	str	r0, [sp, #8]
.Ltmp16:
	.loc	5 46 6 is_stmt 1                @ ../src/eeproom.c:46:6
	ldr	r0, [sp, #8]
.Ltmp17:
	.loc	5 46 6 is_stmt 0                @ ../src/eeproom.c:46:6
	cmp	r0, #20
	beq	.LBB3_2
	b	.LBB3_1
.LBB3_1:
	.loc	5 0 6                           @ ../src/eeproom.c:0:6
	add	r1, sp, #20
	movs	r0, #0
.Ltmp18:
	.loc	5 47 4 is_stmt 1                @ ../src/eeproom.c:47:4
	strb	r0, [r1]
	b	.LBB3_7
.Ltmp19:
.LBB3_2:
	.loc	5 0 4 is_stmt 0                 @ ../src/eeproom.c:0:4
	add	r1, sp, #4
	movs	r0, #0
	.loc	5 49 13 is_stmt 1               @ ../src/eeproom.c:49:13
	strb	r0, [r1]
.Ltmp20:
	.loc	5 50 13                         @ ../src/eeproom.c:50:13
	strb	r0, [r1]
	.loc	5 50 11 is_stmt 0               @ ../src/eeproom.c:50:11
	b	.LBB3_3
.LBB3_3:                                @ =>This Inner Loop Header: Depth=1
	.loc	5 0 11                          @ ../src/eeproom.c:0:11
	add	r0, sp, #4
.Ltmp21:
	.loc	5 50 18                         @ ../src/eeproom.c:50:18
	ldrb	r0, [r0]
	.loc	5 50 22                         @ ../src/eeproom.c:50:22
	ldr	r1, [sp, #8]
.Ltmp22:
	.loc	5 50 5                          @ ../src/eeproom.c:50:5
	cmp	r0, r1
	bhs	.LBB3_6
	b	.LBB3_4
.LBB3_4:                                @   in Loop: Header=BB3_3 Depth=1
.Ltmp23:
	.loc	5 52 12 is_stmt 1               @ ../src/eeproom.c:52:12
	ldr	r0, [sp, #16]
	adds	r0, r0, #4
	str	r0, [sp, #16]
	.loc	5 53 26                         @ ../src/eeproom.c:53:26
	ldr	r0, [sp, #16]
	.loc	5 53 17 is_stmt 0               @ ../src/eeproom.c:53:17
	bl	FMC_Read
	.loc	5 53 4                          @ ../src/eeproom.c:53:4
	ldr	r1, [sp, #12]
	add	r2, sp, #4
	.loc	5 53 12                         @ ../src/eeproom.c:53:12
	ldrb	r2, [r2]
	.loc	5 53 4                          @ ../src/eeproom.c:53:4
	lsls	r2, r2, #2
	.loc	5 53 15                         @ ../src/eeproom.c:53:15
	str	r0, [r1, r2]
	.loc	5 57 5 is_stmt 1                @ ../src/eeproom.c:57:5
	b	.LBB3_5
.Ltmp24:
.LBB3_5:                                @   in Loop: Header=BB3_3 Depth=1
	.loc	5 50 29                         @ ../src/eeproom.c:50:29
	ldr	r0, [sp, #4]
	adds	r0, r0, #1
	add	r1, sp, #4
	strb	r0, [r1]
	.loc	5 50 5 is_stmt 0                @ ../src/eeproom.c:50:5
	b	.LBB3_3
.Ltmp25:
.LBB3_6:
	.loc	5 58 3 is_stmt 1                @ ../src/eeproom.c:58:3
	bl	FMC_Close
	add	r1, sp, #20
	movs	r0, #1
	.loc	5 60 3                          @ ../src/eeproom.c:60:3
	strb	r0, [r1]
	b	.LBB3_7
.LBB3_7:
	.loc	5 0 3 is_stmt 0                 @ ../src/eeproom.c:0:3
	add	r0, sp, #20
	.loc	5 61 1 is_stmt 1                @ ../src/eeproom.c:61:1
	ldrb	r0, [r0]
	add	sp, #24
	pop	{r7, pc}
.Ltmp26:
	.p2align	2
@ %bb.8:
	.loc	5 0 1 is_stmt 0                 @ ../src/eeproom.c:0:1
__arm_cp.3_0:
	.long	1073790976                      @ 0x4000c000
.Lcpi_end3:
	.size	__arm_cp.3_0, .Lcpi_end3-__arm_cp.3_0
.Lfunc_end3:
	.size	eeprom_read_array, .Lfunc_end3-eeprom_read_array
	.cfi_endproc
	.cantunwind
	.fnend
                                        @ -- End function
	.section	.text.writeFlashMemoryInformation,"ax",%progbits
	.hidden	writeFlashMemoryInformation     @ -- Begin function writeFlashMemoryInformation
	.globl	writeFlashMemoryInformation
	.p2align	2
	.type	writeFlashMemoryInformation,%function
	.code	16                              @ @writeFlashMemoryInformation
	.thumb_func
writeFlashMemoryInformation:
.Lfunc_begin4:
	.loc	5 64 0 is_stmt 1                @ ../src/eeproom.c:64:0
	.fnstart
	.cfi_startproc
@ %bb.0:
	.save	{r7, lr}
	push	{r7, lr}
	.cfi_def_cfa_offset 8
	.cfi_offset lr, -4
	.cfi_offset r7, -8
	.pad	#88
	sub	sp, #88
	.cfi_def_cfa_offset 96
	str	r0, [sp, #84]
.Ltmp27:
	.loc	5 66 16 prologue_end            @ ../src/eeproom.c:66:16
	ldr	r0, [sp, #84]
	.loc	5 66 29 is_stmt 0               @ ../src/eeproom.c:66:29
	ldrb	r0, [r0, #8]
	.loc	5 66 14                         @ ../src/eeproom.c:66:14
	str	r0, [sp]
	.loc	5 67 16 is_stmt 1               @ ../src/eeproom.c:67:16
	ldr	r0, [sp, #84]
	.loc	5 67 29 is_stmt 0               @ ../src/eeproom.c:67:29
	ldrb	r0, [r0, #9]
	.loc	5 67 14                         @ ../src/eeproom.c:67:14
	str	r0, [sp, #4]
	.loc	5 68 16 is_stmt 1               @ ../src/eeproom.c:68:16
	ldr	r0, [sp, #84]
	.loc	5 68 29 is_stmt 0               @ ../src/eeproom.c:68:29
	ldrb	r0, [r0, #10]
	.loc	5 68 14                         @ ../src/eeproom.c:68:14
	str	r0, [sp, #8]
	.loc	5 69 16 is_stmt 1               @ ../src/eeproom.c:69:16
	ldr	r0, [sp, #84]
	.loc	5 69 29 is_stmt 0               @ ../src/eeproom.c:69:29
	ldrb	r0, [r0, #11]
	.loc	5 69 14                         @ ../src/eeproom.c:69:14
	str	r0, [sp, #12]
	.loc	5 70 16 is_stmt 1               @ ../src/eeproom.c:70:16
	ldr	r0, [sp, #84]
	.loc	5 70 29 is_stmt 0               @ ../src/eeproom.c:70:29
	ldrb	r0, [r0, #12]
	.loc	5 70 14                         @ ../src/eeproom.c:70:14
	str	r0, [sp, #16]
	.loc	5 71 16 is_stmt 1               @ ../src/eeproom.c:71:16
	ldr	r0, [sp, #84]
	.loc	5 71 29 is_stmt 0               @ ../src/eeproom.c:71:29
	ldrb	r0, [r0, #13]
	.loc	5 71 14                         @ ../src/eeproom.c:71:14
	str	r0, [sp, #20]
	.loc	5 72 16 is_stmt 1               @ ../src/eeproom.c:72:16
	ldr	r0, [sp, #84]
	.loc	5 72 29 is_stmt 0               @ ../src/eeproom.c:72:29
	ldrb	r0, [r0, #14]
	.loc	5 72 14                         @ ../src/eeproom.c:72:14
	str	r0, [sp, #24]
	.loc	5 73 16 is_stmt 1               @ ../src/eeproom.c:73:16
	ldr	r0, [sp, #84]
	.loc	5 73 29 is_stmt 0               @ ../src/eeproom.c:73:29
	ldr	r0, [r0, #16]
	.loc	5 73 14                         @ ../src/eeproom.c:73:14
	str	r0, [sp, #28]
	.loc	5 74 16 is_stmt 1               @ ../src/eeproom.c:74:16
	ldr	r0, [sp, #84]
	.loc	5 74 29 is_stmt 0               @ ../src/eeproom.c:74:29
	ldr	r0, [r0, #20]
	.loc	5 74 16                         @ ../src/eeproom.c:74:16
	bl	__aeabi_f2uiz
	.loc	5 74 14                         @ ../src/eeproom.c:74:14
	str	r0, [sp, #32]
	.loc	5 75 16 is_stmt 1               @ ../src/eeproom.c:75:16
	ldr	r0, [sp, #84]
	.loc	5 75 29 is_stmt 0               @ ../src/eeproom.c:75:29
	ldr	r0, [r0]
	.loc	5 75 16                         @ ../src/eeproom.c:75:16
	bl	__aeabi_f2uiz
	.loc	5 75 14                         @ ../src/eeproom.c:75:14
	str	r0, [sp, #36]
	.loc	5 76 16 is_stmt 1               @ ../src/eeproom.c:76:16
	ldr	r0, [sp, #84]
	.loc	5 76 29 is_stmt 0               @ ../src/eeproom.c:76:29
	ldr	r0, [r0, #4]
	.loc	5 76 14                         @ ../src/eeproom.c:76:14
	str	r0, [sp, #40]
	ldr	r0, __arm_cp.4_0
	mov	r1, sp
	movs	r2, #20
	.loc	5 78 3 is_stmt 1                @ ../src/eeproom.c:78:3
	bl	eeprom_write_array
	.loc	5 79 1                          @ ../src/eeproom.c:79:1
	add	sp, #88
	pop	{r7, pc}
.Ltmp28:
	.p2align	2
@ %bb.1:
	.loc	5 0 1 is_stmt 0                 @ ../src/eeproom.c:0:1
__arm_cp.4_0:
	.long	103428                          @ 0x19404
.Lcpi_end4:
	.size	__arm_cp.4_0, .Lcpi_end4-__arm_cp.4_0
.Lfunc_end4:
	.size	writeFlashMemoryInformation, .Lfunc_end4-writeFlashMemoryInformation
	.cfi_endproc
	.cantunwind
	.fnend
                                        @ -- End function
	.section	.text.readFlashMemoryInformation,"ax",%progbits
	.hidden	readFlashMemoryInformation      @ -- Begin function readFlashMemoryInformation
	.globl	readFlashMemoryInformation
	.p2align	2
	.type	readFlashMemoryInformation,%function
	.code	16                              @ @readFlashMemoryInformation
	.thumb_func
readFlashMemoryInformation:
.Lfunc_begin5:
	.loc	5 80 0 is_stmt 1                @ ../src/eeproom.c:80:0
	.fnstart
	.cfi_startproc
@ %bb.0:
	.save	{r7, lr}
	push	{r7, lr}
	.cfi_def_cfa_offset 8
	.cfi_offset lr, -4
	.cfi_offset r7, -8
	.pad	#88
	sub	sp, #88
	.cfi_def_cfa_offset 96
	str	r0, [sp, #84]
	ldr	r0, __arm_cp.5_0
	mov	r1, sp
.Ltmp29:
	.loc	5 82 5 prologue_end             @ ../src/eeproom.c:82:5
	bl	eeprom_read_array
.Ltmp30:
	.loc	5 82 5 is_stmt 0                @ ../src/eeproom.c:82:5
	cbz	r0, .LBB5_2
	b	.LBB5_1
.LBB5_1:
.Ltmp31:
	.loc	5 83 36 is_stmt 1               @ ../src/eeproom.c:83:36
	ldr	r0, [sp]
	.loc	5 83 3 is_stmt 0                @ ../src/eeproom.c:83:3
	ldr	r1, [sp, #84]
	.loc	5 83 34                         @ ../src/eeproom.c:83:34
	strb	r0, [r1, #8]
	.loc	5 84 36 is_stmt 1               @ ../src/eeproom.c:84:36
	ldr	r0, [sp, #4]
	.loc	5 84 3 is_stmt 0                @ ../src/eeproom.c:84:3
	ldr	r1, [sp, #84]
	.loc	5 84 34                         @ ../src/eeproom.c:84:34
	strb	r0, [r1, #9]
	.loc	5 85 36 is_stmt 1               @ ../src/eeproom.c:85:36
	ldr	r0, [sp, #8]
	.loc	5 85 3 is_stmt 0                @ ../src/eeproom.c:85:3
	ldr	r1, [sp, #84]
	.loc	5 85 34                         @ ../src/eeproom.c:85:34
	strb	r0, [r1, #10]
	.loc	5 86 36 is_stmt 1               @ ../src/eeproom.c:86:36
	ldr	r0, [sp, #12]
	.loc	5 86 3 is_stmt 0                @ ../src/eeproom.c:86:3
	ldr	r1, [sp, #84]
	.loc	5 86 34                         @ ../src/eeproom.c:86:34
	strb	r0, [r1, #11]
	.loc	5 87 36 is_stmt 1               @ ../src/eeproom.c:87:36
	ldr	r0, [sp, #16]
	.loc	5 87 3 is_stmt 0                @ ../src/eeproom.c:87:3
	ldr	r1, [sp, #84]
	.loc	5 87 34                         @ ../src/eeproom.c:87:34
	strb	r0, [r1, #12]
	.loc	5 88 36 is_stmt 1               @ ../src/eeproom.c:88:36
	ldr	r0, [sp, #20]
	.loc	5 88 3 is_stmt 0                @ ../src/eeproom.c:88:3
	ldr	r1, [sp, #84]
	.loc	5 88 34                         @ ../src/eeproom.c:88:34
	strb	r0, [r1, #13]
	.loc	5 89 36 is_stmt 1               @ ../src/eeproom.c:89:36
	ldr	r0, [sp, #24]
	.loc	5 89 3 is_stmt 0                @ ../src/eeproom.c:89:3
	ldr	r1, [sp, #84]
	.loc	5 89 34                         @ ../src/eeproom.c:89:34
	strb	r0, [r1, #14]
	.loc	5 90 36 is_stmt 1               @ ../src/eeproom.c:90:36
	ldr	r0, [sp, #28]
	.loc	5 90 3 is_stmt 0                @ ../src/eeproom.c:90:3
	ldr	r1, [sp, #84]
	.loc	5 90 34                         @ ../src/eeproom.c:90:34
	str	r0, [r1, #16]
	.loc	5 91 36 is_stmt 1               @ ../src/eeproom.c:91:36
	ldr	r0, [sp, #32]
	bl	__aeabi_ui2f
	.loc	5 91 3 is_stmt 0                @ ../src/eeproom.c:91:3
	ldr	r1, [sp, #84]
	.loc	5 91 34                         @ ../src/eeproom.c:91:34
	str	r0, [r1, #20]
	.loc	5 92 36 is_stmt 1               @ ../src/eeproom.c:92:36
	ldr	r0, [sp, #36]
	bl	__aeabi_ui2f
	.loc	5 92 3 is_stmt 0                @ ../src/eeproom.c:92:3
	ldr	r1, [sp, #84]
	.loc	5 92 34                         @ ../src/eeproom.c:92:34
	str	r0, [r1]
	.loc	5 93 36 is_stmt 1               @ ../src/eeproom.c:93:36
	ldr	r0, [sp, #40]
	.loc	5 93 3 is_stmt 0                @ ../src/eeproom.c:93:3
	ldr	r1, [sp, #84]
	.loc	5 93 34                         @ ../src/eeproom.c:93:34
	str	r0, [r1, #4]
	.loc	5 95 2 is_stmt 1                @ ../src/eeproom.c:95:2
	b	.LBB5_3
.Ltmp32:
.LBB5_2:
	.loc	5 97 22                         @ ../src/eeproom.c:97:22
	ldr	r0, [sp, #84]
	.loc	5 97 3 is_stmt 0                @ ../src/eeproom.c:97:3
	bl	InitFactorySetting
	b	.LBB5_3
.Ltmp33:
.LBB5_3:
	.loc	5 99 1 is_stmt 1                @ ../src/eeproom.c:99:1
	add	sp, #88
	pop	{r7, pc}
.Ltmp34:
	.p2align	2
@ %bb.4:
	.loc	5 0 1 is_stmt 0                 @ ../src/eeproom.c:0:1
__arm_cp.5_0:
	.long	103428                          @ 0x19404
.Lcpi_end5:
	.size	__arm_cp.5_0, .Lcpi_end5-__arm_cp.5_0
.Lfunc_end5:
	.size	readFlashMemoryInformation, .Lfunc_end5-readFlashMemoryInformation
	.cfi_endproc
	.cantunwind
	.fnend
                                        @ -- End function
	.section	.text.InitFactorySetting,"ax",%progbits
	.hidden	InitFactorySetting              @ -- Begin function InitFactorySetting
	.globl	InitFactorySetting
	.p2align	2
	.type	InitFactorySetting,%function
	.code	16                              @ @InitFactorySetting
	.thumb_func
InitFactorySetting:
.Lfunc_begin6:
	.loc	5 100 0 is_stmt 1               @ ../src/eeproom.c:100:0
	.fnstart
	.cfi_startproc
@ %bb.0:
	.save	{r7, lr}
	push	{r7, lr}
	.cfi_def_cfa_offset 8
	.cfi_offset lr, -4
	.cfi_offset r7, -8
	.pad	#8
	sub	sp, #8
	.cfi_def_cfa_offset 16
	str	r0, [sp, #4]
.Ltmp35:
	.loc	5 101 3 prologue_end            @ ../src/eeproom.c:101:3
	ldr	r1, [sp, #4]
	movs	r0, #0
	.loc	5 101 34 is_stmt 0              @ ../src/eeproom.c:101:34
	strb	r0, [r1, #8]
	.loc	5 102 3 is_stmt 1               @ ../src/eeproom.c:102:3
	ldr	r1, [sp, #4]
	.loc	5 102 34 is_stmt 0              @ ../src/eeproom.c:102:34
	strb	r0, [r1, #9]
	.loc	5 103 3 is_stmt 1               @ ../src/eeproom.c:103:3
	ldr	r2, [sp, #4]
	movs	r1, #1
	.loc	5 103 34 is_stmt 0              @ ../src/eeproom.c:103:34
	strb	r1, [r2, #10]
	.loc	5 104 3 is_stmt 1               @ ../src/eeproom.c:104:3
	ldr	r2, [sp, #4]
	.loc	5 104 34 is_stmt 0              @ ../src/eeproom.c:104:34
	strb	r0, [r2, #11]
	.loc	5 105 3 is_stmt 1               @ ../src/eeproom.c:105:3
	ldr	r2, [sp, #4]
	.loc	5 105 34 is_stmt 0              @ ../src/eeproom.c:105:34
	strb	r1, [r2, #12]
	.loc	5 106 3 is_stmt 1               @ ../src/eeproom.c:106:3
	ldr	r1, [sp, #4]
	.loc	5 106 34 is_stmt 0              @ ../src/eeproom.c:106:34
	strb	r0, [r1, #13]
	.loc	5 107 3 is_stmt 1               @ ../src/eeproom.c:107:3
	ldr	r1, [sp, #4]
	.loc	5 107 34 is_stmt 0              @ ../src/eeproom.c:107:34
	strb	r0, [r1, #14]
	.loc	5 108 3 is_stmt 1               @ ../src/eeproom.c:108:3
	ldr	r2, [sp, #4]
	ldr	r1, __arm_cp.6_0
	.loc	5 108 34 is_stmt 0              @ ../src/eeproom.c:108:34
	str	r1, [r2, #16]
	.loc	5 109 3 is_stmt 1               @ ../src/eeproom.c:109:3
	ldr	r2, [sp, #4]
	ldr	r1, __arm_cp.6_1
	.loc	5 109 34 is_stmt 0              @ ../src/eeproom.c:109:34
	str	r1, [r2, #20]
	.loc	5 110 3 is_stmt 1               @ ../src/eeproom.c:110:3
	ldr	r2, [sp, #4]
	ldr	r1, __arm_cp.6_2
	.loc	5 110 34 is_stmt 0              @ ../src/eeproom.c:110:34
	str	r1, [r2]
	.loc	5 111 3 is_stmt 1               @ ../src/eeproom.c:111:3
	ldr	r1, [sp, #4]
	.loc	5 111 34 is_stmt 0              @ ../src/eeproom.c:111:34
	str	r0, [r1, #4]
	.loc	5 113 31 is_stmt 1              @ ../src/eeproom.c:113:31
	ldr	r0, [sp, #4]
	.loc	5 113 3 is_stmt 0               @ ../src/eeproom.c:113:3
	bl	writeFlashMemoryInformation
	.loc	5 114 1 is_stmt 1               @ ../src/eeproom.c:114:1
	add	sp, #8
	pop	{r7, pc}
.Ltmp36:
	.p2align	2
@ %bb.1:
	.loc	5 0 1 is_stmt 0                 @ ../src/eeproom.c:0:1
__arm_cp.6_0:
	.long	1234567                         @ 0x12d687
.Lcpi_end6:
	.size	__arm_cp.6_0, .Lcpi_end6-__arm_cp.6_0
__arm_cp.6_1:
	.long	1092394942                      @ 0x411c9fbe
.Lcpi_end7:
	.size	__arm_cp.6_1, .Lcpi_end7-__arm_cp.6_1
__arm_cp.6_2:
	.long	1148846080                      @ 0x447a0000
.Lcpi_end8:
	.size	__arm_cp.6_2, .Lcpi_end8-__arm_cp.6_2
.Lfunc_end6:
	.size	InitFactorySetting, .Lfunc_end6-InitFactorySetting
	.cfi_endproc
	.cantunwind
	.fnend
                                        @ -- End function
	.section	".note.GNU-stack","",%progbits
	.eabi_attribute	30, 6	@ Tag_ABI_optimization_goals
	.ARM_attribute	16, 1	@ Tag_AV_eba