	.text
	.syntax unified
	.eabi_attribute	67, "2.09"	@ Tag_conformance
	.cpu	cortex-m23
	.eabi_attribute	6, 16	@ Tag_CPU_arch
	.eabi_attribute	7, 77	@ Tag_CPU_arch_profile
	.eabi_attribute	8, 0	@ Tag_ARM_ISA_use
	.eabi_attribute	9, 3	@ Tag_THUMB_ISA_use
	.eabi_attribute	34, 0	@ Tag_CPU_unaligned_access
	.eabi_attribute	17, 1	@ Tag_ABI_PCS_GOT_use
	.eabi_attribute	20, 2	@ Tag_ABI_FP_denormal
	.eabi_attribute	21, 0	@ Tag_ABI_FP_exceptions
	.eabi_attribute	23, 1	@ Tag_ABI_FP_number_model
	.eabi_attribute	24, 1	@ Tag_ABI_align_needed
	.eabi_attribute	25, 1	@ Tag_ABI_align_preserved
	.eabi_attribute	38, 1	@ Tag_ABI_FP_16bit_format
	.eabi_attribute	18, 2	@ Tag_ABI_PCS_wchar_t
	.eabi_attribute	26, 1	@ Tag_ABI_enum_size
	.eabi_attribute	14, 0	@ Tag_ABI_PCS_R9_use
	.file	"fmc.c"
	.file	1 "C:\\Keil_v5\\ARM\\ARMCLANG\\Bin\\..\\include" "stdint.h"
	.file	2 "E:\\BERSY\\sdk\\SampleCode\\NuCodeGen\\scale_v2\\KEIL" "../../../../Library/StdDriver/src/fmc.c"
	.file	3 "E:\\BERSY\\sdk\\SampleCode\\NuCodeGen\\scale_v2\\KEIL" "../../../../Library/StdDriver/inc\\fmc.h"
	.file	4 "E:\\BERSY\\sdk\\SampleCode\\NuCodeGen\\scale_v2\\KEIL" "../../../../Library/Device/Nuvoton/M251/Include/fmc_reg.h"
	.section	.text.FMC_SetBootSource,"ax",%progbits
	.hidden	FMC_SetBootSource               @ -- Begin function FMC_SetBootSource
	.globl	FMC_SetBootSource
	.p2align	2
	.type	FMC_SetBootSource,%function
	.code	16                              @ @FMC_SetBootSource
	.thumb_func
FMC_SetBootSource:
.Lfunc_begin0:
	.loc	2 41 0                          @ ../../../../Library/StdDriver/src/fmc.c:41:0
	.fnstart
	.cfi_sections .debug_frame
	.cfi_startproc
@ %bb.0:
	.pad	#4
	sub	sp, #4
	.cfi_def_cfa_offset 4
	str	r0, [sp]
	ldr	r1, __arm_cp.0_0
.Ltmp0:
	.loc	2 42 5 prologue_end             @ ../../../../Library/StdDriver/src/fmc.c:42:5
	ldr	r0, [r1]
	movs	r2, #2
	bics	r0, r2
	ldr	r2, [sp]
	lsls	r2, r2, #31
	lsrs	r2, r2, #30
	adds	r0, r0, r2
	str	r0, [r1]
	.loc	2 43 1                          @ ../../../../Library/StdDriver/src/fmc.c:43:1
	add	sp, #4
	bx	lr
.Ltmp1:
	.p2align	2
@ %bb.1:
	.loc	2 0 1 is_stmt 0                 @ ../../../../Library/StdDriver/src/fmc.c:0:1
__arm_cp.0_0:
	.long	1073790976                      @ 0x4000c000
.Lcpi_end0:
	.size	__arm_cp.0_0, .Lcpi_end0-__arm_cp.0_0
.Lfunc_end0:
	.size	FMC_SetBootSource, .Lfunc_end0-FMC_SetBootSource
	.cfi_endproc
	.cantunwind
	.fnend
                                        @ -- End function
	.section	.text.FMC_Close,"ax",%progbits
	.hidden	FMC_Close                       @ -- Begin function FMC_Close
	.globl	FMC_Close
	.p2align	2
	.type	FMC_Close,%function
	.code	16                              @ @FMC_Close
	.thumb_func
FMC_Close:
.Lfunc_begin1:
	.loc	2 57 0 is_stmt 1                @ ../../../../Library/StdDriver/src/fmc.c:57:0
	.fnstart
	.cfi_startproc
@ %bb.0:
	ldr	r1, __arm_cp.1_0
.Ltmp2:
	.loc	2 58 5 prologue_end             @ ../../../../Library/StdDriver/src/fmc.c:58:5
	ldr	r0, [r1]
	movs	r2, #1
	bics	r0, r2
	str	r0, [r1]
	.loc	2 59 1                          @ ../../../../Library/StdDriver/src/fmc.c:59:1
	bx	lr
.Ltmp3:
	.p2align	2
@ %bb.1:
	.loc	2 0 1 is_stmt 0                 @ ../../../../Library/StdDriver/src/fmc.c:0:1
__arm_cp.1_0:
	.long	1073790976                      @ 0x4000c000
.Lcpi_end1:
	.size	__arm_cp.1_0, .Lcpi_end1-__arm_cp.1_0
.Lfunc_end1:
	.size	FMC_Close, .Lfunc_end1-FMC_Close
	.cfi_endproc
	.cantunwind
	.fnend
                                        @ -- End function
	.section	.text.FMC_GetBootSource,"ax",%progbits
	.hidden	FMC_GetBootSource               @ -- Begin function FMC_GetBootSource
	.globl	FMC_GetBootSource
	.p2align	2
	.type	FMC_GetBootSource,%function
	.code	16                              @ @FMC_GetBootSource
	.thumb_func
FMC_GetBootSource:
.Lfunc_begin2:
	.loc	2 74 0 is_stmt 1                @ ../../../../Library/StdDriver/src/fmc.c:74:0
	.fnstart
	.cfi_startproc
@ %bb.0:
	ldr	r0, __arm_cp.2_0
.Ltmp4:
	.loc	2 75 12 prologue_end            @ ../../../../Library/StdDriver/src/fmc.c:75:12
	ldr	r0, [r0]
	movs	r1, #2
	ands	r0, r1
	lsrs	r0, r0, #1
	.loc	2 75 5 is_stmt 0                @ ../../../../Library/StdDriver/src/fmc.c:75:5
	bx	lr
.Ltmp5:
	.p2align	2
@ %bb.1:
	.loc	2 0 5                           @ ../../../../Library/StdDriver/src/fmc.c:0:5
__arm_cp.2_0:
	.long	1073790976                      @ 0x4000c000
.Lcpi_end2:
	.size	__arm_cp.2_0, .Lcpi_end2-__arm_cp.2_0
.Lfunc_end2:
	.size	FMC_GetBootSource, .Lfunc_end2-FMC_GetBootSource
	.cfi_endproc
	.cantunwind
	.fnend
                                        @ -- End function
	.section	.text.FMC_Open,"ax",%progbits
	.hidden	FMC_Open                        @ -- Begin function FMC_Open
	.globl	FMC_Open
	.p2align	2
	.type	FMC_Open,%function
	.code	16                              @ @FMC_Open
	.thumb_func
FMC_Open:
.Lfunc_begin3:
	.loc	2 93 0 is_stmt 1                @ ../../../../Library/StdDriver/src/fmc.c:93:0
	.fnstart
	.cfi_startproc
@ %bb.0:
	ldr	r1, __arm_cp.3_0
.Ltmp6:
	.loc	2 94 5 prologue_end             @ ../../../../Library/StdDriver/src/fmc.c:94:5
	ldr	r0, [r1]
	movs	r2, #1
	orrs	r0, r2
	str	r0, [r1]
	.loc	2 95 1                          @ ../../../../Library/StdDriver/src/fmc.c:95:1
	bx	lr
.Ltmp7:
	.p2align	2
@ %bb.1:
	.loc	2 0 1 is_stmt 0                 @ ../../../../Library/StdDriver/src/fmc.c:0:1
__arm_cp.3_0:
	.long	1073790976                      @ 0x4000c000
.Lcpi_end3:
	.size	__arm_cp.3_0, .Lcpi_end3-__arm_cp.3_0
.Lfunc_end3:
	.size	FMC_Open, .Lfunc_end3-FMC_Open
	.cfi_endproc
	.cantunwind
	.fnend
                                        @ -- End function
	.section	.text.FMC_ReadConfig,"ax",%progbits
	.hidden	FMC_ReadConfig                  @ -- Begin function FMC_ReadConfig
	.globl	FMC_ReadConfig
	.p2align	2
	.type	FMC_ReadConfig,%function
	.code	16                              @ @FMC_ReadConfig
	.thumb_func
FMC_ReadConfig:
.Lfunc_begin4:
	.loc	2 112 0 is_stmt 1               @ ../../../../Library/StdDriver/src/fmc.c:112:0
	.fnstart
	.cfi_startproc
@ %bb.0:
	.save	{r7, lr}
	push	{r7, lr}
	.cfi_def_cfa_offset 8
	.cfi_offset lr, -4
	.cfi_offset r7, -8
	.pad	#16
	sub	sp, #16
	.cfi_def_cfa_offset 24
	str	r0, [sp, #12]
	str	r1, [sp, #8]
.Ltmp8:
	.loc	2 115 22 prologue_end           @ ../../../../Library/StdDriver/src/fmc.c:115:22
	ldr	r1, __arm_cp.4_0
	movs	r0, #0
	str	r0, [r1]
.Ltmp9:
	.loc	2 117 12                        @ ../../../../Library/StdDriver/src/fmc.c:117:12
	str	r0, [sp, #4]
	.loc	2 117 10 is_stmt 0              @ ../../../../Library/StdDriver/src/fmc.c:117:10
	b	.LBB4_1
.LBB4_1:                                @ =>This Inner Loop Header: Depth=1
.Ltmp10:
	.loc	2 117 18                        @ ../../../../Library/StdDriver/src/fmc.c:117:18
	ldr	r0, [sp, #4]
	.loc	2 117 22                        @ ../../../../Library/StdDriver/src/fmc.c:117:22
	ldr	r1, [sp, #8]
.Ltmp11:
	.loc	2 117 5                         @ ../../../../Library/StdDriver/src/fmc.c:117:5
	cmp	r0, r1
	bhs	.LBB4_4
	b	.LBB4_2
.LBB4_2:                                @   in Loop: Header=BB4_1 Depth=1
.Ltmp12:
	.loc	2 119 51 is_stmt 1              @ ../../../../Library/StdDriver/src/fmc.c:119:51
	ldr	r0, [sp, #4]
	.loc	2 119 53 is_stmt 0              @ ../../../../Library/StdDriver/src/fmc.c:119:53
	lsls	r0, r0, #2
	movs	r1, #3
	lsls	r1, r1, #20
	.loc	2 119 49                        @ ../../../../Library/StdDriver/src/fmc.c:119:49
	adds	r0, r0, r1
	.loc	2 119 24                        @ ../../../../Library/StdDriver/src/fmc.c:119:24
	bl	FMC_Read
	.loc	2 119 9                         @ ../../../../Library/StdDriver/src/fmc.c:119:9
	ldr	r1, [sp, #12]
	.loc	2 119 19                        @ ../../../../Library/StdDriver/src/fmc.c:119:19
	ldr	r2, [sp, #4]
	.loc	2 119 9                         @ ../../../../Library/StdDriver/src/fmc.c:119:9
	lsls	r2, r2, #2
	.loc	2 119 22                        @ ../../../../Library/StdDriver/src/fmc.c:119:22
	str	r0, [r1, r2]
	.loc	2 120 5 is_stmt 1               @ ../../../../Library/StdDriver/src/fmc.c:120:5
	b	.LBB4_3
.Ltmp13:
.LBB4_3:                                @   in Loop: Header=BB4_1 Depth=1
	.loc	2 117 33                        @ ../../../../Library/StdDriver/src/fmc.c:117:33
	ldr	r0, [sp, #4]
	adds	r0, r0, #1
	str	r0, [sp, #4]
	.loc	2 117 5 is_stmt 0               @ ../../../../Library/StdDriver/src/fmc.c:117:5
	b	.LBB4_1
.Ltmp14:
.LBB4_4:
	.loc	2 122 12 is_stmt 1              @ ../../../../Library/StdDriver/src/fmc.c:122:12
	ldr	r0, __arm_cp.4_0
	ldr	r0, [r0]
	.loc	2 122 5 is_stmt 0               @ ../../../../Library/StdDriver/src/fmc.c:122:5
	add	sp, #16
	pop	{r7, pc}
.Ltmp15:
	.p2align	2
@ %bb.5:
	.loc	2 0 5                           @ ../../../../Library/StdDriver/src/fmc.c:0:5
__arm_cp.4_0:
	.long	g_FMC_i32ErrCode
.Lcpi_end4:
	.size	__arm_cp.4_0, .Lcpi_end4-__arm_cp.4_0
.Lfunc_end4:
	.size	FMC_ReadConfig, .Lfunc_end4-FMC_ReadConfig
	.cfi_endproc
	.cantunwind
	.fnend
                                        @ -- End function
	.section	.text.FMC_Read,"ax",%progbits
	.hidden	FMC_Read                        @ -- Begin function FMC_Read
	.globl	FMC_Read
	.p2align	2
	.type	FMC_Read,%function
	.code	16                              @ @FMC_Read
	.thumb_func
FMC_Read:
.Lfunc_begin5:
	.loc	2 530 0 is_stmt 1               @ ../../../../Library/StdDriver/src/fmc.c:530:0
	.fnstart
	.cfi_startproc
@ %bb.0:
	.pad	#16
	sub	sp, #16
	.cfi_def_cfa_offset 16
	str	r0, [sp, #8]
.Ltmp16:
	.loc	2 533 22 prologue_end           @ ../../../../Library/StdDriver/src/fmc.c:533:22
	ldr	r1, __arm_cp.5_0
	movs	r0, #0
	str	r0, [r1]
	ldr	r1, __arm_cp.5_1
	.loc	2 534 17                        @ ../../../../Library/StdDriver/src/fmc.c:534:17
	str	r0, [r1]
	.loc	2 535 20                        @ ../../../../Library/StdDriver/src/fmc.c:535:20
	ldr	r1, [sp, #8]
	ldr	r2, __arm_cp.5_2
	.loc	2 535 18 is_stmt 0              @ ../../../../Library/StdDriver/src/fmc.c:535:18
	str	r1, [r2]
	ldr	r1, __arm_cp.5_3
	.loc	2 536 17 is_stmt 1              @ ../../../../Library/StdDriver/src/fmc.c:536:17
	str	r0, [r1]
	ldr	r1, __arm_cp.5_4
	movs	r0, #1
	.loc	2 537 17                        @ ../../../../Library/StdDriver/src/fmc.c:537:17
	str	r0, [r1]
	.loc	2 542 12                        @ ../../../../Library/StdDriver/src/fmc.c:542:12
	ldr	r0, __arm_cp.5_5
	ldr	r0, [r0]
	movs	r1, #10
	udiv	r0, r0, r1
	lsls	r0, r0, #1
	.loc	2 542 10 is_stmt 0              @ ../../../../Library/StdDriver/src/fmc.c:542:10
	str	r0, [sp, #4]
	.loc	2 544 5 is_stmt 1               @ ../../../../Library/StdDriver/src/fmc.c:544:5
	b	.LBB5_1
.LBB5_1:                                @ =>This Inner Loop Header: Depth=1
	.loc	2 544 17 is_stmt 0              @ ../../../../Library/StdDriver/src/fmc.c:544:17
	ldr	r1, [sp, #4]
	subs	r0, r1, #1
	str	r0, [sp, #4]
	movs	r0, #0
	.loc	2 544 25                        @ ../../../../Library/StdDriver/src/fmc.c:544:25
	cmp	r1, #1
	str	r0, [sp]                        @ 4-byte Spill
	blt	.LBB5_3
	b	.LBB5_2
.LBB5_2:                                @   in Loop: Header=BB5_1 Depth=1
	.loc	2 0 25                          @ ../../../../Library/StdDriver/src/fmc.c:0:25
	ldr	r0, __arm_cp.5_4
	.loc	2 544 34                        @ ../../../../Library/StdDriver/src/fmc.c:544:34
	ldr	r0, [r0]
	movs	r1, #1
	.loc	2 544 41                        @ ../../../../Library/StdDriver/src/fmc.c:544:41
	ands	r0, r1
	str	r0, [sp]                        @ 4-byte Spill
	b	.LBB5_3
.LBB5_3:                                @   in Loop: Header=BB5_1 Depth=1
	.loc	2 0 0                           @ ../../../../Library/StdDriver/src/fmc.c:0:0
	ldr	r0, [sp]                        @ 4-byte Reload
	.loc	2 544 5                         @ ../../../../Library/StdDriver/src/fmc.c:544:5
	lsls	r0, r0, #31
	cbz	r0, .LBB5_5
	b	.LBB5_4
.LBB5_4:                                @   in Loop: Header=BB5_1 Depth=1
	b	.LBB5_1
.LBB5_5:
.Ltmp17:
	.loc	2 546 9 is_stmt 1               @ ../../../../Library/StdDriver/src/fmc.c:546:9
	ldr	r0, [sp, #4]
.Ltmp18:
	.loc	2 546 9 is_stmt 0               @ ../../../../Library/StdDriver/src/fmc.c:546:9
	cmp	r0, #0
	bgt	.LBB5_7
	b	.LBB5_6
.LBB5_6:
.Ltmp19:
	.loc	2 548 26 is_stmt 1              @ ../../../../Library/StdDriver/src/fmc.c:548:26
	ldr	r1, __arm_cp.5_0
	movs	r0, #0
	mvns	r0, r0
	str	r0, [r1]
	.loc	2 549 9                         @ ../../../../Library/StdDriver/src/fmc.c:549:9
	str	r0, [sp, #12]
	b	.LBB5_8
.Ltmp20:
.LBB5_7:
	.loc	2 0 9 is_stmt 0                 @ ../../../../Library/StdDriver/src/fmc.c:0:9
	ldr	r0, __arm_cp.5_3
	.loc	2 552 17 is_stmt 1              @ ../../../../Library/StdDriver/src/fmc.c:552:17
	ldr	r0, [r0]
	.loc	2 552 5 is_stmt 0               @ ../../../../Library/StdDriver/src/fmc.c:552:5
	str	r0, [sp, #12]
	b	.LBB5_8
.LBB5_8:
	.loc	2 553 1 is_stmt 1               @ ../../../../Library/StdDriver/src/fmc.c:553:1
	ldr	r0, [sp, #12]
	add	sp, #16
	bx	lr
.Ltmp21:
	.p2align	2
@ %bb.9:
	.loc	2 0 1 is_stmt 0                 @ ../../../../Library/StdDriver/src/fmc.c:0:1
__arm_cp.5_0:
	.long	g_FMC_i32ErrCode
.Lcpi_end5:
	.size	__arm_cp.5_0, .Lcpi_end5-__arm_cp.5_0
__arm_cp.5_1:
	.long	1073790988                      @ 0x4000c00c
.Lcpi_end6:
	.size	__arm_cp.5_1, .Lcpi_end6-__arm_cp.5_1
__arm_cp.5_2:
	.long	1073790980                      @ 0x4000c004
.Lcpi_end7:
	.size	__arm_cp.5_2, .Lcpi_end7-__arm_cp.5_2
__arm_cp.5_3:
	.long	1073790984                      @ 0x4000c008
.Lcpi_end8:
	.size	__arm_cp.5_3, .Lcpi_end8-__arm_cp.5_3
__arm_cp.5_4:
	.long	1073790992                      @ 0x4000c010
.Lcpi_end9:
	.size	__arm_cp.5_4, .Lcpi_end9-__arm_cp.5_4
__arm_cp.5_5:
	.long	SystemCoreClock
.Lcpi_end10:
	.size	__arm_cp.5_5, .Lcpi_end10-__arm_cp.5_5
.Lfunc_end5:
	.size	FMC_Read, .Lfunc_end5-FMC_Read
	.cfi_endproc
	.cantunwind
	.fnend
                                        @ -- End function
	.section	.text.FMC_WriteConfig,"ax",%progbits
	.hidden	FMC_WriteConfig                 @ -- Begin function FMC_WriteConfig
	.globl	FMC_WriteConfig
	.p2align	1
	.type	FMC_WriteConfig,%function
	.code	16                              @ @FMC_WriteConfig
	.thumb_func
FMC_WriteConfig:
.Lfunc_begin6:
	.loc	2 141 0 is_stmt 1               @ ../../../../Library/StdDriver/src/fmc.c:141:0
	.fnstart
	.cfi_startproc
@ %bb.0:
	.save	{r7, lr}
	push	{r7, lr}
	.cfi_def_cfa_offset 8
	.cfi_offset lr, -4
	.cfi_offset r7, -8
	.pad	#24
	sub	sp, #24
	.cfi_def_cfa_offset 32
	str	r0, [sp, #20]
	str	r1, [sp, #16]
	movs	r0, #0
.Ltmp22:
	.loc	2 142 14 prologue_end           @ ../../../../Library/StdDriver/src/fmc.c:142:14
	str	r0, [sp, #12]
.Ltmp23:
	.loc	2 145 12                        @ ../../../../Library/StdDriver/src/fmc.c:145:12
	str	r0, [sp, #8]
	.loc	2 145 10 is_stmt 0              @ ../../../../Library/StdDriver/src/fmc.c:145:10
	b	.LBB6_1
.LBB6_1:                                @ =>This Inner Loop Header: Depth=1
.Ltmp24:
	.loc	2 145 18                        @ ../../../../Library/StdDriver/src/fmc.c:145:18
	ldr	r0, [sp, #8]
	.loc	2 145 22                        @ ../../../../Library/StdDriver/src/fmc.c:145:22
	ldr	r1, [sp, #16]
.Ltmp25:
	.loc	2 145 5                         @ ../../../../Library/StdDriver/src/fmc.c:145:5
	cmp	r0, r1
	bhs	.LBB6_6
	b	.LBB6_2
.LBB6_2:                                @   in Loop: Header=BB6_1 Depth=1
.Ltmp26:
	.loc	2 147 37 is_stmt 1              @ ../../../../Library/StdDriver/src/fmc.c:147:37
	ldr	r0, [sp, #8]
	.loc	2 147 39 is_stmt 0              @ ../../../../Library/StdDriver/src/fmc.c:147:39
	lsls	r2, r0, #2
	movs	r0, #3
	lsls	r0, r0, #20
	.loc	2 147 35                        @ ../../../../Library/StdDriver/src/fmc.c:147:35
	str	r0, [sp, #4]                    @ 4-byte Spill
	adds	r0, r2, r0
	.loc	2 147 45                        @ ../../../../Library/StdDriver/src/fmc.c:147:45
	ldr	r1, [sp, #20]
	ldr	r1, [r1, r2]
	.loc	2 147 9                         @ ../../../../Library/StdDriver/src/fmc.c:147:9
	bl	FMC_Write
	ldr	r1, [sp, #4]                    @ 4-byte Reload
.Ltmp27:
	.loc	2 149 40 is_stmt 1              @ ../../../../Library/StdDriver/src/fmc.c:149:40
	ldr	r0, [sp, #8]
	.loc	2 149 42 is_stmt 0              @ ../../../../Library/StdDriver/src/fmc.c:149:42
	lsls	r0, r0, #2
	.loc	2 149 38                        @ ../../../../Library/StdDriver/src/fmc.c:149:38
	adds	r0, r0, r1
	.loc	2 149 13                        @ ../../../../Library/StdDriver/src/fmc.c:149:13
	bl	FMC_Read
	.loc	2 149 51                        @ ../../../../Library/StdDriver/src/fmc.c:149:51
	ldr	r1, [sp, #20]
	.loc	2 149 61                        @ ../../../../Library/StdDriver/src/fmc.c:149:61
	ldr	r2, [sp, #8]
	.loc	2 149 51                        @ ../../../../Library/StdDriver/src/fmc.c:149:51
	lsls	r2, r2, #2
	ldr	r1, [r1, r2]
.Ltmp28:
	.loc	2 149 13                        @ ../../../../Library/StdDriver/src/fmc.c:149:13
	cmp	r0, r1
	beq	.LBB6_4
	b	.LBB6_3
.LBB6_3:                                @   in Loop: Header=BB6_1 Depth=1
	.loc	2 0 13                          @ ../../../../Library/StdDriver/src/fmc.c:0:13
	movs	r0, #0
	mvns	r0, r0
.Ltmp29:
	.loc	2 151 17 is_stmt 1              @ ../../../../Library/StdDriver/src/fmc.c:151:17
	str	r0, [sp, #12]
	.loc	2 152 9                         @ ../../../../Library/StdDriver/src/fmc.c:152:9
	b	.LBB6_4
.Ltmp30:
.LBB6_4:                                @   in Loop: Header=BB6_1 Depth=1
	.loc	2 153 5                         @ ../../../../Library/StdDriver/src/fmc.c:153:5
	b	.LBB6_5
.Ltmp31:
.LBB6_5:                                @   in Loop: Header=BB6_1 Depth=1
	.loc	2 145 33                        @ ../../../../Library/StdDriver/src/fmc.c:145:33
	ldr	r0, [sp, #8]
	adds	r0, r0, #1
	str	r0, [sp, #8]
	.loc	2 145 5 is_stmt 0               @ ../../../../Library/StdDriver/src/fmc.c:145:5
	b	.LBB6_1
.Ltmp32:
.LBB6_6:
	.loc	2 155 12 is_stmt 1              @ ../../../../Library/StdDriver/src/fmc.c:155:12
	ldr	r0, [sp, #12]
	.loc	2 155 5 is_stmt 0               @ ../../../../Library/StdDriver/src/fmc.c:155:5
	add	sp, #24
	pop	{r7, pc}
.Ltmp33:
.Lfunc_end6:
	.size	FMC_WriteConfig, .Lfunc_end6-FMC_WriteConfig
	.cfi_endproc
	.cantunwind
	.fnend
                                        @ -- End function
	.section	.text.FMC_Write,"ax",%progbits
	.hidden	FMC_Write                       @ -- Begin function FMC_Write
	.globl	FMC_Write
	.p2align	2
	.type	FMC_Write,%function
	.code	16                              @ @FMC_Write
	.thumb_func
FMC_Write:
.Lfunc_begin7:
	.loc	2 573 0 is_stmt 1               @ ../../../../Library/StdDriver/src/fmc.c:573:0
	.fnstart
	.cfi_startproc
@ %bb.0:
	.pad	#16
	sub	sp, #16
	.cfi_def_cfa_offset 16
	str	r0, [sp, #12]
	str	r1, [sp, #8]
.Ltmp34:
	.loc	2 576 22 prologue_end           @ ../../../../Library/StdDriver/src/fmc.c:576:22
	ldr	r1, __arm_cp.7_0
	movs	r0, #0
	str	r0, [r1]
	ldr	r1, __arm_cp.7_1
	movs	r0, #33
	.loc	2 577 17                        @ ../../../../Library/StdDriver/src/fmc.c:577:17
	str	r0, [r1]
	.loc	2 578 20                        @ ../../../../Library/StdDriver/src/fmc.c:578:20
	ldr	r0, [sp, #12]
	ldr	r1, __arm_cp.7_2
	.loc	2 578 18 is_stmt 0              @ ../../../../Library/StdDriver/src/fmc.c:578:18
	str	r0, [r1]
	.loc	2 579 19 is_stmt 1              @ ../../../../Library/StdDriver/src/fmc.c:579:19
	ldr	r0, [sp, #8]
	ldr	r1, __arm_cp.7_3
	.loc	2 579 17 is_stmt 0              @ ../../../../Library/StdDriver/src/fmc.c:579:17
	str	r0, [r1]
	ldr	r1, __arm_cp.7_4
	movs	r0, #1
	.loc	2 580 17 is_stmt 1              @ ../../../../Library/StdDriver/src/fmc.c:580:17
	str	r0, [r1]
	.loc	2 585 12                        @ ../../../../Library/StdDriver/src/fmc.c:585:12
	ldr	r0, __arm_cp.7_5
	ldr	r0, [r0]
	movs	r1, #10
	udiv	r0, r0, r1
	lsls	r0, r0, #1
	.loc	2 585 10 is_stmt 0              @ ../../../../Library/StdDriver/src/fmc.c:585:10
	str	r0, [sp, #4]
	.loc	2 587 5 is_stmt 1               @ ../../../../Library/StdDriver/src/fmc.c:587:5
	b	.LBB7_1
.LBB7_1:                                @ =>This Inner Loop Header: Depth=1
	.loc	2 587 17 is_stmt 0              @ ../../../../Library/StdDriver/src/fmc.c:587:17
	ldr	r1, [sp, #4]
	subs	r0, r1, #1
	str	r0, [sp, #4]
	movs	r0, #0
	.loc	2 587 25                        @ ../../../../Library/StdDriver/src/fmc.c:587:25
	cmp	r1, #1
	str	r0, [sp]                        @ 4-byte Spill
	blt	.LBB7_3
	b	.LBB7_2
.LBB7_2:                                @   in Loop: Header=BB7_1 Depth=1
	.loc	2 0 25                          @ ../../../../Library/StdDriver/src/fmc.c:0:25
	ldr	r0, __arm_cp.7_4
	.loc	2 587 34                        @ ../../../../Library/StdDriver/src/fmc.c:587:34
	ldr	r0, [r0]
	movs	r1, #1
	.loc	2 587 41                        @ ../../../../Library/StdDriver/src/fmc.c:587:41
	ands	r0, r1
	str	r0, [sp]                        @ 4-byte Spill
	b	.LBB7_3
.LBB7_3:                                @   in Loop: Header=BB7_1 Depth=1
	.loc	2 0 0                           @ ../../../../Library/StdDriver/src/fmc.c:0:0
	ldr	r0, [sp]                        @ 4-byte Reload
	.loc	2 587 5                         @ ../../../../Library/StdDriver/src/fmc.c:587:5
	lsls	r0, r0, #31
	cbz	r0, .LBB7_5
	b	.LBB7_4
.LBB7_4:                                @   in Loop: Header=BB7_1 Depth=1
	b	.LBB7_1
.LBB7_5:
.Ltmp35:
	.loc	2 589 9 is_stmt 1               @ ../../../../Library/StdDriver/src/fmc.c:589:9
	ldr	r0, [sp, #4]
.Ltmp36:
	.loc	2 589 9 is_stmt 0               @ ../../../../Library/StdDriver/src/fmc.c:589:9
	cmp	r0, #0
	bgt	.LBB7_7
	b	.LBB7_6
.LBB7_6:
.Ltmp37:
	.loc	2 591 26 is_stmt 1              @ ../../../../Library/StdDriver/src/fmc.c:591:26
	ldr	r1, __arm_cp.7_0
	movs	r0, #0
	mvns	r0, r0
	str	r0, [r1]
	.loc	2 592 5                         @ ../../../../Library/StdDriver/src/fmc.c:592:5
	b	.LBB7_7
.Ltmp38:
.LBB7_7:
	.loc	2 0 5 is_stmt 0                 @ ../../../../Library/StdDriver/src/fmc.c:0:5
	ldr	r0, __arm_cp.7_6
.Ltmp39:
	.loc	2 594 14 is_stmt 1              @ ../../../../Library/StdDriver/src/fmc.c:594:14
	ldr	r0, [r0]
.Ltmp40:
	.loc	2 594 9 is_stmt 0               @ ../../../../Library/StdDriver/src/fmc.c:594:9
	lsls	r0, r0, #25
	cmp	r0, #0
	bpl	.LBB7_9
	b	.LBB7_8
.LBB7_8:
.Ltmp41:
	.loc	2 596 26 is_stmt 1              @ ../../../../Library/StdDriver/src/fmc.c:596:26
	ldr	r1, __arm_cp.7_0
	movs	r0, #2
	mvns	r0, r0
	str	r0, [r1]
	.loc	2 597 5                         @ ../../../../Library/StdDriver/src/fmc.c:597:5
	b	.LBB7_9
.Ltmp42:
.LBB7_9:
	.loc	2 598 1                         @ ../../../../Library/StdDriver/src/fmc.c:598:1
	add	sp, #16
	bx	lr
.Ltmp43:
	.p2align	2
@ %bb.10:
	.loc	2 0 1 is_stmt 0                 @ ../../../../Library/StdDriver/src/fmc.c:0:1
__arm_cp.7_0:
	.long	g_FMC_i32ErrCode
.Lcpi_end11:
	.size	__arm_cp.7_0, .Lcpi_end11-__arm_cp.7_0
__arm_cp.7_1:
	.long	1073790988                      @ 0x4000c00c
.Lcpi_end12:
	.size	__arm_cp.7_1, .Lcpi_end12-__arm_cp.7_1
__arm_cp.7_2:
	.long	1073790980                      @ 0x4000c004
.Lcpi_end13:
	.size	__arm_cp.7_2, .Lcpi_end13-__arm_cp.7_2
__arm_cp.7_3:
	.long	1073790984                      @ 0x4000c008
.Lcpi_end14:
	.size	__arm_cp.7_3, .Lcpi_end14-__arm_cp.7_3
__arm_cp.7_4:
	.long	1073790992                      @ 0x4000c010
.Lcpi_end15:
	.size	__arm_cp.7_4, .Lcpi_end15-__arm_cp.7_4
__arm_cp.7_5:
	.long	SystemCoreClock
.Lcpi_end16:
	.size	__arm_cp.7_5, .Lcpi_end16-__arm_cp.7_5
__arm_cp.7_6:
	.long	1073791040                      @ 0x4000c040
.Lcpi_end17:
	.size	__arm_cp.7_6, .Lcpi_end17-__arm_cp.7_6
.Lfunc_end7:
	.size	FMC_Write, .Lfunc_end7-FMC_Write
	.cfi_endproc
	.cantunwind
	.fnend
                                        @ -- End function
	.section	.text.FMC_GetChkSum,"ax",%progbits
	.hidden	FMC_GetChkSum                   @ -- Begin function FMC_GetChkSum
	.globl	FMC_GetChkSum
	.p2align	1
	.type	FMC_GetChkSum,%function
	.code	16                              @ @FMC_GetChkSum
	.thumb_func
FMC_GetChkSum:
.Lfunc_begin8:
	.loc	2 175 0 is_stmt 1               @ ../../../../Library/StdDriver/src/fmc.c:175:0
	.fnstart
	.cfi_startproc
@ %bb.0:
	.save	{r7, lr}
	push	{r7, lr}
	.cfi_def_cfa_offset 8
	.cfi_offset lr, -4
	.cfi_offset r7, -8
	.pad	#8
	sub	sp, #8
	.cfi_def_cfa_offset 16
	str	r0, [sp, #4]
	str	r1, [sp]
.Ltmp44:
	.loc	2 176 28 prologue_end           @ ../../../../Library/StdDriver/src/fmc.c:176:28
	ldr	r0, [sp, #4]
	.loc	2 176 37 is_stmt 0              @ ../../../../Library/StdDriver/src/fmc.c:176:37
	ldr	r1, [sp]
	.loc	2 176 12                        @ ../../../../Library/StdDriver/src/fmc.c:176:12
	bl	FMC_GetCheckSum
	.loc	2 176 5                         @ ../../../../Library/StdDriver/src/fmc.c:176:5
	add	sp, #8
	pop	{r7, pc}
.Ltmp45:
.Lfunc_end8:
	.size	FMC_GetChkSum, .Lfunc_end8-FMC_GetChkSum
	.cfi_endproc
	.cantunwind
	.fnend
                                        @ -- End function
	.section	.text.FMC_GetCheckSum,"ax",%progbits
	.p2align	2                               @ -- Begin function FMC_GetCheckSum
	.type	FMC_GetCheckSum,%function
	.code	16                              @ @FMC_GetCheckSum
	.thumb_func
FMC_GetCheckSum:
.Lfunc_begin9:
	.loc	3 687 0 is_stmt 1               @ ../../../../Library/StdDriver/inc\fmc.h:687:0
	.fnstart
	.cfi_startproc
@ %bb.0:
	.pad	#24
	sub	sp, #24
	.cfi_def_cfa_offset 24
	str	r0, [sp, #16]
	str	r1, [sp, #12]
.Ltmp46:
	.loc	3 690 22 prologue_end           @ ../../../../Library/StdDriver/inc\fmc.h:690:22
	ldr	r1, __arm_cp.9_0
	movs	r0, #0
	str	r0, [r1]
	add	r0, sp, #16
.Ltmp47:
	.loc	3 692 27                        @ ../../../../Library/StdDriver/inc\fmc.h:692:27
	ldrh	r0, [r0]
	lsls	r0, r0, #23
	cbnz	r0, .LBB9_2
	b	.LBB9_1
.Ltmp48:
.LBB9_1:
	.loc	3 0 27 is_stmt 0                @ ../../../../Library/StdDriver/inc\fmc.h:0:27
	add	r0, sp, #12
	.loc	3 692 9                         @ ../../../../Library/StdDriver/inc\fmc.h:692:9
	ldrh	r0, [r0]
	lsls	r0, r0, #23
	cbz	r0, .LBB9_3
	b	.LBB9_2
.LBB9_2:
.Ltmp49:
	.loc	3 694 26 is_stmt 1              @ ../../../../Library/StdDriver/inc\fmc.h:694:26
	ldr	r1, __arm_cp.9_0
	movs	r0, #1
	mvns	r0, r0
	str	r0, [r1]
	movs	r0, #0
	mvns	r0, r0
	.loc	3 695 9                         @ ../../../../Library/StdDriver/inc\fmc.h:695:9
	str	r0, [sp, #20]
	b	.LBB9_18
.Ltmp50:
.LBB9_3:
	.loc	3 0 9 is_stmt 0                 @ ../../../../Library/StdDriver/inc\fmc.h:0:9
	ldr	r1, __arm_cp.9_1
	movs	r0, #45
	.loc	3 698 17 is_stmt 1              @ ../../../../Library/StdDriver/inc\fmc.h:698:17
	str	r0, [r1]
	.loc	3 699 20                        @ ../../../../Library/StdDriver/inc\fmc.h:699:20
	ldr	r0, [sp, #16]
	ldr	r1, __arm_cp.9_2
	.loc	3 699 18 is_stmt 0              @ ../../../../Library/StdDriver/inc\fmc.h:699:18
	str	r0, [r1]
	.loc	3 700 29 is_stmt 1              @ ../../../../Library/StdDriver/inc\fmc.h:700:29
	ldr	r0, [sp, #12]
	ldr	r1, __arm_cp.9_3
	.loc	3 700 17 is_stmt 0              @ ../../../../Library/StdDriver/inc\fmc.h:700:17
	str	r0, [r1]
	ldr	r1, __arm_cp.9_4
	movs	r0, #1
	.loc	3 701 17 is_stmt 1              @ ../../../../Library/StdDriver/inc\fmc.h:701:17
	str	r0, [r1]
	.loc	3 706 12                        @ ../../../../Library/StdDriver/inc\fmc.h:706:12
	ldr	r0, __arm_cp.9_5
	ldr	r0, [r0]
	lsls	r0, r0, #1
	.loc	3 706 10 is_stmt 0              @ ../../../../Library/StdDriver/inc\fmc.h:706:10
	str	r0, [sp, #8]
	.loc	3 708 5 is_stmt 1               @ ../../../../Library/StdDriver/inc\fmc.h:708:5
	b	.LBB9_4
.LBB9_4:                                @ =>This Inner Loop Header: Depth=1
	.loc	3 708 17 is_stmt 0              @ ../../../../Library/StdDriver/inc\fmc.h:708:17
	ldr	r1, [sp, #8]
	subs	r0, r1, #1
	str	r0, [sp, #8]
	movs	r0, #0
	.loc	3 708 25                        @ ../../../../Library/StdDriver/inc\fmc.h:708:25
	cmp	r1, #1
	str	r0, [sp, #4]                    @ 4-byte Spill
	blt	.LBB9_6
	b	.LBB9_5
.LBB9_5:                                @   in Loop: Header=BB9_4 Depth=1
	.loc	3 0 25                          @ ../../../../Library/StdDriver/inc\fmc.h:0:25
	ldr	r0, __arm_cp.9_4
	.loc	3 708 34                        @ ../../../../Library/StdDriver/inc\fmc.h:708:34
	ldr	r0, [r0]
	movs	r1, #1
	.loc	3 708 41                        @ ../../../../Library/StdDriver/inc\fmc.h:708:41
	ands	r0, r1
	str	r0, [sp, #4]                    @ 4-byte Spill
	b	.LBB9_6
.LBB9_6:                                @   in Loop: Header=BB9_4 Depth=1
	.loc	3 0 0                           @ ../../../../Library/StdDriver/inc\fmc.h:0:0
	ldr	r0, [sp, #4]                    @ 4-byte Reload
	.loc	3 708 5                         @ ../../../../Library/StdDriver/inc\fmc.h:708:5
	lsls	r0, r0, #31
	cbz	r0, .LBB9_8
	b	.LBB9_7
.LBB9_7:                                @   in Loop: Header=BB9_4 Depth=1
	b	.LBB9_4
.LBB9_8:
.Ltmp51:
	.loc	3 710 9 is_stmt 1               @ ../../../../Library/StdDriver/inc\fmc.h:710:9
	ldr	r0, [sp, #8]
.Ltmp52:
	.loc	3 710 9 is_stmt 0               @ ../../../../Library/StdDriver/inc\fmc.h:710:9
	cmp	r0, #0
	bgt	.LBB9_10
	b	.LBB9_9
.LBB9_9:
.Ltmp53:
	.loc	3 712 26 is_stmt 1              @ ../../../../Library/StdDriver/inc\fmc.h:712:26
	ldr	r1, __arm_cp.9_0
	movs	r0, #0
	mvns	r0, r0
	str	r0, [r1]
	.loc	3 713 9                         @ ../../../../Library/StdDriver/inc\fmc.h:713:9
	str	r0, [sp, #20]
	b	.LBB9_18
.Ltmp54:
.LBB9_10:
	.loc	3 0 9 is_stmt 0                 @ ../../../../Library/StdDriver/inc\fmc.h:0:9
	ldr	r1, __arm_cp.9_1
	movs	r0, #13
	.loc	3 716 17 is_stmt 1              @ ../../../../Library/StdDriver/inc\fmc.h:716:17
	str	r0, [r1]
	ldr	r1, __arm_cp.9_4
	movs	r0, #1
	.loc	3 717 17                        @ ../../../../Library/StdDriver/inc\fmc.h:717:17
	str	r0, [r1]
	.loc	3 719 12                        @ ../../../../Library/StdDriver/inc\fmc.h:719:12
	ldr	r0, __arm_cp.9_5
	ldr	r0, [r0]
	lsls	r0, r0, #1
	.loc	3 719 10 is_stmt 0              @ ../../../../Library/StdDriver/inc\fmc.h:719:10
	str	r0, [sp, #8]
	.loc	3 721 5 is_stmt 1               @ ../../../../Library/StdDriver/inc\fmc.h:721:5
	b	.LBB9_11
.LBB9_11:                               @ =>This Inner Loop Header: Depth=1
	.loc	3 721 17 is_stmt 0              @ ../../../../Library/StdDriver/inc\fmc.h:721:17
	ldr	r1, [sp, #8]
	subs	r0, r1, #1
	str	r0, [sp, #8]
	movs	r0, #0
	.loc	3 721 25                        @ ../../../../Library/StdDriver/inc\fmc.h:721:25
	cmp	r1, #1
	str	r0, [sp]                        @ 4-byte Spill
	blt	.LBB9_13
	b	.LBB9_12
.LBB9_12:                               @   in Loop: Header=BB9_11 Depth=1
	.loc	3 0 25                          @ ../../../../Library/StdDriver/inc\fmc.h:0:25
	ldr	r0, __arm_cp.9_4
	.loc	3 721 34                        @ ../../../../Library/StdDriver/inc\fmc.h:721:34
	ldr	r0, [r0]
	movs	r1, #1
	.loc	3 721 41                        @ ../../../../Library/StdDriver/inc\fmc.h:721:41
	ands	r0, r1
	str	r0, [sp]                        @ 4-byte Spill
	b	.LBB9_13
.LBB9_13:                               @   in Loop: Header=BB9_11 Depth=1
	.loc	3 0 0                           @ ../../../../Library/StdDriver/inc\fmc.h:0:0
	ldr	r0, [sp]                        @ 4-byte Reload
	.loc	3 721 5                         @ ../../../../Library/StdDriver/inc\fmc.h:721:5
	lsls	r0, r0, #31
	cbz	r0, .LBB9_15
	b	.LBB9_14
.LBB9_14:                               @   in Loop: Header=BB9_11 Depth=1
	b	.LBB9_11
.LBB9_15:
.Ltmp55:
	.loc	3 723 9 is_stmt 1               @ ../../../../Library/StdDriver/inc\fmc.h:723:9
	ldr	r0, [sp, #8]
.Ltmp56:
	.loc	3 723 9 is_stmt 0               @ ../../../../Library/StdDriver/inc\fmc.h:723:9
	cmp	r0, #0
	bgt	.LBB9_17
	b	.LBB9_16
.LBB9_16:
.Ltmp57:
	.loc	3 725 26 is_stmt 1              @ ../../../../Library/StdDriver/inc\fmc.h:725:26
	ldr	r1, __arm_cp.9_0
	movs	r0, #0
	mvns	r0, r0
	str	r0, [r1]
	.loc	3 726 9                         @ ../../../../Library/StdDriver/inc\fmc.h:726:9
	str	r0, [sp, #20]
	b	.LBB9_18
.Ltmp58:
.LBB9_17:
	.loc	3 0 9 is_stmt 0                 @ ../../../../Library/StdDriver/inc\fmc.h:0:9
	ldr	r0, __arm_cp.9_3
	.loc	3 729 17 is_stmt 1              @ ../../../../Library/StdDriver/inc\fmc.h:729:17
	ldr	r0, [r0]
	.loc	3 729 5 is_stmt 0               @ ../../../../Library/StdDriver/inc\fmc.h:729:5
	str	r0, [sp, #20]
	b	.LBB9_18
.LBB9_18:
	.loc	3 730 1 is_stmt 1               @ ../../../../Library/StdDriver/inc\fmc.h:730:1
	ldr	r0, [sp, #20]
	add	sp, #24
	bx	lr
.Ltmp59:
	.p2align	2
@ %bb.19:
	.loc	3 0 1 is_stmt 0                 @ ../../../../Library/StdDriver/inc\fmc.h:0:1
__arm_cp.9_0:
	.long	g_FMC_i32ErrCode
.Lcpi_end18:
	.size	__arm_cp.9_0, .Lcpi_end18-__arm_cp.9_0
__arm_cp.9_1:
	.long	1073790988                      @ 0x4000c00c
.Lcpi_end19:
	.size	__arm_cp.9_1, .Lcpi_end19-__arm_cp.9_1
__arm_cp.9_2:
	.long	1073790980                      @ 0x4000c004
.Lcpi_end20:
	.size	__arm_cp.9_2, .Lcpi_end20-__arm_cp.9_2
__arm_cp.9_3:
	.long	1073790984                      @ 0x4000c008
.Lcpi_end21:
	.size	__arm_cp.9_3, .Lcpi_end21-__arm_cp.9_3
__arm_cp.9_4:
	.long	1073790992                      @ 0x4000c010
.Lcpi_end22:
	.size	__arm_cp.9_4, .Lcpi_end22-__arm_cp.9_4
__arm_cp.9_5:
	.long	SystemCoreClock
.Lcpi_end23:
	.size	__arm_cp.9_5, .Lcpi_end23-__arm_cp.9_5
.Lfunc_end9:
	.size	FMC_GetCheckSum, .Lfunc_end9-FMC_GetCheckSum
	.cfi_endproc
	.cantunwind
	.fnend
                                        @ -- End function
	.section	.text.FMC_CheckAllOne,"ax",%progbits
	.hidden	FMC_CheckAllOne                 @ -- Begin function FMC_CheckAllOne
	.globl	FMC_CheckAllOne
	.p2align	2
	.type	FMC_CheckAllOne,%function
	.code	16                              @ @FMC_CheckAllOne
	.thumb_func
FMC_CheckAllOne:
.Lfunc_begin10:
	.loc	2 197 0 is_stmt 1               @ ../../../../Library/StdDriver/src/fmc.c:197:0
	.fnstart
	.cfi_startproc
@ %bb.0:
	.pad	#24
	sub	sp, #24
	.cfi_def_cfa_offset 24
	str	r0, [sp, #16]
	str	r1, [sp, #12]
.Ltmp60:
	.loc	2 200 22 prologue_end           @ ../../../../Library/StdDriver/src/fmc.c:200:22
	ldr	r1, __arm_cp.10_0
	movs	r0, #0
	str	r0, [r1]
	add	r0, sp, #16
.Ltmp61:
	.loc	2 202 27                        @ ../../../../Library/StdDriver/src/fmc.c:202:27
	ldrh	r0, [r0]
	lsls	r0, r0, #23
	cbnz	r0, .LBB10_2
	b	.LBB10_1
.Ltmp62:
.LBB10_1:
	.loc	2 0 27 is_stmt 0                @ ../../../../Library/StdDriver/src/fmc.c:0:27
	add	r0, sp, #12
	.loc	2 202 9                         @ ../../../../Library/StdDriver/src/fmc.c:202:9
	ldrh	r0, [r0]
	lsls	r0, r0, #23
	cbz	r0, .LBB10_3
	b	.LBB10_2
.LBB10_2:
.Ltmp63:
	.loc	2 204 26 is_stmt 1              @ ../../../../Library/StdDriver/src/fmc.c:204:26
	ldr	r1, __arm_cp.10_0
	movs	r0, #1
	mvns	r0, r0
	str	r0, [r1]
	movs	r0, #0
	mvns	r0, r0
	.loc	2 205 9                         @ ../../../../Library/StdDriver/src/fmc.c:205:9
	str	r0, [sp, #20]
	b	.LBB10_24
.Ltmp64:
.LBB10_3:
	.loc	2 0 9 is_stmt 0                 @ ../../../../Library/StdDriver/src/fmc.c:0:9
	ldr	r1, __arm_cp.10_1
	.loc	2 208 17 is_stmt 1              @ ../../../../Library/StdDriver/src/fmc.c:208:17
	ldr	r0, [r1]
	movs	r2, #128
	orrs	r0, r2
	str	r0, [r1]
	ldr	r1, __arm_cp.10_2
	movs	r0, #40
	.loc	2 210 19                        @ ../../../../Library/StdDriver/src/fmc.c:210:19
	str	r0, [r1]
	.loc	2 211 21                        @ ../../../../Library/StdDriver/src/fmc.c:211:21
	ldr	r0, [sp, #16]
	ldr	r1, __arm_cp.10_3
	.loc	2 211 19 is_stmt 0              @ ../../../../Library/StdDriver/src/fmc.c:211:19
	str	r0, [r1]
	.loc	2 212 21 is_stmt 1              @ ../../../../Library/StdDriver/src/fmc.c:212:21
	ldr	r0, [sp, #12]
	ldr	r1, __arm_cp.10_4
	.loc	2 212 19 is_stmt 0              @ ../../../../Library/StdDriver/src/fmc.c:212:19
	str	r0, [r1]
	ldr	r1, __arm_cp.10_5
	movs	r0, #1
	.loc	2 213 19 is_stmt 1              @ ../../../../Library/StdDriver/src/fmc.c:213:19
	str	r0, [r1]
	.loc	2 215 12                        @ ../../../../Library/StdDriver/src/fmc.c:215:12
	ldr	r0, __arm_cp.10_6
	ldr	r0, [r0]
	lsls	r0, r0, #1
	.loc	2 215 10 is_stmt 0              @ ../../../../Library/StdDriver/src/fmc.c:215:10
	str	r0, [sp, #8]
	.loc	2 217 5 is_stmt 1               @ ../../../../Library/StdDriver/src/fmc.c:217:5
	b	.LBB10_4
.LBB10_4:                               @ =>This Inner Loop Header: Depth=1
	.loc	2 217 17 is_stmt 0              @ ../../../../Library/StdDriver/src/fmc.c:217:17
	ldr	r1, [sp, #8]
	subs	r0, r1, #1
	str	r0, [sp, #8]
	movs	r0, #0
	.loc	2 217 25                        @ ../../../../Library/StdDriver/src/fmc.c:217:25
	cmp	r1, #1
	str	r0, [sp, #4]                    @ 4-byte Spill
	blt	.LBB10_6
	b	.LBB10_5
.LBB10_5:                               @   in Loop: Header=BB10_4 Depth=1
	.loc	2 0 25                          @ ../../../../Library/StdDriver/src/fmc.c:0:25
	ldr	r0, __arm_cp.10_1
	.loc	2 217 34                        @ ../../../../Library/StdDriver/src/fmc.c:217:34
	ldr	r0, [r0]
	movs	r1, #1
	.loc	2 217 41                        @ ../../../../Library/StdDriver/src/fmc.c:217:41
	ands	r0, r1
	str	r0, [sp, #4]                    @ 4-byte Spill
	b	.LBB10_6
.LBB10_6:                               @   in Loop: Header=BB10_4 Depth=1
	.loc	2 0 0                           @ ../../../../Library/StdDriver/src/fmc.c:0:0
	ldr	r0, [sp, #4]                    @ 4-byte Reload
	.loc	2 217 5                         @ ../../../../Library/StdDriver/src/fmc.c:217:5
	lsls	r0, r0, #31
	cbz	r0, .LBB10_8
	b	.LBB10_7
.LBB10_7:                               @   in Loop: Header=BB10_4 Depth=1
	b	.LBB10_4
.LBB10_8:
.Ltmp65:
	.loc	2 219 9 is_stmt 1               @ ../../../../Library/StdDriver/src/fmc.c:219:9
	ldr	r0, [sp, #8]
.Ltmp66:
	.loc	2 219 9 is_stmt 0               @ ../../../../Library/StdDriver/src/fmc.c:219:9
	cmp	r0, #0
	bgt	.LBB10_10
	b	.LBB10_9
.LBB10_9:
.Ltmp67:
	.loc	2 221 26 is_stmt 1              @ ../../../../Library/StdDriver/src/fmc.c:221:26
	ldr	r1, __arm_cp.10_0
	movs	r0, #0
	mvns	r0, r0
	str	r0, [r1]
	.loc	2 222 9                         @ ../../../../Library/StdDriver/src/fmc.c:222:9
	str	r0, [sp, #20]
	b	.LBB10_24
.Ltmp68:
.LBB10_10:
	.loc	2 225 12                        @ ../../../../Library/StdDriver/src/fmc.c:225:12
	ldr	r0, __arm_cp.10_6
	ldr	r0, [r0]
	lsls	r0, r0, #1
	.loc	2 225 10 is_stmt 0              @ ../../../../Library/StdDriver/src/fmc.c:225:10
	str	r0, [sp, #8]
	.loc	2 227 5 is_stmt 1               @ ../../../../Library/StdDriver/src/fmc.c:227:5
	b	.LBB10_11
.LBB10_11:                              @ =>This Loop Header: Depth=1
                                        @     Child Loop BB10_12 Depth 2
	.loc	2 0 5 is_stmt 0                 @ ../../../../Library/StdDriver/src/fmc.c:0:5
	ldr	r1, __arm_cp.10_2
	movs	r0, #8
.Ltmp69:
	.loc	2 229 21 is_stmt 1              @ ../../../../Library/StdDriver/src/fmc.c:229:21
	str	r0, [r1]
	.loc	2 230 27                        @ ../../../../Library/StdDriver/src/fmc.c:230:27
	ldr	r0, [sp, #16]
	ldr	r1, __arm_cp.10_3
	.loc	2 230 25 is_stmt 0              @ ../../../../Library/StdDriver/src/fmc.c:230:25
	str	r0, [r1]
	ldr	r1, __arm_cp.10_5
	movs	r0, #1
	.loc	2 231 21 is_stmt 1              @ ../../../../Library/StdDriver/src/fmc.c:231:21
	str	r0, [r1]
	.loc	2 233 9                         @ ../../../../Library/StdDriver/src/fmc.c:233:9
	b	.LBB10_12
.LBB10_12:                              @   Parent Loop BB10_11 Depth=1
                                        @ =>  This Inner Loop Header: Depth=2
	.loc	2 233 21 is_stmt 0              @ ../../../../Library/StdDriver/src/fmc.c:233:21
	ldr	r1, [sp, #8]
	subs	r0, r1, #1
	str	r0, [sp, #8]
	movs	r0, #0
	.loc	2 233 29                        @ ../../../../Library/StdDriver/src/fmc.c:233:29
	cmp	r1, #1
	str	r0, [sp]                        @ 4-byte Spill
	blt	.LBB10_14
	b	.LBB10_13
.LBB10_13:                              @   in Loop: Header=BB10_12 Depth=2
	.loc	2 0 29                          @ ../../../../Library/StdDriver/src/fmc.c:0:29
	ldr	r0, __arm_cp.10_1
	.loc	2 233 38                        @ ../../../../Library/StdDriver/src/fmc.c:233:38
	ldr	r0, [r0]
	movs	r1, #1
	.loc	2 233 45                        @ ../../../../Library/StdDriver/src/fmc.c:233:45
	ands	r0, r1
	str	r0, [sp]                        @ 4-byte Spill
	b	.LBB10_14
.LBB10_14:                              @   in Loop: Header=BB10_12 Depth=2
	.loc	2 0 0                           @ ../../../../Library/StdDriver/src/fmc.c:0:0
	ldr	r0, [sp]                        @ 4-byte Reload
	.loc	2 233 9                         @ ../../../../Library/StdDriver/src/fmc.c:233:9
	lsls	r0, r0, #31
	cbz	r0, .LBB10_16
	b	.LBB10_15
.LBB10_15:                              @   in Loop: Header=BB10_12 Depth=2
	b	.LBB10_12
.LBB10_16:                              @   in Loop: Header=BB10_11 Depth=1
.Ltmp70:
	.loc	2 235 13 is_stmt 1              @ ../../../../Library/StdDriver/src/fmc.c:235:13
	ldr	r0, [sp, #8]
.Ltmp71:
	.loc	2 235 13 is_stmt 0              @ ../../../../Library/StdDriver/src/fmc.c:235:13
	cmp	r0, #0
	bgt	.LBB10_18
	b	.LBB10_17
.LBB10_17:
.Ltmp72:
	.loc	2 237 30 is_stmt 1              @ ../../../../Library/StdDriver/src/fmc.c:237:30
	ldr	r1, __arm_cp.10_0
	movs	r0, #0
	mvns	r0, r0
	str	r0, [r1]
	.loc	2 238 13                        @ ../../../../Library/StdDriver/src/fmc.c:238:13
	str	r0, [sp, #20]
	b	.LBB10_24
.Ltmp73:
.LBB10_18:                              @   in Loop: Header=BB10_11 Depth=1
	.loc	2 240 5                         @ ../../../../Library/StdDriver/src/fmc.c:240:5
	b	.LBB10_19
.Ltmp74:
.LBB10_19:                              @   in Loop: Header=BB10_11 Depth=1
	.loc	2 0 5 is_stmt 0                 @ ../../../../Library/StdDriver/src/fmc.c:0:5
	ldr	r0, __arm_cp.10_4
	.loc	2 240 19                        @ ../../../../Library/StdDriver/src/fmc.c:240:19
	ldr	r0, [r0]
.Ltmp75:
	.loc	2 240 5                         @ ../../../../Library/StdDriver/src/fmc.c:240:5
	cmp	r0, #0
	beq	.LBB10_11
	b	.LBB10_20
.Ltmp76:
.LBB10_20:
	.loc	2 0 5                           @ ../../../../Library/StdDriver/src/fmc.c:0:5
	ldr	r0, __arm_cp.10_4
.Ltmp77:
	.loc	2 242 14 is_stmt 1              @ ../../../../Library/StdDriver/src/fmc.c:242:14
	ldr	r0, [r0]
	ldr	r1, __arm_cp.10_7
	.loc	2 242 40 is_stmt 0              @ ../../../../Library/StdDriver/src/fmc.c:242:40
	cmp	r0, r1
	beq	.LBB10_22
	b	.LBB10_21
.LBB10_21:
	.loc	2 0 40                          @ ../../../../Library/StdDriver/src/fmc.c:0:40
	ldr	r0, __arm_cp.10_4
	.loc	2 242 48                        @ ../../../../Library/StdDriver/src/fmc.c:242:48
	ldr	r0, [r0]
	ldr	r1, __arm_cp.10_8
.Ltmp78:
	.loc	2 242 9                         @ ../../../../Library/StdDriver/src/fmc.c:242:9
	cmp	r0, r1
	bne	.LBB10_23
	b	.LBB10_22
.LBB10_22:
	.loc	2 0 9                           @ ../../../../Library/StdDriver/src/fmc.c:0:9
	ldr	r0, __arm_cp.10_4
.Ltmp79:
	.loc	2 244 21 is_stmt 1              @ ../../../../Library/StdDriver/src/fmc.c:244:21
	ldr	r0, [r0]
	.loc	2 244 9 is_stmt 0               @ ../../../../Library/StdDriver/src/fmc.c:244:9
	str	r0, [sp, #20]
	b	.LBB10_24
.Ltmp80:
.LBB10_23:
	.loc	2 0 9                           @ ../../../../Library/StdDriver/src/fmc.c:0:9
	movs	r0, #0
	mvns	r0, r0
	.loc	2 247 5 is_stmt 1               @ ../../../../Library/StdDriver/src/fmc.c:247:5
	str	r0, [sp, #20]
	b	.LBB10_24
.LBB10_24:
	.loc	2 248 1                         @ ../../../../Library/StdDriver/src/fmc.c:248:1
	ldr	r0, [sp, #20]
	add	sp, #24
	bx	lr
.Ltmp81:
	.p2align	2
@ %bb.25:
	.loc	2 0 1 is_stmt 0                 @ ../../../../Library/StdDriver/src/fmc.c:0:1
__arm_cp.10_0:
	.long	g_FMC_i32ErrCode
.Lcpi_end24:
	.size	__arm_cp.10_0, .Lcpi_end24-__arm_cp.10_0
__arm_cp.10_1:
	.long	1073791040                      @ 0x4000c040
.Lcpi_end25:
	.size	__arm_cp.10_1, .Lcpi_end25-__arm_cp.10_1
__arm_cp.10_2:
	.long	1073790988                      @ 0x4000c00c
.Lcpi_end26:
	.size	__arm_cp.10_2, .Lcpi_end26-__arm_cp.10_2
__arm_cp.10_3:
	.long	1073790980                      @ 0x4000c004
.Lcpi_end27:
	.size	__arm_cp.10_3, .Lcpi_end27-__arm_cp.10_3
__arm_cp.10_4:
	.long	1073790984                      @ 0x4000c008
.Lcpi_end28:
	.size	__arm_cp.10_4, .Lcpi_end28-__arm_cp.10_4
__arm_cp.10_5:
	.long	1073790992                      @ 0x4000c010
.Lcpi_end29:
	.size	__arm_cp.10_5, .Lcpi_end29-__arm_cp.10_5
__arm_cp.10_6:
	.long	SystemCoreClock
.Lcpi_end30:
	.size	__arm_cp.10_6, .Lcpi_end30-__arm_cp.10_6
__arm_cp.10_7:
	.long	2703228927                      @ 0xa11fffff
.Lcpi_end31:
	.size	__arm_cp.10_7, .Lcpi_end31-__arm_cp.10_7
__arm_cp.10_8:
	.long	2702180352                      @ 0xa1100000
.Lcpi_end32:
	.size	__arm_cp.10_8, .Lcpi_end32-__arm_cp.10_8
.Lfunc_end10:
	.size	FMC_CheckAllOne, .Lfunc_end10-FMC_CheckAllOne
	.cfi_endproc
	.cantunwind
	.fnend
                                        @ -- End function
	.section	.text.FMC_Is_XOM_Actived,"ax",%progbits
	.hidden	FMC_Is_XOM_Actived              @ -- Begin function FMC_Is_XOM_Actived
	.globl	FMC_Is_XOM_Actived
	.p2align	2
	.type	FMC_Is_XOM_Actived,%function
	.code	16                              @ @FMC_Is_XOM_Actived
	.thumb_func
FMC_Is_XOM_Actived:
.Lfunc_begin11:
	.loc	2 263 0 is_stmt 1               @ ../../../../Library/StdDriver/src/fmc.c:263:0
	.fnstart
	.cfi_startproc
@ %bb.0:
	.pad	#12
	sub	sp, #12
	.cfi_def_cfa_offset 12
	str	r0, [sp, #8]
	movs	r0, #0
.Ltmp82:
	.loc	2 264 14 prologue_end           @ ../../../../Library/StdDriver/src/fmc.c:264:14
	str	r0, [sp, #4]
.Ltmp83:
	.loc	2 266 9                         @ ../../../../Library/StdDriver/src/fmc.c:266:9
	ldr	r0, [sp, #8]
.Ltmp84:
	.loc	2 266 9 is_stmt 0               @ ../../../../Library/StdDriver/src/fmc.c:266:9
	cbz	r0, .LBB11_2
	b	.LBB11_1
.LBB11_1:
	.loc	2 0 9                           @ ../../../../Library/StdDriver/src/fmc.c:0:9
	movs	r0, #1
	mvns	r0, r0
.Ltmp85:
	.loc	2 268 13 is_stmt 1              @ ../../../../Library/StdDriver/src/fmc.c:268:13
	str	r0, [sp, #4]
	.loc	2 269 5                         @ ../../../../Library/StdDriver/src/fmc.c:269:5
	b	.LBB11_2
.Ltmp86:
.LBB11_2:
	.loc	2 271 9                         @ ../../../../Library/StdDriver/src/fmc.c:271:9
	ldr	r0, [sp, #4]
.Ltmp87:
	.loc	2 271 9 is_stmt 0               @ ../../../../Library/StdDriver/src/fmc.c:271:9
	cmp	r0, #0
	bmi	.LBB11_4
	b	.LBB11_3
.LBB11_3:
	.loc	2 0 9                           @ ../../../../Library/StdDriver/src/fmc.c:0:9
	ldr	r0, __arm_cp.11_0
.Ltmp88:
	.loc	2 274 26 is_stmt 1              @ ../../../../Library/StdDriver/src/fmc.c:274:26
	ldr	r0, [r0]
	.loc	2 274 53 is_stmt 0              @ ../../../../Library/StdDriver/src/fmc.c:274:53
	ldr	r1, [sp, #8]
	movs	r2, #1
	.loc	2 274 50                        @ ../../../../Library/StdDriver/src/fmc.c:274:50
	lsls	r2, r1
	.loc	2 274 34                        @ ../../../../Library/StdDriver/src/fmc.c:274:34
	ands	r0, r2
	movs	r2, #15
	.loc	2 274 43                        @ ../../../../Library/StdDriver/src/fmc.c:274:43
	ands	r0, r2
	.loc	2 274 63                        @ ../../../../Library/StdDriver/src/fmc.c:274:63
	lsrs	r0, r1
	.loc	2 274 16                        @ ../../../../Library/StdDriver/src/fmc.c:274:16
	str	r0, [sp]
	.loc	2 275 24 is_stmt 1              @ ../../../../Library/StdDriver/src/fmc.c:275:24
	ldr	r0, [sp]
	.loc	2 275 13 is_stmt 0              @ ../../../../Library/StdDriver/src/fmc.c:275:13
	str	r0, [sp, #4]
	.loc	2 276 5 is_stmt 1               @ ../../../../Library/StdDriver/src/fmc.c:276:5
	b	.LBB11_4
.Ltmp89:
.LBB11_4:
	.loc	2 278 12                        @ ../../../../Library/StdDriver/src/fmc.c:278:12
	ldr	r0, [sp, #4]
	.loc	2 278 5 is_stmt 0               @ ../../../../Library/StdDriver/src/fmc.c:278:5
	add	sp, #12
	bx	lr
.Ltmp90:
	.p2align	2
@ %bb.5:
	.loc	2 0 5                           @ ../../../../Library/StdDriver/src/fmc.c:0:5
__arm_cp.11_0:
	.long	1073791200                      @ 0x4000c0e0
.Lcpi_end33:
	.size	__arm_cp.11_0, .Lcpi_end33-__arm_cp.11_0
.Lfunc_end11:
	.size	FMC_Is_XOM_Actived, .Lfunc_end11-FMC_Is_XOM_Actived
	.cfi_endproc
	.cantunwind
	.fnend
                                        @ -- End function
	.section	.text.FMC_Config_XOM,"ax",%progbits
	.hidden	FMC_Config_XOM                  @ -- Begin function FMC_Config_XOM
	.globl	FMC_Config_XOM
	.p2align	2
	.type	FMC_Config_XOM,%function
	.code	16                              @ @FMC_Config_XOM
	.thumb_func
FMC_Config_XOM:
.Lfunc_begin12:
	.loc	2 300 0 is_stmt 1               @ ../../../../Library/StdDriver/src/fmc.c:300:0
	.fnstart
	.cfi_startproc
@ %bb.0:
	.save	{r7, lr}
	push	{r7, lr}
	.cfi_def_cfa_offset 8
	.cfi_offset lr, -4
	.cfi_offset r7, -8
	.pad	#40
	sub	sp, #40
	.cfi_def_cfa_offset 48
                                        @ kill: def $r3 killed $r2
	str	r0, [sp, #32]
	str	r1, [sp, #28]
	add	r0, sp, #24
	strb	r2, [r0]
	movs	r0, #0
.Ltmp91:
	.loc	2 302 14 prologue_end           @ ../../../../Library/StdDriver/src/fmc.c:302:14
	str	r0, [sp, #16]
	.loc	2 304 22                        @ ../../../../Library/StdDriver/src/fmc.c:304:22
	ldr	r1, __arm_cp.12_0
	str	r0, [r1]
.Ltmp92:
	.loc	2 306 9                         @ ../../../../Library/StdDriver/src/fmc.c:306:9
	ldr	r0, [sp, #32]
.Ltmp93:
	.loc	2 306 9 is_stmt 0               @ ../../../../Library/StdDriver/src/fmc.c:306:9
	cbz	r0, .LBB12_2
	b	.LBB12_1
.LBB12_1:
.Ltmp94:
	.loc	2 308 26 is_stmt 1              @ ../../../../Library/StdDriver/src/fmc.c:308:26
	ldr	r1, __arm_cp.12_0
	movs	r0, #1
	mvns	r0, r0
	str	r0, [r1]
	.loc	2 309 13                        @ ../../../../Library/StdDriver/src/fmc.c:309:13
	str	r0, [sp, #16]
	.loc	2 310 5                         @ ../../../../Library/StdDriver/src/fmc.c:310:5
	b	.LBB12_2
.Ltmp95:
.LBB12_2:
	.loc	2 312 9                         @ ../../../../Library/StdDriver/src/fmc.c:312:9
	ldr	r0, [sp, #16]
.Ltmp96:
	.loc	2 312 9 is_stmt 0               @ ../../../../Library/StdDriver/src/fmc.c:312:9
	cbnz	r0, .LBB12_4
	b	.LBB12_3
.LBB12_3:
.Ltmp97:
	.loc	2 314 34 is_stmt 1              @ ../../../../Library/StdDriver/src/fmc.c:314:34
	ldr	r0, [sp, #32]
	.loc	2 314 15 is_stmt 0              @ ../../../../Library/StdDriver/src/fmc.c:314:15
	bl	FMC_Is_XOM_Actived
	.loc	2 314 13                        @ ../../../../Library/StdDriver/src/fmc.c:314:13
	str	r0, [sp, #16]
	.loc	2 315 5 is_stmt 1               @ ../../../../Library/StdDriver/src/fmc.c:315:5
	b	.LBB12_4
.Ltmp98:
.LBB12_4:
	.loc	2 317 9                         @ ../../../../Library/StdDriver/src/fmc.c:317:9
	ldr	r0, [sp, #16]
.Ltmp99:
	.loc	2 317 9 is_stmt 0               @ ../../../../Library/StdDriver/src/fmc.c:317:9
	cmp	r0, #0
	bne	.LBB12_15
	b	.LBB12_5
.LBB12_5:
	.loc	2 0 9                           @ ../../../../Library/StdDriver/src/fmc.c:0:9
	ldr	r1, __arm_cp.12_1
	movs	r0, #33
.Ltmp100:
	.loc	2 319 21 is_stmt 1              @ ../../../../Library/StdDriver/src/fmc.c:319:21
	str	r0, [r1]
	.loc	2 320 40                        @ ../../../../Library/StdDriver/src/fmc.c:320:40
	ldr	r0, [sp, #32]
	.loc	2 320 48 is_stmt 0              @ ../../../../Library/StdDriver/src/fmc.c:320:48
	lsls	r1, r0, #4
	movs	r0, #1
	lsls	r2, r0, #21
	.loc	2 320 37                        @ ../../../../Library/StdDriver/src/fmc.c:320:37
	adds	r1, r1, r2
	ldr	r2, __arm_cp.12_2
	.loc	2 320 22                        @ ../../../../Library/StdDriver/src/fmc.c:320:22
	str	r1, [r2]
	.loc	2 321 23 is_stmt 1              @ ../../../../Library/StdDriver/src/fmc.c:321:23
	ldr	r1, [sp, #28]
	ldr	r2, __arm_cp.12_3
	.loc	2 321 21 is_stmt 0              @ ../../../../Library/StdDriver/src/fmc.c:321:21
	str	r1, [r2]
	ldr	r1, __arm_cp.12_4
	.loc	2 322 21 is_stmt 1              @ ../../../../Library/StdDriver/src/fmc.c:322:21
	str	r0, [r1]
	.loc	2 324 16                        @ ../../../../Library/StdDriver/src/fmc.c:324:16
	ldr	r0, __arm_cp.12_5
	ldr	r0, [r0]
	movs	r1, #10
	udiv	r0, r0, r1
	lsls	r0, r0, #1
	.loc	2 324 14 is_stmt 0              @ ../../../../Library/StdDriver/src/fmc.c:324:14
	str	r0, [sp, #20]
	.loc	2 326 9 is_stmt 1               @ ../../../../Library/StdDriver/src/fmc.c:326:9
	b	.LBB12_6
.LBB12_6:                               @ =>This Inner Loop Header: Depth=1
	.loc	2 326 21 is_stmt 0              @ ../../../../Library/StdDriver/src/fmc.c:326:21
	ldr	r1, [sp, #20]
	subs	r0, r1, #1
	str	r0, [sp, #20]
	movs	r0, #0
	.loc	2 326 29                        @ ../../../../Library/StdDriver/src/fmc.c:326:29
	cmp	r1, #1
	str	r0, [sp, #12]                   @ 4-byte Spill
	blt	.LBB12_8
	b	.LBB12_7
.LBB12_7:                               @   in Loop: Header=BB12_6 Depth=1
	.loc	2 0 29                          @ ../../../../Library/StdDriver/src/fmc.c:0:29
	ldr	r0, __arm_cp.12_4
	.loc	2 326 38                        @ ../../../../Library/StdDriver/src/fmc.c:326:38
	ldr	r0, [r0]
	movs	r1, #1
	.loc	2 326 45                        @ ../../../../Library/StdDriver/src/fmc.c:326:45
	ands	r0, r1
	str	r0, [sp, #12]                   @ 4-byte Spill
	b	.LBB12_8
.LBB12_8:                               @   in Loop: Header=BB12_6 Depth=1
	.loc	2 0 0                           @ ../../../../Library/StdDriver/src/fmc.c:0:0
	ldr	r0, [sp, #12]                   @ 4-byte Reload
	.loc	2 326 9                         @ ../../../../Library/StdDriver/src/fmc.c:326:9
	lsls	r0, r0, #31
	cbz	r0, .LBB12_10
	b	.LBB12_9
.LBB12_9:                               @   in Loop: Header=BB12_6 Depth=1
	b	.LBB12_6
.LBB12_10:
.Ltmp101:
	.loc	2 328 13 is_stmt 1              @ ../../../../Library/StdDriver/src/fmc.c:328:13
	ldr	r0, [sp, #20]
.Ltmp102:
	.loc	2 328 13 is_stmt 0              @ ../../../../Library/StdDriver/src/fmc.c:328:13
	cmp	r0, #0
	bgt	.LBB12_12
	b	.LBB12_11
.LBB12_11:
.Ltmp103:
	.loc	2 330 30 is_stmt 1              @ ../../../../Library/StdDriver/src/fmc.c:330:30
	ldr	r1, __arm_cp.12_0
	movs	r0, #0
	mvns	r0, r0
	str	r0, [r1]
	.loc	2 331 13                        @ ../../../../Library/StdDriver/src/fmc.c:331:13
	str	r0, [sp, #36]
	b	.LBB12_38
.Ltmp104:
.LBB12_12:
	.loc	2 0 13 is_stmt 0                @ ../../../../Library/StdDriver/src/fmc.c:0:13
	ldr	r0, __arm_cp.12_6
.Ltmp105:
	.loc	2 334 18 is_stmt 1              @ ../../../../Library/StdDriver/src/fmc.c:334:18
	ldr	r0, [r0]
.Ltmp106:
	.loc	2 334 13 is_stmt 0              @ ../../../../Library/StdDriver/src/fmc.c:334:13
	lsls	r0, r0, #25
	cmp	r0, #0
	bpl	.LBB12_14
	b	.LBB12_13
.LBB12_13:
	.loc	2 0 13                          @ ../../../../Library/StdDriver/src/fmc.c:0:13
	ldr	r1, __arm_cp.12_6
.Ltmp107:
	.loc	2 336 25 is_stmt 1              @ ../../../../Library/StdDriver/src/fmc.c:336:25
	ldr	r0, [r1]
	movs	r2, #64
	orrs	r0, r2
	str	r0, [r1]
	.loc	2 337 30                        @ ../../../../Library/StdDriver/src/fmc.c:337:30
	ldr	r1, __arm_cp.12_0
	movs	r0, #2
	mvns	r0, r0
	str	r0, [r1]
	movs	r0, #0
	mvns	r0, r0
	.loc	2 338 17                        @ ../../../../Library/StdDriver/src/fmc.c:338:17
	str	r0, [sp, #16]
	.loc	2 339 9                         @ ../../../../Library/StdDriver/src/fmc.c:339:9
	b	.LBB12_14
.Ltmp108:
.LBB12_14:
	.loc	2 340 5                         @ ../../../../Library/StdDriver/src/fmc.c:340:5
	b	.LBB12_15
.Ltmp109:
.LBB12_15:
	.loc	2 342 9                         @ ../../../../Library/StdDriver/src/fmc.c:342:9
	ldr	r0, [sp, #16]
.Ltmp110:
	.loc	2 342 9 is_stmt 0               @ ../../../../Library/StdDriver/src/fmc.c:342:9
	cmp	r0, #0
	bne	.LBB12_26
	b	.LBB12_16
.LBB12_16:
	.loc	2 0 9                           @ ../../../../Library/StdDriver/src/fmc.c:0:9
	ldr	r1, __arm_cp.12_1
	movs	r0, #33
.Ltmp111:
	.loc	2 344 21 is_stmt 1              @ ../../../../Library/StdDriver/src/fmc.c:344:21
	str	r0, [r1]
	.loc	2 345 40                        @ ../../../../Library/StdDriver/src/fmc.c:345:40
	ldr	r0, [sp, #32]
	.loc	2 345 48 is_stmt 0              @ ../../../../Library/StdDriver/src/fmc.c:345:48
	lsls	r0, r0, #4
	ldr	r1, __arm_cp.12_7
	.loc	2 345 37                        @ ../../../../Library/StdDriver/src/fmc.c:345:37
	adds	r0, r0, r1
	ldr	r1, __arm_cp.12_2
	.loc	2 345 22                        @ ../../../../Library/StdDriver/src/fmc.c:345:22
	str	r0, [r1]
	add	r0, sp, #24
	.loc	2 346 23 is_stmt 1              @ ../../../../Library/StdDriver/src/fmc.c:346:23
	ldrb	r0, [r0]
	ldr	r1, __arm_cp.12_3
	.loc	2 346 21 is_stmt 0              @ ../../../../Library/StdDriver/src/fmc.c:346:21
	str	r0, [r1]
	ldr	r1, __arm_cp.12_4
	movs	r0, #1
	.loc	2 347 21 is_stmt 1              @ ../../../../Library/StdDriver/src/fmc.c:347:21
	str	r0, [r1]
	.loc	2 349 16                        @ ../../../../Library/StdDriver/src/fmc.c:349:16
	ldr	r0, __arm_cp.12_5
	ldr	r0, [r0]
	movs	r1, #10
	udiv	r0, r0, r1
	lsls	r0, r0, #1
	.loc	2 349 14 is_stmt 0              @ ../../../../Library/StdDriver/src/fmc.c:349:14
	str	r0, [sp, #20]
	.loc	2 351 9 is_stmt 1               @ ../../../../Library/StdDriver/src/fmc.c:351:9
	b	.LBB12_17
.LBB12_17:                              @ =>This Inner Loop Header: Depth=1
	.loc	2 351 21 is_stmt 0              @ ../../../../Library/StdDriver/src/fmc.c:351:21
	ldr	r1, [sp, #20]
	subs	r0, r1, #1
	str	r0, [sp, #20]
	movs	r0, #0
	.loc	2 351 29                        @ ../../../../Library/StdDriver/src/fmc.c:351:29
	cmp	r1, #1
	str	r0, [sp, #8]                    @ 4-byte Spill
	blt	.LBB12_19
	b	.LBB12_18
.LBB12_18:                              @   in Loop: Header=BB12_17 Depth=1
	.loc	2 0 29                          @ ../../../../Library/StdDriver/src/fmc.c:0:29
	ldr	r0, __arm_cp.12_4
	.loc	2 351 38                        @ ../../../../Library/StdDriver/src/fmc.c:351:38
	ldr	r0, [r0]
	movs	r1, #1
	.loc	2 351 45                        @ ../../../../Library/StdDriver/src/fmc.c:351:45
	ands	r0, r1
	str	r0, [sp, #8]                    @ 4-byte Spill
	b	.LBB12_19
.LBB12_19:                              @   in Loop: Header=BB12_17 Depth=1
	.loc	2 0 0                           @ ../../../../Library/StdDriver/src/fmc.c:0:0
	ldr	r0, [sp, #8]                    @ 4-byte Reload
	.loc	2 351 9                         @ ../../../../Library/StdDriver/src/fmc.c:351:9
	lsls	r0, r0, #31
	cbz	r0, .LBB12_21
	b	.LBB12_20
.LBB12_20:                              @   in Loop: Header=BB12_17 Depth=1
	b	.LBB12_17
.LBB12_21:
.Ltmp112:
	.loc	2 353 13 is_stmt 1              @ ../../../../Library/StdDriver/src/fmc.c:353:13
	ldr	r0, [sp, #20]
.Ltmp113:
	.loc	2 353 13 is_stmt 0              @ ../../../../Library/StdDriver/src/fmc.c:353:13
	cmp	r0, #0
	bgt	.LBB12_23
	b	.LBB12_22
.LBB12_22:
.Ltmp114:
	.loc	2 355 30 is_stmt 1              @ ../../../../Library/StdDriver/src/fmc.c:355:30
	ldr	r1, __arm_cp.12_0
	movs	r0, #0
	mvns	r0, r0
	str	r0, [r1]
	.loc	2 356 13                        @ ../../../../Library/StdDriver/src/fmc.c:356:13
	str	r0, [sp, #36]
	b	.LBB12_38
.Ltmp115:
.LBB12_23:
	.loc	2 0 13 is_stmt 0                @ ../../../../Library/StdDriver/src/fmc.c:0:13
	ldr	r0, __arm_cp.12_6
.Ltmp116:
	.loc	2 359 18 is_stmt 1              @ ../../../../Library/StdDriver/src/fmc.c:359:18
	ldr	r0, [r0]
.Ltmp117:
	.loc	2 359 13 is_stmt 0              @ ../../../../Library/StdDriver/src/fmc.c:359:13
	lsls	r0, r0, #25
	cmp	r0, #0
	bpl	.LBB12_25
	b	.LBB12_24
.LBB12_24:
	.loc	2 0 13                          @ ../../../../Library/StdDriver/src/fmc.c:0:13
	ldr	r1, __arm_cp.12_6
.Ltmp118:
	.loc	2 361 25 is_stmt 1              @ ../../../../Library/StdDriver/src/fmc.c:361:25
	ldr	r0, [r1]
	movs	r2, #64
	orrs	r0, r2
	str	r0, [r1]
	.loc	2 362 30                        @ ../../../../Library/StdDriver/src/fmc.c:362:30
	ldr	r1, __arm_cp.12_0
	movs	r0, #2
	mvns	r0, r0
	str	r0, [r1]
	movs	r0, #0
	mvns	r0, r0
	.loc	2 363 17                        @ ../../../../Library/StdDriver/src/fmc.c:363:17
	str	r0, [sp, #16]
	.loc	2 364 9                         @ ../../../../Library/StdDriver/src/fmc.c:364:9
	b	.LBB12_25
.Ltmp119:
.LBB12_25:
	.loc	2 365 5                         @ ../../../../Library/StdDriver/src/fmc.c:365:5
	b	.LBB12_26
.Ltmp120:
.LBB12_26:
	.loc	2 367 9                         @ ../../../../Library/StdDriver/src/fmc.c:367:9
	ldr	r0, [sp, #16]
.Ltmp121:
	.loc	2 367 9 is_stmt 0               @ ../../../../Library/StdDriver/src/fmc.c:367:9
	cmp	r0, #0
	bne	.LBB12_37
	b	.LBB12_27
.LBB12_27:
	.loc	2 0 9                           @ ../../../../Library/StdDriver/src/fmc.c:0:9
	ldr	r1, __arm_cp.12_1
	movs	r0, #33
.Ltmp122:
	.loc	2 369 21 is_stmt 1              @ ../../../../Library/StdDriver/src/fmc.c:369:21
	str	r0, [r1]
	.loc	2 370 40                        @ ../../../../Library/StdDriver/src/fmc.c:370:40
	ldr	r0, [sp, #32]
	.loc	2 370 48 is_stmt 0              @ ../../../../Library/StdDriver/src/fmc.c:370:48
	lsls	r0, r0, #4
	ldr	r1, __arm_cp.12_8
	.loc	2 370 37                        @ ../../../../Library/StdDriver/src/fmc.c:370:37
	adds	r0, r0, r1
	ldr	r1, __arm_cp.12_2
	.loc	2 370 22                        @ ../../../../Library/StdDriver/src/fmc.c:370:22
	str	r0, [r1]
	ldr	r1, __arm_cp.12_3
	movs	r0, #0
	.loc	2 371 21 is_stmt 1              @ ../../../../Library/StdDriver/src/fmc.c:371:21
	str	r0, [r1]
	ldr	r1, __arm_cp.12_4
	movs	r0, #1
	.loc	2 372 21                        @ ../../../../Library/StdDriver/src/fmc.c:372:21
	str	r0, [r1]
	.loc	2 374 16                        @ ../../../../Library/StdDriver/src/fmc.c:374:16
	ldr	r0, __arm_cp.12_5
	ldr	r0, [r0]
	movs	r1, #10
	udiv	r0, r0, r1
	lsls	r0, r0, #1
	.loc	2 374 14 is_stmt 0              @ ../../../../Library/StdDriver/src/fmc.c:374:14
	str	r0, [sp, #20]
	.loc	2 376 9 is_stmt 1               @ ../../../../Library/StdDriver/src/fmc.c:376:9
	b	.LBB12_28
.LBB12_28:                              @ =>This Inner Loop Header: Depth=1
	.loc	2 376 21 is_stmt 0              @ ../../../../Library/StdDriver/src/fmc.c:376:21
	ldr	r1, [sp, #20]
	subs	r0, r1, #1
	str	r0, [sp, #20]
	movs	r0, #0
	.loc	2 376 29                        @ ../../../../Library/StdDriver/src/fmc.c:376:29
	cmp	r1, #1
	str	r0, [sp, #4]                    @ 4-byte Spill
	blt	.LBB12_30
	b	.LBB12_29
.LBB12_29:                              @   in Loop: Header=BB12_28 Depth=1
	.loc	2 0 29                          @ ../../../../Library/StdDriver/src/fmc.c:0:29
	ldr	r0, __arm_cp.12_4
	.loc	2 376 38                        @ ../../../../Library/StdDriver/src/fmc.c:376:38
	ldr	r0, [r0]
	movs	r1, #1
	.loc	2 376 45                        @ ../../../../Library/StdDriver/src/fmc.c:376:45
	ands	r0, r1
	str	r0, [sp, #4]                    @ 4-byte Spill
	b	.LBB12_30
.LBB12_30:                              @   in Loop: Header=BB12_28 Depth=1
	.loc	2 0 0                           @ ../../../../Library/StdDriver/src/fmc.c:0:0
	ldr	r0, [sp, #4]                    @ 4-byte Reload
	.loc	2 376 9                         @ ../../../../Library/StdDriver/src/fmc.c:376:9
	lsls	r0, r0, #31
	cbz	r0, .LBB12_32
	b	.LBB12_31
.LBB12_31:                              @   in Loop: Header=BB12_28 Depth=1
	b	.LBB12_28
.LBB12_32:
.Ltmp123:
	.loc	2 378 13 is_stmt 1              @ ../../../../Library/StdDriver/src/fmc.c:378:13
	ldr	r0, [sp, #20]
.Ltmp124:
	.loc	2 378 13 is_stmt 0              @ ../../../../Library/StdDriver/src/fmc.c:378:13
	cmp	r0, #0
	bgt	.LBB12_34
	b	.LBB12_33
.LBB12_33:
.Ltmp125:
	.loc	2 380 30 is_stmt 1              @ ../../../../Library/StdDriver/src/fmc.c:380:30
	ldr	r1, __arm_cp.12_0
	movs	r0, #0
	mvns	r0, r0
	str	r0, [r1]
	.loc	2 381 13                        @ ../../../../Library/StdDriver/src/fmc.c:381:13
	str	r0, [sp, #36]
	b	.LBB12_38
.Ltmp126:
.LBB12_34:
	.loc	2 0 13 is_stmt 0                @ ../../../../Library/StdDriver/src/fmc.c:0:13
	ldr	r0, __arm_cp.12_6
.Ltmp127:
	.loc	2 384 18 is_stmt 1              @ ../../../../Library/StdDriver/src/fmc.c:384:18
	ldr	r0, [r0]
.Ltmp128:
	.loc	2 384 13 is_stmt 0              @ ../../../../Library/StdDriver/src/fmc.c:384:13
	lsls	r0, r0, #25
	cmp	r0, #0
	bpl	.LBB12_36
	b	.LBB12_35
.LBB12_35:
	.loc	2 0 13                          @ ../../../../Library/StdDriver/src/fmc.c:0:13
	ldr	r1, __arm_cp.12_6
.Ltmp129:
	.loc	2 386 25 is_stmt 1              @ ../../../../Library/StdDriver/src/fmc.c:386:25
	ldr	r0, [r1]
	movs	r2, #64
	orrs	r0, r2
	str	r0, [r1]
	.loc	2 387 30                        @ ../../../../Library/StdDriver/src/fmc.c:387:30
	ldr	r1, __arm_cp.12_0
	movs	r0, #2
	mvns	r0, r0
	str	r0, [r1]
	movs	r0, #0
	mvns	r0, r0
	.loc	2 388 17                        @ ../../../../Library/StdDriver/src/fmc.c:388:17
	str	r0, [sp, #16]
	.loc	2 389 9                         @ ../../../../Library/StdDriver/src/fmc.c:389:9
	b	.LBB12_36
.Ltmp130:
.LBB12_36:
	.loc	2 390 5                         @ ../../../../Library/StdDriver/src/fmc.c:390:5
	b	.LBB12_37
.Ltmp131:
.LBB12_37:
	.loc	2 392 12                        @ ../../../../Library/StdDriver/src/fmc.c:392:12
	ldr	r0, [sp, #16]
	.loc	2 392 5 is_stmt 0               @ ../../../../Library/StdDriver/src/fmc.c:392:5
	str	r0, [sp, #36]
	b	.LBB12_38
.LBB12_38:
	.loc	2 393 1 is_stmt 1               @ ../../../../Library/StdDriver/src/fmc.c:393:1
	ldr	r0, [sp, #36]
	add	sp, #40
	pop	{r7, pc}
.Ltmp132:
	.p2align	2
@ %bb.39:
	.loc	2 0 1 is_stmt 0                 @ ../../../../Library/StdDriver/src/fmc.c:0:1
__arm_cp.12_0:
	.long	g_FMC_i32ErrCode
.Lcpi_end34:
	.size	__arm_cp.12_0, .Lcpi_end34-__arm_cp.12_0
__arm_cp.12_1:
	.long	1073790988                      @ 0x4000c00c
.Lcpi_end35:
	.size	__arm_cp.12_1, .Lcpi_end35-__arm_cp.12_1
__arm_cp.12_2:
	.long	1073790980                      @ 0x4000c004
.Lcpi_end36:
	.size	__arm_cp.12_2, .Lcpi_end36-__arm_cp.12_2
__arm_cp.12_3:
	.long	1073790984                      @ 0x4000c008
.Lcpi_end37:
	.size	__arm_cp.12_3, .Lcpi_end37-__arm_cp.12_3
__arm_cp.12_4:
	.long	1073790992                      @ 0x4000c010
.Lcpi_end38:
	.size	__arm_cp.12_4, .Lcpi_end38-__arm_cp.12_4
__arm_cp.12_5:
	.long	SystemCoreClock
.Lcpi_end39:
	.size	__arm_cp.12_5, .Lcpi_end39-__arm_cp.12_5
__arm_cp.12_6:
	.long	1073791040                      @ 0x4000c040
.Lcpi_end40:
	.size	__arm_cp.12_6, .Lcpi_end40-__arm_cp.12_6
__arm_cp.12_7:
	.long	2097156                         @ 0x200004
.Lcpi_end41:
	.size	__arm_cp.12_7, .Lcpi_end41-__arm_cp.12_7
__arm_cp.12_8:
	.long	2097160                         @ 0x200008
.Lcpi_end42:
	.size	__arm_cp.12_8, .Lcpi_end42-__arm_cp.12_8
.Lfunc_end12:
	.size	FMC_Config_XOM, .Lfunc_end12-FMC_Config_XOM
	.cfi_endproc
	.cantunwind
	.fnend
                                        @ -- End function
	.section	.text.FMC_Erase_XOM,"ax",%progbits
	.hidden	FMC_Erase_XOM                   @ -- Begin function FMC_Erase_XOM
	.globl	FMC_Erase_XOM
	.p2align	2
	.type	FMC_Erase_XOM,%function
	.code	16                              @ @FMC_Erase_XOM
	.thumb_func
FMC_Erase_XOM:
.Lfunc_begin13:
	.loc	2 413 0 is_stmt 1               @ ../../../../Library/StdDriver/src/fmc.c:413:0
	.fnstart
	.cfi_startproc
@ %bb.0:
	.save	{r7, lr}
	push	{r7, lr}
	.cfi_def_cfa_offset 8
	.cfi_offset lr, -4
	.cfi_offset r7, -8
	.pad	#24
	sub	sp, #24
	.cfi_def_cfa_offset 32
	str	r0, [sp, #20]
	movs	r0, #0
.Ltmp133:
	.loc	2 414 24 prologue_end           @ ../../../../Library/StdDriver/src/fmc.c:414:24
	str	r0, [sp, #12]
	.loc	2 417 22                        @ ../../../../Library/StdDriver/src/fmc.c:417:22
	ldr	r1, __arm_cp.13_0
	str	r0, [r1]
.Ltmp134:
	.loc	2 419 9                         @ ../../../../Library/StdDriver/src/fmc.c:419:9
	ldr	r0, [sp, #20]
.Ltmp135:
	.loc	2 419 9 is_stmt 0               @ ../../../../Library/StdDriver/src/fmc.c:419:9
	cbz	r0, .LBB13_2
	b	.LBB13_1
.LBB13_1:
.Ltmp136:
	.loc	2 421 26 is_stmt 1              @ ../../../../Library/StdDriver/src/fmc.c:421:26
	ldr	r1, __arm_cp.13_0
	movs	r0, #1
	mvns	r0, r0
	str	r0, [r1]
	.loc	2 422 13                        @ ../../../../Library/StdDriver/src/fmc.c:422:13
	str	r0, [sp, #12]
	.loc	2 423 5                         @ ../../../../Library/StdDriver/src/fmc.c:423:5
	b	.LBB13_2
.Ltmp137:
.LBB13_2:
	.loc	2 425 36                        @ ../../../../Library/StdDriver/src/fmc.c:425:36
	ldr	r0, [sp, #20]
	.loc	2 425 17 is_stmt 0              @ ../../../../Library/StdDriver/src/fmc.c:425:17
	bl	FMC_Is_XOM_Actived
	.loc	2 425 15                        @ ../../../../Library/StdDriver/src/fmc.c:425:15
	str	r0, [sp, #16]
.Ltmp138:
	.loc	2 427 9 is_stmt 1               @ ../../../../Library/StdDriver/src/fmc.c:427:9
	ldr	r0, [sp, #16]
.Ltmp139:
	.loc	2 427 9 is_stmt 0               @ ../../../../Library/StdDriver/src/fmc.c:427:9
	cmp	r0, #0
	beq	.LBB13_13
	b	.LBB13_3
.LBB13_3:
	.loc	2 0 9                           @ ../../../../Library/StdDriver/src/fmc.c:0:9
	ldr	r0, __arm_cp.13_1
.Ltmp140:
	.loc	2 430 25 is_stmt 1              @ ../../../../Library/StdDriver/src/fmc.c:430:25
	ldr	r0, [r0]
	.loc	2 430 17 is_stmt 0              @ ../../../../Library/StdDriver/src/fmc.c:430:17
	str	r0, [sp, #4]
	ldr	r1, __arm_cp.13_2
	movs	r0, #34
	.loc	2 431 21 is_stmt 1              @ ../../../../Library/StdDriver/src/fmc.c:431:21
	str	r0, [r1]
	.loc	2 432 24                        @ ../../../../Library/StdDriver/src/fmc.c:432:24
	ldr	r0, [sp, #4]
	ldr	r1, __arm_cp.13_3
	.loc	2 432 22 is_stmt 0              @ ../../../../Library/StdDriver/src/fmc.c:432:22
	str	r0, [r1]
	ldr	r1, __arm_cp.13_4
	ldr	r0, __arm_cp.13_5
	.loc	2 433 21 is_stmt 1              @ ../../../../Library/StdDriver/src/fmc.c:433:21
	str	r0, [r1]
	ldr	r1, __arm_cp.13_6
	movs	r0, #1
	.loc	2 434 21                        @ ../../../../Library/StdDriver/src/fmc.c:434:21
	str	r0, [r1]
	.loc	2 438 16                        @ ../../../../Library/StdDriver/src/fmc.c:438:16
	ldr	r0, __arm_cp.13_7
	ldr	r0, [r0]
	movs	r1, #10
	udiv	r0, r0, r1
	lsls	r0, r0, #2
	.loc	2 438 14 is_stmt 0              @ ../../../../Library/StdDriver/src/fmc.c:438:14
	str	r0, [sp, #8]
	.loc	2 440 9 is_stmt 1               @ ../../../../Library/StdDriver/src/fmc.c:440:9
	b	.LBB13_4
.LBB13_4:                               @ =>This Inner Loop Header: Depth=1
	.loc	2 440 21 is_stmt 0              @ ../../../../Library/StdDriver/src/fmc.c:440:21
	ldr	r1, [sp, #8]
	subs	r0, r1, #1
	str	r0, [sp, #8]
	movs	r0, #0
	.loc	2 440 29                        @ ../../../../Library/StdDriver/src/fmc.c:440:29
	cmp	r1, #1
	str	r0, [sp]                        @ 4-byte Spill
	blt	.LBB13_6
	b	.LBB13_5
.LBB13_5:                               @   in Loop: Header=BB13_4 Depth=1
	.loc	2 0 29                          @ ../../../../Library/StdDriver/src/fmc.c:0:29
	ldr	r0, __arm_cp.13_6
	.loc	2 440 37                        @ ../../../../Library/StdDriver/src/fmc.c:440:37
	ldr	r0, [r0]
	.loc	2 440 29                        @ ../../../../Library/StdDriver/src/fmc.c:440:29
	subs	r1, r0, #1
	sbcs	r0, r1
	str	r0, [sp]                        @ 4-byte Spill
	b	.LBB13_6
.LBB13_6:                               @   in Loop: Header=BB13_4 Depth=1
	.loc	2 0 0                           @ ../../../../Library/StdDriver/src/fmc.c:0:0
	ldr	r0, [sp]                        @ 4-byte Reload
	.loc	2 440 9                         @ ../../../../Library/StdDriver/src/fmc.c:440:9
	lsls	r0, r0, #31
	cbz	r0, .LBB13_8
	b	.LBB13_7
.LBB13_7:                               @   in Loop: Header=BB13_4 Depth=1
	b	.LBB13_4
.LBB13_8:
.Ltmp141:
	.loc	2 442 13 is_stmt 1              @ ../../../../Library/StdDriver/src/fmc.c:442:13
	ldr	r0, [sp, #8]
.Ltmp142:
	.loc	2 442 13 is_stmt 0              @ ../../../../Library/StdDriver/src/fmc.c:442:13
	cmp	r0, #0
	bgt	.LBB13_10
	b	.LBB13_9
.LBB13_9:
.Ltmp143:
	.loc	2 444 30 is_stmt 1              @ ../../../../Library/StdDriver/src/fmc.c:444:30
	ldr	r1, __arm_cp.13_0
	movs	r0, #0
	mvns	r0, r0
	str	r0, [r1]
	.loc	2 445 17                        @ ../../../../Library/StdDriver/src/fmc.c:445:17
	str	r0, [sp, #12]
	.loc	2 446 9                         @ ../../../../Library/StdDriver/src/fmc.c:446:9
	b	.LBB13_10
.Ltmp144:
.LBB13_10:
	.loc	2 0 9 is_stmt 0                 @ ../../../../Library/StdDriver/src/fmc.c:0:9
	ldr	r0, __arm_cp.13_8
.Ltmp145:
	.loc	2 449 18 is_stmt 1              @ ../../../../Library/StdDriver/src/fmc.c:449:18
	ldr	r0, [r0]
.Ltmp146:
	.loc	2 449 13 is_stmt 0              @ ../../../../Library/StdDriver/src/fmc.c:449:13
	lsls	r0, r0, #25
	cmp	r0, #0
	bpl	.LBB13_12
	b	.LBB13_11
.LBB13_11:
	.loc	2 0 13                          @ ../../../../Library/StdDriver/src/fmc.c:0:13
	ldr	r1, __arm_cp.13_8
.Ltmp147:
	.loc	2 451 25 is_stmt 1              @ ../../../../Library/StdDriver/src/fmc.c:451:25
	ldr	r0, [r1]
	movs	r2, #64
	orrs	r0, r2
	str	r0, [r1]
	.loc	2 452 30                        @ ../../../../Library/StdDriver/src/fmc.c:452:30
	ldr	r1, __arm_cp.13_0
	movs	r0, #2
	mvns	r0, r0
	str	r0, [r1]
	movs	r0, #0
	mvns	r0, r0
	.loc	2 453 17                        @ ../../../../Library/StdDriver/src/fmc.c:453:17
	str	r0, [sp, #12]
	.loc	2 454 9                         @ ../../../../Library/StdDriver/src/fmc.c:454:9
	b	.LBB13_12
.Ltmp148:
.LBB13_12:
	.loc	2 455 5                         @ ../../../../Library/StdDriver/src/fmc.c:455:5
	b	.LBB13_14
.Ltmp149:
.LBB13_13:
	.loc	2 458 26                        @ ../../../../Library/StdDriver/src/fmc.c:458:26
	ldr	r1, __arm_cp.13_0
	movs	r0, #2
	mvns	r0, r0
	str	r0, [r1]
	movs	r0, #0
	mvns	r0, r0
	.loc	2 459 13                        @ ../../../../Library/StdDriver/src/fmc.c:459:13
	str	r0, [sp, #12]
	b	.LBB13_14
.Ltmp150:
.LBB13_14:
	.loc	2 462 12                        @ ../../../../Library/StdDriver/src/fmc.c:462:12
	ldr	r0, [sp, #12]
	.loc	2 462 5 is_stmt 0               @ ../../../../Library/StdDriver/src/fmc.c:462:5
	add	sp, #24
	pop	{r7, pc}
.Ltmp151:
	.p2align	2
@ %bb.15:
	.loc	2 0 5                           @ ../../../../Library/StdDriver/src/fmc.c:0:5
__arm_cp.13_0:
	.long	g_FMC_i32ErrCode
.Lcpi_end43:
	.size	__arm_cp.13_0, .Lcpi_end43-__arm_cp.13_0
__arm_cp.13_1:
	.long	1073791184                      @ 0x4000c0d0
.Lcpi_end44:
	.size	__arm_cp.13_1, .Lcpi_end44-__arm_cp.13_1
__arm_cp.13_2:
	.long	1073790988                      @ 0x4000c00c
.Lcpi_end45:
	.size	__arm_cp.13_2, .Lcpi_end45-__arm_cp.13_2
__arm_cp.13_3:
	.long	1073790980                      @ 0x4000c004
.Lcpi_end46:
	.size	__arm_cp.13_3, .Lcpi_end46-__arm_cp.13_3
__arm_cp.13_4:
	.long	1073790984                      @ 0x4000c008
.Lcpi_end47:
	.size	__arm_cp.13_4, .Lcpi_end47-__arm_cp.13_4
__arm_cp.13_5:
	.long	5614083                         @ 0x55aa03
.Lcpi_end48:
	.size	__arm_cp.13_5, .Lcpi_end48-__arm_cp.13_5
__arm_cp.13_6:
	.long	1073790992                      @ 0x4000c010
.Lcpi_end49:
	.size	__arm_cp.13_6, .Lcpi_end49-__arm_cp.13_6
__arm_cp.13_7:
	.long	SystemCoreClock
.Lcpi_end50:
	.size	__arm_cp.13_7, .Lcpi_end50-__arm_cp.13_7
__arm_cp.13_8:
	.long	1073790976                      @ 0x4000c000
.Lcpi_end51:
	.size	__arm_cp.13_8, .Lcpi_end51-__arm_cp.13_8
.Lfunc_end13:
	.size	FMC_Erase_XOM, .Lfunc_end13-FMC_Erase_XOM
	.cfi_endproc
	.cantunwind
	.fnend
                                        @ -- End function
	.section	.text.FMC_Erase,"ax",%progbits
	.hidden	FMC_Erase                       @ -- Begin function FMC_Erase
	.globl	FMC_Erase
	.p2align	2
	.type	FMC_Erase,%function
	.code	16                              @ @FMC_Erase
	.thumb_func
FMC_Erase:
.Lfunc_begin14:
	.loc	2 482 0 is_stmt 1               @ ../../../../Library/StdDriver/src/fmc.c:482:0
	.fnstart
	.cfi_startproc
@ %bb.0:
	.pad	#20
	sub	sp, #20
	.cfi_def_cfa_offset 20
	str	r0, [sp, #12]
	movs	r0, #0
.Ltmp152:
	.loc	2 483 14 prologue_end           @ ../../../../Library/StdDriver/src/fmc.c:483:14
	str	r0, [sp, #8]
	.loc	2 486 22                        @ ../../../../Library/StdDriver/src/fmc.c:486:22
	ldr	r1, __arm_cp.14_0
	str	r0, [r1]
	ldr	r1, __arm_cp.14_1
	movs	r0, #34
	.loc	2 488 17                        @ ../../../../Library/StdDriver/src/fmc.c:488:17
	str	r0, [r1]
	.loc	2 489 20                        @ ../../../../Library/StdDriver/src/fmc.c:489:20
	ldr	r0, [sp, #12]
	ldr	r1, __arm_cp.14_2
	.loc	2 489 18 is_stmt 0              @ ../../../../Library/StdDriver/src/fmc.c:489:18
	str	r0, [r1]
	ldr	r1, __arm_cp.14_3
	movs	r0, #1
	.loc	2 490 17 is_stmt 1              @ ../../../../Library/StdDriver/src/fmc.c:490:17
	str	r0, [r1]
	.loc	2 495 12                        @ ../../../../Library/StdDriver/src/fmc.c:495:12
	ldr	r0, __arm_cp.14_4
	ldr	r0, [r0]
	movs	r1, #10
	udiv	r0, r0, r1
	lsls	r0, r0, #2
	.loc	2 495 10 is_stmt 0              @ ../../../../Library/StdDriver/src/fmc.c:495:10
	str	r0, [sp, #4]
	.loc	2 497 5 is_stmt 1               @ ../../../../Library/StdDriver/src/fmc.c:497:5
	b	.LBB14_1
.LBB14_1:                               @ =>This Inner Loop Header: Depth=1
	.loc	2 497 17 is_stmt 0              @ ../../../../Library/StdDriver/src/fmc.c:497:17
	ldr	r1, [sp, #4]
	subs	r0, r1, #1
	str	r0, [sp, #4]
	movs	r0, #0
	.loc	2 497 25                        @ ../../../../Library/StdDriver/src/fmc.c:497:25
	cmp	r1, #1
	str	r0, [sp]                        @ 4-byte Spill
	blt	.LBB14_3
	b	.LBB14_2
.LBB14_2:                               @   in Loop: Header=BB14_1 Depth=1
	.loc	2 0 25                          @ ../../../../Library/StdDriver/src/fmc.c:0:25
	ldr	r0, __arm_cp.14_3
	.loc	2 497 34                        @ ../../../../Library/StdDriver/src/fmc.c:497:34
	ldr	r0, [r0]
	movs	r1, #1
	.loc	2 497 41                        @ ../../../../Library/StdDriver/src/fmc.c:497:41
	ands	r0, r1
	str	r0, [sp]                        @ 4-byte Spill
	b	.LBB14_3
.LBB14_3:                               @   in Loop: Header=BB14_1 Depth=1
	.loc	2 0 0                           @ ../../../../Library/StdDriver/src/fmc.c:0:0
	ldr	r0, [sp]                        @ 4-byte Reload
	.loc	2 497 5                         @ ../../../../Library/StdDriver/src/fmc.c:497:5
	lsls	r0, r0, #31
	cbz	r0, .LBB14_5
	b	.LBB14_4
.LBB14_4:                               @   in Loop: Header=BB14_1 Depth=1
	b	.LBB14_1
.LBB14_5:
.Ltmp153:
	.loc	2 499 9 is_stmt 1               @ ../../../../Library/StdDriver/src/fmc.c:499:9
	ldr	r0, [sp, #4]
.Ltmp154:
	.loc	2 499 9 is_stmt 0               @ ../../../../Library/StdDriver/src/fmc.c:499:9
	cmp	r0, #0
	bgt	.LBB14_7
	b	.LBB14_6
.LBB14_6:
.Ltmp155:
	.loc	2 501 26 is_stmt 1              @ ../../../../Library/StdDriver/src/fmc.c:501:26
	ldr	r1, __arm_cp.14_0
	movs	r0, #0
	mvns	r0, r0
	str	r0, [r1]
	.loc	2 502 9                         @ ../../../../Library/StdDriver/src/fmc.c:502:9
	str	r0, [sp, #16]
	b	.LBB14_10
.Ltmp156:
.LBB14_7:
	.loc	2 0 9 is_stmt 0                 @ ../../../../Library/StdDriver/src/fmc.c:0:9
	ldr	r0, __arm_cp.14_5
.Ltmp157:
	.loc	2 506 14 is_stmt 1              @ ../../../../Library/StdDriver/src/fmc.c:506:14
	ldr	r0, [r0]
.Ltmp158:
	.loc	2 506 9 is_stmt 0               @ ../../../../Library/StdDriver/src/fmc.c:506:9
	lsls	r0, r0, #25
	cmp	r0, #0
	bpl	.LBB14_9
	b	.LBB14_8
.LBB14_8:
	.loc	2 0 9                           @ ../../../../Library/StdDriver/src/fmc.c:0:9
	ldr	r1, __arm_cp.14_5
.Ltmp159:
	.loc	2 508 21 is_stmt 1              @ ../../../../Library/StdDriver/src/fmc.c:508:21
	ldr	r0, [r1]
	movs	r2, #64
	orrs	r0, r2
	str	r0, [r1]
	.loc	2 509 26                        @ ../../../../Library/StdDriver/src/fmc.c:509:26
	ldr	r1, __arm_cp.14_0
	movs	r0, #2
	mvns	r0, r0
	str	r0, [r1]
	movs	r0, #0
	mvns	r0, r0
	.loc	2 510 13                        @ ../../../../Library/StdDriver/src/fmc.c:510:13
	str	r0, [sp, #8]
	.loc	2 511 5                         @ ../../../../Library/StdDriver/src/fmc.c:511:5
	b	.LBB14_9
.Ltmp160:
.LBB14_9:
	.loc	2 513 12                        @ ../../../../Library/StdDriver/src/fmc.c:513:12
	ldr	r0, [sp, #8]
	.loc	2 513 5 is_stmt 0               @ ../../../../Library/StdDriver/src/fmc.c:513:5
	str	r0, [sp, #16]
	b	.LBB14_10
.LBB14_10:
	.loc	2 514 1 is_stmt 1               @ ../../../../Library/StdDriver/src/fmc.c:514:1
	ldr	r0, [sp, #16]
	add	sp, #20
	bx	lr
.Ltmp161:
	.p2align	2
@ %bb.11:
	.loc	2 0 1 is_stmt 0                 @ ../../../../Library/StdDriver/src/fmc.c:0:1
__arm_cp.14_0:
	.long	g_FMC_i32ErrCode
.Lcpi_end52:
	.size	__arm_cp.14_0, .Lcpi_end52-__arm_cp.14_0
__arm_cp.14_1:
	.long	1073790988                      @ 0x4000c00c
.Lcpi_end53:
	.size	__arm_cp.14_1, .Lcpi_end53-__arm_cp.14_1
__arm_cp.14_2:
	.long	1073790980                      @ 0x4000c004
.Lcpi_end54:
	.size	__arm_cp.14_2, .Lcpi_end54-__arm_cp.14_2
__arm_cp.14_3:
	.long	1073790992                      @ 0x4000c010
.Lcpi_end55:
	.size	__arm_cp.14_3, .Lcpi_end55-__arm_cp.14_3
__arm_cp.14_4:
	.long	SystemCoreClock
.Lcpi_end56:
	.size	__arm_cp.14_4, .Lcpi_end56-__arm_cp.14_4
__arm_cp.14_5:
	.long	1073790976                      @ 0x4000c000
.Lcpi_end57:
	.size	__arm_cp.14_5, .Lcpi_end57-__arm_cp.14_5
.Lfunc_end14:
	.size	FMC_Erase, .Lfunc_end14-FMC_Erase
	.cfi_endproc
	.cantunwind
	.fnend
                                        @ -- End function
	.section	.text.FMC_Write128,"ax",%progbits
	.hidden	FMC_Write128                    @ -- Begin function FMC_Write128
	.globl	FMC_Write128
	.p2align	2
	.type	FMC_Write128,%function
	.code	16                              @ @FMC_Write128
	.thumb_func
FMC_Write128:
.Lfunc_begin15:
	.loc	2 617 0 is_stmt 1               @ ../../../../Library/StdDriver/src/fmc.c:617:0
	.fnstart
	.cfi_startproc
@ %bb.0:
	.pad	#60
	sub	sp, #60
	.cfi_def_cfa_offset 60
	str	r0, [sp, #36]
	str	r1, [sp, #32]
.Ltmp162:
	.loc	2 621 22 prologue_end           @ ../../../../Library/StdDriver/src/fmc.c:621:22
	ldr	r1, __arm_cp.15_0
	movs	r0, #0
	str	r0, [r1]
	.loc	2 623 9                         @ ../../../../Library/StdDriver/src/fmc.c:623:9
	str	r0, [sp, #20]
	ldr	r1, __arm_cp.15_1
	movs	r0, #39
	.loc	2 624 17                        @ ../../../../Library/StdDriver/src/fmc.c:624:17
	str	r0, [r1]
	.loc	2 625 20                        @ ../../../../Library/StdDriver/src/fmc.c:625:20
	ldr	r0, [sp, #36]
	ldr	r1, __arm_cp.15_2
	.loc	2 625 18 is_stmt 0              @ ../../../../Library/StdDriver/src/fmc.c:625:18
	str	r0, [r1]
	.loc	2 627 5 is_stmt 1               @ ../../../../Library/StdDriver/src/fmc.c:627:5
	b	.LBB15_1
.LBB15_1:                               @ =>This Loop Header: Depth=1
                                        @     Child Loop BB15_2 Depth 2
                                        @       Child Loop BB15_4 Depth 3
                                        @       Child Loop BB15_15 Depth 3
                                        @     Child Loop BB15_33 Depth 2
	.loc	2 0 5 is_stmt 0                 @ ../../../../Library/StdDriver/src/fmc.c:0:5
	movs	r0, #0
.Ltmp163:
	.loc	2 630 13 is_stmt 1              @ ../../../../Library/StdDriver/src/fmc.c:630:13
	str	r0, [sp, #12]
	movs	r0, #1
	.loc	2 631 19                        @ ../../../../Library/StdDriver/src/fmc.c:631:19
	str	r0, [sp, #16]
	.loc	2 632 23                        @ ../../../../Library/StdDriver/src/fmc.c:632:23
	ldr	r1, [sp, #32]
	.loc	2 632 31 is_stmt 0              @ ../../../../Library/StdDriver/src/fmc.c:632:31
	ldr	r2, [sp, #20]
	.loc	2 632 23                        @ ../../../../Library/StdDriver/src/fmc.c:632:23
	lsls	r2, r2, #2
	ldr	r1, [r1, r2]
	ldr	r2, __arm_cp.15_3
	.loc	2 632 21                        @ ../../../../Library/StdDriver/src/fmc.c:632:21
	str	r1, [r2]
	.loc	2 633 23 is_stmt 1              @ ../../../../Library/StdDriver/src/fmc.c:633:23
	ldr	r2, [sp, #32]
	.loc	2 633 31 is_stmt 0              @ ../../../../Library/StdDriver/src/fmc.c:633:31
	ldr	r1, [sp, #20]
	.loc	2 633 35                        @ ../../../../Library/StdDriver/src/fmc.c:633:35
	lsls	r1, r1, #2
	.loc	2 633 23                        @ ../../../../Library/StdDriver/src/fmc.c:633:23
	adds	r1, r1, r2
	ldr	r1, [r1, #4]
	ldr	r2, __arm_cp.15_4
	.loc	2 633 21                        @ ../../../../Library/StdDriver/src/fmc.c:633:21
	str	r1, [r2]
	.loc	2 634 23 is_stmt 1              @ ../../../../Library/StdDriver/src/fmc.c:634:23
	ldr	r2, [sp, #32]
	.loc	2 634 31 is_stmt 0              @ ../../../../Library/StdDriver/src/fmc.c:634:31
	ldr	r1, [sp, #20]
	.loc	2 634 35                        @ ../../../../Library/StdDriver/src/fmc.c:634:35
	lsls	r1, r1, #2
	.loc	2 634 23                        @ ../../../../Library/StdDriver/src/fmc.c:634:23
	adds	r1, r1, r2
	ldr	r1, [r1, #8]
	ldr	r2, __arm_cp.15_5
	.loc	2 634 21                        @ ../../../../Library/StdDriver/src/fmc.c:634:21
	str	r1, [r2]
	.loc	2 635 23 is_stmt 1              @ ../../../../Library/StdDriver/src/fmc.c:635:23
	ldr	r2, [sp, #32]
	.loc	2 635 31 is_stmt 0              @ ../../../../Library/StdDriver/src/fmc.c:635:31
	ldr	r1, [sp, #20]
	.loc	2 635 35                        @ ../../../../Library/StdDriver/src/fmc.c:635:35
	lsls	r1, r1, #2
	.loc	2 635 23                        @ ../../../../Library/StdDriver/src/fmc.c:635:23
	adds	r1, r1, r2
	ldr	r1, [r1, #12]
	ldr	r2, __arm_cp.15_6
	.loc	2 635 21                        @ ../../../../Library/StdDriver/src/fmc.c:635:21
	str	r1, [r2]
	ldr	r1, __arm_cp.15_7
	.loc	2 636 21 is_stmt 1              @ ../../../../Library/StdDriver/src/fmc.c:636:21
	str	r0, [r1]
	.loc	2 637 13                        @ ../../../../Library/StdDriver/src/fmc.c:637:13
	ldr	r0, [sp, #20]
	adds	r0, r0, #4
	str	r0, [sp, #20]
.Ltmp164:
	.loc	2 639 18                        @ ../../../../Library/StdDriver/src/fmc.c:639:18
	ldr	r0, [sp, #20]
	.loc	2 639 16 is_stmt 0              @ ../../../../Library/StdDriver/src/fmc.c:639:16
	str	r0, [sp, #24]
	.loc	2 639 14                        @ ../../../../Library/StdDriver/src/fmc.c:639:14
	b	.LBB15_2
.LBB15_2:                               @   Parent Loop BB15_1 Depth=1
                                        @ =>  This Loop Header: Depth=2
                                        @       Child Loop BB15_4 Depth 3
                                        @       Child Loop BB15_15 Depth 3
.Ltmp165:
	.loc	2 639 23                        @ ../../../../Library/StdDriver/src/fmc.c:639:23
	ldr	r0, [sp, #24]
.Ltmp166:
	.loc	2 639 9                         @ ../../../../Library/StdDriver/src/fmc.c:639:9
	cmp	r0, #31
	bls	.LBB15_3
	b	.LBB15_31
.LBB15_3:                               @   in Loop: Header=BB15_2 Depth=2
	.loc	2 0 9                           @ ../../../../Library/StdDriver/src/fmc.c:0:9
	movs	r0, #1
	str	r0, [sp, #56]
.Ltmp167:
	.file	5 "E:\\BERSY\\sdk\\SampleCode\\NuCodeGen\\scale_v2\\KEIL" "../../../../Library/CMSIS/Include/cmsis_armclang.h"
	.loc	5 400 46 is_stmt 1              @ ../../../../Library/CMSIS/Include/cmsis_armclang.h:400:46
	ldr	r0, [sp, #56]
	.loc	5 400 3 is_stmt 0               @ ../../../../Library/CMSIS/Include/cmsis_armclang.h:400:3
	@APP
	msr	primask, r0
	@NO_APP
.Ltmp168:
	.loc	2 643 20 is_stmt 1              @ ../../../../Library/StdDriver/src/fmc.c:643:20
	ldr	r0, __arm_cp.15_8
	ldr	r0, [r0]
	movs	r1, #10
	udiv	r0, r0, r1
	lsls	r0, r0, #1
	.loc	2 643 18 is_stmt 0              @ ../../../../Library/StdDriver/src/fmc.c:643:18
	str	r0, [sp, #28]
	.loc	2 645 13 is_stmt 1              @ ../../../../Library/StdDriver/src/fmc.c:645:13
	b	.LBB15_4
.LBB15_4:                               @   Parent Loop BB15_1 Depth=1
                                        @     Parent Loop BB15_2 Depth=2
                                        @ =>    This Inner Loop Header: Depth=3
	.loc	2 0 13 is_stmt 0                @ ../../../../Library/StdDriver/src/fmc.c:0:13
	ldr	r0, __arm_cp.15_10
.Ltmp169:
	.loc	2 647 27 is_stmt 1              @ ../../../../Library/StdDriver/src/fmc.c:647:27
	ldr	r0, [r0]
.Ltmp170:
	.loc	2 647 21 is_stmt 0              @ ../../../../Library/StdDriver/src/fmc.c:647:21
	lsls	r0, r0, #31
	cbnz	r0, .LBB15_6
	b	.LBB15_5
.LBB15_5:                               @   in Loop: Header=BB15_4 Depth=3
	.loc	2 0 21                          @ ../../../../Library/StdDriver/src/fmc.c:0:21
	movs	r0, #0
	str	r0, [sp, #52]
.Ltmp171:
	.loc	5 400 46 is_stmt 1              @ ../../../../Library/CMSIS/Include/cmsis_armclang.h:400:46
	ldr	r1, [sp, #52]
	.loc	5 400 3 is_stmt 0               @ ../../../../Library/CMSIS/Include/cmsis_armclang.h:400:3
	@APP
	msr	primask, r1
	@NO_APP
	ldr	r1, __arm_cp.15_11
.Ltmp172:
	.loc	2 651 41 is_stmt 1              @ ../../../../Library/StdDriver/src/fmc.c:651:41
	ldr	r2, [r1]
	movs	r1, #15
	.loc	2 651 48 is_stmt 0              @ ../../../../Library/StdDriver/src/fmc.c:651:48
	bics	r2, r1
	ldr	r1, __arm_cp.15_2
	.loc	2 651 34                        @ ../../../../Library/StdDriver/src/fmc.c:651:34
	str	r2, [r1]
	.loc	2 652 33 is_stmt 1              @ ../../../../Library/StdDriver/src/fmc.c:652:33
	ldr	r1, [r1]
	.loc	2 652 43 is_stmt 0              @ ../../../../Library/StdDriver/src/fmc.c:652:43
	ldr	r2, [sp, #36]
	.loc	2 652 41                        @ ../../../../Library/StdDriver/src/fmc.c:652:41
	subs	r1, r1, r2
	.loc	2 652 52                        @ ../../../../Library/StdDriver/src/fmc.c:652:52
	lsrs	r1, r1, #2
	.loc	2 652 25                        @ ../../../../Library/StdDriver/src/fmc.c:652:25
	str	r1, [sp, #20]
	mvns	r0, r0
	.loc	2 653 25 is_stmt 1              @ ../../../../Library/StdDriver/src/fmc.c:653:25
	str	r0, [sp, #12]
	.loc	2 654 17                        @ ../../../../Library/StdDriver/src/fmc.c:654:17
	b	.LBB15_6
.Ltmp173:
.LBB15_6:                               @   in Loop: Header=BB15_4 Depth=3
	.loc	2 656 13                        @ ../../../../Library/StdDriver/src/fmc.c:656:13
	b	.LBB15_7
.Ltmp174:
.LBB15_7:                               @   in Loop: Header=BB15_4 Depth=3
	.loc	2 656 27 is_stmt 0              @ ../../../../Library/StdDriver/src/fmc.c:656:27
	ldr	r1, [sp, #28]
	subs	r0, r1, #1
	str	r0, [sp, #28]
	movs	r0, #0
	.loc	2 656 35                        @ ../../../../Library/StdDriver/src/fmc.c:656:35
	cmp	r1, #1
	str	r0, [sp, #8]                    @ 4-byte Spill
	blt	.LBB15_10
	b	.LBB15_8
.LBB15_8:                               @   in Loop: Header=BB15_4 Depth=3
	.loc	2 0 35                          @ ../../../../Library/StdDriver/src/fmc.c:0:35
	ldr	r0, __arm_cp.15_10
	.loc	2 656 44                        @ ../../../../Library/StdDriver/src/fmc.c:656:44
	ldr	r1, [r0]
	movs	r0, #0
	.loc	2 656 78                        @ ../../../../Library/StdDriver/src/fmc.c:656:78
	lsls	r1, r1, #26
	lsrs	r1, r1, #30
	str	r0, [sp, #8]                    @ 4-byte Spill
	cbz	r1, .LBB15_10
	b	.LBB15_9
.LBB15_9:                               @   in Loop: Header=BB15_4 Depth=3
	.loc	2 656 82                        @ ../../../../Library/StdDriver/src/fmc.c:656:82
	ldr	r0, [sp, #12]
	.loc	2 656 86                        @ ../../../../Library/StdDriver/src/fmc.c:656:86
	rsbs	r1, r0, #0
	adcs	r0, r1
	str	r0, [sp, #8]                    @ 4-byte Spill
	b	.LBB15_10
.LBB15_10:                              @   in Loop: Header=BB15_4 Depth=3
	.loc	2 0 0                           @ ../../../../Library/StdDriver/src/fmc.c:0:0
	ldr	r0, [sp, #8]                    @ 4-byte Reload
.Ltmp175:
	.loc	2 656 13                        @ ../../../../Library/StdDriver/src/fmc.c:656:13
	lsls	r0, r0, #31
	cmp	r0, #0
	bne	.LBB15_4
	b	.LBB15_11
.Ltmp176:
.LBB15_11:                              @   in Loop: Header=BB15_2 Depth=2
	.loc	2 658 17 is_stmt 1              @ ../../../../Library/StdDriver/src/fmc.c:658:17
	ldr	r0, [sp, #28]
.Ltmp177:
	.loc	2 658 17 is_stmt 0              @ ../../../../Library/StdDriver/src/fmc.c:658:17
	cmp	r0, #0
	bgt	.LBB15_13
	b	.LBB15_12
.LBB15_12:
.Ltmp178:
	.loc	2 660 34 is_stmt 1              @ ../../../../Library/StdDriver/src/fmc.c:660:34
	ldr	r1, __arm_cp.15_0
	movs	r0, #0
	mvns	r0, r0
	str	r0, [r1]
	.loc	2 661 17                        @ ../../../../Library/StdDriver/src/fmc.c:661:17
	str	r0, [sp, #40]
	b	.LBB15_43
.Ltmp179:
.LBB15_13:                              @   in Loop: Header=BB15_2 Depth=2
	.loc	2 664 17                        @ ../../../../Library/StdDriver/src/fmc.c:664:17
	ldr	r0, [sp, #12]
.Ltmp180:
	.loc	2 664 17 is_stmt 0              @ ../../../../Library/StdDriver/src/fmc.c:664:17
	cmp	r0, #0
	bne	.LBB15_27
	b	.LBB15_14
.LBB15_14:                              @   in Loop: Header=BB15_2 Depth=2
.Ltmp181:
	.loc	2 667 31 is_stmt 1              @ ../../../../Library/StdDriver/src/fmc.c:667:31
	ldr	r0, [sp, #32]
	.loc	2 667 39 is_stmt 0              @ ../../../../Library/StdDriver/src/fmc.c:667:39
	ldr	r1, [sp, #24]
	.loc	2 667 31                        @ ../../../../Library/StdDriver/src/fmc.c:667:31
	lsls	r1, r1, #2
	ldr	r0, [r0, r1]
	ldr	r1, __arm_cp.15_3
	.loc	2 667 29                        @ ../../../../Library/StdDriver/src/fmc.c:667:29
	str	r0, [r1]
	.loc	2 668 31 is_stmt 1              @ ../../../../Library/StdDriver/src/fmc.c:668:31
	ldr	r1, [sp, #32]
	.loc	2 668 39 is_stmt 0              @ ../../../../Library/StdDriver/src/fmc.c:668:39
	ldr	r0, [sp, #24]
	.loc	2 668 41                        @ ../../../../Library/StdDriver/src/fmc.c:668:41
	lsls	r0, r0, #2
	.loc	2 668 31                        @ ../../../../Library/StdDriver/src/fmc.c:668:31
	adds	r0, r0, r1
	ldr	r0, [r0, #4]
	ldr	r1, __arm_cp.15_4
	.loc	2 668 29                        @ ../../../../Library/StdDriver/src/fmc.c:668:29
	str	r0, [r1]
	.loc	2 670 24 is_stmt 1              @ ../../../../Library/StdDriver/src/fmc.c:670:24
	ldr	r0, __arm_cp.15_8
	ldr	r0, [r0]
	movs	r1, #10
	udiv	r0, r0, r1
	lsls	r0, r0, #1
	.loc	2 670 22 is_stmt 0              @ ../../../../Library/StdDriver/src/fmc.c:670:22
	str	r0, [sp, #28]
	.loc	2 672 17 is_stmt 1              @ ../../../../Library/StdDriver/src/fmc.c:672:17
	b	.LBB15_15
.LBB15_15:                              @   Parent Loop BB15_1 Depth=1
                                        @     Parent Loop BB15_2 Depth=2
                                        @ =>    This Inner Loop Header: Depth=3
	.loc	2 0 17 is_stmt 0                @ ../../../../Library/StdDriver/src/fmc.c:0:17
	ldr	r0, __arm_cp.15_10
.Ltmp182:
	.loc	2 674 31 is_stmt 1              @ ../../../../Library/StdDriver/src/fmc.c:674:31
	ldr	r0, [r0]
.Ltmp183:
	.loc	2 674 25 is_stmt 0              @ ../../../../Library/StdDriver/src/fmc.c:674:25
	lsls	r0, r0, #31
	cbnz	r0, .LBB15_17
	b	.LBB15_16
.LBB15_16:                              @   in Loop: Header=BB15_15 Depth=3
	.loc	2 0 25                          @ ../../../../Library/StdDriver/src/fmc.c:0:25
	movs	r0, #0
	str	r0, [sp, #48]
.Ltmp184:
	.loc	5 400 46 is_stmt 1              @ ../../../../Library/CMSIS/Include/cmsis_armclang.h:400:46
	ldr	r1, [sp, #48]
	.loc	5 400 3 is_stmt 0               @ ../../../../Library/CMSIS/Include/cmsis_armclang.h:400:3
	@APP
	msr	primask, r1
	@NO_APP
	ldr	r1, __arm_cp.15_11
.Ltmp185:
	.loc	2 677 45 is_stmt 1              @ ../../../../Library/StdDriver/src/fmc.c:677:45
	ldr	r2, [r1]
	movs	r1, #15
	.loc	2 677 52 is_stmt 0              @ ../../../../Library/StdDriver/src/fmc.c:677:52
	bics	r2, r1
	ldr	r1, __arm_cp.15_2
	.loc	2 677 38                        @ ../../../../Library/StdDriver/src/fmc.c:677:38
	str	r2, [r1]
	.loc	2 678 37 is_stmt 1              @ ../../../../Library/StdDriver/src/fmc.c:678:37
	ldr	r1, [r1]
	.loc	2 678 47 is_stmt 0              @ ../../../../Library/StdDriver/src/fmc.c:678:47
	ldr	r2, [sp, #36]
	.loc	2 678 45                        @ ../../../../Library/StdDriver/src/fmc.c:678:45
	subs	r1, r1, r2
	.loc	2 678 56                        @ ../../../../Library/StdDriver/src/fmc.c:678:56
	lsrs	r1, r1, #2
	.loc	2 678 29                        @ ../../../../Library/StdDriver/src/fmc.c:678:29
	str	r1, [sp, #20]
	mvns	r0, r0
	.loc	2 679 29 is_stmt 1              @ ../../../../Library/StdDriver/src/fmc.c:679:29
	str	r0, [sp, #12]
	.loc	2 680 21                        @ ../../../../Library/StdDriver/src/fmc.c:680:21
	b	.LBB15_17
.Ltmp186:
.LBB15_17:                              @   in Loop: Header=BB15_15 Depth=3
	.loc	2 681 17                        @ ../../../../Library/StdDriver/src/fmc.c:681:17
	b	.LBB15_18
.Ltmp187:
.LBB15_18:                              @   in Loop: Header=BB15_15 Depth=3
	.loc	2 681 31 is_stmt 0              @ ../../../../Library/StdDriver/src/fmc.c:681:31
	ldr	r1, [sp, #28]
	subs	r0, r1, #1
	str	r0, [sp, #28]
	movs	r0, #0
	.loc	2 681 39                        @ ../../../../Library/StdDriver/src/fmc.c:681:39
	cmp	r1, #1
	str	r0, [sp, #4]                    @ 4-byte Spill
	blt	.LBB15_21
	b	.LBB15_19
.LBB15_19:                              @   in Loop: Header=BB15_15 Depth=3
	.loc	2 0 39                          @ ../../../../Library/StdDriver/src/fmc.c:0:39
	ldr	r0, __arm_cp.15_10
	.loc	2 681 48                        @ ../../../../Library/StdDriver/src/fmc.c:681:48
	ldr	r1, [r0]
	movs	r0, #0
	.loc	2 681 82                        @ ../../../../Library/StdDriver/src/fmc.c:681:82
	lsls	r1, r1, #24
	lsrs	r1, r1, #30
	str	r0, [sp, #4]                    @ 4-byte Spill
	cbz	r1, .LBB15_21
	b	.LBB15_20
.LBB15_20:                              @   in Loop: Header=BB15_15 Depth=3
	.loc	2 681 86                        @ ../../../../Library/StdDriver/src/fmc.c:681:86
	ldr	r0, [sp, #12]
	.loc	2 681 90                        @ ../../../../Library/StdDriver/src/fmc.c:681:90
	rsbs	r1, r0, #0
	adcs	r0, r1
	str	r0, [sp, #4]                    @ 4-byte Spill
	b	.LBB15_21
.LBB15_21:                              @   in Loop: Header=BB15_15 Depth=3
	.loc	2 0 0                           @ ../../../../Library/StdDriver/src/fmc.c:0:0
	ldr	r0, [sp, #4]                    @ 4-byte Reload
.Ltmp188:
	.loc	2 681 17                        @ ../../../../Library/StdDriver/src/fmc.c:681:17
	lsls	r0, r0, #31
	cmp	r0, #0
	bne	.LBB15_15
	b	.LBB15_22
.Ltmp189:
.LBB15_22:                              @   in Loop: Header=BB15_2 Depth=2
	.loc	2 683 21 is_stmt 1              @ ../../../../Library/StdDriver/src/fmc.c:683:21
	ldr	r0, [sp, #28]
.Ltmp190:
	.loc	2 683 21 is_stmt 0              @ ../../../../Library/StdDriver/src/fmc.c:683:21
	cmp	r0, #0
	bgt	.LBB15_24
	b	.LBB15_23
.LBB15_23:
.Ltmp191:
	.loc	2 685 38 is_stmt 1              @ ../../../../Library/StdDriver/src/fmc.c:685:38
	ldr	r1, __arm_cp.15_0
	movs	r0, #0
	mvns	r0, r0
	str	r0, [r1]
	.loc	2 686 21                        @ ../../../../Library/StdDriver/src/fmc.c:686:21
	str	r0, [sp, #40]
	b	.LBB15_43
.Ltmp192:
.LBB15_24:                              @   in Loop: Header=BB15_2 Depth=2
	.loc	2 689 21                        @ ../../../../Library/StdDriver/src/fmc.c:689:21
	ldr	r0, [sp, #12]
.Ltmp193:
	.loc	2 689 21 is_stmt 0              @ ../../../../Library/StdDriver/src/fmc.c:689:21
	cbnz	r0, .LBB15_26
	b	.LBB15_25
.LBB15_25:                              @   in Loop: Header=BB15_2 Depth=2
.Ltmp194:
	.loc	2 692 35 is_stmt 1              @ ../../../../Library/StdDriver/src/fmc.c:692:35
	ldr	r1, [sp, #32]
	.loc	2 692 43 is_stmt 0              @ ../../../../Library/StdDriver/src/fmc.c:692:43
	ldr	r0, [sp, #24]
	.loc	2 692 45                        @ ../../../../Library/StdDriver/src/fmc.c:692:45
	lsls	r0, r0, #2
	.loc	2 692 35                        @ ../../../../Library/StdDriver/src/fmc.c:692:35
	adds	r0, r0, r1
	ldr	r0, [r0, #8]
	ldr	r1, __arm_cp.15_5
	.loc	2 692 33                        @ ../../../../Library/StdDriver/src/fmc.c:692:33
	str	r0, [r1]
	.loc	2 693 35 is_stmt 1              @ ../../../../Library/StdDriver/src/fmc.c:693:35
	ldr	r1, [sp, #32]
	.loc	2 693 43 is_stmt 0              @ ../../../../Library/StdDriver/src/fmc.c:693:43
	ldr	r0, [sp, #24]
	.loc	2 693 45                        @ ../../../../Library/StdDriver/src/fmc.c:693:45
	lsls	r0, r0, #2
	.loc	2 693 35                        @ ../../../../Library/StdDriver/src/fmc.c:693:35
	adds	r0, r0, r1
	ldr	r0, [r0, #12]
	ldr	r1, __arm_cp.15_6
	.loc	2 693 33                        @ ../../../../Library/StdDriver/src/fmc.c:693:33
	str	r0, [r1]
	movs	r0, #0
	str	r0, [sp, #44]
.Ltmp195:
	.loc	5 400 46 is_stmt 1              @ ../../../../Library/CMSIS/Include/cmsis_armclang.h:400:46
	ldr	r0, [sp, #44]
	.loc	5 400 3 is_stmt 0               @ ../../../../Library/CMSIS/Include/cmsis_armclang.h:400:3
	@APP
	msr	primask, r0
	@NO_APP
.Ltmp196:
	.loc	2 695 17 is_stmt 1              @ ../../../../Library/StdDriver/src/fmc.c:695:17
	b	.LBB15_26
.Ltmp197:
.LBB15_26:                              @   in Loop: Header=BB15_2 Depth=2
	.loc	2 696 13                        @ ../../../../Library/StdDriver/src/fmc.c:696:13
	b	.LBB15_27
.Ltmp198:
.LBB15_27:                              @   in Loop: Header=BB15_2 Depth=2
	.loc	2 698 17                        @ ../../../../Library/StdDriver/src/fmc.c:698:17
	ldr	r0, [sp, #12]
.Ltmp199:
	.loc	2 698 17 is_stmt 0              @ ../../../../Library/StdDriver/src/fmc.c:698:17
	cmp	r0, #0
	bpl	.LBB15_29
	b	.LBB15_28
.LBB15_28:
.Ltmp200:
	.loc	2 700 24 is_stmt 1              @ ../../../../Library/StdDriver/src/fmc.c:700:24
	ldr	r0, [sp, #12]
	.loc	2 700 17 is_stmt 0              @ ../../../../Library/StdDriver/src/fmc.c:700:17
	str	r0, [sp, #40]
	b	.LBB15_43
.Ltmp201:
.LBB15_29:                              @   in Loop: Header=BB15_2 Depth=2
	.loc	2 702 9 is_stmt 1               @ ../../../../Library/StdDriver/src/fmc.c:702:9
	b	.LBB15_30
.Ltmp202:
.LBB15_30:                              @   in Loop: Header=BB15_2 Depth=2
	.loc	2 639 40                        @ ../../../../Library/StdDriver/src/fmc.c:639:40
	ldr	r0, [sp, #24]
	adds	r0, r0, #4
	str	r0, [sp, #24]
	.loc	2 639 9 is_stmt 0               @ ../../../../Library/StdDriver/src/fmc.c:639:9
	b	.LBB15_2
.Ltmp203:
.LBB15_31:                              @   in Loop: Header=BB15_1 Depth=1
	.loc	2 704 13 is_stmt 1              @ ../../../../Library/StdDriver/src/fmc.c:704:13
	ldr	r0, [sp, #12]
.Ltmp204:
	.loc	2 704 13 is_stmt 0              @ ../../../../Library/StdDriver/src/fmc.c:704:13
	cbnz	r0, .LBB15_40
	b	.LBB15_32
.LBB15_32:                              @   in Loop: Header=BB15_1 Depth=1
	.loc	2 0 13                          @ ../../../../Library/StdDriver/src/fmc.c:0:13
	movs	r0, #0
.Ltmp205:
	.loc	2 706 23 is_stmt 1              @ ../../../../Library/StdDriver/src/fmc.c:706:23
	str	r0, [sp, #16]
	.loc	2 708 20                        @ ../../../../Library/StdDriver/src/fmc.c:708:20
	ldr	r0, __arm_cp.15_8
	ldr	r0, [r0]
	movs	r1, #10
	udiv	r0, r0, r1
	lsls	r0, r0, #1
	.loc	2 708 18 is_stmt 0              @ ../../../../Library/StdDriver/src/fmc.c:708:18
	str	r0, [sp, #28]
	.loc	2 710 13 is_stmt 1              @ ../../../../Library/StdDriver/src/fmc.c:710:13
	b	.LBB15_33
.LBB15_33:                              @   Parent Loop BB15_1 Depth=1
                                        @ =>  This Inner Loop Header: Depth=2
	.loc	2 710 25 is_stmt 0              @ ../../../../Library/StdDriver/src/fmc.c:710:25
	ldr	r1, [sp, #28]
	subs	r0, r1, #1
	str	r0, [sp, #28]
	movs	r0, #0
	.loc	2 710 33                        @ ../../../../Library/StdDriver/src/fmc.c:710:33
	cmp	r1, #1
	str	r0, [sp]                        @ 4-byte Spill
	blt	.LBB15_35
	b	.LBB15_34
.LBB15_34:                              @   in Loop: Header=BB15_33 Depth=2
	.loc	2 0 33                          @ ../../../../Library/StdDriver/src/fmc.c:0:33
	ldr	r0, __arm_cp.15_9
	.loc	2 710 42                        @ ../../../../Library/StdDriver/src/fmc.c:710:42
	ldr	r0, [r0]
	movs	r1, #1
	.loc	2 710 49                        @ ../../../../Library/StdDriver/src/fmc.c:710:49
	ands	r0, r1
	str	r0, [sp]                        @ 4-byte Spill
	b	.LBB15_35
.LBB15_35:                              @   in Loop: Header=BB15_33 Depth=2
	.loc	2 0 0                           @ ../../../../Library/StdDriver/src/fmc.c:0:0
	ldr	r0, [sp]                        @ 4-byte Reload
	.loc	2 710 13                        @ ../../../../Library/StdDriver/src/fmc.c:710:13
	lsls	r0, r0, #31
	cbz	r0, .LBB15_37
	b	.LBB15_36
.LBB15_36:                              @   in Loop: Header=BB15_33 Depth=2
	b	.LBB15_33
.LBB15_37:                              @   in Loop: Header=BB15_1 Depth=1
.Ltmp206:
	.loc	2 712 17 is_stmt 1              @ ../../../../Library/StdDriver/src/fmc.c:712:17
	ldr	r0, [sp, #28]
.Ltmp207:
	.loc	2 712 17 is_stmt 0              @ ../../../../Library/StdDriver/src/fmc.c:712:17
	cmp	r0, #0
	bgt	.LBB15_39
	b	.LBB15_38
.LBB15_38:
.Ltmp208:
	.loc	2 714 34 is_stmt 1              @ ../../../../Library/StdDriver/src/fmc.c:714:34
	ldr	r1, __arm_cp.15_0
	movs	r0, #0
	mvns	r0, r0
	str	r0, [r1]
	.loc	2 715 17                        @ ../../../../Library/StdDriver/src/fmc.c:715:17
	str	r0, [sp, #40]
	b	.LBB15_43
.Ltmp209:
.LBB15_39:                              @   in Loop: Header=BB15_1 Depth=1
	.loc	2 717 9                         @ ../../../../Library/StdDriver/src/fmc.c:717:9
	b	.LBB15_40
.Ltmp210:
.LBB15_40:                              @   in Loop: Header=BB15_1 Depth=1
	.loc	2 718 5                         @ ../../../../Library/StdDriver/src/fmc.c:718:5
	b	.LBB15_41
.Ltmp211:
.LBB15_41:                              @   in Loop: Header=BB15_1 Depth=1
	.loc	2 718 14 is_stmt 0              @ ../../../../Library/StdDriver/src/fmc.c:718:14
	ldr	r0, [sp, #16]
.Ltmp212:
	.loc	2 718 5                         @ ../../../../Library/StdDriver/src/fmc.c:718:5
	cbz	r0, .LBB15_42
	b	.LBB15_1
.Ltmp213:
.LBB15_42:
	.loc	2 0 5                           @ ../../../../Library/StdDriver/src/fmc.c:0:5
	movs	r0, #0
	.loc	2 720 5 is_stmt 1               @ ../../../../Library/StdDriver/src/fmc.c:720:5
	str	r0, [sp, #40]
	b	.LBB15_43
.LBB15_43:
	.loc	2 721 1                         @ ../../../../Library/StdDriver/src/fmc.c:721:1
	ldr	r0, [sp, #40]
	add	sp, #60
	bx	lr
.Ltmp214:
	.p2align	2
@ %bb.44:
	.loc	2 0 1 is_stmt 0                 @ ../../../../Library/StdDriver/src/fmc.c:0:1
__arm_cp.15_0:
	.long	g_FMC_i32ErrCode
.Lcpi_end58:
	.size	__arm_cp.15_0, .Lcpi_end58-__arm_cp.15_0
__arm_cp.15_1:
	.long	1073790988                      @ 0x4000c00c
.Lcpi_end59:
	.size	__arm_cp.15_1, .Lcpi_end59-__arm_cp.15_1
__arm_cp.15_2:
	.long	1073790980                      @ 0x4000c004
.Lcpi_end60:
	.size	__arm_cp.15_2, .Lcpi_end60-__arm_cp.15_2
__arm_cp.15_3:
	.long	1073791104                      @ 0x4000c080
.Lcpi_end61:
	.size	__arm_cp.15_3, .Lcpi_end61-__arm_cp.15_3
__arm_cp.15_4:
	.long	1073791108                      @ 0x4000c084
.Lcpi_end62:
	.size	__arm_cp.15_4, .Lcpi_end62-__arm_cp.15_4
__arm_cp.15_5:
	.long	1073791112                      @ 0x4000c088
.Lcpi_end63:
	.size	__arm_cp.15_5, .Lcpi_end63-__arm_cp.15_5
__arm_cp.15_6:
	.long	1073791116                      @ 0x4000c08c
.Lcpi_end64:
	.size	__arm_cp.15_6, .Lcpi_end64-__arm_cp.15_6
__arm_cp.15_7:
	.long	1073790992                      @ 0x4000c010
.Lcpi_end65:
	.size	__arm_cp.15_7, .Lcpi_end65-__arm_cp.15_7
__arm_cp.15_8:
	.long	SystemCoreClock
.Lcpi_end66:
	.size	__arm_cp.15_8, .Lcpi_end66-__arm_cp.15_8
__arm_cp.15_9:
	.long	1073791040                      @ 0x4000c040
.Lcpi_end67:
	.size	__arm_cp.15_9, .Lcpi_end67-__arm_cp.15_9
__arm_cp.15_10:
	.long	1073791168                      @ 0x4000c0c0
.Lcpi_end68:
	.size	__arm_cp.15_10, .Lcpi_end68-__arm_cp.15_10
__arm_cp.15_11:
	.long	1073791172                      @ 0x4000c0c4
.Lcpi_end69:
	.size	__arm_cp.15_11, .Lcpi_end69-__arm_cp.15_11
.Lfunc_end15:
	.size	FMC_Write128, .Lfunc_end15-FMC_Write128
	.cfi_endproc
	.cantunwind
	.fnend
                                        @ -- End function
	.hidden	g_FMC_i32ErrCode                @ @g_FMC_i32ErrCode
	.type	g_FMC_i32ErrCode,%object
	.section	.bss.g_FMC_i32ErrCode,"aw",%nobits
	.globl	g_FMC_i32ErrCode
	.p2align	2
g_FMC_i32ErrCode:
	.long	0                               @ 0x0
	.size	g_FMC_i32ErrCode, 4

	.section	".note.GNU-stack","",%progbits
	.eabi_attribute	30, 6	@ Tag_ABI_optimization_goals
	.ARM_attribute	16, 1	@ Tag_AV_eba