	.text
	.syntax unified
	.eabi_attribute	67, "2.09"	@ Tag_conformance
	.cpu	cortex-m23
	.eabi_attribute	6, 16	@ Tag_CPU_arch
	.eabi_attribute	7, 77	@ Tag_CPU_arch_profile
	.eabi_attribute	8, 0	@ Tag_ARM_ISA_use
	.eabi_attribute	9, 3	@ Tag_THUMB_ISA_use
	.eabi_attribute	34, 0	@ Tag_CPU_unaligned_access
	.eabi_attribute	17, 1	@ Tag_ABI_PCS_GOT_use
	.eabi_attribute	20, 2	@ Tag_ABI_FP_denormal
	.eabi_attribute	21, 0	@ Tag_ABI_FP_exceptions
	.eabi_attribute	23, 1	@ Tag_ABI_FP_number_model
	.eabi_attribute	24, 1	@ Tag_ABI_align_needed
	.eabi_attribute	25, 1	@ Tag_ABI_align_preserved
	.eabi_attribute	38, 1	@ Tag_ABI_FP_16bit_format
	.eabi_attribute	18, 2	@ Tag_ABI_PCS_wchar_t
	.eabi_attribute	26, 1	@ Tag_ABI_enum_size
	.eabi_attribute	14, 0	@ Tag_ABI_PCS_R9_use
	.file	"i2c.c"
	.file	1 "C:\\Keil_v5\\ARM\\ARMCLANG\\Bin\\..\\include" "stdint.h"
	.file	2 "E:\\BERSY\\sdk\\SampleCode\\NuCodeGen\\scale_v2\\KEIL" "../../../../Library/StdDriver/src/i2c.c"
	.file	3 "E:\\BERSY\\sdk\\SampleCode\\NuCodeGen\\scale_v2\\KEIL" "../../../../Library/Device/Nuvoton/M251/Include/i2c_reg.h"
	.file	4 "E:\\BERSY\\sdk\\SampleCode\\NuCodeGen\\scale_v2\\KEIL" "../../../../Library/Device/Nuvoton/M251/Include/sys_reg.h"
	.section	.text.I2C_Open,"ax",%progbits
	.hidden	I2C_Open                        @ -- Begin function I2C_Open
	.globl	I2C_Open
	.p2align	2
	.type	I2C_Open,%function
	.code	16                              @ @I2C_Open
	.thumb_func
I2C_Open:
.Lfunc_begin0:
	.loc	2 39 0                          @ ../../../../Library/StdDriver/src/i2c.c:39:0
	.fnstart
	.cfi_sections .debug_frame
	.cfi_startproc
@ %bb.0:
	.save	{r7, lr}
	push	{r7, lr}
	.cfi_def_cfa_offset 8
	.cfi_offset lr, -4
	.cfi_offset r7, -8
	.pad	#16
	sub	sp, #16
	.cfi_def_cfa_offset 24
	str	r0, [sp, #12]
	str	r1, [sp, #8]
.Ltmp0:
	.loc	2 43 9 prologue_end             @ ../../../../Library/StdDriver/src/i2c.c:43:9
	ldr	r0, [sp, #12]
	ldr	r1, __arm_cp.0_0
.Ltmp1:
	.loc	2 43 9 is_stmt 0                @ ../../../../Library/StdDriver/src/i2c.c:43:9
	cmp	r0, r1
	bne	.LBB0_2
	b	.LBB0_1
.LBB0_1:
.Ltmp2:
	.loc	2 45 19 is_stmt 1               @ ../../../../Library/StdDriver/src/i2c.c:45:19
	bl	CLK_GetPCLK1Freq
	.loc	2 45 17 is_stmt 0               @ ../../../../Library/StdDriver/src/i2c.c:45:17
	str	r0, [sp]
	.loc	2 46 5 is_stmt 1                @ ../../../../Library/StdDriver/src/i2c.c:46:5
	b	.LBB0_3
.Ltmp3:
.LBB0_2:
	.loc	2 49 19                         @ ../../../../Library/StdDriver/src/i2c.c:49:19
	bl	CLK_GetPCLK0Freq
	.loc	2 49 17 is_stmt 0               @ ../../../../Library/StdDriver/src/i2c.c:49:17
	str	r0, [sp]
	b	.LBB0_3
.Ltmp4:
.LBB0_3:
	.loc	2 52 27 is_stmt 1               @ ../../../../Library/StdDriver/src/i2c.c:52:27
	ldr	r2, [sp]
	movs	r1, #10
	.loc	2 52 35 is_stmt 0               @ ../../../../Library/StdDriver/src/i2c.c:52:35
	mov	r0, r1
	muls	r0, r2, r0
	.loc	2 52 45                         @ ../../../../Library/StdDriver/src/i2c.c:52:45
	ldr	r2, [sp, #8]
	.loc	2 52 57                         @ ../../../../Library/StdDriver/src/i2c.c:52:57
	lsls	r2, r2, #2
	.loc	2 52 42                         @ ../../../../Library/StdDriver/src/i2c.c:52:42
	udiv	r0, r0, r2
	.loc	2 52 63                         @ ../../../../Library/StdDriver/src/i2c.c:52:63
	adds	r0, r0, #5
	.loc	2 52 69                         @ ../../../../Library/StdDriver/src/i2c.c:52:69
	udiv	r0, r0, r1
	.loc	2 52 75                         @ ../../../../Library/StdDriver/src/i2c.c:52:75
	subs	r0, r0, #1
	.loc	2 52 12                         @ ../../../../Library/StdDriver/src/i2c.c:52:12
	str	r0, [sp, #4]
	.loc	2 53 19 is_stmt 1               @ ../../../../Library/StdDriver/src/i2c.c:53:19
	ldr	r0, [sp, #4]
	.loc	2 53 5 is_stmt 0                @ ../../../../Library/StdDriver/src/i2c.c:53:5
	ldr	r1, [sp, #12]
	.loc	2 53 17                         @ ../../../../Library/StdDriver/src/i2c.c:53:17
	str	r0, [r1, #16]
	.loc	2 56 5 is_stmt 1                @ ../../../../Library/StdDriver/src/i2c.c:56:5
	ldr	r1, [sp, #12]
	.loc	2 56 15 is_stmt 0               @ ../../../../Library/StdDriver/src/i2c.c:56:15
	ldr	r0, [r1]
	movs	r2, #64
	orrs	r0, r2
	str	r0, [r1]
	.loc	2 58 13 is_stmt 1               @ ../../../../Library/StdDriver/src/i2c.c:58:13
	ldr	r0, [sp]
	.loc	2 58 25 is_stmt 0               @ ../../../../Library/StdDriver/src/i2c.c:58:25
	ldr	r1, [sp, #4]
	.loc	2 58 32                         @ ../../../../Library/StdDriver/src/i2c.c:58:32
	lsls	r1, r1, #2
	.loc	2 58 38                         @ ../../../../Library/StdDriver/src/i2c.c:58:38
	adds	r1, r1, #4
	.loc	2 58 21                         @ ../../../../Library/StdDriver/src/i2c.c:58:21
	udiv	r0, r0, r1
	.loc	2 58 5                          @ ../../../../Library/StdDriver/src/i2c.c:58:5
	add	sp, #16
	pop	{r7, pc}
.Ltmp5:
	.p2align	2
@ %bb.4:
	.loc	2 0 5                           @ ../../../../Library/StdDriver/src/i2c.c:0:5
__arm_cp.0_0:
	.long	1074270208                      @ 0x40081000
.Lcpi_end0:
	.size	__arm_cp.0_0, .Lcpi_end0-__arm_cp.0_0
.Lfunc_end0:
	.size	I2C_Open, .Lfunc_end0-I2C_Open
	.cfi_endproc
	.cantunwind
	.fnend
                                        @ -- End function
	.section	.text.I2C_Close,"ax",%progbits
	.hidden	I2C_Close                       @ -- Begin function I2C_Close
	.globl	I2C_Close
	.p2align	2
	.type	I2C_Close,%function
	.code	16                              @ @I2C_Close
	.thumb_func
I2C_Close:
.Lfunc_begin1:
	.loc	2 73 0 is_stmt 1                @ ../../../../Library/StdDriver/src/i2c.c:73:0
	.fnstart
	.cfi_startproc
@ %bb.0:
	.pad	#4
	sub	sp, #4
	.cfi_def_cfa_offset 4
	str	r0, [sp]
.Ltmp6:
	.loc	2 75 19 prologue_end            @ ../../../../Library/StdDriver/src/i2c.c:75:19
	ldr	r0, [sp]
	ldr	r1, __arm_cp.1_0
.Ltmp7:
	.loc	2 75 9 is_stmt 0                @ ../../../../Library/StdDriver/src/i2c.c:75:9
	cmp	r0, r1
	bne	.LBB1_2
	b	.LBB1_1
.LBB1_1:
	.loc	2 0 9                           @ ../../../../Library/StdDriver/src/i2c.c:0:9
	ldr	r1, __arm_cp.1_2
.Ltmp8:
	.loc	2 77 21 is_stmt 1               @ ../../../../Library/StdDriver/src/i2c.c:77:21
	ldr	r0, [r1]
	movw	r2, #256
	orrs	r0, r2
	str	r0, [r1]
	.loc	2 78 21                         @ ../../../../Library/StdDriver/src/i2c.c:78:21
	ldr	r0, [r1]
	bics	r0, r2
	str	r0, [r1]
	.loc	2 79 5                          @ ../../../../Library/StdDriver/src/i2c.c:79:5
	b	.LBB1_5
.Ltmp9:
.LBB1_2:
	.loc	2 80 24                         @ ../../../../Library/StdDriver/src/i2c.c:80:24
	ldr	r0, [sp]
	ldr	r1, __arm_cp.1_1
.Ltmp10:
	.loc	2 80 14 is_stmt 0               @ ../../../../Library/StdDriver/src/i2c.c:80:14
	cmp	r0, r1
	bne	.LBB1_4
	b	.LBB1_3
.LBB1_3:
	.loc	2 0 14                          @ ../../../../Library/StdDriver/src/i2c.c:0:14
	ldr	r1, __arm_cp.1_2
.Ltmp11:
	.loc	2 82 21 is_stmt 1               @ ../../../../Library/StdDriver/src/i2c.c:82:21
	ldr	r0, [r1]
	movw	r2, #512
	orrs	r0, r2
	str	r0, [r1]
	.loc	2 83 21                         @ ../../../../Library/StdDriver/src/i2c.c:83:21
	ldr	r0, [r1]
	bics	r0, r2
	str	r0, [r1]
	.loc	2 84 5                          @ ../../../../Library/StdDriver/src/i2c.c:84:5
	b	.LBB1_4
.Ltmp12:
.LBB1_4:
	.loc	2 0 5 is_stmt 0                 @ ../../../../Library/StdDriver/src/i2c.c:0:5
	b	.LBB1_5
.LBB1_5:
	.loc	2 87 5 is_stmt 1                @ ../../../../Library/StdDriver/src/i2c.c:87:5
	ldr	r1, [sp]
	.loc	2 87 15 is_stmt 0               @ ../../../../Library/StdDriver/src/i2c.c:87:15
	ldr	r0, [r1]
	movs	r2, #64
	bics	r0, r2
	str	r0, [r1]
	.loc	2 88 1 is_stmt 1                @ ../../../../Library/StdDriver/src/i2c.c:88:1
	add	sp, #4
	bx	lr
.Ltmp13:
	.p2align	2
@ %bb.6:
	.loc	2 0 1 is_stmt 0                 @ ../../../../Library/StdDriver/src/i2c.c:0:1
__arm_cp.1_0:
	.long	1074266112                      @ 0x40080000
.Lcpi_end1:
	.size	__arm_cp.1_0, .Lcpi_end1-__arm_cp.1_0
__arm_cp.1_1:
	.long	1074270208                      @ 0x40081000
.Lcpi_end2:
	.size	__arm_cp.1_1, .Lcpi_end2-__arm_cp.1_1
__arm_cp.1_2:
	.long	1073741836                      @ 0x4000000c
.Lcpi_end3:
	.size	__arm_cp.1_2, .Lcpi_end3-__arm_cp.1_2
.Lfunc_end1:
	.size	I2C_Close, .Lfunc_end1-I2C_Close
	.cfi_endproc
	.cantunwind
	.fnend
                                        @ -- End function
	.section	.text.I2C_ClearTimeoutFlag,"ax",%progbits
	.hidden	I2C_ClearTimeoutFlag            @ -- Begin function I2C_ClearTimeoutFlag
	.globl	I2C_ClearTimeoutFlag
	.p2align	1
	.type	I2C_ClearTimeoutFlag,%function
	.code	16                              @ @I2C_ClearTimeoutFlag
	.thumb_func
I2C_ClearTimeoutFlag:
.Lfunc_begin2:
	.loc	2 101 0 is_stmt 1               @ ../../../../Library/StdDriver/src/i2c.c:101:0
	.fnstart
	.cfi_startproc
@ %bb.0:
	.pad	#4
	sub	sp, #4
	.cfi_def_cfa_offset 4
	str	r0, [sp]
.Ltmp14:
	.loc	2 102 5 prologue_end            @ ../../../../Library/StdDriver/src/i2c.c:102:5
	ldr	r1, [sp]
	.loc	2 102 16 is_stmt 0              @ ../../../../Library/StdDriver/src/i2c.c:102:16
	ldr	r0, [r1, #20]
	movs	r2, #1
	orrs	r0, r2
	str	r0, [r1, #20]
	.loc	2 103 1 is_stmt 1               @ ../../../../Library/StdDriver/src/i2c.c:103:1
	add	sp, #4
	bx	lr
.Ltmp15:
.Lfunc_end2:
	.size	I2C_ClearTimeoutFlag, .Lfunc_end2-I2C_ClearTimeoutFlag
	.cfi_endproc
	.cantunwind
	.fnend
                                        @ -- End function
	.section	.text.I2C_Trigger,"ax",%progbits
	.hidden	I2C_Trigger                     @ -- Begin function I2C_Trigger
	.globl	I2C_Trigger
	.p2align	1
	.type	I2C_Trigger,%function
	.code	16                              @ @I2C_Trigger
	.thumb_func
I2C_Trigger:
.Lfunc_begin3:
	.loc	2 120 0                         @ ../../../../Library/StdDriver/src/i2c.c:120:0
	.fnstart
	.cfi_startproc
@ %bb.0:
	.save	{r4, r5, r7, lr}
	push	{r4, r5, r7, lr}
	.cfi_def_cfa_offset 16
	.cfi_offset lr, -4
	.cfi_offset r7, -8
	.cfi_offset r5, -12
	.cfi_offset r4, -16
	.pad	#24
	sub	sp, #24
	.cfi_def_cfa_offset 40
	mov	r4, r1
	ldr	r1, [sp, #40]
                                        @ kill: def $r5 killed $r3
                                        @ kill: def $r5 killed $r2
                                        @ kill: def $r5 killed $r4
	str	r0, [sp, #20]
	add	r0, sp, #16
	strb	r4, [r0]
	add	r4, sp, #12
	strb	r2, [r4]
	add	r2, sp, #8
	strb	r3, [r2]
	add	r2, sp, #4
	strb	r1, [r2]
	movs	r1, #0
.Ltmp16:
	.loc	2 121 14 prologue_end           @ ../../../../Library/StdDriver/src/i2c.c:121:14
	str	r1, [sp]
.Ltmp17:
	.loc	2 123 9                         @ ../../../../Library/StdDriver/src/i2c.c:123:9
	ldrb	r0, [r0]
.Ltmp18:
	.loc	2 123 9 is_stmt 0               @ ../../../../Library/StdDriver/src/i2c.c:123:9
	cbz	r0, .LBB3_2
	b	.LBB3_1
.LBB3_1:
.Ltmp19:
	.loc	2 125 16 is_stmt 1              @ ../../../../Library/StdDriver/src/i2c.c:125:16
	ldr	r0, [sp]
	movs	r1, #32
	orrs	r0, r1
	str	r0, [sp]
	.loc	2 126 5                         @ ../../../../Library/StdDriver/src/i2c.c:126:5
	b	.LBB3_2
.Ltmp20:
.LBB3_2:
	.loc	2 0 5 is_stmt 0                 @ ../../../../Library/StdDriver/src/i2c.c:0:5
	add	r0, sp, #12
.Ltmp21:
	.loc	2 128 9 is_stmt 1               @ ../../../../Library/StdDriver/src/i2c.c:128:9
	ldrb	r0, [r0]
.Ltmp22:
	.loc	2 128 9 is_stmt 0               @ ../../../../Library/StdDriver/src/i2c.c:128:9
	cbz	r0, .LBB3_4
	b	.LBB3_3
.LBB3_3:
.Ltmp23:
	.loc	2 130 16 is_stmt 1              @ ../../../../Library/StdDriver/src/i2c.c:130:16
	ldr	r0, [sp]
	movs	r1, #16
	orrs	r0, r1
	str	r0, [sp]
	.loc	2 131 5                         @ ../../../../Library/StdDriver/src/i2c.c:131:5
	b	.LBB3_4
.Ltmp24:
.LBB3_4:
	.loc	2 0 5 is_stmt 0                 @ ../../../../Library/StdDriver/src/i2c.c:0:5
	add	r0, sp, #8
.Ltmp25:
	.loc	2 133 9 is_stmt 1               @ ../../../../Library/StdDriver/src/i2c.c:133:9
	ldrb	r0, [r0]
.Ltmp26:
	.loc	2 133 9 is_stmt 0               @ ../../../../Library/StdDriver/src/i2c.c:133:9
	cbz	r0, .LBB3_6
	b	.LBB3_5
.LBB3_5:
.Ltmp27:
	.loc	2 135 16 is_stmt 1              @ ../../../../Library/StdDriver/src/i2c.c:135:16
	ldr	r0, [sp]
	movs	r1, #8
	orrs	r0, r1
	str	r0, [sp]
	.loc	2 136 5                         @ ../../../../Library/StdDriver/src/i2c.c:136:5
	b	.LBB3_6
.Ltmp28:
.LBB3_6:
	.loc	2 0 5 is_stmt 0                 @ ../../../../Library/StdDriver/src/i2c.c:0:5
	add	r0, sp, #4
.Ltmp29:
	.loc	2 138 9 is_stmt 1               @ ../../../../Library/StdDriver/src/i2c.c:138:9
	ldrb	r0, [r0]
.Ltmp30:
	.loc	2 138 9 is_stmt 0               @ ../../../../Library/StdDriver/src/i2c.c:138:9
	cbz	r0, .LBB3_8
	b	.LBB3_7
.LBB3_7:
.Ltmp31:
	.loc	2 140 16 is_stmt 1              @ ../../../../Library/StdDriver/src/i2c.c:140:16
	ldr	r0, [sp]
	movs	r1, #4
	orrs	r0, r1
	str	r0, [sp]
	.loc	2 141 5                         @ ../../../../Library/StdDriver/src/i2c.c:141:5
	b	.LBB3_8
.Ltmp32:
.LBB3_8:
	.loc	2 143 18                        @ ../../../../Library/StdDriver/src/i2c.c:143:18
	ldr	r0, [sp, #20]
	.loc	2 143 23 is_stmt 0              @ ../../../../Library/StdDriver/src/i2c.c:143:23
	ldr	r0, [r0]
	movs	r1, #60
	.loc	2 143 28                        @ ../../../../Library/StdDriver/src/i2c.c:143:28
	bics	r0, r1
	.loc	2 143 40                        @ ../../../../Library/StdDriver/src/i2c.c:143:40
	ldr	r1, [sp]
	.loc	2 143 38                        @ ../../../../Library/StdDriver/src/i2c.c:143:38
	orrs	r0, r1
	.loc	2 143 5                         @ ../../../../Library/StdDriver/src/i2c.c:143:5
	ldr	r1, [sp, #20]
	.loc	2 143 15                        @ ../../../../Library/StdDriver/src/i2c.c:143:15
	str	r0, [r1]
	.loc	2 144 1 is_stmt 1               @ ../../../../Library/StdDriver/src/i2c.c:144:1
	add	sp, #24
	pop	{r4, r5, r7, pc}
.Ltmp33:
.Lfunc_end3:
	.size	I2C_Trigger, .Lfunc_end3-I2C_Trigger
	.cfi_endproc
	.cantunwind
	.fnend
                                        @ -- End function
	.section	.text.I2C_DisableInt,"ax",%progbits
	.hidden	I2C_DisableInt                  @ -- Begin function I2C_DisableInt
	.globl	I2C_DisableInt
	.p2align	1
	.type	I2C_DisableInt,%function
	.code	16                              @ @I2C_DisableInt
	.thumb_func
I2C_DisableInt:
.Lfunc_begin4:
	.loc	2 157 0                         @ ../../../../Library/StdDriver/src/i2c.c:157:0
	.fnstart
	.cfi_startproc
@ %bb.0:
	.pad	#4
	sub	sp, #4
	.cfi_def_cfa_offset 4
	str	r0, [sp]
.Ltmp34:
	.loc	2 158 5 prologue_end            @ ../../../../Library/StdDriver/src/i2c.c:158:5
	ldr	r1, [sp]
	.loc	2 158 15 is_stmt 0              @ ../../../../Library/StdDriver/src/i2c.c:158:15
	ldr	r0, [r1]
	movs	r2, #128
	bics	r0, r2
	str	r0, [r1]
	.loc	2 159 1 is_stmt 1               @ ../../../../Library/StdDriver/src/i2c.c:159:1
	add	sp, #4
	bx	lr
.Ltmp35:
.Lfunc_end4:
	.size	I2C_DisableInt, .Lfunc_end4-I2C_DisableInt
	.cfi_endproc
	.cantunwind
	.fnend
                                        @ -- End function
	.section	.text.I2C_EnableInt,"ax",%progbits
	.hidden	I2C_EnableInt                   @ -- Begin function I2C_EnableInt
	.globl	I2C_EnableInt
	.p2align	1
	.type	I2C_EnableInt,%function
	.code	16                              @ @I2C_EnableInt
	.thumb_func
I2C_EnableInt:
.Lfunc_begin5:
	.loc	2 172 0                         @ ../../../../Library/StdDriver/src/i2c.c:172:0
	.fnstart
	.cfi_startproc
@ %bb.0:
	.pad	#4
	sub	sp, #4
	.cfi_def_cfa_offset 4
	str	r0, [sp]
.Ltmp36:
	.loc	2 173 5 prologue_end            @ ../../../../Library/StdDriver/src/i2c.c:173:5
	ldr	r1, [sp]
	.loc	2 173 15 is_stmt 0              @ ../../../../Library/StdDriver/src/i2c.c:173:15
	ldr	r0, [r1]
	movs	r2, #128
	orrs	r0, r2
	str	r0, [r1]
	.loc	2 174 1 is_stmt 1               @ ../../../../Library/StdDriver/src/i2c.c:174:1
	add	sp, #4
	bx	lr
.Ltmp37:
.Lfunc_end5:
	.size	I2C_EnableInt, .Lfunc_end5-I2C_EnableInt
	.cfi_endproc
	.cantunwind
	.fnend
                                        @ -- End function
	.section	.text.I2C_GetBusClockFreq,"ax",%progbits
	.hidden	I2C_GetBusClockFreq             @ -- Begin function I2C_GetBusClockFreq
	.globl	I2C_GetBusClockFreq
	.p2align	2
	.type	I2C_GetBusClockFreq,%function
	.code	16                              @ @I2C_GetBusClockFreq
	.thumb_func
I2C_GetBusClockFreq:
.Lfunc_begin6:
	.loc	2 186 0                         @ ../../../../Library/StdDriver/src/i2c.c:186:0
	.fnstart
	.cfi_startproc
@ %bb.0:
	.save	{r7, lr}
	push	{r7, lr}
	.cfi_def_cfa_offset 8
	.cfi_offset lr, -4
	.cfi_offset r7, -8
	.pad	#16
	sub	sp, #16
	.cfi_def_cfa_offset 24
	str	r0, [sp, #12]
.Ltmp38:
	.loc	2 187 27 prologue_end           @ ../../../../Library/StdDriver/src/i2c.c:187:27
	ldr	r0, [sp, #12]
	.loc	2 187 32 is_stmt 0              @ ../../../../Library/StdDriver/src/i2c.c:187:32
	ldr	r0, [r0, #16]
	.loc	2 187 14                        @ ../../../../Library/StdDriver/src/i2c.c:187:14
	str	r0, [sp, #8]
.Ltmp39:
	.loc	2 190 9 is_stmt 1               @ ../../../../Library/StdDriver/src/i2c.c:190:9
	ldr	r0, [sp, #12]
	ldr	r1, __arm_cp.6_0
.Ltmp40:
	.loc	2 190 9 is_stmt 0               @ ../../../../Library/StdDriver/src/i2c.c:190:9
	cmp	r0, r1
	bne	.LBB6_2
	b	.LBB6_1
.LBB6_1:
.Ltmp41:
	.loc	2 192 19 is_stmt 1              @ ../../../../Library/StdDriver/src/i2c.c:192:19
	bl	CLK_GetPCLK1Freq
	.loc	2 192 17 is_stmt 0              @ ../../../../Library/StdDriver/src/i2c.c:192:17
	str	r0, [sp, #4]
	.loc	2 193 5 is_stmt 1               @ ../../../../Library/StdDriver/src/i2c.c:193:5
	b	.LBB6_3
.Ltmp42:
.LBB6_2:
	.loc	2 196 19                        @ ../../../../Library/StdDriver/src/i2c.c:196:19
	bl	CLK_GetPCLK0Freq
	.loc	2 196 17 is_stmt 0              @ ../../../../Library/StdDriver/src/i2c.c:196:17
	str	r0, [sp, #4]
	b	.LBB6_3
.Ltmp43:
.LBB6_3:
	.loc	2 199 13 is_stmt 1              @ ../../../../Library/StdDriver/src/i2c.c:199:13
	ldr	r0, [sp, #4]
	.loc	2 199 25 is_stmt 0              @ ../../../../Library/StdDriver/src/i2c.c:199:25
	ldr	r1, [sp, #8]
	.loc	2 199 36                        @ ../../../../Library/StdDriver/src/i2c.c:199:36
	lsls	r1, r1, #2
	.loc	2 199 42                        @ ../../../../Library/StdDriver/src/i2c.c:199:42
	adds	r1, r1, #4
	.loc	2 199 21                        @ ../../../../Library/StdDriver/src/i2c.c:199:21
	udiv	r0, r0, r1
	.loc	2 199 5                         @ ../../../../Library/StdDriver/src/i2c.c:199:5
	add	sp, #16
	pop	{r7, pc}
.Ltmp44:
	.p2align	2
@ %bb.4:
	.loc	2 0 5                           @ ../../../../Library/StdDriver/src/i2c.c:0:5
__arm_cp.6_0:
	.long	1074270208                      @ 0x40081000
.Lcpi_end4:
	.size	__arm_cp.6_0, .Lcpi_end4-__arm_cp.6_0
.Lfunc_end6:
	.size	I2C_GetBusClockFreq, .Lfunc_end6-I2C_GetBusClockFreq
	.cfi_endproc
	.cantunwind
	.fnend
                                        @ -- End function
	.section	.text.I2C_SetBusClockFreq,"ax",%progbits
	.hidden	I2C_SetBusClockFreq             @ -- Begin function I2C_SetBusClockFreq
	.globl	I2C_SetBusClockFreq
	.p2align	2
	.type	I2C_SetBusClockFreq,%function
	.code	16                              @ @I2C_SetBusClockFreq
	.thumb_func
I2C_SetBusClockFreq:
.Lfunc_begin7:
	.loc	2 213 0 is_stmt 1               @ ../../../../Library/StdDriver/src/i2c.c:213:0
	.fnstart
	.cfi_startproc
@ %bb.0:
	.save	{r7, lr}
	push	{r7, lr}
	.cfi_def_cfa_offset 8
	.cfi_offset lr, -4
	.cfi_offset r7, -8
	.pad	#16
	sub	sp, #16
	.cfi_def_cfa_offset 24
	str	r0, [sp, #12]
	str	r1, [sp, #8]
.Ltmp45:
	.loc	2 217 9 prologue_end            @ ../../../../Library/StdDriver/src/i2c.c:217:9
	ldr	r0, [sp, #12]
	ldr	r1, __arm_cp.7_0
.Ltmp46:
	.loc	2 217 9 is_stmt 0               @ ../../../../Library/StdDriver/src/i2c.c:217:9
	cmp	r0, r1
	bne	.LBB7_2
	b	.LBB7_1
.LBB7_1:
.Ltmp47:
	.loc	2 219 19 is_stmt 1              @ ../../../../Library/StdDriver/src/i2c.c:219:19
	bl	CLK_GetPCLK1Freq
	.loc	2 219 17 is_stmt 0              @ ../../../../Library/StdDriver/src/i2c.c:219:17
	str	r0, [sp]
	.loc	2 220 5 is_stmt 1               @ ../../../../Library/StdDriver/src/i2c.c:220:5
	b	.LBB7_3
.Ltmp48:
.LBB7_2:
	.loc	2 223 19                        @ ../../../../Library/StdDriver/src/i2c.c:223:19
	bl	CLK_GetPCLK0Freq
	.loc	2 223 17 is_stmt 0              @ ../../../../Library/StdDriver/src/i2c.c:223:17
	str	r0, [sp]
	b	.LBB7_3
.Ltmp49:
.LBB7_3:
	.loc	2 226 27 is_stmt 1              @ ../../../../Library/StdDriver/src/i2c.c:226:27
	ldr	r2, [sp]
	movs	r1, #10
	.loc	2 226 35 is_stmt 0              @ ../../../../Library/StdDriver/src/i2c.c:226:35
	mov	r0, r1
	muls	r0, r2, r0
	.loc	2 226 45                        @ ../../../../Library/StdDriver/src/i2c.c:226:45
	ldr	r2, [sp, #8]
	.loc	2 226 57                        @ ../../../../Library/StdDriver/src/i2c.c:226:57
	lsls	r2, r2, #2
	.loc	2 226 42                        @ ../../../../Library/StdDriver/src/i2c.c:226:42
	udiv	r0, r0, r2
	.loc	2 226 63                        @ ../../../../Library/StdDriver/src/i2c.c:226:63
	adds	r0, r0, #5
	.loc	2 226 69                        @ ../../../../Library/StdDriver/src/i2c.c:226:69
	udiv	r0, r0, r1
	.loc	2 226 75                        @ ../../../../Library/StdDriver/src/i2c.c:226:75
	subs	r0, r0, #1
	.loc	2 226 12                        @ ../../../../Library/StdDriver/src/i2c.c:226:12
	str	r0, [sp, #4]
	.loc	2 227 19 is_stmt 1              @ ../../../../Library/StdDriver/src/i2c.c:227:19
	ldr	r0, [sp, #4]
	.loc	2 227 5 is_stmt 0               @ ../../../../Library/StdDriver/src/i2c.c:227:5
	ldr	r1, [sp, #12]
	.loc	2 227 17                        @ ../../../../Library/StdDriver/src/i2c.c:227:17
	str	r0, [r1, #16]
	.loc	2 229 13 is_stmt 1              @ ../../../../Library/StdDriver/src/i2c.c:229:13
	ldr	r0, [sp]
	.loc	2 229 25 is_stmt 0              @ ../../../../Library/StdDriver/src/i2c.c:229:25
	ldr	r1, [sp, #4]
	.loc	2 229 32                        @ ../../../../Library/StdDriver/src/i2c.c:229:32
	lsls	r1, r1, #2
	.loc	2 229 38                        @ ../../../../Library/StdDriver/src/i2c.c:229:38
	adds	r1, r1, #4
	.loc	2 229 21                        @ ../../../../Library/StdDriver/src/i2c.c:229:21
	udiv	r0, r0, r1
	.loc	2 229 5                         @ ../../../../Library/StdDriver/src/i2c.c:229:5
	add	sp, #16
	pop	{r7, pc}
.Ltmp50:
	.p2align	2
@ %bb.4:
	.loc	2 0 5                           @ ../../../../Library/StdDriver/src/i2c.c:0:5
__arm_cp.7_0:
	.long	1074270208                      @ 0x40081000
.Lcpi_end5:
	.size	__arm_cp.7_0, .Lcpi_end5-__arm_cp.7_0
.Lfunc_end7:
	.size	I2C_SetBusClockFreq, .Lfunc_end7-I2C_SetBusClockFreq
	.cfi_endproc
	.cantunwind
	.fnend
                                        @ -- End function
	.section	.text.I2C_GetIntFlag,"ax",%progbits
	.hidden	I2C_GetIntFlag                  @ -- Begin function I2C_GetIntFlag
	.globl	I2C_GetIntFlag
	.p2align	1
	.type	I2C_GetIntFlag,%function
	.code	16                              @ @I2C_GetIntFlag
	.thumb_func
I2C_GetIntFlag:
.Lfunc_begin8:
	.loc	2 242 0 is_stmt 1               @ ../../../../Library/StdDriver/src/i2c.c:242:0
	.fnstart
	.cfi_startproc
@ %bb.0:
	.pad	#4
	sub	sp, #4
	.cfi_def_cfa_offset 4
	str	r0, [sp]
.Ltmp51:
	.loc	2 243 14 prologue_end           @ ../../../../Library/StdDriver/src/i2c.c:243:14
	ldr	r0, [sp]
	.loc	2 243 19 is_stmt 0              @ ../../../../Library/StdDriver/src/i2c.c:243:19
	ldr	r0, [r0]
	movs	r1, #8
	.loc	2 243 24                        @ ../../../../Library/StdDriver/src/i2c.c:243:24
	ands	r0, r1
	.loc	2 243 43                        @ ../../../../Library/StdDriver/src/i2c.c:243:43
	lsrs	r0, r0, #3
	.loc	2 243 5                         @ ../../../../Library/StdDriver/src/i2c.c:243:5
	add	sp, #4
	bx	lr
.Ltmp52:
.Lfunc_end8:
	.size	I2C_GetIntFlag, .Lfunc_end8-I2C_GetIntFlag
	.cfi_endproc
	.cantunwind
	.fnend
                                        @ -- End function
	.section	.text.I2C_GetStatus,"ax",%progbits
	.hidden	I2C_GetStatus                   @ -- Begin function I2C_GetStatus
	.globl	I2C_GetStatus
	.p2align	1
	.type	I2C_GetStatus,%function
	.code	16                              @ @I2C_GetStatus
	.thumb_func
I2C_GetStatus:
.Lfunc_begin9:
	.loc	2 256 0 is_stmt 1               @ ../../../../Library/StdDriver/src/i2c.c:256:0
	.fnstart
	.cfi_startproc
@ %bb.0:
	.pad	#4
	sub	sp, #4
	.cfi_def_cfa_offset 4
	str	r0, [sp]
.Ltmp53:
	.loc	2 257 13 prologue_end           @ ../../../../Library/StdDriver/src/i2c.c:257:13
	ldr	r0, [sp]
	.loc	2 257 18 is_stmt 0              @ ../../../../Library/StdDriver/src/i2c.c:257:18
	ldr	r0, [r0, #12]
	.loc	2 257 5                         @ ../../../../Library/StdDriver/src/i2c.c:257:5
	add	sp, #4
	bx	lr
.Ltmp54:
.Lfunc_end9:
	.size	I2C_GetStatus, .Lfunc_end9-I2C_GetStatus
	.cfi_endproc
	.cantunwind
	.fnend
                                        @ -- End function
	.section	.text.I2C_GetData,"ax",%progbits
	.hidden	I2C_GetData                     @ -- Begin function I2C_GetData
	.globl	I2C_GetData
	.p2align	1
	.type	I2C_GetData,%function
	.code	16                              @ @I2C_GetData
	.thumb_func
I2C_GetData:
.Lfunc_begin10:
	.loc	2 270 0 is_stmt 1               @ ../../../../Library/StdDriver/src/i2c.c:270:0
	.fnstart
	.cfi_startproc
@ %bb.0:
	.pad	#4
	sub	sp, #4
	.cfi_def_cfa_offset 4
	str	r0, [sp]
.Ltmp55:
	.loc	2 271 22 prologue_end           @ ../../../../Library/StdDriver/src/i2c.c:271:22
	ldr	r0, [sp]
	.loc	2 271 27 is_stmt 0              @ ../../../../Library/StdDriver/src/i2c.c:271:27
	ldr	r0, [r0, #8]
	.loc	2 271 5                         @ ../../../../Library/StdDriver/src/i2c.c:271:5
	uxtb	r0, r0
	add	sp, #4
	bx	lr
.Ltmp56:
.Lfunc_end10:
	.size	I2C_GetData, .Lfunc_end10-I2C_GetData
	.cfi_endproc
	.cantunwind
	.fnend
                                        @ -- End function
	.section	.text.I2C_SetData,"ax",%progbits
	.hidden	I2C_SetData                     @ -- Begin function I2C_SetData
	.globl	I2C_SetData
	.p2align	1
	.type	I2C_SetData,%function
	.code	16                              @ @I2C_SetData
	.thumb_func
I2C_SetData:
.Lfunc_begin11:
	.loc	2 285 0 is_stmt 1               @ ../../../../Library/StdDriver/src/i2c.c:285:0
	.fnstart
	.cfi_startproc
@ %bb.0:
	.pad	#8
	sub	sp, #8
	.cfi_def_cfa_offset 8
                                        @ kill: def $r2 killed $r1
	str	r0, [sp, #4]
	mov	r0, sp
	strb	r1, [r0]
.Ltmp57:
	.loc	2 286 16 prologue_end           @ ../../../../Library/StdDriver/src/i2c.c:286:16
	ldrb	r0, [r0]
	.loc	2 286 5 is_stmt 0               @ ../../../../Library/StdDriver/src/i2c.c:286:5
	ldr	r1, [sp, #4]
	.loc	2 286 14                        @ ../../../../Library/StdDriver/src/i2c.c:286:14
	str	r0, [r1, #8]
	.loc	2 287 1 is_stmt 1               @ ../../../../Library/StdDriver/src/i2c.c:287:1
	add	sp, #8
	bx	lr
.Ltmp58:
.Lfunc_end11:
	.size	I2C_SetData, .Lfunc_end11-I2C_SetData
	.cfi_endproc
	.cantunwind
	.fnend
                                        @ -- End function
	.section	.text.I2C_SetSlaveAddr,"ax",%progbits
	.hidden	I2C_SetSlaveAddr                @ -- Begin function I2C_SetSlaveAddr
	.globl	I2C_SetSlaveAddr
	.p2align	2
	.type	I2C_SetSlaveAddr,%function
	.code	16                              @ @I2C_SetSlaveAddr
	.thumb_func
I2C_SetSlaveAddr:
.Lfunc_begin12:
	.loc	2 304 0                         @ ../../../../Library/StdDriver/src/i2c.c:304:0
	.fnstart
	.cfi_startproc
@ %bb.0:
	.save	{r4, lr}
	push	{r4, lr}
	.cfi_def_cfa_offset 8
	.cfi_offset lr, -4
	.cfi_offset r4, -8
	.pad	#20
	sub	sp, #20
	.cfi_def_cfa_offset 28
                                        @ kill: def $r4 killed $r3
                                        @ kill: def $r4 killed $r2
                                        @ kill: def $r4 killed $r1
	str	r0, [sp, #16]
	add	r0, sp, #12
	strb	r1, [r0]
	add	r1, sp, #8
	strh	r2, [r1]
	add	r1, sp, #4
	strb	r3, [r1]
.Ltmp59:
	.loc	2 305 13 prologue_end           @ ../../../../Library/StdDriver/src/i2c.c:305:13
	ldrb	r0, [r0]
	.loc	2 305 5 is_stmt 0               @ ../../../../Library/StdDriver/src/i2c.c:305:5
	str	r0, [sp]                        @ 4-byte Spill
	cmp	r0, #3
	bhi	.LBB12_7
@ %bb.1:
	.loc	2 0 5                           @ ../../../../Library/StdDriver/src/i2c.c:0:5
	ldr	r1, [sp]                        @ 4-byte Reload
	lsls	r2, r1, #2
	adr	r0, .LJTI12_0
	adds	r0, r0, r2
	mov	pc, r0
@ %bb.2:
	.p2align	2
.LJTI12_0:
	b.w	.LBB12_6
	b.w	.LBB12_3
	b.w	.LBB12_4
	b.w	.LBB12_5
.LBB12_3:
	add	r0, sp, #8
.Ltmp60:
	.loc	2 308 38 is_stmt 1              @ ../../../../Library/StdDriver/src/i2c.c:308:38
	ldrh	r0, [r0]
	.loc	2 308 51 is_stmt 0              @ ../../../../Library/StdDriver/src/i2c.c:308:51
	lsls	r0, r0, #1
	add	r1, sp, #4
	.loc	2 308 60                        @ ../../../../Library/StdDriver/src/i2c.c:308:60
	ldrb	r1, [r1]
	.loc	2 308 58                        @ ../../../../Library/StdDriver/src/i2c.c:308:58
	orrs	r0, r1
	.loc	2 308 13                        @ ../../../../Library/StdDriver/src/i2c.c:308:13
	ldr	r1, [sp, #16]
	.loc	2 308 25                        @ ../../../../Library/StdDriver/src/i2c.c:308:25
	str	r0, [r1, #24]
	.loc	2 309 13 is_stmt 1              @ ../../../../Library/StdDriver/src/i2c.c:309:13
	b	.LBB12_8
.LBB12_4:
	.loc	2 0 13 is_stmt 0                @ ../../../../Library/StdDriver/src/i2c.c:0:13
	add	r0, sp, #8
	.loc	2 312 38 is_stmt 1              @ ../../../../Library/StdDriver/src/i2c.c:312:38
	ldrh	r0, [r0]
	.loc	2 312 51 is_stmt 0              @ ../../../../Library/StdDriver/src/i2c.c:312:51
	lsls	r0, r0, #1
	add	r1, sp, #4
	.loc	2 312 60                        @ ../../../../Library/StdDriver/src/i2c.c:312:60
	ldrb	r1, [r1]
	.loc	2 312 58                        @ ../../../../Library/StdDriver/src/i2c.c:312:58
	orrs	r0, r1
	.loc	2 312 13                        @ ../../../../Library/StdDriver/src/i2c.c:312:13
	ldr	r1, [sp, #16]
	.loc	2 312 25                        @ ../../../../Library/StdDriver/src/i2c.c:312:25
	str	r0, [r1, #28]
	.loc	2 313 13 is_stmt 1              @ ../../../../Library/StdDriver/src/i2c.c:313:13
	b	.LBB12_8
.LBB12_5:
	.loc	2 0 13 is_stmt 0                @ ../../../../Library/StdDriver/src/i2c.c:0:13
	add	r0, sp, #8
	.loc	2 316 38 is_stmt 1              @ ../../../../Library/StdDriver/src/i2c.c:316:38
	ldrh	r0, [r0]
	.loc	2 316 51 is_stmt 0              @ ../../../../Library/StdDriver/src/i2c.c:316:51
	lsls	r0, r0, #1
	add	r1, sp, #4
	.loc	2 316 60                        @ ../../../../Library/StdDriver/src/i2c.c:316:60
	ldrb	r1, [r1]
	.loc	2 316 58                        @ ../../../../Library/StdDriver/src/i2c.c:316:58
	orrs	r0, r1
	.loc	2 316 13                        @ ../../../../Library/StdDriver/src/i2c.c:316:13
	ldr	r1, [sp, #16]
	.loc	2 316 25                        @ ../../../../Library/StdDriver/src/i2c.c:316:25
	str	r0, [r1, #32]
	.loc	2 317 13 is_stmt 1              @ ../../../../Library/StdDriver/src/i2c.c:317:13
	b	.LBB12_8
.LBB12_6:
	.loc	2 319 9                         @ ../../../../Library/StdDriver/src/i2c.c:319:9
	b	.LBB12_7
.LBB12_7:
	.loc	2 0 9 is_stmt 0                 @ ../../../../Library/StdDriver/src/i2c.c:0:9
	add	r0, sp, #8
	.loc	2 321 38 is_stmt 1              @ ../../../../Library/StdDriver/src/i2c.c:321:38
	ldrh	r0, [r0]
	.loc	2 321 51 is_stmt 0              @ ../../../../Library/StdDriver/src/i2c.c:321:51
	lsls	r0, r0, #1
	add	r1, sp, #4
	.loc	2 321 60                        @ ../../../../Library/StdDriver/src/i2c.c:321:60
	ldrb	r1, [r1]
	.loc	2 321 58                        @ ../../../../Library/StdDriver/src/i2c.c:321:58
	orrs	r0, r1
	.loc	2 321 13                        @ ../../../../Library/StdDriver/src/i2c.c:321:13
	ldr	r1, [sp, #16]
	.loc	2 321 25                        @ ../../../../Library/StdDriver/src/i2c.c:321:25
	str	r0, [r1, #4]
	.loc	2 322 13 is_stmt 1              @ ../../../../Library/StdDriver/src/i2c.c:322:13
	b	.LBB12_8
.Ltmp61:
.LBB12_8:
	.loc	2 324 1                         @ ../../../../Library/StdDriver/src/i2c.c:324:1
	add	sp, #20
	pop	{r4, pc}
.Ltmp62:
.Lfunc_end12:
	.size	I2C_SetSlaveAddr, .Lfunc_end12-I2C_SetSlaveAddr
	.cfi_endproc
	.cantunwind
	.fnend
                                        @ -- End function
	.section	.text.I2C_SetSlaveAddrMask,"ax",%progbits
	.hidden	I2C_SetSlaveAddrMask            @ -- Begin function I2C_SetSlaveAddrMask
	.globl	I2C_SetSlaveAddrMask
	.p2align	2
	.type	I2C_SetSlaveAddrMask,%function
	.code	16                              @ @I2C_SetSlaveAddrMask
	.thumb_func
I2C_SetSlaveAddrMask:
.Lfunc_begin13:
	.loc	2 339 0                         @ ../../../../Library/StdDriver/src/i2c.c:339:0
	.fnstart
	.cfi_startproc
@ %bb.0:
	.pad	#16
	sub	sp, #16
	.cfi_def_cfa_offset 16
                                        @ kill: def $r3 killed $r2
                                        @ kill: def $r3 killed $r1
	str	r0, [sp, #12]
	add	r0, sp, #8
	strb	r1, [r0]
	add	r1, sp, #4
	strh	r2, [r1]
.Ltmp63:
	.loc	2 340 13 prologue_end           @ ../../../../Library/StdDriver/src/i2c.c:340:13
	ldrb	r0, [r0]
	.loc	2 340 5 is_stmt 0               @ ../../../../Library/StdDriver/src/i2c.c:340:5
	str	r0, [sp]                        @ 4-byte Spill
	cmp	r0, #3
	bhi	.LBB13_7
@ %bb.1:
	.loc	2 0 5                           @ ../../../../Library/StdDriver/src/i2c.c:0:5
	ldr	r1, [sp]                        @ 4-byte Reload
	lsls	r2, r1, #2
	adr	r0, .LJTI13_0
	adds	r0, r0, r2
	mov	pc, r0
@ %bb.2:
	.p2align	2
.LJTI13_0:
	b.w	.LBB13_6
	b.w	.LBB13_3
	b.w	.LBB13_4
	b.w	.LBB13_5
.LBB13_3:
	add	r0, sp, #4
.Ltmp64:
	.loc	2 343 40 is_stmt 1              @ ../../../../Library/StdDriver/src/i2c.c:343:40
	ldrh	r0, [r0]
	.loc	2 343 57 is_stmt 0              @ ../../../../Library/StdDriver/src/i2c.c:343:57
	lsls	r0, r0, #1
	.loc	2 343 13                        @ ../../../../Library/StdDriver/src/i2c.c:343:13
	ldr	r1, [sp, #12]
	.loc	2 343 28                        @ ../../../../Library/StdDriver/src/i2c.c:343:28
	str	r0, [r1, #40]
	.loc	2 344 13 is_stmt 1              @ ../../../../Library/StdDriver/src/i2c.c:344:13
	b	.LBB13_8
.LBB13_4:
	.loc	2 0 13 is_stmt 0                @ ../../../../Library/StdDriver/src/i2c.c:0:13
	add	r0, sp, #4
	.loc	2 347 40 is_stmt 1              @ ../../../../Library/StdDriver/src/i2c.c:347:40
	ldrh	r0, [r0]
	.loc	2 347 57 is_stmt 0              @ ../../../../Library/StdDriver/src/i2c.c:347:57
	lsls	r0, r0, #1
	.loc	2 347 13                        @ ../../../../Library/StdDriver/src/i2c.c:347:13
	ldr	r1, [sp, #12]
	.loc	2 347 28                        @ ../../../../Library/StdDriver/src/i2c.c:347:28
	str	r0, [r1, #44]
	.loc	2 348 13 is_stmt 1              @ ../../../../Library/StdDriver/src/i2c.c:348:13
	b	.LBB13_8
.LBB13_5:
	.loc	2 0 13 is_stmt 0                @ ../../../../Library/StdDriver/src/i2c.c:0:13
	add	r0, sp, #4
	.loc	2 351 40 is_stmt 1              @ ../../../../Library/StdDriver/src/i2c.c:351:40
	ldrh	r0, [r0]
	.loc	2 351 57 is_stmt 0              @ ../../../../Library/StdDriver/src/i2c.c:351:57
	lsls	r0, r0, #1
	.loc	2 351 13                        @ ../../../../Library/StdDriver/src/i2c.c:351:13
	ldr	r1, [sp, #12]
	.loc	2 351 28                        @ ../../../../Library/StdDriver/src/i2c.c:351:28
	str	r0, [r1, #48]
	.loc	2 352 13 is_stmt 1              @ ../../../../Library/StdDriver/src/i2c.c:352:13
	b	.LBB13_8
.LBB13_6:
	.loc	2 354 9                         @ ../../../../Library/StdDriver/src/i2c.c:354:9
	b	.LBB13_7
.LBB13_7:
	.loc	2 0 9 is_stmt 0                 @ ../../../../Library/StdDriver/src/i2c.c:0:9
	add	r0, sp, #4
	.loc	2 356 40 is_stmt 1              @ ../../../../Library/StdDriver/src/i2c.c:356:40
	ldrh	r0, [r0]
	.loc	2 356 57 is_stmt 0              @ ../../../../Library/StdDriver/src/i2c.c:356:57
	lsls	r0, r0, #1
	.loc	2 356 13                        @ ../../../../Library/StdDriver/src/i2c.c:356:13
	ldr	r1, [sp, #12]
	.loc	2 356 28                        @ ../../../../Library/StdDriver/src/i2c.c:356:28
	str	r0, [r1, #36]
	.loc	2 357 13 is_stmt 1              @ ../../../../Library/StdDriver/src/i2c.c:357:13
	b	.LBB13_8
.Ltmp65:
.LBB13_8:
	.loc	2 359 1                         @ ../../../../Library/StdDriver/src/i2c.c:359:1
	add	sp, #16
	bx	lr
.Ltmp66:
.Lfunc_end13:
	.size	I2C_SetSlaveAddrMask, .Lfunc_end13-I2C_SetSlaveAddrMask
	.cfi_endproc
	.cantunwind
	.fnend
                                        @ -- End function
	.section	.text.I2C_EnableTimeout,"ax",%progbits
	.hidden	I2C_EnableTimeout               @ -- Begin function I2C_EnableTimeout
	.globl	I2C_EnableTimeout
	.p2align	1
	.type	I2C_EnableTimeout,%function
	.code	16                              @ @I2C_EnableTimeout
	.thumb_func
I2C_EnableTimeout:
.Lfunc_begin14:
	.loc	2 374 0                         @ ../../../../Library/StdDriver/src/i2c.c:374:0
	.fnstart
	.cfi_startproc
@ %bb.0:
	.pad	#8
	sub	sp, #8
	.cfi_def_cfa_offset 8
                                        @ kill: def $r2 killed $r1
	str	r0, [sp, #4]
	mov	r0, sp
	strb	r1, [r0]
.Ltmp67:
	.loc	2 375 9 prologue_end            @ ../../../../Library/StdDriver/src/i2c.c:375:9
	ldrb	r0, [r0]
.Ltmp68:
	.loc	2 375 9 is_stmt 0               @ ../../../../Library/StdDriver/src/i2c.c:375:9
	cbz	r0, .LBB14_2
	b	.LBB14_1
.LBB14_1:
.Ltmp69:
	.loc	2 377 9 is_stmt 1               @ ../../../../Library/StdDriver/src/i2c.c:377:9
	ldr	r1, [sp, #4]
	.loc	2 377 20 is_stmt 0              @ ../../../../Library/StdDriver/src/i2c.c:377:20
	ldr	r0, [r1, #20]
	movs	r2, #2
	orrs	r0, r2
	str	r0, [r1, #20]
	.loc	2 378 5 is_stmt 1               @ ../../../../Library/StdDriver/src/i2c.c:378:5
	b	.LBB14_3
.Ltmp70:
.LBB14_2:
	.loc	2 381 9                         @ ../../../../Library/StdDriver/src/i2c.c:381:9
	ldr	r1, [sp, #4]
	.loc	2 381 20 is_stmt 0              @ ../../../../Library/StdDriver/src/i2c.c:381:20
	ldr	r0, [r1, #20]
	movs	r2, #2
	bics	r0, r2
	str	r0, [r1, #20]
	b	.LBB14_3
.Ltmp71:
.LBB14_3:
	.loc	2 384 5 is_stmt 1               @ ../../../../Library/StdDriver/src/i2c.c:384:5
	ldr	r1, [sp, #4]
	.loc	2 384 16 is_stmt 0              @ ../../../../Library/StdDriver/src/i2c.c:384:16
	ldr	r0, [r1, #20]
	movs	r2, #4
	orrs	r0, r2
	str	r0, [r1, #20]
	.loc	2 385 1 is_stmt 1               @ ../../../../Library/StdDriver/src/i2c.c:385:1
	add	sp, #8
	bx	lr
.Ltmp72:
.Lfunc_end14:
	.size	I2C_EnableTimeout, .Lfunc_end14-I2C_EnableTimeout
	.cfi_endproc
	.cantunwind
	.fnend
                                        @ -- End function
	.section	.text.I2C_DisableTimeout,"ax",%progbits
	.hidden	I2C_DisableTimeout              @ -- Begin function I2C_DisableTimeout
	.globl	I2C_DisableTimeout
	.p2align	1
	.type	I2C_DisableTimeout,%function
	.code	16                              @ @I2C_DisableTimeout
	.thumb_func
I2C_DisableTimeout:
.Lfunc_begin15:
	.loc	2 398 0                         @ ../../../../Library/StdDriver/src/i2c.c:398:0
	.fnstart
	.cfi_startproc
@ %bb.0:
	.pad	#4
	sub	sp, #4
	.cfi_def_cfa_offset 4
	str	r0, [sp]
.Ltmp73:
	.loc	2 399 5 prologue_end            @ ../../../../Library/StdDriver/src/i2c.c:399:5
	ldr	r1, [sp]
	.loc	2 399 16 is_stmt 0              @ ../../../../Library/StdDriver/src/i2c.c:399:16
	ldr	r0, [r1, #20]
	movs	r2, #4
	bics	r0, r2
	str	r0, [r1, #20]
	.loc	2 400 1 is_stmt 1               @ ../../../../Library/StdDriver/src/i2c.c:400:1
	add	sp, #4
	bx	lr
.Ltmp74:
.Lfunc_end15:
	.size	I2C_DisableTimeout, .Lfunc_end15-I2C_DisableTimeout
	.cfi_endproc
	.cantunwind
	.fnend
                                        @ -- End function
	.section	.text.I2C_EnableWakeup,"ax",%progbits
	.hidden	I2C_EnableWakeup                @ -- Begin function I2C_EnableWakeup
	.globl	I2C_EnableWakeup
	.p2align	1
	.type	I2C_EnableWakeup,%function
	.code	16                              @ @I2C_EnableWakeup
	.thumb_func
I2C_EnableWakeup:
.Lfunc_begin16:
	.loc	2 413 0                         @ ../../../../Library/StdDriver/src/i2c.c:413:0
	.fnstart
	.cfi_startproc
@ %bb.0:
	.pad	#4
	sub	sp, #4
	.cfi_def_cfa_offset 4
	str	r0, [sp]
.Ltmp75:
	.loc	2 414 5 prologue_end            @ ../../../../Library/StdDriver/src/i2c.c:414:5
	ldr	r1, [sp]
	.loc	2 414 16 is_stmt 0              @ ../../../../Library/StdDriver/src/i2c.c:414:16
	ldr	r0, [r1, #60]
	movs	r2, #1
	orrs	r0, r2
	str	r0, [r1, #60]
	.loc	2 415 1 is_stmt 1               @ ../../../../Library/StdDriver/src/i2c.c:415:1
	add	sp, #4
	bx	lr
.Ltmp76:
.Lfunc_end16:
	.size	I2C_EnableWakeup, .Lfunc_end16-I2C_EnableWakeup
	.cfi_endproc
	.cantunwind
	.fnend
                                        @ -- End function
	.section	.text.I2C_DisableWakeup,"ax",%progbits
	.hidden	I2C_DisableWakeup               @ -- Begin function I2C_DisableWakeup
	.globl	I2C_DisableWakeup
	.p2align	1
	.type	I2C_DisableWakeup,%function
	.code	16                              @ @I2C_DisableWakeup
	.thumb_func
I2C_DisableWakeup:
.Lfunc_begin17:
	.loc	2 428 0                         @ ../../../../Library/StdDriver/src/i2c.c:428:0
	.fnstart
	.cfi_startproc
@ %bb.0:
	.pad	#4
	sub	sp, #4
	.cfi_def_cfa_offset 4
	str	r0, [sp]
.Ltmp77:
	.loc	2 429 5 prologue_end            @ ../../../../Library/StdDriver/src/i2c.c:429:5
	ldr	r1, [sp]
	.loc	2 429 16 is_stmt 0              @ ../../../../Library/StdDriver/src/i2c.c:429:16
	ldr	r0, [r1, #60]
	movs	r2, #1
	bics	r0, r2
	str	r0, [r1, #60]
	.loc	2 430 1 is_stmt 1               @ ../../../../Library/StdDriver/src/i2c.c:430:1
	add	sp, #4
	bx	lr
.Ltmp78:
.Lfunc_end17:
	.size	I2C_DisableWakeup, .Lfunc_end17-I2C_DisableWakeup
	.cfi_endproc
	.cantunwind
	.fnend
                                        @ -- End function
	.section	.text.I2C_SMBusGetStatus,"ax",%progbits
	.hidden	I2C_SMBusGetStatus              @ -- Begin function I2C_SMBusGetStatus
	.globl	I2C_SMBusGetStatus
	.p2align	1
	.type	I2C_SMBusGetStatus,%function
	.code	16                              @ @I2C_SMBusGetStatus
	.thumb_func
I2C_SMBusGetStatus:
.Lfunc_begin18:
	.loc	2 443 0                         @ ../../../../Library/StdDriver/src/i2c.c:443:0
	.fnstart
	.cfi_startproc
@ %bb.0:
	.pad	#4
	sub	sp, #4
	.cfi_def_cfa_offset 4
	str	r0, [sp]
.Ltmp79:
	.loc	2 444 13 prologue_end           @ ../../../../Library/StdDriver/src/i2c.c:444:13
	ldr	r0, [sp]
	.loc	2 444 18 is_stmt 0              @ ../../../../Library/StdDriver/src/i2c.c:444:18
	ldr	r0, [r0, #88]
	.loc	2 444 5                         @ ../../../../Library/StdDriver/src/i2c.c:444:5
	add	sp, #4
	bx	lr
.Ltmp80:
.Lfunc_end18:
	.size	I2C_SMBusGetStatus, .Lfunc_end18-I2C_SMBusGetStatus
	.cfi_endproc
	.cantunwind
	.fnend
                                        @ -- End function
	.section	.text.I2C_SMBusClearInterruptFlag,"ax",%progbits
	.hidden	I2C_SMBusClearInterruptFlag     @ -- Begin function I2C_SMBusClearInterruptFlag
	.globl	I2C_SMBusClearInterruptFlag
	.p2align	1
	.type	I2C_SMBusClearInterruptFlag,%function
	.code	16                              @ @I2C_SMBusClearInterruptFlag
	.thumb_func
I2C_SMBusClearInterruptFlag:
.Lfunc_begin19:
	.loc	2 459 0 is_stmt 1               @ ../../../../Library/StdDriver/src/i2c.c:459:0
	.fnstart
	.cfi_startproc
@ %bb.0:
	.pad	#8
	sub	sp, #8
	.cfi_def_cfa_offset 8
                                        @ kill: def $r2 killed $r1
	str	r0, [sp, #4]
	mov	r0, sp
	strb	r1, [r0]
.Ltmp81:
	.loc	2 460 19 prologue_end           @ ../../../../Library/StdDriver/src/i2c.c:460:19
	ldrb	r0, [r0]
	.loc	2 460 5 is_stmt 0               @ ../../../../Library/StdDriver/src/i2c.c:460:5
	ldr	r1, [sp, #4]
	.loc	2 460 17                        @ ../../../../Library/StdDriver/src/i2c.c:460:17
	str	r0, [r1, #88]
	.loc	2 461 1 is_stmt 1               @ ../../../../Library/StdDriver/src/i2c.c:461:1
	add	sp, #8
	bx	lr
.Ltmp82:
.Lfunc_end19:
	.size	I2C_SMBusClearInterruptFlag, .Lfunc_end19-I2C_SMBusClearInterruptFlag
	.cfi_endproc
	.cantunwind
	.fnend
                                        @ -- End function
	.section	.text.I2C_SMBusSetPacketByteCount,"ax",%progbits
	.hidden	I2C_SMBusSetPacketByteCount     @ -- Begin function I2C_SMBusSetPacketByteCount
	.globl	I2C_SMBusSetPacketByteCount
	.p2align	1
	.type	I2C_SMBusSetPacketByteCount,%function
	.code	16                              @ @I2C_SMBusSetPacketByteCount
	.thumb_func
I2C_SMBusSetPacketByteCount:
.Lfunc_begin20:
	.loc	2 475 0                         @ ../../../../Library/StdDriver/src/i2c.c:475:0
	.fnstart
	.cfi_startproc
@ %bb.0:
	.pad	#8
	sub	sp, #8
	.cfi_def_cfa_offset 8
	str	r0, [sp, #4]
	str	r1, [sp]
.Ltmp83:
	.loc	2 476 20 prologue_end           @ ../../../../Library/StdDriver/src/i2c.c:476:20
	ldr	r0, [sp]
	.loc	2 476 5 is_stmt 0               @ ../../../../Library/StdDriver/src/i2c.c:476:5
	ldr	r1, [sp, #4]
	.loc	2 476 18                        @ ../../../../Library/StdDriver/src/i2c.c:476:18
	str	r0, [r1, #92]
	.loc	2 477 1 is_stmt 1               @ ../../../../Library/StdDriver/src/i2c.c:477:1
	add	sp, #8
	bx	lr
.Ltmp84:
.Lfunc_end20:
	.size	I2C_SMBusSetPacketByteCount, .Lfunc_end20-I2C_SMBusSetPacketByteCount
	.cfi_endproc
	.cantunwind
	.fnend
                                        @ -- End function
	.section	.text.I2C_SMBusOpen,"ax",%progbits
	.hidden	I2C_SMBusOpen                   @ -- Begin function I2C_SMBusOpen
	.globl	I2C_SMBusOpen
	.p2align	1
	.type	I2C_SMBusOpen,%function
	.code	16                              @ @I2C_SMBusOpen
	.thumb_func
I2C_SMBusOpen:
.Lfunc_begin21:
	.loc	2 491 0                         @ ../../../../Library/StdDriver/src/i2c.c:491:0
	.fnstart
	.cfi_startproc
@ %bb.0:
	.pad	#8
	sub	sp, #8
	.cfi_def_cfa_offset 8
                                        @ kill: def $r2 killed $r1
	str	r0, [sp, #4]
	mov	r0, sp
	strb	r1, [r0]
.Ltmp85:
	.loc	2 493 5 prologue_end            @ ../../../../Library/StdDriver/src/i2c.c:493:5
	ldr	r2, [sp, #4]
	.loc	2 493 17 is_stmt 0              @ ../../../../Library/StdDriver/src/i2c.c:493:17
	ldr	r1, [r2, #80]
	movs	r3, #12
	bics	r1, r3
	str	r1, [r2, #80]
.Ltmp86:
	.loc	2 496 9 is_stmt 1               @ ../../../../Library/StdDriver/src/i2c.c:496:9
	ldrb	r0, [r0]
.Ltmp87:
	.loc	2 496 9 is_stmt 0               @ ../../../../Library/StdDriver/src/i2c.c:496:9
	cmp	r0, #1
	bne	.LBB21_2
	b	.LBB21_1
.LBB21_1:
.Ltmp88:
	.loc	2 498 9 is_stmt 1               @ ../../../../Library/StdDriver/src/i2c.c:498:9
	ldr	r1, [sp, #4]
	.loc	2 498 21 is_stmt 0              @ ../../../../Library/StdDriver/src/i2c.c:498:21
	ldr	r0, [r1, #80]
	movs	r2, #136
	orrs	r0, r2
	str	r0, [r1, #80]
	.loc	2 499 5 is_stmt 1               @ ../../../../Library/StdDriver/src/i2c.c:499:5
	b	.LBB21_3
.Ltmp89:
.LBB21_2:
	.loc	2 502 9                         @ ../../../../Library/StdDriver/src/i2c.c:502:9
	ldr	r1, [sp, #4]
	.loc	2 502 21 is_stmt 0              @ ../../../../Library/StdDriver/src/i2c.c:502:21
	ldr	r0, [r1, #80]
	movs	r2, #132
	orrs	r0, r2
	str	r0, [r1, #80]
	b	.LBB21_3
.Ltmp90:
.LBB21_3:
	.loc	2 504 1 is_stmt 1               @ ../../../../Library/StdDriver/src/i2c.c:504:1
	add	sp, #8
	bx	lr
.Ltmp91:
.Lfunc_end21:
	.size	I2C_SMBusOpen, .Lfunc_end21-I2C_SMBusOpen
	.cfi_endproc
	.cantunwind
	.fnend
                                        @ -- End function
	.section	.text.I2C_SMBusClose,"ax",%progbits
	.hidden	I2C_SMBusClose                  @ -- Begin function I2C_SMBusClose
	.globl	I2C_SMBusClose
	.p2align	1
	.type	I2C_SMBusClose,%function
	.code	16                              @ @I2C_SMBusClose
	.thumb_func
I2C_SMBusClose:
.Lfunc_begin22:
	.loc	2 517 0                         @ ../../../../Library/StdDriver/src/i2c.c:517:0
	.fnstart
	.cfi_startproc
@ %bb.0:
	.pad	#4
	sub	sp, #4
	.cfi_def_cfa_offset 4
	str	r0, [sp]
.Ltmp92:
	.loc	2 519 5 prologue_end            @ ../../../../Library/StdDriver/src/i2c.c:519:5
	ldr	r1, [sp]
	movs	r0, #0
	.loc	2 519 17 is_stmt 0              @ ../../../../Library/StdDriver/src/i2c.c:519:17
	str	r0, [r1, #80]
	.loc	2 520 1 is_stmt 1               @ ../../../../Library/StdDriver/src/i2c.c:520:1
	add	sp, #4
	bx	lr
.Ltmp93:
.Lfunc_end22:
	.size	I2C_SMBusClose, .Lfunc_end22-I2C_SMBusClose
	.cfi_endproc
	.cantunwind
	.fnend
                                        @ -- End function
	.section	.text.I2C_SMBusPECTxEnable,"ax",%progbits
	.hidden	I2C_SMBusPECTxEnable            @ -- Begin function I2C_SMBusPECTxEnable
	.globl	I2C_SMBusPECTxEnable
	.p2align	1
	.type	I2C_SMBusPECTxEnable,%function
	.code	16                              @ @I2C_SMBusPECTxEnable
	.thumb_func
I2C_SMBusPECTxEnable:
.Lfunc_begin23:
	.loc	2 534 0                         @ ../../../../Library/StdDriver/src/i2c.c:534:0
	.fnstart
	.cfi_startproc
@ %bb.0:
	.pad	#8
	sub	sp, #8
	.cfi_def_cfa_offset 8
                                        @ kill: def $r2 killed $r1
	str	r0, [sp, #4]
	mov	r0, sp
	strb	r1, [r0]
.Ltmp94:
	.loc	2 535 5 prologue_end            @ ../../../../Library/StdDriver/src/i2c.c:535:5
	ldr	r2, [sp, #4]
	.loc	2 535 17 is_stmt 0              @ ../../../../Library/StdDriver/src/i2c.c:535:17
	ldr	r1, [r2, #80]
	movw	r3, #256
	bics	r1, r3
	str	r1, [r2, #80]
.Ltmp95:
	.loc	2 537 9 is_stmt 1               @ ../../../../Library/StdDriver/src/i2c.c:537:9
	ldrb	r0, [r0]
.Ltmp96:
	.loc	2 537 9 is_stmt 0               @ ../../../../Library/StdDriver/src/i2c.c:537:9
	cbz	r0, .LBB23_2
	b	.LBB23_1
.LBB23_1:
.Ltmp97:
	.loc	2 539 9 is_stmt 1               @ ../../../../Library/StdDriver/src/i2c.c:539:9
	ldr	r1, [sp, #4]
	.loc	2 539 21 is_stmt 0              @ ../../../../Library/StdDriver/src/i2c.c:539:21
	ldr	r0, [r1, #80]
	movw	r2, #258
	orrs	r0, r2
	str	r0, [r1, #80]
	.loc	2 540 5 is_stmt 1               @ ../../../../Library/StdDriver/src/i2c.c:540:5
	b	.LBB23_3
.Ltmp98:
.LBB23_2:
	.loc	2 543 9                         @ ../../../../Library/StdDriver/src/i2c.c:543:9
	ldr	r1, [sp, #4]
	.loc	2 543 21 is_stmt 0              @ ../../../../Library/StdDriver/src/i2c.c:543:21
	ldr	r0, [r1, #80]
	movs	r2, #2
	orrs	r0, r2
	str	r0, [r1, #80]
	b	.LBB23_3
.Ltmp99:
.LBB23_3:
	.loc	2 545 1 is_stmt 1               @ ../../../../Library/StdDriver/src/i2c.c:545:1
	add	sp, #8
	bx	lr
.Ltmp100:
.Lfunc_end23:
	.size	I2C_SMBusPECTxEnable, .Lfunc_end23-I2C_SMBusPECTxEnable
	.cfi_endproc
	.cantunwind
	.fnend
                                        @ -- End function
	.section	.text.I2C_SMBusGetPECValue,"ax",%progbits
	.hidden	I2C_SMBusGetPECValue            @ -- Begin function I2C_SMBusGetPECValue
	.globl	I2C_SMBusGetPECValue
	.p2align	1
	.type	I2C_SMBusGetPECValue,%function
	.code	16                              @ @I2C_SMBusGetPECValue
	.thumb_func
I2C_SMBusGetPECValue:
.Lfunc_begin24:
	.loc	2 558 0                         @ ../../../../Library/StdDriver/src/i2c.c:558:0
	.fnstart
	.cfi_startproc
@ %bb.0:
	.pad	#4
	sub	sp, #4
	.cfi_def_cfa_offset 4
	str	r0, [sp]
.Ltmp101:
	.loc	2 559 21 prologue_end           @ ../../../../Library/StdDriver/src/i2c.c:559:21
	ldr	r0, [sp]
	.loc	2 559 26 is_stmt 0              @ ../../../../Library/StdDriver/src/i2c.c:559:26
	ldr	r0, [r0, #96]
	.loc	2 559 5                         @ ../../../../Library/StdDriver/src/i2c.c:559:5
	uxtb	r0, r0
	add	sp, #4
	bx	lr
.Ltmp102:
.Lfunc_end24:
	.size	I2C_SMBusGetPECValue, .Lfunc_end24-I2C_SMBusGetPECValue
	.cfi_endproc
	.cantunwind
	.fnend
                                        @ -- End function
	.section	.text.I2C_SMBusIdleTimeout,"ax",%progbits
	.hidden	I2C_SMBusIdleTimeout            @ -- Begin function I2C_SMBusIdleTimeout
	.globl	I2C_SMBusIdleTimeout
	.p2align	1
	.type	I2C_SMBusIdleTimeout,%function
	.code	16                              @ @I2C_SMBusIdleTimeout
	.thumb_func
I2C_SMBusIdleTimeout:
.Lfunc_begin25:
	.loc	2 576 0 is_stmt 1               @ ../../../../Library/StdDriver/src/i2c.c:576:0
	.fnstart
	.cfi_startproc
@ %bb.0:
	.pad	#20
	sub	sp, #20
	.cfi_def_cfa_offset 20
	str	r0, [sp, #16]
	str	r1, [sp, #12]
	str	r2, [sp, #8]
.Ltmp103:
	.loc	2 579 5 prologue_end            @ ../../../../Library/StdDriver/src/i2c.c:579:5
	ldr	r1, [sp, #16]
	.loc	2 579 17 is_stmt 0              @ ../../../../Library/StdDriver/src/i2c.c:579:17
	ldr	r0, [r1, #80]
	movw	r2, #512
	orrs	r0, r2
	str	r0, [r1, #80]
	.loc	2 580 19 is_stmt 1              @ ../../../../Library/StdDriver/src/i2c.c:580:19
	ldr	r0, [sp, #8]
	movw	r1, #1000
	.loc	2 580 27 is_stmt 0              @ ../../../../Library/StdDriver/src/i2c.c:580:27
	udiv	r0, r0, r1
	.loc	2 580 17                        @ ../../../../Library/StdDriver/src/i2c.c:580:17
	str	r0, [sp]
	.loc	2 581 17 is_stmt 1              @ ../../../../Library/StdDriver/src/i2c.c:581:17
	ldr	r2, [sp, #12]
	.loc	2 581 22 is_stmt 0              @ ../../../../Library/StdDriver/src/i2c.c:581:22
	ldr	r0, [sp]
	.loc	2 581 20                        @ ../../../../Library/StdDriver/src/i2c.c:581:20
	muls	r0, r2, r0
	.loc	2 581 35                        @ ../../../../Library/StdDriver/src/i2c.c:581:35
	udiv	r0, r0, r1
	.loc	2 581 44                        @ ../../../../Library/StdDriver/src/i2c.c:581:44
	lsrs	r0, r0, #2
	.loc	2 581 51                        @ ../../../../Library/StdDriver/src/i2c.c:581:51
	subs	r0, r0, #1
	.loc	2 581 12                        @ ../../../../Library/StdDriver/src/i2c.c:581:12
	str	r0, [sp, #4]
.Ltmp104:
	.loc	2 583 9 is_stmt 1               @ ../../../../Library/StdDriver/src/i2c.c:583:9
	ldr	r0, [sp, #4]
.Ltmp105:
	.loc	2 583 9 is_stmt 0               @ ../../../../Library/StdDriver/src/i2c.c:583:9
	lsrs	r0, r0, #8
	cbz	r0, .LBB25_2
	b	.LBB25_1
.LBB25_1:
.Ltmp106:
	.loc	2 585 9 is_stmt 1               @ ../../../../Library/StdDriver/src/i2c.c:585:9
	ldr	r1, [sp, #16]
	movs	r0, #255
	.loc	2 585 22 is_stmt 0              @ ../../../../Library/StdDriver/src/i2c.c:585:22
	str	r0, [r1, #100]
	.loc	2 586 5 is_stmt 1               @ ../../../../Library/StdDriver/src/i2c.c:586:5
	b	.LBB25_3
.Ltmp107:
.LBB25_2:
	.loc	2 589 24                        @ ../../../../Library/StdDriver/src/i2c.c:589:24
	ldr	r0, [sp, #4]
	.loc	2 589 9 is_stmt 0               @ ../../../../Library/StdDriver/src/i2c.c:589:9
	ldr	r1, [sp, #16]
	.loc	2 589 22                        @ ../../../../Library/StdDriver/src/i2c.c:589:22
	str	r0, [r1, #100]
	b	.LBB25_3
.Ltmp108:
.LBB25_3:
	.loc	2 592 1 is_stmt 1               @ ../../../../Library/StdDriver/src/i2c.c:592:1
	add	sp, #20
	bx	lr
.Ltmp109:
.Lfunc_end25:
	.size	I2C_SMBusIdleTimeout, .Lfunc_end25-I2C_SMBusIdleTimeout
	.cfi_endproc
	.cantunwind
	.fnend
                                        @ -- End function
	.section	.text.I2C_SMBusTimeout,"ax",%progbits
	.hidden	I2C_SMBusTimeout                @ -- Begin function I2C_SMBusTimeout
	.globl	I2C_SMBusTimeout
	.p2align	1
	.type	I2C_SMBusTimeout,%function
	.code	16                              @ @I2C_SMBusTimeout
	.thumb_func
I2C_SMBusTimeout:
.Lfunc_begin26:
	.loc	2 609 0                         @ ../../../../Library/StdDriver/src/i2c.c:609:0
	.fnstart
	.cfi_startproc
@ %bb.0:
	.pad	#20
	sub	sp, #20
	.cfi_def_cfa_offset 20
	str	r0, [sp, #16]
	str	r1, [sp, #12]
	str	r2, [sp, #8]
.Ltmp110:
	.loc	2 612 5 prologue_end            @ ../../../../Library/StdDriver/src/i2c.c:612:5
	ldr	r1, [sp, #16]
	.loc	2 612 17 is_stmt 0              @ ../../../../Library/StdDriver/src/i2c.c:612:17
	ldr	r0, [r1, #80]
	movw	r2, #512
	bics	r0, r2
	str	r0, [r1, #80]
	.loc	2 615 5 is_stmt 1               @ ../../../../Library/StdDriver/src/i2c.c:615:5
	ldr	r1, [sp, #16]
	.loc	2 615 16 is_stmt 0              @ ../../../../Library/StdDriver/src/i2c.c:615:16
	ldr	r0, [r1, #20]
	movs	r2, #4
	bics	r0, r2
	str	r0, [r1, #20]
	.loc	2 616 19 is_stmt 1              @ ../../../../Library/StdDriver/src/i2c.c:616:19
	ldr	r0, [sp, #8]
	movw	r1, #1000
	.loc	2 616 27 is_stmt 0              @ ../../../../Library/StdDriver/src/i2c.c:616:27
	udiv	r0, r0, r1
	.loc	2 616 17                        @ ../../../../Library/StdDriver/src/i2c.c:616:17
	str	r0, [sp]
	.loc	2 617 16 is_stmt 1              @ ../../../../Library/StdDriver/src/i2c.c:617:16
	ldr	r1, [sp, #12]
	.loc	2 617 21 is_stmt 0              @ ../../../../Library/StdDriver/src/i2c.c:617:21
	ldr	r0, [sp]
	.loc	2 617 19                        @ ../../../../Library/StdDriver/src/i2c.c:617:19
	muls	r0, r1, r0
	.loc	2 617 34                        @ ../../../../Library/StdDriver/src/i2c.c:617:34
	lsrs	r0, r0, #14
	.loc	2 617 51                        @ ../../../../Library/StdDriver/src/i2c.c:617:51
	subs	r0, r0, #1
	.loc	2 617 12                        @ ../../../../Library/StdDriver/src/i2c.c:617:12
	str	r0, [sp, #4]
.Ltmp111:
	.loc	2 619 9 is_stmt 1               @ ../../../../Library/StdDriver/src/i2c.c:619:9
	ldr	r0, [sp, #4]
.Ltmp112:
	.loc	2 619 9 is_stmt 0               @ ../../../../Library/StdDriver/src/i2c.c:619:9
	cmp	r0, #255
	bhi	.LBB26_2
	b	.LBB26_1
.LBB26_1:
.Ltmp113:
	.loc	2 621 24 is_stmt 1              @ ../../../../Library/StdDriver/src/i2c.c:621:24
	ldr	r0, [sp, #4]
	.loc	2 621 9 is_stmt 0               @ ../../../../Library/StdDriver/src/i2c.c:621:9
	ldr	r1, [sp, #16]
	.loc	2 621 22                        @ ../../../../Library/StdDriver/src/i2c.c:621:22
	str	r0, [r1, #100]
	.loc	2 622 5 is_stmt 1               @ ../../../../Library/StdDriver/src/i2c.c:622:5
	b	.LBB26_3
.Ltmp114:
.LBB26_2:
	.loc	2 626 9                         @ ../../../../Library/StdDriver/src/i2c.c:626:9
	ldr	r1, [sp, #16]
	.loc	2 626 20 is_stmt 0              @ ../../../../Library/StdDriver/src/i2c.c:626:20
	ldr	r0, [r1, #20]
	movs	r2, #4
	orrs	r0, r2
	str	r0, [r1, #20]
	.loc	2 627 27 is_stmt 1              @ ../../../../Library/StdDriver/src/i2c.c:627:27
	ldr	r1, [sp, #12]
	.loc	2 627 32 is_stmt 0              @ ../../../../Library/StdDriver/src/i2c.c:627:32
	ldr	r0, [sp]
	.loc	2 627 30                        @ ../../../../Library/StdDriver/src/i2c.c:627:30
	muls	r0, r1, r0
	.loc	2 627 45                        @ ../../../../Library/StdDriver/src/i2c.c:627:45
	lsrs	r0, r0, #16
	.loc	2 627 67                        @ ../../../../Library/StdDriver/src/i2c.c:627:67
	subs	r0, r0, #1
	.loc	2 627 73                        @ ../../../../Library/StdDriver/src/i2c.c:627:73
	uxtb	r0, r0
	.loc	2 627 9                         @ ../../../../Library/StdDriver/src/i2c.c:627:9
	ldr	r1, [sp, #16]
	.loc	2 627 22                        @ ../../../../Library/StdDriver/src/i2c.c:627:22
	str	r0, [r1, #100]
	b	.LBB26_3
.Ltmp115:
.LBB26_3:
	.loc	2 630 1 is_stmt 1               @ ../../../../Library/StdDriver/src/i2c.c:630:1
	add	sp, #20
	bx	lr
.Ltmp116:
.Lfunc_end26:
	.size	I2C_SMBusTimeout, .Lfunc_end26-I2C_SMBusTimeout
	.cfi_endproc
	.cantunwind
	.fnend
                                        @ -- End function
	.section	.text.I2C_SMBusClockLoTimeout,"ax",%progbits
	.hidden	I2C_SMBusClockLoTimeout         @ -- Begin function I2C_SMBusClockLoTimeout
	.globl	I2C_SMBusClockLoTimeout
	.p2align	1
	.type	I2C_SMBusClockLoTimeout,%function
	.code	16                              @ @I2C_SMBusClockLoTimeout
	.thumb_func
I2C_SMBusClockLoTimeout:
.Lfunc_begin27:
	.loc	2 647 0                         @ ../../../../Library/StdDriver/src/i2c.c:647:0
	.fnstart
	.cfi_startproc
@ %bb.0:
	.pad	#20
	sub	sp, #20
	.cfi_def_cfa_offset 20
	str	r0, [sp, #16]
	str	r1, [sp, #12]
	str	r2, [sp, #8]
.Ltmp117:
	.loc	2 650 5 prologue_end            @ ../../../../Library/StdDriver/src/i2c.c:650:5
	ldr	r1, [sp, #16]
	.loc	2 650 17 is_stmt 0              @ ../../../../Library/StdDriver/src/i2c.c:650:17
	ldr	r0, [r1, #80]
	movw	r2, #512
	bics	r0, r2
	str	r0, [r1, #80]
	.loc	2 653 5 is_stmt 1               @ ../../../../Library/StdDriver/src/i2c.c:653:5
	ldr	r1, [sp, #16]
	.loc	2 653 16 is_stmt 0              @ ../../../../Library/StdDriver/src/i2c.c:653:16
	ldr	r0, [r1, #20]
	movs	r2, #4
	bics	r0, r2
	str	r0, [r1, #20]
	.loc	2 654 19 is_stmt 1              @ ../../../../Library/StdDriver/src/i2c.c:654:19
	ldr	r0, [sp, #8]
	movw	r1, #1000
	.loc	2 654 27 is_stmt 0              @ ../../../../Library/StdDriver/src/i2c.c:654:27
	udiv	r0, r0, r1
	.loc	2 654 17                        @ ../../../../Library/StdDriver/src/i2c.c:654:17
	str	r0, [sp]
	.loc	2 655 16 is_stmt 1              @ ../../../../Library/StdDriver/src/i2c.c:655:16
	ldr	r1, [sp, #12]
	.loc	2 655 21 is_stmt 0              @ ../../../../Library/StdDriver/src/i2c.c:655:21
	ldr	r0, [sp]
	.loc	2 655 19                        @ ../../../../Library/StdDriver/src/i2c.c:655:19
	muls	r0, r1, r0
	.loc	2 655 34                        @ ../../../../Library/StdDriver/src/i2c.c:655:34
	lsrs	r0, r0, #14
	.loc	2 655 51                        @ ../../../../Library/StdDriver/src/i2c.c:655:51
	subs	r0, r0, #1
	.loc	2 655 12                        @ ../../../../Library/StdDriver/src/i2c.c:655:12
	str	r0, [sp, #4]
.Ltmp118:
	.loc	2 657 9 is_stmt 1               @ ../../../../Library/StdDriver/src/i2c.c:657:9
	ldr	r0, [sp, #4]
.Ltmp119:
	.loc	2 657 9 is_stmt 0               @ ../../../../Library/StdDriver/src/i2c.c:657:9
	cmp	r0, #255
	bhi	.LBB27_2
	b	.LBB27_1
.LBB27_1:
.Ltmp120:
	.loc	2 659 24 is_stmt 1              @ ../../../../Library/StdDriver/src/i2c.c:659:24
	ldr	r0, [sp, #4]
	.loc	2 659 9 is_stmt 0               @ ../../../../Library/StdDriver/src/i2c.c:659:9
	ldr	r1, [sp, #16]
	.loc	2 659 22                        @ ../../../../Library/StdDriver/src/i2c.c:659:22
	str	r0, [r1, #104]
	.loc	2 660 5 is_stmt 1               @ ../../../../Library/StdDriver/src/i2c.c:660:5
	b	.LBB27_3
.Ltmp121:
.LBB27_2:
	.loc	2 664 9                         @ ../../../../Library/StdDriver/src/i2c.c:664:9
	ldr	r1, [sp, #16]
	.loc	2 664 20 is_stmt 0              @ ../../../../Library/StdDriver/src/i2c.c:664:20
	ldr	r0, [r1, #20]
	movs	r2, #4
	orrs	r0, r2
	str	r0, [r1, #20]
	.loc	2 665 27 is_stmt 1              @ ../../../../Library/StdDriver/src/i2c.c:665:27
	ldr	r1, [sp, #12]
	.loc	2 665 32 is_stmt 0              @ ../../../../Library/StdDriver/src/i2c.c:665:32
	ldr	r0, [sp]
	.loc	2 665 30                        @ ../../../../Library/StdDriver/src/i2c.c:665:30
	muls	r0, r1, r0
	.loc	2 665 45                        @ ../../../../Library/StdDriver/src/i2c.c:665:45
	lsrs	r0, r0, #16
	.loc	2 665 67                        @ ../../../../Library/StdDriver/src/i2c.c:665:67
	subs	r0, r0, #1
	.loc	2 665 73                        @ ../../../../Library/StdDriver/src/i2c.c:665:73
	uxtb	r0, r0
	.loc	2 665 9                         @ ../../../../Library/StdDriver/src/i2c.c:665:9
	ldr	r1, [sp, #16]
	.loc	2 665 22                        @ ../../../../Library/StdDriver/src/i2c.c:665:22
	str	r0, [r1, #104]
	b	.LBB27_3
.Ltmp122:
.LBB27_3:
	.loc	2 667 1 is_stmt 1               @ ../../../../Library/StdDriver/src/i2c.c:667:1
	add	sp, #20
	bx	lr
.Ltmp123:
.Lfunc_end27:
	.size	I2C_SMBusClockLoTimeout, .Lfunc_end27-I2C_SMBusClockLoTimeout
	.cfi_endproc
	.cantunwind
	.fnend
                                        @ -- End function
	.section	.text.I2C_WriteByte,"ax",%progbits
	.hidden	I2C_WriteByte                   @ -- Begin function I2C_WriteByte
	.globl	I2C_WriteByte
	.p2align	2
	.type	I2C_WriteByte,%function
	.code	16                              @ @I2C_WriteByte
	.thumb_func
I2C_WriteByte:
.Lfunc_begin28:
	.loc	2 684 0                         @ ../../../../Library/StdDriver/src/i2c.c:684:0
	.fnstart
	.cfi_startproc
@ %bb.0:
	.pad	#36
	sub	sp, #36
	.cfi_def_cfa_offset 36
                                        @ kill: def $r3 killed $r2
                                        @ kill: def $r3 killed $r1
	str	r0, [sp, #32]
	add	r0, sp, #28
	strb	r1, [r0]
	add	r0, sp, #24
	strb	r2, [r0]
	add	r1, sp, #20
	movs	r0, #1
.Ltmp124:
	.loc	2 685 13 prologue_end           @ ../../../../Library/StdDriver/src/i2c.c:685:13
	strb	r0, [r1]
	add	r1, sp, #16
	movs	r0, #0
	.loc	2 685 29 is_stmt 0              @ ../../../../Library/StdDriver/src/i2c.c:685:29
	strb	r0, [r1]
	add	r1, sp, #12
	.loc	2 685 41                        @ ../../../../Library/StdDriver/src/i2c.c:685:41
	strb	r0, [r1]
	.loc	2 687 22 is_stmt 1              @ ../../../../Library/StdDriver/src/i2c.c:687:22
	ldr	r1, __arm_cp.28_0
	str	r0, [r1]
	.loc	2 688 5                         @ ../../../../Library/StdDriver/src/i2c.c:688:5
	ldr	r0, [sp, #32]
	ldr	r0, [r0]
	movs	r1, #32
	orrs	r0, r1
	movs	r1, #8
	bics	r0, r1
	ldr	r1, [sp, #32]
	str	r0, [r1]
	.loc	2 690 5                         @ ../../../../Library/StdDriver/src/i2c.c:690:5
	b	.LBB28_1
.LBB28_1:                               @ =>This Loop Header: Depth=1
                                        @     Child Loop BB28_5 Depth 2
	.loc	2 0 5 is_stmt 0                 @ ../../../../Library/StdDriver/src/i2c.c:0:5
	add	r0, sp, #20
	.loc	2 690 12                        @ ../../../../Library/StdDriver/src/i2c.c:690:12
	ldrb	r1, [r0]
	movs	r0, #0
	.loc	2 690 22                        @ ../../../../Library/StdDriver/src/i2c.c:690:22
	str	r0, [sp, #4]                    @ 4-byte Spill
	cbz	r1, .LBB28_3
	b	.LBB28_2
.LBB28_2:                               @   in Loop: Header=BB28_1 Depth=1
	.loc	2 0 22                          @ ../../../../Library/StdDriver/src/i2c.c:0:22
	add	r0, sp, #16
	.loc	2 690 26                        @ ../../../../Library/StdDriver/src/i2c.c:690:26
	ldrb	r0, [r0]
	.loc	2 690 32                        @ ../../../../Library/StdDriver/src/i2c.c:690:32
	rsbs	r1, r0, #0
	adcs	r0, r1
	str	r0, [sp, #4]                    @ 4-byte Spill
	b	.LBB28_3
.LBB28_3:                               @   in Loop: Header=BB28_1 Depth=1
	.loc	2 0 0                           @ ../../../../Library/StdDriver/src/i2c.c:0:0
	ldr	r0, [sp, #4]                    @ 4-byte Reload
	.loc	2 690 5                         @ ../../../../Library/StdDriver/src/i2c.c:690:5
	lsls	r0, r0, #31
	cbnz	r0, .LBB28_4
	b	.LBB28_19
.LBB28_4:                               @   in Loop: Header=BB28_1 Depth=1
.Ltmp125:
	.loc	2 692 36 is_stmt 1              @ ../../../../Library/StdDriver/src/i2c.c:692:36
	ldr	r0, __arm_cp.28_1
	ldr	r0, [r0]
	.loc	2 692 18 is_stmt 0              @ ../../../../Library/StdDriver/src/i2c.c:692:18
	str	r0, [sp, #8]
	.loc	2 693 9 is_stmt 1               @ ../../../../Library/StdDriver/src/i2c.c:693:9
	b	.LBB28_5
.LBB28_5:                               @   Parent Loop BB28_1 Depth=1
                                        @ =>  This Inner Loop Header: Depth=2
	ldr	r0, [sp, #32]
	ldr	r0, [r0]
	lsls	r0, r0, #28
	cmp	r0, #0
	bmi	.LBB28_9
	b	.LBB28_6
.LBB28_6:                               @   in Loop: Header=BB28_5 Depth=2
.Ltmp126:
	.loc	2 695 28                        @ ../../../../Library/StdDriver/src/i2c.c:695:28
	ldr	r0, [sp, #8]
	subs	r0, r0, #1
	str	r0, [sp, #8]
.Ltmp127:
	.loc	2 697 17                        @ ../../../../Library/StdDriver/src/i2c.c:697:17
	ldr	r0, [sp, #8]
.Ltmp128:
	.loc	2 697 17 is_stmt 0              @ ../../../../Library/StdDriver/src/i2c.c:697:17
	cbnz	r0, .LBB28_8
	b	.LBB28_7
.LBB28_7:                               @   in Loop: Header=BB28_1 Depth=1
.Ltmp129:
	.loc	2 699 34 is_stmt 1              @ ../../../../Library/StdDriver/src/i2c.c:699:34
	ldr	r1, __arm_cp.28_0
	movs	r0, #0
	mvns	r0, r0
	str	r0, [r1]
	add	r1, sp, #16
	movs	r0, #1
	.loc	2 700 23                        @ ../../../../Library/StdDriver/src/i2c.c:700:23
	strb	r0, [r1]
	.loc	2 701 17                        @ ../../../../Library/StdDriver/src/i2c.c:701:17
	b	.LBB28_9
.Ltmp130:
.LBB28_8:                               @   in Loop: Header=BB28_5 Depth=2
	.loc	2 693 9                         @ ../../../../Library/StdDriver/src/i2c.c:693:9
	b	.LBB28_5
.LBB28_9:                               @   in Loop: Header=BB28_1 Depth=1
	.loc	2 705 17                        @ ../../../../Library/StdDriver/src/i2c.c:705:17
	ldr	r0, [sp, #32]
	ldr	r0, [r0, #12]
	.loc	2 705 9 is_stmt 0               @ ../../../../Library/StdDriver/src/i2c.c:705:9
	subs	r0, #8
	str	r0, [sp]                        @ 4-byte Spill
	cmp	r0, #48
	bls	.LBB28_10
	b	.LBB28_17
.LBB28_10:                              @   in Loop: Header=BB28_1 Depth=1
	.loc	2 0 9                           @ ../../../../Library/StdDriver/src/i2c.c:0:9
	ldr	r1, [sp]                        @ 4-byte Reload
	lsls	r2, r1, #2
	adr	r0, .LJTI28_0
	adds	r0, r0, r2
	mov	pc, r0
@ %bb.11:
	.p2align	2
.LJTI28_0:
	b.w	.LBB28_12
	b.w	.LBB28_17
	b.w	.LBB28_17
	b.w	.LBB28_17
	b.w	.LBB28_17
	b.w	.LBB28_17
	b.w	.LBB28_17
	b.w	.LBB28_17
	b.w	.LBB28_17
	b.w	.LBB28_17
	b.w	.LBB28_17
	b.w	.LBB28_17
	b.w	.LBB28_17
	b.w	.LBB28_17
	b.w	.LBB28_17
	b.w	.LBB28_17
	b.w	.LBB28_13
	b.w	.LBB28_17
	b.w	.LBB28_17
	b.w	.LBB28_17
	b.w	.LBB28_17
	b.w	.LBB28_17
	b.w	.LBB28_17
	b.w	.LBB28_17
	b.w	.LBB28_14
	b.w	.LBB28_17
	b.w	.LBB28_17
	b.w	.LBB28_17
	b.w	.LBB28_17
	b.w	.LBB28_17
	b.w	.LBB28_17
	b.w	.LBB28_17
	b.w	.LBB28_15
	b.w	.LBB28_17
	b.w	.LBB28_17
	b.w	.LBB28_17
	b.w	.LBB28_17
	b.w	.LBB28_17
	b.w	.LBB28_17
	b.w	.LBB28_17
	b.w	.LBB28_14
	b.w	.LBB28_17
	b.w	.LBB28_17
	b.w	.LBB28_17
	b.w	.LBB28_17
	b.w	.LBB28_17
	b.w	.LBB28_17
	b.w	.LBB28_17
	b.w	.LBB28_16
.LBB28_12:                              @   in Loop: Header=BB28_1 Depth=1
.Ltmp131:
	.loc	2 708 17 is_stmt 1              @ ../../../../Library/StdDriver/src/i2c.c:708:17
	ldr	r0, [sp, #28]
	lsls	r0, r0, #25
	lsrs	r0, r0, #24
	ldr	r1, [sp, #32]
	str	r0, [r1, #8]
	add	r1, sp, #12
	movs	r0, #8
	.loc	2 709 24                        @ ../../../../Library/StdDriver/src/i2c.c:709:24
	strb	r0, [r1]
	.loc	2 710 17                        @ ../../../../Library/StdDriver/src/i2c.c:710:17
	b	.LBB28_18
.LBB28_13:                              @   in Loop: Header=BB28_1 Depth=1
	.loc	2 0 17 is_stmt 0                @ ../../../../Library/StdDriver/src/i2c.c:0:17
	add	r0, sp, #24
	.loc	2 713 17 is_stmt 1              @ ../../../../Library/StdDriver/src/i2c.c:713:17
	ldrb	r0, [r0]
	ldr	r1, [sp, #32]
	str	r0, [r1, #8]
	.loc	2 714 17                        @ ../../../../Library/StdDriver/src/i2c.c:714:17
	b	.LBB28_18
.LBB28_14:                              @   in Loop: Header=BB28_1 Depth=1
	.loc	2 0 17 is_stmt 0                @ ../../../../Library/StdDriver/src/i2c.c:0:17
	add	r1, sp, #12
	movs	r0, #24
	.loc	2 718 24 is_stmt 1              @ ../../../../Library/StdDriver/src/i2c.c:718:24
	strb	r0, [r1]
	add	r1, sp, #16
	movs	r0, #1
	.loc	2 719 23                        @ ../../../../Library/StdDriver/src/i2c.c:719:23
	strb	r0, [r1]
	.loc	2 720 17                        @ ../../../../Library/StdDriver/src/i2c.c:720:17
	b	.LBB28_18
.LBB28_15:                              @   in Loop: Header=BB28_1 Depth=1
	.loc	2 0 17 is_stmt 0                @ ../../../../Library/StdDriver/src/i2c.c:0:17
	add	r1, sp, #12
	movs	r0, #24
	.loc	2 723 24 is_stmt 1              @ ../../../../Library/StdDriver/src/i2c.c:723:24
	strb	r0, [r1]
	add	r1, sp, #20
	movs	r0, #0
	.loc	2 724 27                        @ ../../../../Library/StdDriver/src/i2c.c:724:27
	strb	r0, [r1]
	.loc	2 725 17                        @ ../../../../Library/StdDriver/src/i2c.c:725:17
	b	.LBB28_18
.LBB28_16:                              @   in Loop: Header=BB28_1 Depth=1
	.loc	2 727 13                        @ ../../../../Library/StdDriver/src/i2c.c:727:13
	b	.LBB28_17
.LBB28_17:                              @   in Loop: Header=BB28_1 Depth=1
	.loc	2 729 17                        @ ../../../../Library/StdDriver/src/i2c.c:729:17
	ldr	r0, [sp, #32]
	ldr	r0, [r0]
	movs	r1, #24
	orrs	r0, r1
	movs	r1, #36
	bics	r0, r1
	ldr	r1, [sp, #32]
	str	r0, [r1]
	add	r1, sp, #12
	movs	r0, #8
	.loc	2 730 24                        @ ../../../../Library/StdDriver/src/i2c.c:730:24
	strb	r0, [r1]
	add	r1, sp, #16
	movs	r0, #1
	.loc	2 731 23                        @ ../../../../Library/StdDriver/src/i2c.c:731:23
	strb	r0, [r1]
	.loc	2 732 17                        @ ../../../../Library/StdDriver/src/i2c.c:732:17
	b	.LBB28_18
.Ltmp132:
.LBB28_18:                              @   in Loop: Header=BB28_1 Depth=1
	.loc	2 735 9                         @ ../../../../Library/StdDriver/src/i2c.c:735:9
	ldr	r0, [sp, #32]
	ldr	r0, [r0]
	movs	r1, #60
	bics	r0, r1
	add	r1, sp, #12
	ldrb	r1, [r1]
	orrs	r0, r1
	ldr	r1, [sp, #32]
	str	r0, [r1]
.Ltmp133:
	.loc	2 690 5                         @ ../../../../Library/StdDriver/src/i2c.c:690:5
	b	.LBB28_1
.LBB28_19:
	.loc	2 0 5 is_stmt 0                 @ ../../../../Library/StdDriver/src/i2c.c:0:5
	add	r0, sp, #16
	.loc	2 738 13 is_stmt 1              @ ../../../../Library/StdDriver/src/i2c.c:738:13
	ldrb	r0, [r0]
	add	r1, sp, #20
	.loc	2 738 21 is_stmt 0              @ ../../../../Library/StdDriver/src/i2c.c:738:21
	ldrb	r1, [r1]
	.loc	2 738 19                        @ ../../../../Library/StdDriver/src/i2c.c:738:19
	orrs	r0, r1
	.loc	2 738 5                         @ ../../../../Library/StdDriver/src/i2c.c:738:5
	add	sp, #36
	bx	lr
.Ltmp134:
	.p2align	2
@ %bb.20:
	.loc	2 0 5                           @ ../../../../Library/StdDriver/src/i2c.c:0:5
__arm_cp.28_0:
	.long	g_I2C_i32ErrCode
.Lcpi_end6:
	.size	__arm_cp.28_0, .Lcpi_end6-__arm_cp.28_0
__arm_cp.28_1:
	.long	SystemCoreClock
.Lcpi_end7:
	.size	__arm_cp.28_1, .Lcpi_end7-__arm_cp.28_1
.Lfunc_end28:
	.size	I2C_WriteByte, .Lfunc_end28-I2C_WriteByte
	.cfi_endproc
	.cantunwind
	.fnend
                                        @ -- End function
	.section	.text.I2C_WriteMultiBytes,"ax",%progbits
	.hidden	I2C_WriteMultiBytes             @ -- Begin function I2C_WriteMultiBytes
	.globl	I2C_WriteMultiBytes
	.p2align	2
	.type	I2C_WriteMultiBytes,%function
	.code	16                              @ @I2C_WriteMultiBytes
	.thumb_func
I2C_WriteMultiBytes:
.Lfunc_begin29:
	.loc	2 757 0 is_stmt 1               @ ../../../../Library/StdDriver/src/i2c.c:757:0
	.fnstart
	.cfi_startproc
@ %bb.0:
	.save	{r4, lr}
	push	{r4, lr}
	.cfi_def_cfa_offset 8
	.cfi_offset lr, -4
	.cfi_offset r4, -8
	.pad	#44
	sub	sp, #44
	.cfi_def_cfa_offset 52
                                        @ kill: def $r4 killed $r1
	str	r0, [sp, #40]
	add	r0, sp, #36
	strb	r1, [r0]
	str	r2, [sp, #32]
	str	r3, [sp, #28]
	add	r1, sp, #24
	movs	r0, #1
.Ltmp135:
	.loc	2 758 13 prologue_end           @ ../../../../Library/StdDriver/src/i2c.c:758:13
	strb	r0, [r1]
	add	r1, sp, #20
	movs	r0, #0
	.loc	2 758 29 is_stmt 0              @ ../../../../Library/StdDriver/src/i2c.c:758:29
	strb	r0, [r1]
	add	r1, sp, #16
	.loc	2 758 41                        @ ../../../../Library/StdDriver/src/i2c.c:758:41
	strb	r0, [r1]
	.loc	2 759 14 is_stmt 1              @ ../../../../Library/StdDriver/src/i2c.c:759:14
	str	r0, [sp, #12]
	.loc	2 761 22                        @ ../../../../Library/StdDriver/src/i2c.c:761:22
	ldr	r1, __arm_cp.29_0
	str	r0, [r1]
	.loc	2 762 5                         @ ../../../../Library/StdDriver/src/i2c.c:762:5
	ldr	r0, [sp, #40]
	ldr	r0, [r0]
	movs	r1, #32
	orrs	r0, r1
	movs	r1, #8
	bics	r0, r1
	ldr	r1, [sp, #40]
	str	r0, [r1]
	.loc	2 764 5                         @ ../../../../Library/StdDriver/src/i2c.c:764:5
	b	.LBB29_1
.LBB29_1:                               @ =>This Loop Header: Depth=1
                                        @     Child Loop BB29_5 Depth 2
	.loc	2 0 5 is_stmt 0                 @ ../../../../Library/StdDriver/src/i2c.c:0:5
	add	r0, sp, #24
	.loc	2 764 12                        @ ../../../../Library/StdDriver/src/i2c.c:764:12
	ldrb	r1, [r0]
	movs	r0, #0
	.loc	2 764 22                        @ ../../../../Library/StdDriver/src/i2c.c:764:22
	str	r0, [sp, #4]                    @ 4-byte Spill
	cbz	r1, .LBB29_3
	b	.LBB29_2
.LBB29_2:                               @   in Loop: Header=BB29_1 Depth=1
	.loc	2 0 22                          @ ../../../../Library/StdDriver/src/i2c.c:0:22
	add	r0, sp, #20
	.loc	2 764 26                        @ ../../../../Library/StdDriver/src/i2c.c:764:26
	ldrb	r0, [r0]
	.loc	2 764 32                        @ ../../../../Library/StdDriver/src/i2c.c:764:32
	rsbs	r1, r0, #0
	adcs	r0, r1
	str	r0, [sp, #4]                    @ 4-byte Spill
	b	.LBB29_3
.LBB29_3:                               @   in Loop: Header=BB29_1 Depth=1
	.loc	2 0 0                           @ ../../../../Library/StdDriver/src/i2c.c:0:0
	ldr	r0, [sp, #4]                    @ 4-byte Reload
	.loc	2 764 5                         @ ../../../../Library/StdDriver/src/i2c.c:764:5
	lsls	r0, r0, #31
	cbnz	r0, .LBB29_4
	b	.LBB29_21
.LBB29_4:                               @   in Loop: Header=BB29_1 Depth=1
.Ltmp136:
	.loc	2 766 36 is_stmt 1              @ ../../../../Library/StdDriver/src/i2c.c:766:36
	ldr	r0, __arm_cp.29_1
	ldr	r0, [r0]
	.loc	2 766 18 is_stmt 0              @ ../../../../Library/StdDriver/src/i2c.c:766:18
	str	r0, [sp, #8]
	.loc	2 767 9 is_stmt 1               @ ../../../../Library/StdDriver/src/i2c.c:767:9
	b	.LBB29_5
.LBB29_5:                               @   Parent Loop BB29_1 Depth=1
                                        @ =>  This Inner Loop Header: Depth=2
	ldr	r0, [sp, #40]
	ldr	r0, [r0]
	lsls	r0, r0, #28
	cmp	r0, #0
	bmi	.LBB29_9
	b	.LBB29_6
.LBB29_6:                               @   in Loop: Header=BB29_5 Depth=2
.Ltmp137:
	.loc	2 769 28                        @ ../../../../Library/StdDriver/src/i2c.c:769:28
	ldr	r0, [sp, #8]
	subs	r0, r0, #1
	str	r0, [sp, #8]
.Ltmp138:
	.loc	2 771 17                        @ ../../../../Library/StdDriver/src/i2c.c:771:17
	ldr	r0, [sp, #8]
.Ltmp139:
	.loc	2 771 17 is_stmt 0              @ ../../../../Library/StdDriver/src/i2c.c:771:17
	cbnz	r0, .LBB29_8
	b	.LBB29_7
.LBB29_7:                               @   in Loop: Header=BB29_1 Depth=1
.Ltmp140:
	.loc	2 773 34 is_stmt 1              @ ../../../../Library/StdDriver/src/i2c.c:773:34
	ldr	r1, __arm_cp.29_0
	movs	r0, #0
	mvns	r0, r0
	str	r0, [r1]
	.loc	2 774 17                        @ ../../../../Library/StdDriver/src/i2c.c:774:17
	b	.LBB29_9
.Ltmp141:
.LBB29_8:                               @   in Loop: Header=BB29_5 Depth=2
	.loc	2 767 9                         @ ../../../../Library/StdDriver/src/i2c.c:767:9
	b	.LBB29_5
.LBB29_9:                               @   in Loop: Header=BB29_1 Depth=1
	.loc	2 778 17                        @ ../../../../Library/StdDriver/src/i2c.c:778:17
	ldr	r0, [sp, #40]
	ldr	r0, [r0, #12]
	.loc	2 778 9 is_stmt 0               @ ../../../../Library/StdDriver/src/i2c.c:778:9
	subs	r0, #8
	str	r0, [sp]                        @ 4-byte Spill
	cmp	r0, #48
	bls	.LBB29_10
	b	.LBB29_19
.LBB29_10:                              @   in Loop: Header=BB29_1 Depth=1
	.loc	2 0 9                           @ ../../../../Library/StdDriver/src/i2c.c:0:9
	ldr	r1, [sp]                        @ 4-byte Reload
	lsls	r2, r1, #2
	adr	r0, .LJTI29_0
	adds	r0, r0, r2
	mov	pc, r0
@ %bb.11:
	.p2align	2
.LJTI29_0:
	b.w	.LBB29_12
	b.w	.LBB29_19
	b.w	.LBB29_19
	b.w	.LBB29_19
	b.w	.LBB29_19
	b.w	.LBB29_19
	b.w	.LBB29_19
	b.w	.LBB29_19
	b.w	.LBB29_19
	b.w	.LBB29_19
	b.w	.LBB29_19
	b.w	.LBB29_19
	b.w	.LBB29_19
	b.w	.LBB29_19
	b.w	.LBB29_19
	b.w	.LBB29_19
	b.w	.LBB29_13
	b.w	.LBB29_19
	b.w	.LBB29_19
	b.w	.LBB29_19
	b.w	.LBB29_19
	b.w	.LBB29_19
	b.w	.LBB29_19
	b.w	.LBB29_19
	b.w	.LBB29_17
	b.w	.LBB29_19
	b.w	.LBB29_19
	b.w	.LBB29_19
	b.w	.LBB29_19
	b.w	.LBB29_19
	b.w	.LBB29_19
	b.w	.LBB29_19
	b.w	.LBB29_13
	b.w	.LBB29_19
	b.w	.LBB29_19
	b.w	.LBB29_19
	b.w	.LBB29_19
	b.w	.LBB29_19
	b.w	.LBB29_19
	b.w	.LBB29_19
	b.w	.LBB29_17
	b.w	.LBB29_19
	b.w	.LBB29_19
	b.w	.LBB29_19
	b.w	.LBB29_19
	b.w	.LBB29_19
	b.w	.LBB29_19
	b.w	.LBB29_19
	b.w	.LBB29_18
.LBB29_12:                              @   in Loop: Header=BB29_1 Depth=1
.Ltmp142:
	.loc	2 781 17 is_stmt 1              @ ../../../../Library/StdDriver/src/i2c.c:781:17
	ldr	r0, [sp, #36]
	lsls	r0, r0, #25
	lsrs	r0, r0, #24
	ldr	r1, [sp, #40]
	str	r0, [r1, #8]
	add	r1, sp, #16
	movs	r0, #8
	.loc	2 782 24                        @ ../../../../Library/StdDriver/src/i2c.c:782:24
	strb	r0, [r1]
	.loc	2 783 17                        @ ../../../../Library/StdDriver/src/i2c.c:783:17
	b	.LBB29_20
.LBB29_13:                              @   in Loop: Header=BB29_1 Depth=1
.Ltmp143:
	.loc	2 787 21                        @ ../../../../Library/StdDriver/src/i2c.c:787:21
	ldr	r0, [sp, #12]
	.loc	2 787 32 is_stmt 0              @ ../../../../Library/StdDriver/src/i2c.c:787:32
	ldr	r1, [sp, #28]
.Ltmp144:
	.loc	2 787 21                        @ ../../../../Library/StdDriver/src/i2c.c:787:21
	cmp	r0, r1
	bhs	.LBB29_15
	b	.LBB29_14
.LBB29_14:                              @   in Loop: Header=BB29_1 Depth=1
.Ltmp145:
	.loc	2 788 21 is_stmt 1              @ ../../../../Library/StdDriver/src/i2c.c:788:21
	ldr	r0, [sp, #32]
	ldr	r1, [sp, #12]
	adds	r2, r1, #1
	str	r2, [sp, #12]
	ldrb	r0, [r0, r1]
	ldr	r1, [sp, #40]
	str	r0, [r1, #8]
	b	.LBB29_16
.LBB29_15:                              @   in Loop: Header=BB29_1 Depth=1
	.loc	2 0 21 is_stmt 0                @ ../../../../Library/StdDriver/src/i2c.c:0:21
	add	r1, sp, #16
	movs	r0, #24
.Ltmp146:
	.loc	2 791 28 is_stmt 1              @ ../../../../Library/StdDriver/src/i2c.c:791:28
	strb	r0, [r1]
	add	r1, sp, #24
	movs	r0, #0
	.loc	2 792 31                        @ ../../../../Library/StdDriver/src/i2c.c:792:31
	strb	r0, [r1]
	b	.LBB29_16
.Ltmp147:
.LBB29_16:                              @   in Loop: Header=BB29_1 Depth=1
	.loc	2 795 17                        @ ../../../../Library/StdDriver/src/i2c.c:795:17
	b	.LBB29_20
.LBB29_17:                              @   in Loop: Header=BB29_1 Depth=1
	.loc	2 0 17 is_stmt 0                @ ../../../../Library/StdDriver/src/i2c.c:0:17
	add	r1, sp, #16
	movs	r0, #24
	.loc	2 799 24 is_stmt 1              @ ../../../../Library/StdDriver/src/i2c.c:799:24
	strb	r0, [r1]
	add	r1, sp, #20
	movs	r0, #1
	.loc	2 800 23                        @ ../../../../Library/StdDriver/src/i2c.c:800:23
	strb	r0, [r1]
	.loc	2 801 17                        @ ../../../../Library/StdDriver/src/i2c.c:801:17
	b	.LBB29_20
.LBB29_18:                              @   in Loop: Header=BB29_1 Depth=1
	.loc	2 803 13                        @ ../../../../Library/StdDriver/src/i2c.c:803:13
	b	.LBB29_19
.LBB29_19:                              @   in Loop: Header=BB29_1 Depth=1
	.loc	2 805 17                        @ ../../../../Library/StdDriver/src/i2c.c:805:17
	ldr	r0, [sp, #40]
	ldr	r0, [r0]
	movs	r1, #24
	orrs	r0, r1
	movs	r1, #36
	bics	r0, r1
	ldr	r1, [sp, #40]
	str	r0, [r1]
	add	r1, sp, #16
	movs	r0, #8
	.loc	2 806 24                        @ ../../../../Library/StdDriver/src/i2c.c:806:24
	strb	r0, [r1]
	add	r1, sp, #20
	movs	r0, #1
	.loc	2 807 23                        @ ../../../../Library/StdDriver/src/i2c.c:807:23
	strb	r0, [r1]
	.loc	2 808 17                        @ ../../../../Library/StdDriver/src/i2c.c:808:17
	b	.LBB29_20
.Ltmp148:
.LBB29_20:                              @   in Loop: Header=BB29_1 Depth=1
	.loc	2 811 9                         @ ../../../../Library/StdDriver/src/i2c.c:811:9
	ldr	r0, [sp, #40]
	ldr	r0, [r0]
	movs	r1, #60
	bics	r0, r1
	add	r1, sp, #16
	ldrb	r1, [r1]
	orrs	r0, r1
	ldr	r1, [sp, #40]
	str	r0, [r1]
.Ltmp149:
	.loc	2 764 5                         @ ../../../../Library/StdDriver/src/i2c.c:764:5
	b	.LBB29_1
.LBB29_21:
	.loc	2 814 12                        @ ../../../../Library/StdDriver/src/i2c.c:814:12
	ldr	r0, [sp, #12]
	.loc	2 814 5 is_stmt 0               @ ../../../../Library/StdDriver/src/i2c.c:814:5
	add	sp, #44
	pop	{r4, pc}
.Ltmp150:
	.p2align	2
@ %bb.22:
	.loc	2 0 5                           @ ../../../../Library/StdDriver/src/i2c.c:0:5
__arm_cp.29_0:
	.long	g_I2C_i32ErrCode
.Lcpi_end8:
	.size	__arm_cp.29_0, .Lcpi_end8-__arm_cp.29_0
__arm_cp.29_1:
	.long	SystemCoreClock
.Lcpi_end9:
	.size	__arm_cp.29_1, .Lcpi_end9-__arm_cp.29_1
.Lfunc_end29:
	.size	I2C_WriteMultiBytes, .Lfunc_end29-I2C_WriteMultiBytes
	.cfi_endproc
	.cantunwind
	.fnend
                                        @ -- End function
	.section	.text.I2C_WriteByteOneReg,"ax",%progbits
	.hidden	I2C_WriteByteOneReg             @ -- Begin function I2C_WriteByteOneReg
	.globl	I2C_WriteByteOneReg
	.p2align	2
	.type	I2C_WriteByteOneReg,%function
	.code	16                              @ @I2C_WriteByteOneReg
	.thumb_func
I2C_WriteByteOneReg:
.Lfunc_begin30:
	.loc	2 834 0 is_stmt 1               @ ../../../../Library/StdDriver/src/i2c.c:834:0
	.fnstart
	.cfi_startproc
@ %bb.0:
	.save	{r4, lr}
	push	{r4, lr}
	.cfi_def_cfa_offset 8
	.cfi_offset lr, -4
	.cfi_offset r4, -8
	.pad	#44
	sub	sp, #44
	.cfi_def_cfa_offset 52
                                        @ kill: def $r4 killed $r3
                                        @ kill: def $r4 killed $r2
                                        @ kill: def $r4 killed $r1
	str	r0, [sp, #40]
	add	r0, sp, #36
	strb	r1, [r0]
	add	r0, sp, #32
	strb	r2, [r0]
	add	r0, sp, #28
	strb	r3, [r0]
	add	r1, sp, #24
	movs	r0, #1
.Ltmp151:
	.loc	2 835 13 prologue_end           @ ../../../../Library/StdDriver/src/i2c.c:835:13
	strb	r0, [r1]
	add	r1, sp, #20
	movs	r0, #0
	.loc	2 835 29 is_stmt 0              @ ../../../../Library/StdDriver/src/i2c.c:835:29
	strb	r0, [r1]
	add	r1, sp, #16
	.loc	2 835 41                        @ ../../../../Library/StdDriver/src/i2c.c:835:41
	strb	r0, [r1]
	.loc	2 836 14 is_stmt 1              @ ../../../../Library/StdDriver/src/i2c.c:836:14
	str	r0, [sp, #12]
	.loc	2 838 22                        @ ../../../../Library/StdDriver/src/i2c.c:838:22
	ldr	r1, __arm_cp.30_0
	str	r0, [r1]
	.loc	2 839 5                         @ ../../../../Library/StdDriver/src/i2c.c:839:5
	ldr	r0, [sp, #40]
	ldr	r0, [r0]
	movs	r1, #32
	orrs	r0, r1
	movs	r1, #8
	bics	r0, r1
	ldr	r1, [sp, #40]
	str	r0, [r1]
	.loc	2 841 5                         @ ../../../../Library/StdDriver/src/i2c.c:841:5
	b	.LBB30_1
.LBB30_1:                               @ =>This Loop Header: Depth=1
                                        @     Child Loop BB30_5 Depth 2
	.loc	2 0 5 is_stmt 0                 @ ../../../../Library/StdDriver/src/i2c.c:0:5
	add	r0, sp, #24
	.loc	2 841 12                        @ ../../../../Library/StdDriver/src/i2c.c:841:12
	ldrb	r1, [r0]
	movs	r0, #0
	.loc	2 841 22                        @ ../../../../Library/StdDriver/src/i2c.c:841:22
	str	r0, [sp, #4]                    @ 4-byte Spill
	cbz	r1, .LBB30_3
	b	.LBB30_2
.LBB30_2:                               @   in Loop: Header=BB30_1 Depth=1
	.loc	2 0 22                          @ ../../../../Library/StdDriver/src/i2c.c:0:22
	add	r0, sp, #20
	.loc	2 841 26                        @ ../../../../Library/StdDriver/src/i2c.c:841:26
	ldrb	r0, [r0]
	.loc	2 841 32                        @ ../../../../Library/StdDriver/src/i2c.c:841:32
	rsbs	r1, r0, #0
	adcs	r0, r1
	str	r0, [sp, #4]                    @ 4-byte Spill
	b	.LBB30_3
.LBB30_3:                               @   in Loop: Header=BB30_1 Depth=1
	.loc	2 0 0                           @ ../../../../Library/StdDriver/src/i2c.c:0:0
	ldr	r0, [sp, #4]                    @ 4-byte Reload
	.loc	2 841 5                         @ ../../../../Library/StdDriver/src/i2c.c:841:5
	lsls	r0, r0, #31
	cbnz	r0, .LBB30_4
	b	.LBB30_22
.LBB30_4:                               @   in Loop: Header=BB30_1 Depth=1
.Ltmp152:
	.loc	2 843 36 is_stmt 1              @ ../../../../Library/StdDriver/src/i2c.c:843:36
	ldr	r0, __arm_cp.30_1
	ldr	r0, [r0]
	.loc	2 843 18 is_stmt 0              @ ../../../../Library/StdDriver/src/i2c.c:843:18
	str	r0, [sp, #8]
	.loc	2 844 9 is_stmt 1               @ ../../../../Library/StdDriver/src/i2c.c:844:9
	b	.LBB30_5
.LBB30_5:                               @   Parent Loop BB30_1 Depth=1
                                        @ =>  This Inner Loop Header: Depth=2
	ldr	r0, [sp, #40]
	ldr	r0, [r0]
	lsls	r0, r0, #28
	cmp	r0, #0
	bmi	.LBB30_9
	b	.LBB30_6
.LBB30_6:                               @   in Loop: Header=BB30_5 Depth=2
.Ltmp153:
	.loc	2 846 28                        @ ../../../../Library/StdDriver/src/i2c.c:846:28
	ldr	r0, [sp, #8]
	subs	r0, r0, #1
	str	r0, [sp, #8]
.Ltmp154:
	.loc	2 848 17                        @ ../../../../Library/StdDriver/src/i2c.c:848:17
	ldr	r0, [sp, #8]
.Ltmp155:
	.loc	2 848 17 is_stmt 0              @ ../../../../Library/StdDriver/src/i2c.c:848:17
	cbnz	r0, .LBB30_8
	b	.LBB30_7
.LBB30_7:                               @   in Loop: Header=BB30_1 Depth=1
.Ltmp156:
	.loc	2 850 34 is_stmt 1              @ ../../../../Library/StdDriver/src/i2c.c:850:34
	ldr	r1, __arm_cp.30_0
	movs	r0, #0
	mvns	r0, r0
	str	r0, [r1]
	.loc	2 851 17                        @ ../../../../Library/StdDriver/src/i2c.c:851:17
	b	.LBB30_9
.Ltmp157:
.LBB30_8:                               @   in Loop: Header=BB30_5 Depth=2
	.loc	2 844 9                         @ ../../../../Library/StdDriver/src/i2c.c:844:9
	b	.LBB30_5
.LBB30_9:                               @   in Loop: Header=BB30_1 Depth=1
	.loc	2 855 17                        @ ../../../../Library/StdDriver/src/i2c.c:855:17
	ldr	r0, [sp, #40]
	ldr	r0, [r0, #12]
	.loc	2 855 9 is_stmt 0               @ ../../../../Library/StdDriver/src/i2c.c:855:9
	subs	r0, #8
	str	r0, [sp]                        @ 4-byte Spill
	cmp	r0, #48
	bls	.LBB30_10
	b	.LBB30_20
.LBB30_10:                              @   in Loop: Header=BB30_1 Depth=1
	.loc	2 0 9                           @ ../../../../Library/StdDriver/src/i2c.c:0:9
	ldr	r1, [sp]                        @ 4-byte Reload
	lsls	r2, r1, #2
	adr	r0, .LJTI30_0
	adds	r0, r0, r2
	mov	pc, r0
@ %bb.11:
	.p2align	2
.LJTI30_0:
	b.w	.LBB30_12
	b.w	.LBB30_20
	b.w	.LBB30_20
	b.w	.LBB30_20
	b.w	.LBB30_20
	b.w	.LBB30_20
	b.w	.LBB30_20
	b.w	.LBB30_20
	b.w	.LBB30_20
	b.w	.LBB30_20
	b.w	.LBB30_20
	b.w	.LBB30_20
	b.w	.LBB30_20
	b.w	.LBB30_20
	b.w	.LBB30_20
	b.w	.LBB30_20
	b.w	.LBB30_13
	b.w	.LBB30_20
	b.w	.LBB30_20
	b.w	.LBB30_20
	b.w	.LBB30_20
	b.w	.LBB30_20
	b.w	.LBB30_20
	b.w	.LBB30_20
	b.w	.LBB30_14
	b.w	.LBB30_20
	b.w	.LBB30_20
	b.w	.LBB30_20
	b.w	.LBB30_20
	b.w	.LBB30_20
	b.w	.LBB30_20
	b.w	.LBB30_20
	b.w	.LBB30_15
	b.w	.LBB30_20
	b.w	.LBB30_20
	b.w	.LBB30_20
	b.w	.LBB30_20
	b.w	.LBB30_20
	b.w	.LBB30_20
	b.w	.LBB30_20
	b.w	.LBB30_14
	b.w	.LBB30_20
	b.w	.LBB30_20
	b.w	.LBB30_20
	b.w	.LBB30_20
	b.w	.LBB30_20
	b.w	.LBB30_20
	b.w	.LBB30_20
	b.w	.LBB30_19
.LBB30_12:                              @   in Loop: Header=BB30_1 Depth=1
.Ltmp158:
	.loc	2 858 17 is_stmt 1              @ ../../../../Library/StdDriver/src/i2c.c:858:17
	ldr	r0, [sp, #36]
	lsls	r0, r0, #25
	lsrs	r0, r0, #24
	ldr	r1, [sp, #40]
	str	r0, [r1, #8]
	add	r1, sp, #16
	movs	r0, #8
	.loc	2 859 24                        @ ../../../../Library/StdDriver/src/i2c.c:859:24
	strb	r0, [r1]
	.loc	2 860 17                        @ ../../../../Library/StdDriver/src/i2c.c:860:17
	b	.LBB30_21
.LBB30_13:                              @   in Loop: Header=BB30_1 Depth=1
	.loc	2 0 17 is_stmt 0                @ ../../../../Library/StdDriver/src/i2c.c:0:17
	add	r0, sp, #32
	.loc	2 863 17 is_stmt 1              @ ../../../../Library/StdDriver/src/i2c.c:863:17
	ldrb	r0, [r0]
	ldr	r1, [sp, #40]
	str	r0, [r1, #8]
	.loc	2 864 17                        @ ../../../../Library/StdDriver/src/i2c.c:864:17
	b	.LBB30_21
.LBB30_14:                              @   in Loop: Header=BB30_1 Depth=1
	.loc	2 0 17 is_stmt 0                @ ../../../../Library/StdDriver/src/i2c.c:0:17
	add	r1, sp, #16
	movs	r0, #24
	.loc	2 868 24 is_stmt 1              @ ../../../../Library/StdDriver/src/i2c.c:868:24
	strb	r0, [r1]
	add	r1, sp, #20
	movs	r0, #1
	.loc	2 869 23                        @ ../../../../Library/StdDriver/src/i2c.c:869:23
	strb	r0, [r1]
	.loc	2 870 17                        @ ../../../../Library/StdDriver/src/i2c.c:870:17
	b	.LBB30_21
.LBB30_15:                              @   in Loop: Header=BB30_1 Depth=1
.Ltmp159:
	.loc	2 873 21                        @ ../../../../Library/StdDriver/src/i2c.c:873:21
	ldr	r0, [sp, #12]
.Ltmp160:
	.loc	2 873 21 is_stmt 0              @ ../../../../Library/StdDriver/src/i2c.c:873:21
	cbnz	r0, .LBB30_17
	b	.LBB30_16
.LBB30_16:                              @   in Loop: Header=BB30_1 Depth=1
	.loc	2 0 21                          @ ../../../../Library/StdDriver/src/i2c.c:0:21
	add	r0, sp, #28
.Ltmp161:
	.loc	2 875 21 is_stmt 1              @ ../../../../Library/StdDriver/src/i2c.c:875:21
	ldrb	r0, [r0]
	ldr	r1, [sp, #40]
	str	r0, [r1, #8]
	.loc	2 876 29                        @ ../../../../Library/StdDriver/src/i2c.c:876:29
	ldr	r0, [sp, #12]
	adds	r0, r0, #1
	str	r0, [sp, #12]
	.loc	2 877 17                        @ ../../../../Library/StdDriver/src/i2c.c:877:17
	b	.LBB30_18
.Ltmp162:
.LBB30_17:                              @   in Loop: Header=BB30_1 Depth=1
	.loc	2 0 17 is_stmt 0                @ ../../../../Library/StdDriver/src/i2c.c:0:17
	add	r1, sp, #16
	movs	r0, #24
.Ltmp163:
	.loc	2 880 28 is_stmt 1              @ ../../../../Library/StdDriver/src/i2c.c:880:28
	strb	r0, [r1]
	add	r1, sp, #24
	movs	r0, #0
	.loc	2 881 31                        @ ../../../../Library/StdDriver/src/i2c.c:881:31
	strb	r0, [r1]
	b	.LBB30_18
.Ltmp164:
.LBB30_18:                              @   in Loop: Header=BB30_1 Depth=1
	.loc	2 884 17                        @ ../../../../Library/StdDriver/src/i2c.c:884:17
	b	.LBB30_21
.LBB30_19:                              @   in Loop: Header=BB30_1 Depth=1
	.loc	2 886 13                        @ ../../../../Library/StdDriver/src/i2c.c:886:13
	b	.LBB30_20
.LBB30_20:                              @   in Loop: Header=BB30_1 Depth=1
	.loc	2 888 17                        @ ../../../../Library/StdDriver/src/i2c.c:888:17
	ldr	r0, [sp, #40]
	ldr	r0, [r0]
	movs	r1, #24
	orrs	r0, r1
	movs	r1, #36
	bics	r0, r1
	ldr	r1, [sp, #40]
	str	r0, [r1]
	add	r1, sp, #16
	movs	r0, #8
	.loc	2 889 24                        @ ../../../../Library/StdDriver/src/i2c.c:889:24
	strb	r0, [r1]
	add	r1, sp, #20
	movs	r0, #1
	.loc	2 890 23                        @ ../../../../Library/StdDriver/src/i2c.c:890:23
	strb	r0, [r1]
	.loc	2 891 17                        @ ../../../../Library/StdDriver/src/i2c.c:891:17
	b	.LBB30_21
.Ltmp165:
.LBB30_21:                              @   in Loop: Header=BB30_1 Depth=1
	.loc	2 894 9                         @ ../../../../Library/StdDriver/src/i2c.c:894:9
	ldr	r0, [sp, #40]
	ldr	r0, [r0]
	movs	r1, #60
	bics	r0, r1
	add	r1, sp, #16
	ldrb	r1, [r1]
	orrs	r0, r1
	ldr	r1, [sp, #40]
	str	r0, [r1]
.Ltmp166:
	.loc	2 841 5                         @ ../../../../Library/StdDriver/src/i2c.c:841:5
	b	.LBB30_1
.LBB30_22:
	.loc	2 0 5 is_stmt 0                 @ ../../../../Library/StdDriver/src/i2c.c:0:5
	add	r0, sp, #20
	.loc	2 897 13 is_stmt 1              @ ../../../../Library/StdDriver/src/i2c.c:897:13
	ldrb	r0, [r0]
	add	r1, sp, #24
	.loc	2 897 21 is_stmt 0              @ ../../../../Library/StdDriver/src/i2c.c:897:21
	ldrb	r1, [r1]
	.loc	2 897 19                        @ ../../../../Library/StdDriver/src/i2c.c:897:19
	orrs	r0, r1
	.loc	2 897 5                         @ ../../../../Library/StdDriver/src/i2c.c:897:5
	add	sp, #44
	pop	{r4, pc}
.Ltmp167:
	.p2align	2
@ %bb.23:
	.loc	2 0 5                           @ ../../../../Library/StdDriver/src/i2c.c:0:5
__arm_cp.30_0:
	.long	g_I2C_i32ErrCode
.Lcpi_end10:
	.size	__arm_cp.30_0, .Lcpi_end10-__arm_cp.30_0
__arm_cp.30_1:
	.long	SystemCoreClock
.Lcpi_end11:
	.size	__arm_cp.30_1, .Lcpi_end11-__arm_cp.30_1
.Lfunc_end30:
	.size	I2C_WriteByteOneReg, .Lfunc_end30-I2C_WriteByteOneReg
	.cfi_endproc
	.cantunwind
	.fnend
                                        @ -- End function
	.section	.text.I2C_WriteMultiBytesOneReg,"ax",%progbits
	.hidden	I2C_WriteMultiBytesOneReg       @ -- Begin function I2C_WriteMultiBytesOneReg
	.globl	I2C_WriteMultiBytesOneReg
	.p2align	2
	.type	I2C_WriteMultiBytesOneReg,%function
	.code	16                              @ @I2C_WriteMultiBytesOneReg
	.thumb_func
I2C_WriteMultiBytesOneReg:
.Lfunc_begin31:
	.loc	2 918 0 is_stmt 1               @ ../../../../Library/StdDriver/src/i2c.c:918:0
	.fnstart
	.cfi_startproc
@ %bb.0:
	.save	{r4, lr}
	push	{r4, lr}
	.cfi_def_cfa_offset 8
	.cfi_offset lr, -4
	.cfi_offset r4, -8
	.pad	#44
	sub	sp, #44
	.cfi_def_cfa_offset 52
	ldr	r4, [sp, #52]
                                        @ kill: def $r4 killed $r2
                                        @ kill: def $r4 killed $r1
	str	r0, [sp, #40]
	add	r0, sp, #36
	strb	r1, [r0]
	add	r0, sp, #32
	strb	r2, [r0]
	str	r3, [sp, #28]
	add	r1, sp, #24
	movs	r0, #1
.Ltmp168:
	.loc	2 919 13 prologue_end           @ ../../../../Library/StdDriver/src/i2c.c:919:13
	strb	r0, [r1]
	add	r1, sp, #20
	movs	r0, #0
	.loc	2 919 29 is_stmt 0              @ ../../../../Library/StdDriver/src/i2c.c:919:29
	strb	r0, [r1]
	add	r1, sp, #16
	.loc	2 919 41                        @ ../../../../Library/StdDriver/src/i2c.c:919:41
	strb	r0, [r1]
	.loc	2 920 14 is_stmt 1              @ ../../../../Library/StdDriver/src/i2c.c:920:14
	str	r0, [sp, #12]
	.loc	2 922 22                        @ ../../../../Library/StdDriver/src/i2c.c:922:22
	ldr	r1, __arm_cp.31_0
	str	r0, [r1]
	.loc	2 923 5                         @ ../../../../Library/StdDriver/src/i2c.c:923:5
	ldr	r0, [sp, #40]
	ldr	r0, [r0]
	movs	r1, #32
	orrs	r0, r1
	movs	r1, #8
	bics	r0, r1
	ldr	r1, [sp, #40]
	str	r0, [r1]
	.loc	2 925 5                         @ ../../../../Library/StdDriver/src/i2c.c:925:5
	b	.LBB31_1
.LBB31_1:                               @ =>This Loop Header: Depth=1
                                        @     Child Loop BB31_5 Depth 2
	.loc	2 0 5 is_stmt 0                 @ ../../../../Library/StdDriver/src/i2c.c:0:5
	add	r0, sp, #24
	.loc	2 925 12                        @ ../../../../Library/StdDriver/src/i2c.c:925:12
	ldrb	r1, [r0]
	movs	r0, #0
	.loc	2 925 22                        @ ../../../../Library/StdDriver/src/i2c.c:925:22
	str	r0, [sp, #4]                    @ 4-byte Spill
	cbz	r1, .LBB31_3
	b	.LBB31_2
.LBB31_2:                               @   in Loop: Header=BB31_1 Depth=1
	.loc	2 0 22                          @ ../../../../Library/StdDriver/src/i2c.c:0:22
	add	r0, sp, #20
	.loc	2 925 26                        @ ../../../../Library/StdDriver/src/i2c.c:925:26
	ldrb	r0, [r0]
	.loc	2 925 32                        @ ../../../../Library/StdDriver/src/i2c.c:925:32
	rsbs	r1, r0, #0
	adcs	r0, r1
	str	r0, [sp, #4]                    @ 4-byte Spill
	b	.LBB31_3
.LBB31_3:                               @   in Loop: Header=BB31_1 Depth=1
	.loc	2 0 0                           @ ../../../../Library/StdDriver/src/i2c.c:0:0
	ldr	r0, [sp, #4]                    @ 4-byte Reload
	.loc	2 925 5                         @ ../../../../Library/StdDriver/src/i2c.c:925:5
	lsls	r0, r0, #31
	cbnz	r0, .LBB31_4
	b	.LBB31_22
.LBB31_4:                               @   in Loop: Header=BB31_1 Depth=1
.Ltmp169:
	.loc	2 927 36 is_stmt 1              @ ../../../../Library/StdDriver/src/i2c.c:927:36
	ldr	r0, __arm_cp.31_1
	ldr	r0, [r0]
	.loc	2 927 18 is_stmt 0              @ ../../../../Library/StdDriver/src/i2c.c:927:18
	str	r0, [sp, #8]
	.loc	2 928 9 is_stmt 1               @ ../../../../Library/StdDriver/src/i2c.c:928:9
	b	.LBB31_5
.LBB31_5:                               @   Parent Loop BB31_1 Depth=1
                                        @ =>  This Inner Loop Header: Depth=2
	ldr	r0, [sp, #40]
	ldr	r0, [r0]
	lsls	r0, r0, #28
	cmp	r0, #0
	bmi	.LBB31_9
	b	.LBB31_6
.LBB31_6:                               @   in Loop: Header=BB31_5 Depth=2
.Ltmp170:
	.loc	2 930 28                        @ ../../../../Library/StdDriver/src/i2c.c:930:28
	ldr	r0, [sp, #8]
	subs	r0, r0, #1
	str	r0, [sp, #8]
.Ltmp171:
	.loc	2 932 17                        @ ../../../../Library/StdDriver/src/i2c.c:932:17
	ldr	r0, [sp, #8]
.Ltmp172:
	.loc	2 932 17 is_stmt 0              @ ../../../../Library/StdDriver/src/i2c.c:932:17
	cbnz	r0, .LBB31_8
	b	.LBB31_7
.LBB31_7:                               @   in Loop: Header=BB31_1 Depth=1
.Ltmp173:
	.loc	2 934 34 is_stmt 1              @ ../../../../Library/StdDriver/src/i2c.c:934:34
	ldr	r1, __arm_cp.31_0
	movs	r0, #0
	mvns	r0, r0
	str	r0, [r1]
	.loc	2 935 17                        @ ../../../../Library/StdDriver/src/i2c.c:935:17
	b	.LBB31_9
.Ltmp174:
.LBB31_8:                               @   in Loop: Header=BB31_5 Depth=2
	.loc	2 928 9                         @ ../../../../Library/StdDriver/src/i2c.c:928:9
	b	.LBB31_5
.LBB31_9:                               @   in Loop: Header=BB31_1 Depth=1
	.loc	2 939 17                        @ ../../../../Library/StdDriver/src/i2c.c:939:17
	ldr	r0, [sp, #40]
	ldr	r0, [r0, #12]
	.loc	2 939 9 is_stmt 0               @ ../../../../Library/StdDriver/src/i2c.c:939:9
	subs	r0, #8
	str	r0, [sp]                        @ 4-byte Spill
	cmp	r0, #48
	bls	.LBB31_10
	b	.LBB31_20
.LBB31_10:                              @   in Loop: Header=BB31_1 Depth=1
	.loc	2 0 9                           @ ../../../../Library/StdDriver/src/i2c.c:0:9
	ldr	r1, [sp]                        @ 4-byte Reload
	lsls	r2, r1, #2
	adr	r0, .LJTI31_0
	adds	r0, r0, r2
	mov	pc, r0
@ %bb.11:
	.p2align	2
.LJTI31_0:
	b.w	.LBB31_12
	b.w	.LBB31_20
	b.w	.LBB31_20
	b.w	.LBB31_20
	b.w	.LBB31_20
	b.w	.LBB31_20
	b.w	.LBB31_20
	b.w	.LBB31_20
	b.w	.LBB31_20
	b.w	.LBB31_20
	b.w	.LBB31_20
	b.w	.LBB31_20
	b.w	.LBB31_20
	b.w	.LBB31_20
	b.w	.LBB31_20
	b.w	.LBB31_20
	b.w	.LBB31_13
	b.w	.LBB31_20
	b.w	.LBB31_20
	b.w	.LBB31_20
	b.w	.LBB31_20
	b.w	.LBB31_20
	b.w	.LBB31_20
	b.w	.LBB31_20
	b.w	.LBB31_14
	b.w	.LBB31_20
	b.w	.LBB31_20
	b.w	.LBB31_20
	b.w	.LBB31_20
	b.w	.LBB31_20
	b.w	.LBB31_20
	b.w	.LBB31_20
	b.w	.LBB31_15
	b.w	.LBB31_20
	b.w	.LBB31_20
	b.w	.LBB31_20
	b.w	.LBB31_20
	b.w	.LBB31_20
	b.w	.LBB31_20
	b.w	.LBB31_20
	b.w	.LBB31_14
	b.w	.LBB31_20
	b.w	.LBB31_20
	b.w	.LBB31_20
	b.w	.LBB31_20
	b.w	.LBB31_20
	b.w	.LBB31_20
	b.w	.LBB31_20
	b.w	.LBB31_19
.LBB31_12:                              @   in Loop: Header=BB31_1 Depth=1
.Ltmp175:
	.loc	2 942 17 is_stmt 1              @ ../../../../Library/StdDriver/src/i2c.c:942:17
	ldr	r0, [sp, #36]
	lsls	r0, r0, #25
	lsrs	r0, r0, #24
	ldr	r1, [sp, #40]
	str	r0, [r1, #8]
	add	r1, sp, #16
	movs	r0, #8
	.loc	2 943 24                        @ ../../../../Library/StdDriver/src/i2c.c:943:24
	strb	r0, [r1]
	.loc	2 944 17                        @ ../../../../Library/StdDriver/src/i2c.c:944:17
	b	.LBB31_21
.LBB31_13:                              @   in Loop: Header=BB31_1 Depth=1
	.loc	2 0 17 is_stmt 0                @ ../../../../Library/StdDriver/src/i2c.c:0:17
	add	r0, sp, #32
	.loc	2 947 17 is_stmt 1              @ ../../../../Library/StdDriver/src/i2c.c:947:17
	ldrb	r0, [r0]
	ldr	r1, [sp, #40]
	str	r0, [r1, #8]
	.loc	2 948 17                        @ ../../../../Library/StdDriver/src/i2c.c:948:17
	b	.LBB31_21
.LBB31_14:                              @   in Loop: Header=BB31_1 Depth=1
	.loc	2 0 17 is_stmt 0                @ ../../../../Library/StdDriver/src/i2c.c:0:17
	add	r1, sp, #16
	movs	r0, #24
	.loc	2 952 24 is_stmt 1              @ ../../../../Library/StdDriver/src/i2c.c:952:24
	strb	r0, [r1]
	add	r1, sp, #20
	movs	r0, #1
	.loc	2 953 23                        @ ../../../../Library/StdDriver/src/i2c.c:953:23
	strb	r0, [r1]
	.loc	2 954 17                        @ ../../../../Library/StdDriver/src/i2c.c:954:17
	b	.LBB31_21
.LBB31_15:                              @   in Loop: Header=BB31_1 Depth=1
.Ltmp176:
	.loc	2 957 21                        @ ../../../../Library/StdDriver/src/i2c.c:957:21
	ldr	r0, [sp, #12]
	.loc	2 957 32 is_stmt 0              @ ../../../../Library/StdDriver/src/i2c.c:957:32
	ldr	r1, [sp, #52]
.Ltmp177:
	.loc	2 957 21                        @ ../../../../Library/StdDriver/src/i2c.c:957:21
	cmp	r0, r1
	bhs	.LBB31_17
	b	.LBB31_16
.LBB31_16:                              @   in Loop: Header=BB31_1 Depth=1
.Ltmp178:
	.loc	2 958 21 is_stmt 1              @ ../../../../Library/StdDriver/src/i2c.c:958:21
	ldr	r0, [sp, #28]
	ldr	r1, [sp, #12]
	adds	r2, r1, #1
	str	r2, [sp, #12]
	ldrb	r0, [r0, r1]
	ldr	r1, [sp, #40]
	str	r0, [r1, #8]
	b	.LBB31_18
.LBB31_17:                              @   in Loop: Header=BB31_1 Depth=1
	.loc	2 0 21 is_stmt 0                @ ../../../../Library/StdDriver/src/i2c.c:0:21
	add	r1, sp, #16
	movs	r0, #24
.Ltmp179:
	.loc	2 961 28 is_stmt 1              @ ../../../../Library/StdDriver/src/i2c.c:961:28
	strb	r0, [r1]
	add	r1, sp, #24
	movs	r0, #0
	.loc	2 962 31                        @ ../../../../Library/StdDriver/src/i2c.c:962:31
	strb	r0, [r1]
	b	.LBB31_18
.Ltmp180:
.LBB31_18:                              @   in Loop: Header=BB31_1 Depth=1
	.loc	2 965 17                        @ ../../../../Library/StdDriver/src/i2c.c:965:17
	b	.LBB31_21
.LBB31_19:                              @   in Loop: Header=BB31_1 Depth=1
	.loc	2 967 13                        @ ../../../../Library/StdDriver/src/i2c.c:967:13
	b	.LBB31_20
.LBB31_20:                              @   in Loop: Header=BB31_1 Depth=1
	.loc	2 969 17                        @ ../../../../Library/StdDriver/src/i2c.c:969:17
	ldr	r0, [sp, #40]
	ldr	r0, [r0]
	movs	r1, #24
	orrs	r0, r1
	movs	r1, #36
	bics	r0, r1
	ldr	r1, [sp, #40]
	str	r0, [r1]
	add	r1, sp, #16
	movs	r0, #8
	.loc	2 970 24                        @ ../../../../Library/StdDriver/src/i2c.c:970:24
	strb	r0, [r1]
	add	r1, sp, #20
	movs	r0, #1
	.loc	2 971 23                        @ ../../../../Library/StdDriver/src/i2c.c:971:23
	strb	r0, [r1]
	.loc	2 972 17                        @ ../../../../Library/StdDriver/src/i2c.c:972:17
	b	.LBB31_21
.Ltmp181:
.LBB31_21:                              @   in Loop: Header=BB31_1 Depth=1
	.loc	2 975 9                         @ ../../../../Library/StdDriver/src/i2c.c:975:9
	ldr	r0, [sp, #40]
	ldr	r0, [r0]
	movs	r1, #60
	bics	r0, r1
	add	r1, sp, #16
	ldrb	r1, [r1]
	orrs	r0, r1
	ldr	r1, [sp, #40]
	str	r0, [r1]
.Ltmp182:
	.loc	2 925 5                         @ ../../../../Library/StdDriver/src/i2c.c:925:5
	b	.LBB31_1
.LBB31_22:
	.loc	2 978 12                        @ ../../../../Library/StdDriver/src/i2c.c:978:12
	ldr	r0, [sp, #12]
	.loc	2 978 5 is_stmt 0               @ ../../../../Library/StdDriver/src/i2c.c:978:5
	add	sp, #44
	pop	{r4, pc}
.Ltmp183:
	.p2align	2
@ %bb.23:
	.loc	2 0 5                           @ ../../../../Library/StdDriver/src/i2c.c:0:5
__arm_cp.31_0:
	.long	g_I2C_i32ErrCode
.Lcpi_end12:
	.size	__arm_cp.31_0, .Lcpi_end12-__arm_cp.31_0
__arm_cp.31_1:
	.long	SystemCoreClock
.Lcpi_end13:
	.size	__arm_cp.31_1, .Lcpi_end13-__arm_cp.31_1
.Lfunc_end31:
	.size	I2C_WriteMultiBytesOneReg, .Lfunc_end31-I2C_WriteMultiBytesOneReg
	.cfi_endproc
	.cantunwind
	.fnend
                                        @ -- End function
	.section	.text.I2C_WriteByteTwoRegs,"ax",%progbits
	.hidden	I2C_WriteByteTwoRegs            @ -- Begin function I2C_WriteByteTwoRegs
	.globl	I2C_WriteByteTwoRegs
	.p2align	2
	.type	I2C_WriteByteTwoRegs,%function
	.code	16                              @ @I2C_WriteByteTwoRegs
	.thumb_func
I2C_WriteByteTwoRegs:
.Lfunc_begin32:
	.loc	2 998 0 is_stmt 1               @ ../../../../Library/StdDriver/src/i2c.c:998:0
	.fnstart
	.cfi_startproc
@ %bb.0:
	.save	{r4, lr}
	push	{r4, lr}
	.cfi_def_cfa_offset 8
	.cfi_offset lr, -4
	.cfi_offset r4, -8
	.pad	#48
	sub	sp, #48
	.cfi_def_cfa_offset 56
                                        @ kill: def $r4 killed $r3
                                        @ kill: def $r4 killed $r2
                                        @ kill: def $r4 killed $r1
	str	r0, [sp, #44]
	add	r0, sp, #40
	strb	r1, [r0]
	add	r0, sp, #36
	strh	r2, [r0]
	add	r0, sp, #32
	strb	r3, [r0]
	add	r0, sp, #28
	movs	r1, #1
.Ltmp184:
	.loc	2 999 13 prologue_end           @ ../../../../Library/StdDriver/src/i2c.c:999:13
	strb	r1, [r0]
	add	r2, sp, #24
	movs	r0, #0
	.loc	2 999 29 is_stmt 0              @ ../../../../Library/StdDriver/src/i2c.c:999:29
	strb	r0, [r2]
	add	r2, sp, #20
	.loc	2 999 41                        @ ../../../../Library/StdDriver/src/i2c.c:999:41
	strb	r1, [r2]
	add	r1, sp, #16
	.loc	2 999 54                        @ ../../../../Library/StdDriver/src/i2c.c:999:54
	strb	r0, [r1]
	.loc	2 1000 14 is_stmt 1             @ ../../../../Library/StdDriver/src/i2c.c:1000:14
	str	r0, [sp, #12]
	.loc	2 1002 22                       @ ../../../../Library/StdDriver/src/i2c.c:1002:22
	ldr	r1, __arm_cp.32_0
	str	r0, [r1]
	.loc	2 1003 5                        @ ../../../../Library/StdDriver/src/i2c.c:1003:5
	ldr	r0, [sp, #44]
	ldr	r0, [r0]
	movs	r1, #32
	orrs	r0, r1
	movs	r1, #8
	bics	r0, r1
	ldr	r1, [sp, #44]
	str	r0, [r1]
	.loc	2 1005 5                        @ ../../../../Library/StdDriver/src/i2c.c:1005:5
	b	.LBB32_1
.LBB32_1:                               @ =>This Loop Header: Depth=1
                                        @     Child Loop BB32_5 Depth 2
	.loc	2 0 5 is_stmt 0                 @ ../../../../Library/StdDriver/src/i2c.c:0:5
	add	r0, sp, #28
	.loc	2 1005 12                       @ ../../../../Library/StdDriver/src/i2c.c:1005:12
	ldrb	r1, [r0]
	movs	r0, #0
	.loc	2 1005 22                       @ ../../../../Library/StdDriver/src/i2c.c:1005:22
	str	r0, [sp, #4]                    @ 4-byte Spill
	cbz	r1, .LBB32_3
	b	.LBB32_2
.LBB32_2:                               @   in Loop: Header=BB32_1 Depth=1
	.loc	2 0 22                          @ ../../../../Library/StdDriver/src/i2c.c:0:22
	add	r0, sp, #24
	.loc	2 1005 26                       @ ../../../../Library/StdDriver/src/i2c.c:1005:26
	ldrb	r0, [r0]
	.loc	2 1005 32                       @ ../../../../Library/StdDriver/src/i2c.c:1005:32
	rsbs	r1, r0, #0
	adcs	r0, r1
	str	r0, [sp, #4]                    @ 4-byte Spill
	b	.LBB32_3
.LBB32_3:                               @   in Loop: Header=BB32_1 Depth=1
	.loc	2 0 0                           @ ../../../../Library/StdDriver/src/i2c.c:0:0
	ldr	r0, [sp, #4]                    @ 4-byte Reload
	.loc	2 1005 5                        @ ../../../../Library/StdDriver/src/i2c.c:1005:5
	lsls	r0, r0, #31
	cbnz	r0, .LBB32_4
	b	.LBB32_26
.LBB32_4:                               @   in Loop: Header=BB32_1 Depth=1
.Ltmp185:
	.loc	2 1007 36 is_stmt 1             @ ../../../../Library/StdDriver/src/i2c.c:1007:36
	ldr	r0, __arm_cp.32_1
	ldr	r0, [r0]
	.loc	2 1007 18 is_stmt 0             @ ../../../../Library/StdDriver/src/i2c.c:1007:18
	str	r0, [sp, #8]
	.loc	2 1008 9 is_stmt 1              @ ../../../../Library/StdDriver/src/i2c.c:1008:9
	b	.LBB32_5
.LBB32_5:                               @   Parent Loop BB32_1 Depth=1
                                        @ =>  This Inner Loop Header: Depth=2
	ldr	r0, [sp, #44]
	ldr	r0, [r0]
	lsls	r0, r0, #28
	cmp	r0, #0
	bmi	.LBB32_9
	b	.LBB32_6
.LBB32_6:                               @   in Loop: Header=BB32_5 Depth=2
.Ltmp186:
	.loc	2 1010 28                       @ ../../../../Library/StdDriver/src/i2c.c:1010:28
	ldr	r0, [sp, #8]
	subs	r0, r0, #1
	str	r0, [sp, #8]
.Ltmp187:
	.loc	2 1012 17                       @ ../../../../Library/StdDriver/src/i2c.c:1012:17
	ldr	r0, [sp, #8]
.Ltmp188:
	.loc	2 1012 17 is_stmt 0             @ ../../../../Library/StdDriver/src/i2c.c:1012:17
	cbnz	r0, .LBB32_8
	b	.LBB32_7
.LBB32_7:                               @   in Loop: Header=BB32_1 Depth=1
.Ltmp189:
	.loc	2 1014 34 is_stmt 1             @ ../../../../Library/StdDriver/src/i2c.c:1014:34
	ldr	r1, __arm_cp.32_0
	movs	r0, #0
	mvns	r0, r0
	str	r0, [r1]
	.loc	2 1015 17                       @ ../../../../Library/StdDriver/src/i2c.c:1015:17
	b	.LBB32_9
.Ltmp190:
.LBB32_8:                               @   in Loop: Header=BB32_5 Depth=2
	.loc	2 1008 9                        @ ../../../../Library/StdDriver/src/i2c.c:1008:9
	b	.LBB32_5
.LBB32_9:                               @   in Loop: Header=BB32_1 Depth=1
	.loc	2 1019 17                       @ ../../../../Library/StdDriver/src/i2c.c:1019:17
	ldr	r0, [sp, #44]
	ldr	r0, [r0, #12]
	.loc	2 1019 9 is_stmt 0              @ ../../../../Library/StdDriver/src/i2c.c:1019:9
	subs	r0, #8
	str	r0, [sp]                        @ 4-byte Spill
	cmp	r0, #48
	bls	.LBB32_10
	b	.LBB32_24
.LBB32_10:                              @   in Loop: Header=BB32_1 Depth=1
	.loc	2 0 9                           @ ../../../../Library/StdDriver/src/i2c.c:0:9
	ldr	r1, [sp]                        @ 4-byte Reload
	lsls	r2, r1, #2
	adr	r0, .LJTI32_0
	adds	r0, r0, r2
	mov	pc, r0
@ %bb.11:
	.p2align	2
.LJTI32_0:
	b.w	.LBB32_12
	b.w	.LBB32_24
	b.w	.LBB32_24
	b.w	.LBB32_24
	b.w	.LBB32_24
	b.w	.LBB32_24
	b.w	.LBB32_24
	b.w	.LBB32_24
	b.w	.LBB32_24
	b.w	.LBB32_24
	b.w	.LBB32_24
	b.w	.LBB32_24
	b.w	.LBB32_24
	b.w	.LBB32_24
	b.w	.LBB32_24
	b.w	.LBB32_24
	b.w	.LBB32_13
	b.w	.LBB32_24
	b.w	.LBB32_24
	b.w	.LBB32_24
	b.w	.LBB32_24
	b.w	.LBB32_24
	b.w	.LBB32_24
	b.w	.LBB32_24
	b.w	.LBB32_14
	b.w	.LBB32_24
	b.w	.LBB32_24
	b.w	.LBB32_24
	b.w	.LBB32_24
	b.w	.LBB32_24
	b.w	.LBB32_24
	b.w	.LBB32_24
	b.w	.LBB32_15
	b.w	.LBB32_24
	b.w	.LBB32_24
	b.w	.LBB32_24
	b.w	.LBB32_24
	b.w	.LBB32_24
	b.w	.LBB32_24
	b.w	.LBB32_24
	b.w	.LBB32_14
	b.w	.LBB32_24
	b.w	.LBB32_24
	b.w	.LBB32_24
	b.w	.LBB32_24
	b.w	.LBB32_24
	b.w	.LBB32_24
	b.w	.LBB32_24
	b.w	.LBB32_23
.LBB32_12:                              @   in Loop: Header=BB32_1 Depth=1
.Ltmp191:
	.loc	2 1022 17 is_stmt 1             @ ../../../../Library/StdDriver/src/i2c.c:1022:17
	ldr	r0, [sp, #40]
	lsls	r0, r0, #25
	lsrs	r0, r0, #24
	ldr	r1, [sp, #44]
	str	r0, [r1, #8]
	add	r1, sp, #16
	movs	r0, #8
	.loc	2 1023 24                       @ ../../../../Library/StdDriver/src/i2c.c:1023:24
	strb	r0, [r1]
	.loc	2 1024 17                       @ ../../../../Library/StdDriver/src/i2c.c:1024:17
	b	.LBB32_25
.LBB32_13:                              @   in Loop: Header=BB32_1 Depth=1
	.loc	2 0 17 is_stmt 0                @ ../../../../Library/StdDriver/src/i2c.c:0:17
	add	r0, sp, #36
	.loc	2 1027 17 is_stmt 1             @ ../../../../Library/StdDriver/src/i2c.c:1027:17
	ldrb	r0, [r0, #1]
	ldr	r1, [sp, #44]
	str	r0, [r1, #8]
	.loc	2 1028 17                       @ ../../../../Library/StdDriver/src/i2c.c:1028:17
	b	.LBB32_25
.LBB32_14:                              @   in Loop: Header=BB32_1 Depth=1
	.loc	2 0 17 is_stmt 0                @ ../../../../Library/StdDriver/src/i2c.c:0:17
	add	r1, sp, #16
	movs	r0, #24
	.loc	2 1032 24 is_stmt 1             @ ../../../../Library/StdDriver/src/i2c.c:1032:24
	strb	r0, [r1]
	add	r1, sp, #24
	movs	r0, #1
	.loc	2 1033 23                       @ ../../../../Library/StdDriver/src/i2c.c:1033:23
	strb	r0, [r1]
	.loc	2 1034 17                       @ ../../../../Library/StdDriver/src/i2c.c:1034:17
	b	.LBB32_25
.LBB32_15:                              @   in Loop: Header=BB32_1 Depth=1
	.loc	2 0 17 is_stmt 0                @ ../../../../Library/StdDriver/src/i2c.c:0:17
	add	r0, sp, #20
.Ltmp192:
	.loc	2 1037 21 is_stmt 1             @ ../../../../Library/StdDriver/src/i2c.c:1037:21
	ldrb	r0, [r0]
.Ltmp193:
	.loc	2 1037 21 is_stmt 0             @ ../../../../Library/StdDriver/src/i2c.c:1037:21
	cbz	r0, .LBB32_17
	b	.LBB32_16
.LBB32_16:                              @   in Loop: Header=BB32_1 Depth=1
	.loc	2 0 21                          @ ../../../../Library/StdDriver/src/i2c.c:0:21
	add	r0, sp, #36
.Ltmp194:
	.loc	2 1039 21 is_stmt 1             @ ../../../../Library/StdDriver/src/i2c.c:1039:21
	ldrb	r0, [r0]
	ldr	r1, [sp, #44]
	str	r0, [r1, #8]
	add	r1, sp, #20
	movs	r0, #0
	.loc	2 1040 28                       @ ../../../../Library/StdDriver/src/i2c.c:1040:28
	strb	r0, [r1]
	.loc	2 1041 17                       @ ../../../../Library/StdDriver/src/i2c.c:1041:17
	b	.LBB32_22
.Ltmp195:
.LBB32_17:                              @   in Loop: Header=BB32_1 Depth=1
	.loc	2 1042 27                       @ ../../../../Library/StdDriver/src/i2c.c:1042:27
	ldr	r0, [sp, #12]
	.loc	2 1042 42 is_stmt 0             @ ../../../../Library/StdDriver/src/i2c.c:1042:42
	cbnz	r0, .LBB32_20
	b	.LBB32_18
.LBB32_18:                              @   in Loop: Header=BB32_1 Depth=1
	.loc	2 0 42                          @ ../../../../Library/StdDriver/src/i2c.c:0:42
	add	r0, sp, #20
	.loc	2 1042 46                       @ ../../../../Library/StdDriver/src/i2c.c:1042:46
	ldrb	r0, [r0]
.Ltmp196:
	.loc	2 1042 26                       @ ../../../../Library/StdDriver/src/i2c.c:1042:26
	cbnz	r0, .LBB32_20
	b	.LBB32_19
.LBB32_19:                              @   in Loop: Header=BB32_1 Depth=1
	.loc	2 0 26                          @ ../../../../Library/StdDriver/src/i2c.c:0:26
	add	r0, sp, #32
.Ltmp197:
	.loc	2 1044 21 is_stmt 1             @ ../../../../Library/StdDriver/src/i2c.c:1044:21
	ldrb	r0, [r0]
	ldr	r1, [sp, #44]
	str	r0, [r1, #8]
	.loc	2 1045 29                       @ ../../../../Library/StdDriver/src/i2c.c:1045:29
	ldr	r0, [sp, #12]
	adds	r0, r0, #1
	str	r0, [sp, #12]
	.loc	2 1046 17                       @ ../../../../Library/StdDriver/src/i2c.c:1046:17
	b	.LBB32_21
.Ltmp198:
.LBB32_20:                              @   in Loop: Header=BB32_1 Depth=1
	.loc	2 0 17 is_stmt 0                @ ../../../../Library/StdDriver/src/i2c.c:0:17
	add	r1, sp, #16
	movs	r0, #24
.Ltmp199:
	.loc	2 1049 28 is_stmt 1             @ ../../../../Library/StdDriver/src/i2c.c:1049:28
	strb	r0, [r1]
	add	r1, sp, #28
	movs	r0, #0
	.loc	2 1050 31                       @ ../../../../Library/StdDriver/src/i2c.c:1050:31
	strb	r0, [r1]
	b	.LBB32_21
.Ltmp200:
.LBB32_21:                              @   in Loop: Header=BB32_1 Depth=1
	.loc	2 0 31 is_stmt 0                @ ../../../../Library/StdDriver/src/i2c.c:0:31
	b	.LBB32_22
.LBB32_22:                              @   in Loop: Header=BB32_1 Depth=1
	.loc	2 1053 17 is_stmt 1             @ ../../../../Library/StdDriver/src/i2c.c:1053:17
	b	.LBB32_25
.LBB32_23:                              @   in Loop: Header=BB32_1 Depth=1
	.loc	2 1055 13                       @ ../../../../Library/StdDriver/src/i2c.c:1055:13
	b	.LBB32_24
.LBB32_24:                              @   in Loop: Header=BB32_1 Depth=1
	.loc	2 1057 17                       @ ../../../../Library/StdDriver/src/i2c.c:1057:17
	ldr	r0, [sp, #44]
	ldr	r0, [r0]
	movs	r1, #24
	orrs	r0, r1
	movs	r1, #36
	bics	r0, r1
	ldr	r1, [sp, #44]
	str	r0, [r1]
	add	r1, sp, #16
	movs	r0, #8
	.loc	2 1058 24                       @ ../../../../Library/StdDriver/src/i2c.c:1058:24
	strb	r0, [r1]
	add	r1, sp, #24
	movs	r0, #1
	.loc	2 1059 23                       @ ../../../../Library/StdDriver/src/i2c.c:1059:23
	strb	r0, [r1]
	.loc	2 1060 17                       @ ../../../../Library/StdDriver/src/i2c.c:1060:17
	b	.LBB32_25
.Ltmp201:
.LBB32_25:                              @   in Loop: Header=BB32_1 Depth=1
	.loc	2 1063 9                        @ ../../../../Library/StdDriver/src/i2c.c:1063:9
	ldr	r0, [sp, #44]
	ldr	r0, [r0]
	movs	r1, #60
	bics	r0, r1
	add	r1, sp, #16
	ldrb	r1, [r1]
	orrs	r0, r1
	ldr	r1, [sp, #44]
	str	r0, [r1]
.Ltmp202:
	.loc	2 1005 5                        @ ../../../../Library/StdDriver/src/i2c.c:1005:5
	b	.LBB32_1
.LBB32_26:
	.loc	2 0 5 is_stmt 0                 @ ../../../../Library/StdDriver/src/i2c.c:0:5
	add	r0, sp, #24
	.loc	2 1066 13 is_stmt 1             @ ../../../../Library/StdDriver/src/i2c.c:1066:13
	ldrb	r0, [r0]
	add	r1, sp, #28
	.loc	2 1066 21 is_stmt 0             @ ../../../../Library/StdDriver/src/i2c.c:1066:21
	ldrb	r1, [r1]
	.loc	2 1066 19                       @ ../../../../Library/StdDriver/src/i2c.c:1066:19
	orrs	r0, r1
	.loc	2 1066 5                        @ ../../../../Library/StdDriver/src/i2c.c:1066:5
	add	sp, #48
	pop	{r4, pc}
.Ltmp203:
	.p2align	2
@ %bb.27:
	.loc	2 0 5                           @ ../../../../Library/StdDriver/src/i2c.c:0:5
__arm_cp.32_0:
	.long	g_I2C_i32ErrCode
.Lcpi_end14:
	.size	__arm_cp.32_0, .Lcpi_end14-__arm_cp.32_0
__arm_cp.32_1:
	.long	SystemCoreClock
.Lcpi_end15:
	.size	__arm_cp.32_1, .Lcpi_end15-__arm_cp.32_1
.Lfunc_end32:
	.size	I2C_WriteByteTwoRegs, .Lfunc_end32-I2C_WriteByteTwoRegs
	.cfi_endproc
	.cantunwind
	.fnend
                                        @ -- End function
	.section	.text.I2C_WriteMultiBytesTwoRegs,"ax",%progbits
	.hidden	I2C_WriteMultiBytesTwoRegs      @ -- Begin function I2C_WriteMultiBytesTwoRegs
	.globl	I2C_WriteMultiBytesTwoRegs
	.p2align	2
	.type	I2C_WriteMultiBytesTwoRegs,%function
	.code	16                              @ @I2C_WriteMultiBytesTwoRegs
	.thumb_func
I2C_WriteMultiBytesTwoRegs:
.Lfunc_begin33:
	.loc	2 1087 0 is_stmt 1              @ ../../../../Library/StdDriver/src/i2c.c:1087:0
	.fnstart
	.cfi_startproc
@ %bb.0:
	.save	{r4, lr}
	push	{r4, lr}
	.cfi_def_cfa_offset 8
	.cfi_offset lr, -4
	.cfi_offset r4, -8
	.pad	#48
	sub	sp, #48
	.cfi_def_cfa_offset 56
	ldr	r4, [sp, #56]
                                        @ kill: def $r4 killed $r2
                                        @ kill: def $r4 killed $r1
	str	r0, [sp, #44]
	add	r0, sp, #40
	strb	r1, [r0]
	add	r0, sp, #36
	strh	r2, [r0]
	str	r3, [sp, #32]
	add	r0, sp, #28
	movs	r1, #1
.Ltmp204:
	.loc	2 1088 13 prologue_end          @ ../../../../Library/StdDriver/src/i2c.c:1088:13
	strb	r1, [r0]
	add	r2, sp, #24
	movs	r0, #0
	.loc	2 1088 29 is_stmt 0             @ ../../../../Library/StdDriver/src/i2c.c:1088:29
	strb	r0, [r2]
	add	r2, sp, #20
	.loc	2 1088 41                       @ ../../../../Library/StdDriver/src/i2c.c:1088:41
	strb	r1, [r2]
	add	r1, sp, #16
	.loc	2 1088 54                       @ ../../../../Library/StdDriver/src/i2c.c:1088:54
	strb	r0, [r1]
	.loc	2 1089 14 is_stmt 1             @ ../../../../Library/StdDriver/src/i2c.c:1089:14
	str	r0, [sp, #12]
	.loc	2 1091 22                       @ ../../../../Library/StdDriver/src/i2c.c:1091:22
	ldr	r1, __arm_cp.33_0
	str	r0, [r1]
	.loc	2 1092 5                        @ ../../../../Library/StdDriver/src/i2c.c:1092:5
	ldr	r0, [sp, #44]
	ldr	r0, [r0]
	movs	r1, #32
	orrs	r0, r1
	movs	r1, #8
	bics	r0, r1
	ldr	r1, [sp, #44]
	str	r0, [r1]
	.loc	2 1094 5                        @ ../../../../Library/StdDriver/src/i2c.c:1094:5
	b	.LBB33_1
.LBB33_1:                               @ =>This Loop Header: Depth=1
                                        @     Child Loop BB33_5 Depth 2
	.loc	2 0 5 is_stmt 0                 @ ../../../../Library/StdDriver/src/i2c.c:0:5
	add	r0, sp, #28
	.loc	2 1094 12                       @ ../../../../Library/StdDriver/src/i2c.c:1094:12
	ldrb	r1, [r0]
	movs	r0, #0
	.loc	2 1094 22                       @ ../../../../Library/StdDriver/src/i2c.c:1094:22
	str	r0, [sp, #4]                    @ 4-byte Spill
	cbz	r1, .LBB33_3
	b	.LBB33_2
.LBB33_2:                               @   in Loop: Header=BB33_1 Depth=1
	.loc	2 0 22                          @ ../../../../Library/StdDriver/src/i2c.c:0:22
	add	r0, sp, #24
	.loc	2 1094 26                       @ ../../../../Library/StdDriver/src/i2c.c:1094:26
	ldrb	r0, [r0]
	.loc	2 1094 32                       @ ../../../../Library/StdDriver/src/i2c.c:1094:32
	rsbs	r1, r0, #0
	adcs	r0, r1
	str	r0, [sp, #4]                    @ 4-byte Spill
	b	.LBB33_3
.LBB33_3:                               @   in Loop: Header=BB33_1 Depth=1
	.loc	2 0 0                           @ ../../../../Library/StdDriver/src/i2c.c:0:0
	ldr	r0, [sp, #4]                    @ 4-byte Reload
	.loc	2 1094 5                        @ ../../../../Library/StdDriver/src/i2c.c:1094:5
	lsls	r0, r0, #31
	cbnz	r0, .LBB33_4
	b	.LBB33_26
.LBB33_4:                               @   in Loop: Header=BB33_1 Depth=1
.Ltmp205:
	.loc	2 1096 36 is_stmt 1             @ ../../../../Library/StdDriver/src/i2c.c:1096:36
	ldr	r0, __arm_cp.33_1
	ldr	r0, [r0]
	.loc	2 1096 18 is_stmt 0             @ ../../../../Library/StdDriver/src/i2c.c:1096:18
	str	r0, [sp, #8]
	.loc	2 1097 9 is_stmt 1              @ ../../../../Library/StdDriver/src/i2c.c:1097:9
	b	.LBB33_5
.LBB33_5:                               @   Parent Loop BB33_1 Depth=1
                                        @ =>  This Inner Loop Header: Depth=2
	ldr	r0, [sp, #44]
	ldr	r0, [r0]
	lsls	r0, r0, #28
	cmp	r0, #0
	bmi	.LBB33_9
	b	.LBB33_6
.LBB33_6:                               @   in Loop: Header=BB33_5 Depth=2
.Ltmp206:
	.loc	2 1099 28                       @ ../../../../Library/StdDriver/src/i2c.c:1099:28
	ldr	r0, [sp, #8]
	subs	r0, r0, #1
	str	r0, [sp, #8]
.Ltmp207:
	.loc	2 1101 17                       @ ../../../../Library/StdDriver/src/i2c.c:1101:17
	ldr	r0, [sp, #8]
.Ltmp208:
	.loc	2 1101 17 is_stmt 0             @ ../../../../Library/StdDriver/src/i2c.c:1101:17
	cbnz	r0, .LBB33_8
	b	.LBB33_7
.LBB33_7:                               @   in Loop: Header=BB33_1 Depth=1
.Ltmp209:
	.loc	2 1103 34 is_stmt 1             @ ../../../../Library/StdDriver/src/i2c.c:1103:34
	ldr	r1, __arm_cp.33_0
	movs	r0, #0
	mvns	r0, r0
	str	r0, [r1]
	.loc	2 1104 17                       @ ../../../../Library/StdDriver/src/i2c.c:1104:17
	b	.LBB33_9
.Ltmp210:
.LBB33_8:                               @   in Loop: Header=BB33_5 Depth=2
	.loc	2 1097 9                        @ ../../../../Library/StdDriver/src/i2c.c:1097:9
	b	.LBB33_5
.LBB33_9:                               @   in Loop: Header=BB33_1 Depth=1
	.loc	2 1108 17                       @ ../../../../Library/StdDriver/src/i2c.c:1108:17
	ldr	r0, [sp, #44]
	ldr	r0, [r0, #12]
	.loc	2 1108 9 is_stmt 0              @ ../../../../Library/StdDriver/src/i2c.c:1108:9
	subs	r0, #8
	str	r0, [sp]                        @ 4-byte Spill
	cmp	r0, #48
	bls	.LBB33_10
	b	.LBB33_24
.LBB33_10:                              @   in Loop: Header=BB33_1 Depth=1
	.loc	2 0 9                           @ ../../../../Library/StdDriver/src/i2c.c:0:9
	ldr	r1, [sp]                        @ 4-byte Reload
	lsls	r2, r1, #2
	adr	r0, .LJTI33_0
	adds	r0, r0, r2
	mov	pc, r0
@ %bb.11:
	.p2align	2
.LJTI33_0:
	b.w	.LBB33_12
	b.w	.LBB33_24
	b.w	.LBB33_24
	b.w	.LBB33_24
	b.w	.LBB33_24
	b.w	.LBB33_24
	b.w	.LBB33_24
	b.w	.LBB33_24
	b.w	.LBB33_24
	b.w	.LBB33_24
	b.w	.LBB33_24
	b.w	.LBB33_24
	b.w	.LBB33_24
	b.w	.LBB33_24
	b.w	.LBB33_24
	b.w	.LBB33_24
	b.w	.LBB33_13
	b.w	.LBB33_24
	b.w	.LBB33_24
	b.w	.LBB33_24
	b.w	.LBB33_24
	b.w	.LBB33_24
	b.w	.LBB33_24
	b.w	.LBB33_24
	b.w	.LBB33_14
	b.w	.LBB33_24
	b.w	.LBB33_24
	b.w	.LBB33_24
	b.w	.LBB33_24
	b.w	.LBB33_24
	b.w	.LBB33_24
	b.w	.LBB33_24
	b.w	.LBB33_15
	b.w	.LBB33_24
	b.w	.LBB33_24
	b.w	.LBB33_24
	b.w	.LBB33_24
	b.w	.LBB33_24
	b.w	.LBB33_24
	b.w	.LBB33_24
	b.w	.LBB33_14
	b.w	.LBB33_24
	b.w	.LBB33_24
	b.w	.LBB33_24
	b.w	.LBB33_24
	b.w	.LBB33_24
	b.w	.LBB33_24
	b.w	.LBB33_24
	b.w	.LBB33_23
.LBB33_12:                              @   in Loop: Header=BB33_1 Depth=1
.Ltmp211:
	.loc	2 1111 17 is_stmt 1             @ ../../../../Library/StdDriver/src/i2c.c:1111:17
	ldr	r0, [sp, #40]
	lsls	r0, r0, #25
	lsrs	r0, r0, #24
	ldr	r1, [sp, #44]
	str	r0, [r1, #8]
	add	r1, sp, #16
	movs	r0, #8
	.loc	2 1112 24                       @ ../../../../Library/StdDriver/src/i2c.c:1112:24
	strb	r0, [r1]
	.loc	2 1113 17                       @ ../../../../Library/StdDriver/src/i2c.c:1113:17
	b	.LBB33_25
.LBB33_13:                              @   in Loop: Header=BB33_1 Depth=1
	.loc	2 0 17 is_stmt 0                @ ../../../../Library/StdDriver/src/i2c.c:0:17
	add	r0, sp, #36
	.loc	2 1116 17 is_stmt 1             @ ../../../../Library/StdDriver/src/i2c.c:1116:17
	ldrb	r0, [r0, #1]
	ldr	r1, [sp, #44]
	str	r0, [r1, #8]
	.loc	2 1117 17                       @ ../../../../Library/StdDriver/src/i2c.c:1117:17
	b	.LBB33_25
.LBB33_14:                              @   in Loop: Header=BB33_1 Depth=1
	.loc	2 0 17 is_stmt 0                @ ../../../../Library/StdDriver/src/i2c.c:0:17
	add	r1, sp, #16
	movs	r0, #24
	.loc	2 1121 24 is_stmt 1             @ ../../../../Library/StdDriver/src/i2c.c:1121:24
	strb	r0, [r1]
	add	r1, sp, #24
	movs	r0, #1
	.loc	2 1122 23                       @ ../../../../Library/StdDriver/src/i2c.c:1122:23
	strb	r0, [r1]
	.loc	2 1123 17                       @ ../../../../Library/StdDriver/src/i2c.c:1123:17
	b	.LBB33_25
.LBB33_15:                              @   in Loop: Header=BB33_1 Depth=1
	.loc	2 0 17 is_stmt 0                @ ../../../../Library/StdDriver/src/i2c.c:0:17
	add	r0, sp, #20
.Ltmp212:
	.loc	2 1126 21 is_stmt 1             @ ../../../../Library/StdDriver/src/i2c.c:1126:21
	ldrb	r0, [r0]
.Ltmp213:
	.loc	2 1126 21 is_stmt 0             @ ../../../../Library/StdDriver/src/i2c.c:1126:21
	cbz	r0, .LBB33_17
	b	.LBB33_16
.LBB33_16:                              @   in Loop: Header=BB33_1 Depth=1
	.loc	2 0 21                          @ ../../../../Library/StdDriver/src/i2c.c:0:21
	add	r0, sp, #36
.Ltmp214:
	.loc	2 1128 21 is_stmt 1             @ ../../../../Library/StdDriver/src/i2c.c:1128:21
	ldrb	r0, [r0]
	ldr	r1, [sp, #44]
	str	r0, [r1, #8]
	add	r1, sp, #20
	movs	r0, #0
	.loc	2 1129 28                       @ ../../../../Library/StdDriver/src/i2c.c:1129:28
	strb	r0, [r1]
	.loc	2 1130 17                       @ ../../../../Library/StdDriver/src/i2c.c:1130:17
	b	.LBB33_22
.Ltmp215:
.LBB33_17:                              @   in Loop: Header=BB33_1 Depth=1
	.loc	2 1131 27                       @ ../../../../Library/StdDriver/src/i2c.c:1131:27
	ldr	r0, [sp, #12]
	.loc	2 1131 38 is_stmt 0             @ ../../../../Library/StdDriver/src/i2c.c:1131:38
	ldr	r1, [sp, #56]
	.loc	2 1131 47                       @ ../../../../Library/StdDriver/src/i2c.c:1131:47
	cmp	r0, r1
	bhs	.LBB33_20
	b	.LBB33_18
.LBB33_18:                              @   in Loop: Header=BB33_1 Depth=1
	.loc	2 0 47                          @ ../../../../Library/StdDriver/src/i2c.c:0:47
	add	r0, sp, #20
	.loc	2 1131 51                       @ ../../../../Library/StdDriver/src/i2c.c:1131:51
	ldrb	r0, [r0]
.Ltmp216:
	.loc	2 1131 26                       @ ../../../../Library/StdDriver/src/i2c.c:1131:26
	cbnz	r0, .LBB33_20
	b	.LBB33_19
.LBB33_19:                              @   in Loop: Header=BB33_1 Depth=1
.Ltmp217:
	.loc	2 1133 21 is_stmt 1             @ ../../../../Library/StdDriver/src/i2c.c:1133:21
	ldr	r0, [sp, #32]
	ldr	r1, [sp, #12]
	adds	r2, r1, #1
	str	r2, [sp, #12]
	ldrb	r0, [r0, r1]
	ldr	r1, [sp, #44]
	str	r0, [r1, #8]
	.loc	2 1134 17                       @ ../../../../Library/StdDriver/src/i2c.c:1134:17
	b	.LBB33_21
.Ltmp218:
.LBB33_20:                              @   in Loop: Header=BB33_1 Depth=1
	.loc	2 0 17 is_stmt 0                @ ../../../../Library/StdDriver/src/i2c.c:0:17
	add	r1, sp, #16
	movs	r0, #24
.Ltmp219:
	.loc	2 1137 28 is_stmt 1             @ ../../../../Library/StdDriver/src/i2c.c:1137:28
	strb	r0, [r1]
	add	r1, sp, #28
	movs	r0, #0
	.loc	2 1138 31                       @ ../../../../Library/StdDriver/src/i2c.c:1138:31
	strb	r0, [r1]
	b	.LBB33_21
.Ltmp220:
.LBB33_21:                              @   in Loop: Header=BB33_1 Depth=1
	.loc	2 0 31 is_stmt 0                @ ../../../../Library/StdDriver/src/i2c.c:0:31
	b	.LBB33_22
.LBB33_22:                              @   in Loop: Header=BB33_1 Depth=1
	.loc	2 1141 17 is_stmt 1             @ ../../../../Library/StdDriver/src/i2c.c:1141:17
	b	.LBB33_25
.LBB33_23:                              @   in Loop: Header=BB33_1 Depth=1
	.loc	2 1143 13                       @ ../../../../Library/StdDriver/src/i2c.c:1143:13
	b	.LBB33_24
.LBB33_24:                              @   in Loop: Header=BB33_1 Depth=1
	.loc	2 1145 17                       @ ../../../../Library/StdDriver/src/i2c.c:1145:17
	ldr	r0, [sp, #44]
	ldr	r0, [r0]
	movs	r1, #24
	orrs	r0, r1
	movs	r1, #36
	bics	r0, r1
	ldr	r1, [sp, #44]
	str	r0, [r1]
	add	r1, sp, #16
	movs	r0, #8
	.loc	2 1146 24                       @ ../../../../Library/StdDriver/src/i2c.c:1146:24
	strb	r0, [r1]
	add	r1, sp, #24
	movs	r0, #1
	.loc	2 1147 23                       @ ../../../../Library/StdDriver/src/i2c.c:1147:23
	strb	r0, [r1]
	.loc	2 1148 17                       @ ../../../../Library/StdDriver/src/i2c.c:1148:17
	b	.LBB33_25
.Ltmp221:
.LBB33_25:                              @   in Loop: Header=BB33_1 Depth=1
	.loc	2 1151 9                        @ ../../../../Library/StdDriver/src/i2c.c:1151:9
	ldr	r0, [sp, #44]
	ldr	r0, [r0]
	movs	r1, #60
	bics	r0, r1
	add	r1, sp, #16
	ldrb	r1, [r1]
	orrs	r0, r1
	ldr	r1, [sp, #44]
	str	r0, [r1]
.Ltmp222:
	.loc	2 1094 5                        @ ../../../../Library/StdDriver/src/i2c.c:1094:5
	b	.LBB33_1
.LBB33_26:
	.loc	2 1154 12                       @ ../../../../Library/StdDriver/src/i2c.c:1154:12
	ldr	r0, [sp, #12]
	.loc	2 1154 5 is_stmt 0              @ ../../../../Library/StdDriver/src/i2c.c:1154:5
	add	sp, #48
	pop	{r4, pc}
.Ltmp223:
	.p2align	2
@ %bb.27:
	.loc	2 0 5                           @ ../../../../Library/StdDriver/src/i2c.c:0:5
__arm_cp.33_0:
	.long	g_I2C_i32ErrCode
.Lcpi_end16:
	.size	__arm_cp.33_0, .Lcpi_end16-__arm_cp.33_0
__arm_cp.33_1:
	.long	SystemCoreClock
.Lcpi_end17:
	.size	__arm_cp.33_1, .Lcpi_end17-__arm_cp.33_1
.Lfunc_end33:
	.size	I2C_WriteMultiBytesTwoRegs, .Lfunc_end33-I2C_WriteMultiBytesTwoRegs
	.cfi_endproc
	.cantunwind
	.fnend
                                        @ -- End function
	.section	.text.I2C_ReadByte,"ax",%progbits
	.hidden	I2C_ReadByte                    @ -- Begin function I2C_ReadByte
	.globl	I2C_ReadByte
	.p2align	2
	.type	I2C_ReadByte,%function
	.code	16                              @ @I2C_ReadByte
	.thumb_func
I2C_ReadByte:
.Lfunc_begin34:
	.loc	2 1170 0 is_stmt 1              @ ../../../../Library/StdDriver/src/i2c.c:1170:0
	.fnstart
	.cfi_startproc
@ %bb.0:
	.pad	#36
	sub	sp, #36
	.cfi_def_cfa_offset 36
                                        @ kill: def $r2 killed $r1
	str	r0, [sp, #32]
	add	r0, sp, #28
	strb	r1, [r0]
	add	r1, sp, #24
	movs	r0, #1
.Ltmp224:
	.loc	2 1171 13 prologue_end          @ ../../../../Library/StdDriver/src/i2c.c:1171:13
	strb	r0, [r1]
	add	r1, sp, #20
	movs	r0, #0
	.loc	2 1171 29 is_stmt 0             @ ../../../../Library/StdDriver/src/i2c.c:1171:29
	strb	r0, [r1]
	add	r1, sp, #16
	.loc	2 1171 41                       @ ../../../../Library/StdDriver/src/i2c.c:1171:41
	strb	r0, [r1]
	add	r1, sp, #12
	.loc	2 1171 53                       @ ../../../../Library/StdDriver/src/i2c.c:1171:53
	strb	r0, [r1]
	.loc	2 1173 22 is_stmt 1             @ ../../../../Library/StdDriver/src/i2c.c:1173:22
	ldr	r1, __arm_cp.34_0
	str	r0, [r1]
	.loc	2 1174 5                        @ ../../../../Library/StdDriver/src/i2c.c:1174:5
	ldr	r0, [sp, #32]
	ldr	r0, [r0]
	movs	r1, #32
	orrs	r0, r1
	movs	r1, #8
	bics	r0, r1
	ldr	r1, [sp, #32]
	str	r0, [r1]
	.loc	2 1176 5                        @ ../../../../Library/StdDriver/src/i2c.c:1176:5
	b	.LBB34_1
.LBB34_1:                               @ =>This Loop Header: Depth=1
                                        @     Child Loop BB34_5 Depth 2
	.loc	2 0 5 is_stmt 0                 @ ../../../../Library/StdDriver/src/i2c.c:0:5
	add	r0, sp, #24
	.loc	2 1176 12                       @ ../../../../Library/StdDriver/src/i2c.c:1176:12
	ldrb	r1, [r0]
	movs	r0, #0
	.loc	2 1176 22                       @ ../../../../Library/StdDriver/src/i2c.c:1176:22
	str	r0, [sp, #4]                    @ 4-byte Spill
	cbz	r1, .LBB34_3
	b	.LBB34_2
.LBB34_2:                               @   in Loop: Header=BB34_1 Depth=1
	.loc	2 0 22                          @ ../../../../Library/StdDriver/src/i2c.c:0:22
	add	r0, sp, #20
	.loc	2 1176 26                       @ ../../../../Library/StdDriver/src/i2c.c:1176:26
	ldrb	r0, [r0]
	.loc	2 1176 32                       @ ../../../../Library/StdDriver/src/i2c.c:1176:32
	rsbs	r1, r0, #0
	adcs	r0, r1
	str	r0, [sp, #4]                    @ 4-byte Spill
	b	.LBB34_3
.LBB34_3:                               @   in Loop: Header=BB34_1 Depth=1
	.loc	2 0 0                           @ ../../../../Library/StdDriver/src/i2c.c:0:0
	ldr	r0, [sp, #4]                    @ 4-byte Reload
	.loc	2 1176 5                        @ ../../../../Library/StdDriver/src/i2c.c:1176:5
	lsls	r0, r0, #31
	cmp	r0, #0
	beq	.LBB34_21
	b	.LBB34_4
.LBB34_4:                               @   in Loop: Header=BB34_1 Depth=1
.Ltmp225:
	.loc	2 1178 36 is_stmt 1             @ ../../../../Library/StdDriver/src/i2c.c:1178:36
	ldr	r0, __arm_cp.34_1
	ldr	r0, [r0]
	.loc	2 1178 18 is_stmt 0             @ ../../../../Library/StdDriver/src/i2c.c:1178:18
	str	r0, [sp, #8]
	.loc	2 1179 9 is_stmt 1              @ ../../../../Library/StdDriver/src/i2c.c:1179:9
	b	.LBB34_5
.LBB34_5:                               @   Parent Loop BB34_1 Depth=1
                                        @ =>  This Inner Loop Header: Depth=2
	ldr	r0, [sp, #32]
	ldr	r0, [r0]
	lsls	r0, r0, #28
	cmp	r0, #0
	bmi	.LBB34_9
	b	.LBB34_6
.LBB34_6:                               @   in Loop: Header=BB34_5 Depth=2
.Ltmp226:
	.loc	2 1181 28                       @ ../../../../Library/StdDriver/src/i2c.c:1181:28
	ldr	r0, [sp, #8]
	subs	r0, r0, #1
	str	r0, [sp, #8]
.Ltmp227:
	.loc	2 1183 17                       @ ../../../../Library/StdDriver/src/i2c.c:1183:17
	ldr	r0, [sp, #8]
.Ltmp228:
	.loc	2 1183 17 is_stmt 0             @ ../../../../Library/StdDriver/src/i2c.c:1183:17
	cbnz	r0, .LBB34_8
	b	.LBB34_7
.LBB34_7:                               @   in Loop: Header=BB34_1 Depth=1
.Ltmp229:
	.loc	2 1185 34 is_stmt 1             @ ../../../../Library/StdDriver/src/i2c.c:1185:34
	ldr	r1, __arm_cp.34_0
	movs	r0, #0
	mvns	r0, r0
	str	r0, [r1]
	.loc	2 1186 17                       @ ../../../../Library/StdDriver/src/i2c.c:1186:17
	b	.LBB34_9
.Ltmp230:
.LBB34_8:                               @   in Loop: Header=BB34_5 Depth=2
	.loc	2 1179 9                        @ ../../../../Library/StdDriver/src/i2c.c:1179:9
	b	.LBB34_5
.LBB34_9:                               @   in Loop: Header=BB34_1 Depth=1
	.loc	2 1190 17                       @ ../../../../Library/StdDriver/src/i2c.c:1190:17
	ldr	r0, [sp, #32]
	ldr	r0, [r0, #12]
	.loc	2 1190 9 is_stmt 0              @ ../../../../Library/StdDriver/src/i2c.c:1190:9
	str	r0, [sp]                        @ 4-byte Spill
	cmp	r0, #8
	beq	.LBB34_14
	b	.LBB34_10
.LBB34_10:                              @   in Loop: Header=BB34_1 Depth=1
	ldr	r0, [sp]                        @ 4-byte Reload
	cmp	r0, #56
	beq	.LBB34_18
	b	.LBB34_11
.LBB34_11:                              @   in Loop: Header=BB34_1 Depth=1
	ldr	r0, [sp]                        @ 4-byte Reload
	cmp	r0, #64
	beq	.LBB34_15
	b	.LBB34_12
.LBB34_12:                              @   in Loop: Header=BB34_1 Depth=1
	ldr	r0, [sp]                        @ 4-byte Reload
	cmp	r0, #72
	beq	.LBB34_16
	b	.LBB34_13
.LBB34_13:                              @   in Loop: Header=BB34_1 Depth=1
	ldr	r0, [sp]                        @ 4-byte Reload
	cmp	r0, #88
	beq	.LBB34_17
	b	.LBB34_19
.LBB34_14:                              @   in Loop: Header=BB34_1 Depth=1
.Ltmp231:
	.loc	2 1193 17 is_stmt 1             @ ../../../../Library/StdDriver/src/i2c.c:1193:17
	ldr	r0, [sp, #28]
	lsls	r0, r0, #1
	adds	r0, r0, #1
	uxtb	r0, r0
	ldr	r1, [sp, #32]
	str	r0, [r1, #8]
	add	r1, sp, #12
	movs	r0, #8
	.loc	2 1194 24                       @ ../../../../Library/StdDriver/src/i2c.c:1194:24
	strb	r0, [r1]
	.loc	2 1195 17                       @ ../../../../Library/StdDriver/src/i2c.c:1195:17
	b	.LBB34_20
.LBB34_15:                              @   in Loop: Header=BB34_1 Depth=1
	.loc	2 0 17 is_stmt 0                @ ../../../../Library/StdDriver/src/i2c.c:0:17
	add	r1, sp, #12
	movs	r0, #8
	.loc	2 1198 24 is_stmt 1             @ ../../../../Library/StdDriver/src/i2c.c:1198:24
	strb	r0, [r1]
	.loc	2 1199 17                       @ ../../../../Library/StdDriver/src/i2c.c:1199:17
	b	.LBB34_20
.LBB34_16:                              @   in Loop: Header=BB34_1 Depth=1
	.loc	2 0 17 is_stmt 0                @ ../../../../Library/StdDriver/src/i2c.c:0:17
	add	r1, sp, #12
	movs	r0, #24
	.loc	2 1202 24 is_stmt 1             @ ../../../../Library/StdDriver/src/i2c.c:1202:24
	strb	r0, [r1]
	add	r1, sp, #20
	movs	r0, #1
	.loc	2 1203 23                       @ ../../../../Library/StdDriver/src/i2c.c:1203:23
	strb	r0, [r1]
	.loc	2 1204 17                       @ ../../../../Library/StdDriver/src/i2c.c:1204:17
	b	.LBB34_20
.LBB34_17:                              @   in Loop: Header=BB34_1 Depth=1
	.loc	2 1207 35                       @ ../../../../Library/StdDriver/src/i2c.c:1207:35
	ldr	r0, [sp, #32]
	ldr	r0, [r0, #8]
	add	r1, sp, #16
	.loc	2 1207 23 is_stmt 0             @ ../../../../Library/StdDriver/src/i2c.c:1207:23
	strb	r0, [r1]
	add	r1, sp, #12
	movs	r0, #24
	.loc	2 1208 24 is_stmt 1             @ ../../../../Library/StdDriver/src/i2c.c:1208:24
	strb	r0, [r1]
	add	r1, sp, #24
	movs	r0, #0
	.loc	2 1209 27                       @ ../../../../Library/StdDriver/src/i2c.c:1209:27
	strb	r0, [r1]
	.loc	2 1210 17                       @ ../../../../Library/StdDriver/src/i2c.c:1210:17
	b	.LBB34_20
.LBB34_18:                              @   in Loop: Header=BB34_1 Depth=1
	.loc	2 1212 13                       @ ../../../../Library/StdDriver/src/i2c.c:1212:13
	b	.LBB34_19
.LBB34_19:                              @   in Loop: Header=BB34_1 Depth=1
	.loc	2 1214 17                       @ ../../../../Library/StdDriver/src/i2c.c:1214:17
	ldr	r0, [sp, #32]
	ldr	r0, [r0]
	movs	r1, #24
	orrs	r0, r1
	movs	r1, #36
	bics	r0, r1
	ldr	r1, [sp, #32]
	str	r0, [r1]
	add	r1, sp, #12
	movs	r0, #8
	.loc	2 1215 24                       @ ../../../../Library/StdDriver/src/i2c.c:1215:24
	strb	r0, [r1]
	add	r1, sp, #20
	movs	r0, #1
	.loc	2 1216 23                       @ ../../../../Library/StdDriver/src/i2c.c:1216:23
	strb	r0, [r1]
	.loc	2 1217 17                       @ ../../../../Library/StdDriver/src/i2c.c:1217:17
	b	.LBB34_20
.Ltmp232:
.LBB34_20:                              @   in Loop: Header=BB34_1 Depth=1
	.loc	2 1220 9                        @ ../../../../Library/StdDriver/src/i2c.c:1220:9
	ldr	r0, [sp, #32]
	ldr	r0, [r0]
	movs	r1, #60
	bics	r0, r1
	add	r1, sp, #12
	ldrb	r1, [r1]
	orrs	r0, r1
	ldr	r1, [sp, #32]
	str	r0, [r1]
.Ltmp233:
	.loc	2 1176 5                        @ ../../../../Library/StdDriver/src/i2c.c:1176:5
	b	.LBB34_1
.LBB34_21:
	.loc	2 0 5 is_stmt 0                 @ ../../../../Library/StdDriver/src/i2c.c:0:5
	add	r0, sp, #20
.Ltmp234:
	.loc	2 1223 9 is_stmt 1              @ ../../../../Library/StdDriver/src/i2c.c:1223:9
	ldrb	r0, [r0]
.Ltmp235:
	.loc	2 1223 9 is_stmt 0              @ ../../../../Library/StdDriver/src/i2c.c:1223:9
	cbz	r0, .LBB34_23
	b	.LBB34_22
.LBB34_22:
	.loc	2 0 9                           @ ../../../../Library/StdDriver/src/i2c.c:0:9
	add	r1, sp, #16
	movs	r0, #0
.Ltmp236:
	.loc	2 1225 15 is_stmt 1             @ ../../../../Library/StdDriver/src/i2c.c:1225:15
	strb	r0, [r1]
	.loc	2 1226 5                        @ ../../../../Library/StdDriver/src/i2c.c:1226:5
	b	.LBB34_23
.Ltmp237:
.LBB34_23:
	.loc	2 0 5 is_stmt 0                 @ ../../../../Library/StdDriver/src/i2c.c:0:5
	add	r0, sp, #16
	.loc	2 1228 12 is_stmt 1             @ ../../../../Library/StdDriver/src/i2c.c:1228:12
	ldrb	r0, [r0]
	.loc	2 1228 5 is_stmt 0              @ ../../../../Library/StdDriver/src/i2c.c:1228:5
	add	sp, #36
	bx	lr
.Ltmp238:
	.p2align	2
@ %bb.24:
	.loc	2 0 5                           @ ../../../../Library/StdDriver/src/i2c.c:0:5
__arm_cp.34_0:
	.long	g_I2C_i32ErrCode
.Lcpi_end18:
	.size	__arm_cp.34_0, .Lcpi_end18-__arm_cp.34_0
__arm_cp.34_1:
	.long	SystemCoreClock
.Lcpi_end19:
	.size	__arm_cp.34_1, .Lcpi_end19-__arm_cp.34_1
.Lfunc_end34:
	.size	I2C_ReadByte, .Lfunc_end34-I2C_ReadByte
	.cfi_endproc
	.cantunwind
	.fnend
                                        @ -- End function
	.section	.text.I2C_ReadMultiBytes,"ax",%progbits
	.hidden	I2C_ReadMultiBytes              @ -- Begin function I2C_ReadMultiBytes
	.globl	I2C_ReadMultiBytes
	.p2align	2
	.type	I2C_ReadMultiBytes,%function
	.code	16                              @ @I2C_ReadMultiBytes
	.thumb_func
I2C_ReadMultiBytes:
.Lfunc_begin35:
	.loc	2 1246 0 is_stmt 1              @ ../../../../Library/StdDriver/src/i2c.c:1246:0
	.fnstart
	.cfi_startproc
@ %bb.0:
	.save	{r4, lr}
	push	{r4, lr}
	.cfi_def_cfa_offset 8
	.cfi_offset lr, -4
	.cfi_offset r4, -8
	.pad	#44
	sub	sp, #44
	.cfi_def_cfa_offset 52
                                        @ kill: def $r4 killed $r1
	str	r0, [sp, #40]
	add	r0, sp, #36
	strb	r1, [r0]
	str	r2, [sp, #32]
	str	r3, [sp, #28]
	add	r1, sp, #24
	movs	r0, #1
.Ltmp239:
	.loc	2 1247 13 prologue_end          @ ../../../../Library/StdDriver/src/i2c.c:1247:13
	strb	r0, [r1]
	add	r1, sp, #20
	movs	r0, #0
	.loc	2 1247 29 is_stmt 0             @ ../../../../Library/StdDriver/src/i2c.c:1247:29
	strb	r0, [r1]
	add	r1, sp, #16
	.loc	2 1247 41                       @ ../../../../Library/StdDriver/src/i2c.c:1247:41
	strb	r0, [r1]
	.loc	2 1248 14 is_stmt 1             @ ../../../../Library/StdDriver/src/i2c.c:1248:14
	str	r0, [sp, #12]
	.loc	2 1250 22                       @ ../../../../Library/StdDriver/src/i2c.c:1250:22
	ldr	r1, __arm_cp.35_0
	str	r0, [r1]
	.loc	2 1251 5                        @ ../../../../Library/StdDriver/src/i2c.c:1251:5
	ldr	r0, [sp, #40]
	ldr	r0, [r0]
	movs	r1, #32
	orrs	r0, r1
	movs	r1, #8
	bics	r0, r1
	ldr	r1, [sp, #40]
	str	r0, [r1]
	.loc	2 1253 5                        @ ../../../../Library/StdDriver/src/i2c.c:1253:5
	b	.LBB35_1
.LBB35_1:                               @ =>This Loop Header: Depth=1
                                        @     Child Loop BB35_5 Depth 2
	.loc	2 0 5 is_stmt 0                 @ ../../../../Library/StdDriver/src/i2c.c:0:5
	add	r0, sp, #24
	.loc	2 1253 12                       @ ../../../../Library/StdDriver/src/i2c.c:1253:12
	ldrb	r1, [r0]
	movs	r0, #0
	.loc	2 1253 22                       @ ../../../../Library/StdDriver/src/i2c.c:1253:22
	str	r0, [sp, #4]                    @ 4-byte Spill
	cbz	r1, .LBB35_3
	b	.LBB35_2
.LBB35_2:                               @   in Loop: Header=BB35_1 Depth=1
	.loc	2 0 22                          @ ../../../../Library/StdDriver/src/i2c.c:0:22
	add	r0, sp, #20
	.loc	2 1253 26                       @ ../../../../Library/StdDriver/src/i2c.c:1253:26
	ldrb	r0, [r0]
	.loc	2 1253 32                       @ ../../../../Library/StdDriver/src/i2c.c:1253:32
	rsbs	r1, r0, #0
	adcs	r0, r1
	str	r0, [sp, #4]                    @ 4-byte Spill
	b	.LBB35_3
.LBB35_3:                               @   in Loop: Header=BB35_1 Depth=1
	.loc	2 0 0                           @ ../../../../Library/StdDriver/src/i2c.c:0:0
	ldr	r0, [sp, #4]                    @ 4-byte Reload
	.loc	2 1253 5                        @ ../../../../Library/StdDriver/src/i2c.c:1253:5
	lsls	r0, r0, #31
	cbnz	r0, .LBB35_4
	b	.LBB35_26
.LBB35_4:                               @   in Loop: Header=BB35_1 Depth=1
.Ltmp240:
	.loc	2 1255 36 is_stmt 1             @ ../../../../Library/StdDriver/src/i2c.c:1255:36
	ldr	r0, __arm_cp.35_1
	ldr	r0, [r0]
	.loc	2 1255 18 is_stmt 0             @ ../../../../Library/StdDriver/src/i2c.c:1255:18
	str	r0, [sp, #8]
	.loc	2 1256 9 is_stmt 1              @ ../../../../Library/StdDriver/src/i2c.c:1256:9
	b	.LBB35_5
.LBB35_5:                               @   Parent Loop BB35_1 Depth=1
                                        @ =>  This Inner Loop Header: Depth=2
	ldr	r0, [sp, #40]
	ldr	r0, [r0]
	lsls	r0, r0, #28
	cmp	r0, #0
	bmi	.LBB35_9
	b	.LBB35_6
.LBB35_6:                               @   in Loop: Header=BB35_5 Depth=2
.Ltmp241:
	.loc	2 1258 28                       @ ../../../../Library/StdDriver/src/i2c.c:1258:28
	ldr	r0, [sp, #8]
	subs	r0, r0, #1
	str	r0, [sp, #8]
.Ltmp242:
	.loc	2 1260 17                       @ ../../../../Library/StdDriver/src/i2c.c:1260:17
	ldr	r0, [sp, #8]
.Ltmp243:
	.loc	2 1260 17 is_stmt 0             @ ../../../../Library/StdDriver/src/i2c.c:1260:17
	cbnz	r0, .LBB35_8
	b	.LBB35_7
.LBB35_7:                               @   in Loop: Header=BB35_1 Depth=1
.Ltmp244:
	.loc	2 1262 34 is_stmt 1             @ ../../../../Library/StdDriver/src/i2c.c:1262:34
	ldr	r1, __arm_cp.35_0
	movs	r0, #0
	mvns	r0, r0
	str	r0, [r1]
	.loc	2 1263 17                       @ ../../../../Library/StdDriver/src/i2c.c:1263:17
	b	.LBB35_9
.Ltmp245:
.LBB35_8:                               @   in Loop: Header=BB35_5 Depth=2
	.loc	2 1256 9                        @ ../../../../Library/StdDriver/src/i2c.c:1256:9
	b	.LBB35_5
.LBB35_9:                               @   in Loop: Header=BB35_1 Depth=1
	.loc	2 1267 17                       @ ../../../../Library/StdDriver/src/i2c.c:1267:17
	ldr	r0, [sp, #40]
	ldr	r0, [r0, #12]
	.loc	2 1267 9 is_stmt 0              @ ../../../../Library/StdDriver/src/i2c.c:1267:9
	str	r0, [sp]                        @ 4-byte Spill
	cmp	r0, #8
	beq	.LBB35_15
	b	.LBB35_10
.LBB35_10:                              @   in Loop: Header=BB35_1 Depth=1
	ldr	r0, [sp]                        @ 4-byte Reload
	cmp	r0, #56
	beq	.LBB35_23
	b	.LBB35_11
.LBB35_11:                              @   in Loop: Header=BB35_1 Depth=1
	ldr	r0, [sp]                        @ 4-byte Reload
	cmp	r0, #64
	beq	.LBB35_16
	b	.LBB35_12
.LBB35_12:                              @   in Loop: Header=BB35_1 Depth=1
	ldr	r0, [sp]                        @ 4-byte Reload
	cmp	r0, #72
	beq	.LBB35_17
	b	.LBB35_13
.LBB35_13:                              @   in Loop: Header=BB35_1 Depth=1
	ldr	r0, [sp]                        @ 4-byte Reload
	cmp	r0, #80
	beq	.LBB35_18
	b	.LBB35_14
.LBB35_14:                              @   in Loop: Header=BB35_1 Depth=1
	ldr	r0, [sp]                        @ 4-byte Reload
	cmp	r0, #88
	beq	.LBB35_22
	b	.LBB35_24
.LBB35_15:                              @   in Loop: Header=BB35_1 Depth=1
.Ltmp246:
	.loc	2 1270 17 is_stmt 1             @ ../../../../Library/StdDriver/src/i2c.c:1270:17
	ldr	r0, [sp, #36]
	lsls	r0, r0, #1
	adds	r0, r0, #1
	uxtb	r0, r0
	ldr	r1, [sp, #40]
	str	r0, [r1, #8]
	add	r1, sp, #16
	movs	r0, #8
	.loc	2 1271 24                       @ ../../../../Library/StdDriver/src/i2c.c:1271:24
	strb	r0, [r1]
	.loc	2 1272 17                       @ ../../../../Library/StdDriver/src/i2c.c:1272:17
	b	.LBB35_25
.LBB35_16:                              @   in Loop: Header=BB35_1 Depth=1
	.loc	2 0 17 is_stmt 0                @ ../../../../Library/StdDriver/src/i2c.c:0:17
	add	r1, sp, #16
	movs	r0, #12
	.loc	2 1275 24 is_stmt 1             @ ../../../../Library/StdDriver/src/i2c.c:1275:24
	strb	r0, [r1]
	.loc	2 1276 17                       @ ../../../../Library/StdDriver/src/i2c.c:1276:17
	b	.LBB35_25
.LBB35_17:                              @   in Loop: Header=BB35_1 Depth=1
	.loc	2 0 17 is_stmt 0                @ ../../../../Library/StdDriver/src/i2c.c:0:17
	add	r1, sp, #16
	movs	r0, #24
	.loc	2 1279 24 is_stmt 1             @ ../../../../Library/StdDriver/src/i2c.c:1279:24
	strb	r0, [r1]
	add	r1, sp, #20
	movs	r0, #1
	.loc	2 1280 23                       @ ../../../../Library/StdDriver/src/i2c.c:1280:23
	strb	r0, [r1]
	.loc	2 1281 17                       @ ../../../../Library/StdDriver/src/i2c.c:1281:17
	b	.LBB35_25
.LBB35_18:                              @   in Loop: Header=BB35_1 Depth=1
	.loc	2 1284 47                       @ ../../../../Library/StdDriver/src/i2c.c:1284:47
	ldr	r0, [sp, #40]
	ldr	r0, [r0, #8]
	.loc	2 1284 17 is_stmt 0             @ ../../../../Library/StdDriver/src/i2c.c:1284:17
	ldr	r1, [sp, #32]
	.loc	2 1284 31                       @ ../../../../Library/StdDriver/src/i2c.c:1284:31
	ldr	r2, [sp, #12]
	adds	r3, r2, #1
	str	r3, [sp, #12]
	.loc	2 1284 35                       @ ../../../../Library/StdDriver/src/i2c.c:1284:35
	strb	r0, [r1, r2]
.Ltmp247:
	.loc	2 1286 21 is_stmt 1             @ ../../../../Library/StdDriver/src/i2c.c:1286:21
	ldr	r0, [sp, #12]
	.loc	2 1286 33 is_stmt 0             @ ../../../../Library/StdDriver/src/i2c.c:1286:33
	ldr	r1, [sp, #28]
	.loc	2 1286 41                       @ ../../../../Library/StdDriver/src/i2c.c:1286:41
	subs	r1, r1, #1
.Ltmp248:
	.loc	2 1286 21                       @ ../../../../Library/StdDriver/src/i2c.c:1286:21
	cmp	r0, r1
	bhs	.LBB35_20
	b	.LBB35_19
.LBB35_19:                              @   in Loop: Header=BB35_1 Depth=1
	.loc	2 0 21                          @ ../../../../Library/StdDriver/src/i2c.c:0:21
	add	r1, sp, #16
	movs	r0, #12
.Ltmp249:
	.loc	2 1288 28 is_stmt 1             @ ../../../../Library/StdDriver/src/i2c.c:1288:28
	strb	r0, [r1]
	.loc	2 1289 17                       @ ../../../../Library/StdDriver/src/i2c.c:1289:17
	b	.LBB35_21
.Ltmp250:
.LBB35_20:                              @   in Loop: Header=BB35_1 Depth=1
	.loc	2 0 17 is_stmt 0                @ ../../../../Library/StdDriver/src/i2c.c:0:17
	add	r1, sp, #16
	movs	r0, #8
.Ltmp251:
	.loc	2 1292 28 is_stmt 1             @ ../../../../Library/StdDriver/src/i2c.c:1292:28
	strb	r0, [r1]
	b	.LBB35_21
.Ltmp252:
.LBB35_21:                              @   in Loop: Header=BB35_1 Depth=1
	.loc	2 1295 17                       @ ../../../../Library/StdDriver/src/i2c.c:1295:17
	b	.LBB35_25
.LBB35_22:                              @   in Loop: Header=BB35_1 Depth=1
	.loc	2 1298 47                       @ ../../../../Library/StdDriver/src/i2c.c:1298:47
	ldr	r0, [sp, #40]
	ldr	r0, [r0, #8]
	.loc	2 1298 17 is_stmt 0             @ ../../../../Library/StdDriver/src/i2c.c:1298:17
	ldr	r1, [sp, #32]
	.loc	2 1298 31                       @ ../../../../Library/StdDriver/src/i2c.c:1298:31
	ldr	r2, [sp, #12]
	adds	r3, r2, #1
	str	r3, [sp, #12]
	.loc	2 1298 35                       @ ../../../../Library/StdDriver/src/i2c.c:1298:35
	strb	r0, [r1, r2]
	add	r1, sp, #16
	movs	r0, #24
	.loc	2 1299 24 is_stmt 1             @ ../../../../Library/StdDriver/src/i2c.c:1299:24
	strb	r0, [r1]
	add	r1, sp, #24
	movs	r0, #0
	.loc	2 1300 27                       @ ../../../../Library/StdDriver/src/i2c.c:1300:27
	strb	r0, [r1]
	.loc	2 1301 17                       @ ../../../../Library/StdDriver/src/i2c.c:1301:17
	b	.LBB35_25
.LBB35_23:                              @   in Loop: Header=BB35_1 Depth=1
	.loc	2 1303 13                       @ ../../../../Library/StdDriver/src/i2c.c:1303:13
	b	.LBB35_24
.LBB35_24:                              @   in Loop: Header=BB35_1 Depth=1
	.loc	2 1305 17                       @ ../../../../Library/StdDriver/src/i2c.c:1305:17
	ldr	r0, [sp, #40]
	ldr	r0, [r0]
	movs	r1, #24
	orrs	r0, r1
	movs	r1, #36
	bics	r0, r1
	ldr	r1, [sp, #40]
	str	r0, [r1]
	add	r1, sp, #16
	movs	r0, #8
	.loc	2 1306 24                       @ ../../../../Library/StdDriver/src/i2c.c:1306:24
	strb	r0, [r1]
	add	r1, sp, #20
	movs	r0, #1
	.loc	2 1307 23                       @ ../../../../Library/StdDriver/src/i2c.c:1307:23
	strb	r0, [r1]
	.loc	2 1308 17                       @ ../../../../Library/StdDriver/src/i2c.c:1308:17
	b	.LBB35_25
.Ltmp253:
.LBB35_25:                              @   in Loop: Header=BB35_1 Depth=1
	.loc	2 1311 9                        @ ../../../../Library/StdDriver/src/i2c.c:1311:9
	ldr	r0, [sp, #40]
	ldr	r0, [r0]
	movs	r1, #60
	bics	r0, r1
	add	r1, sp, #16
	ldrb	r1, [r1]
	orrs	r0, r1
	ldr	r1, [sp, #40]
	str	r0, [r1]
.Ltmp254:
	.loc	2 1253 5                        @ ../../../../Library/StdDriver/src/i2c.c:1253:5
	b	.LBB35_1
.LBB35_26:
	.loc	2 1314 12                       @ ../../../../Library/StdDriver/src/i2c.c:1314:12
	ldr	r0, [sp, #12]
	.loc	2 1314 5 is_stmt 0              @ ../../../../Library/StdDriver/src/i2c.c:1314:5
	add	sp, #44
	pop	{r4, pc}
.Ltmp255:
	.p2align	2
@ %bb.27:
	.loc	2 0 5                           @ ../../../../Library/StdDriver/src/i2c.c:0:5
__arm_cp.35_0:
	.long	g_I2C_i32ErrCode
.Lcpi_end20:
	.size	__arm_cp.35_0, .Lcpi_end20-__arm_cp.35_0
__arm_cp.35_1:
	.long	SystemCoreClock
.Lcpi_end21:
	.size	__arm_cp.35_1, .Lcpi_end21-__arm_cp.35_1
.Lfunc_end35:
	.size	I2C_ReadMultiBytes, .Lfunc_end35-I2C_ReadMultiBytes
	.cfi_endproc
	.cantunwind
	.fnend
                                        @ -- End function
	.section	.text.I2C_ReadByteOneReg,"ax",%progbits
	.hidden	I2C_ReadByteOneReg              @ -- Begin function I2C_ReadByteOneReg
	.globl	I2C_ReadByteOneReg
	.p2align	2
	.type	I2C_ReadByteOneReg,%function
	.code	16                              @ @I2C_ReadByteOneReg
	.thumb_func
I2C_ReadByteOneReg:
.Lfunc_begin36:
	.loc	2 1333 0 is_stmt 1              @ ../../../../Library/StdDriver/src/i2c.c:1333:0
	.fnstart
	.cfi_startproc
@ %bb.0:
	.pad	#40
	sub	sp, #40
	.cfi_def_cfa_offset 40
                                        @ kill: def $r3 killed $r2
                                        @ kill: def $r3 killed $r1
	str	r0, [sp, #36]
	add	r0, sp, #32
	strb	r1, [r0]
	add	r0, sp, #28
	strb	r2, [r0]
	add	r1, sp, #24
	movs	r0, #1
.Ltmp256:
	.loc	2 1334 13 prologue_end          @ ../../../../Library/StdDriver/src/i2c.c:1334:13
	strb	r0, [r1]
	add	r1, sp, #20
	movs	r0, #0
	.loc	2 1334 29 is_stmt 0             @ ../../../../Library/StdDriver/src/i2c.c:1334:29
	strb	r0, [r1]
	add	r1, sp, #16
	.loc	2 1334 41                       @ ../../../../Library/StdDriver/src/i2c.c:1334:41
	strb	r0, [r1]
	add	r1, sp, #12
	.loc	2 1334 53                       @ ../../../../Library/StdDriver/src/i2c.c:1334:53
	strb	r0, [r1]
	.loc	2 1336 22 is_stmt 1             @ ../../../../Library/StdDriver/src/i2c.c:1336:22
	ldr	r1, __arm_cp.36_0
	str	r0, [r1]
	.loc	2 1337 5                        @ ../../../../Library/StdDriver/src/i2c.c:1337:5
	ldr	r0, [sp, #36]
	ldr	r0, [r0]
	movs	r1, #32
	orrs	r0, r1
	movs	r1, #8
	bics	r0, r1
	ldr	r1, [sp, #36]
	str	r0, [r1]
	.loc	2 1339 5                        @ ../../../../Library/StdDriver/src/i2c.c:1339:5
	b	.LBB36_1
.LBB36_1:                               @ =>This Loop Header: Depth=1
                                        @     Child Loop BB36_5 Depth 2
	.loc	2 0 5 is_stmt 0                 @ ../../../../Library/StdDriver/src/i2c.c:0:5
	add	r0, sp, #24
	.loc	2 1339 12                       @ ../../../../Library/StdDriver/src/i2c.c:1339:12
	ldrb	r1, [r0]
	movs	r0, #0
	.loc	2 1339 22                       @ ../../../../Library/StdDriver/src/i2c.c:1339:22
	str	r0, [sp, #4]                    @ 4-byte Spill
	cbz	r1, .LBB36_3
	b	.LBB36_2
.LBB36_2:                               @   in Loop: Header=BB36_1 Depth=1
	.loc	2 0 22                          @ ../../../../Library/StdDriver/src/i2c.c:0:22
	add	r0, sp, #20
	.loc	2 1339 26                       @ ../../../../Library/StdDriver/src/i2c.c:1339:26
	ldrb	r0, [r0]
	.loc	2 1339 32                       @ ../../../../Library/StdDriver/src/i2c.c:1339:32
	rsbs	r1, r0, #0
	adcs	r0, r1
	str	r0, [sp, #4]                    @ 4-byte Spill
	b	.LBB36_3
.LBB36_3:                               @   in Loop: Header=BB36_1 Depth=1
	.loc	2 0 0                           @ ../../../../Library/StdDriver/src/i2c.c:0:0
	ldr	r0, [sp, #4]                    @ 4-byte Reload
	.loc	2 1339 5                        @ ../../../../Library/StdDriver/src/i2c.c:1339:5
	lsls	r0, r0, #31
	cbnz	r0, .LBB36_4
	b	.LBB36_23
.LBB36_4:                               @   in Loop: Header=BB36_1 Depth=1
.Ltmp257:
	.loc	2 1341 36 is_stmt 1             @ ../../../../Library/StdDriver/src/i2c.c:1341:36
	ldr	r0, __arm_cp.36_1
	ldr	r0, [r0]
	.loc	2 1341 18 is_stmt 0             @ ../../../../Library/StdDriver/src/i2c.c:1341:18
	str	r0, [sp, #8]
	.loc	2 1342 9 is_stmt 1              @ ../../../../Library/StdDriver/src/i2c.c:1342:9
	b	.LBB36_5
.LBB36_5:                               @   Parent Loop BB36_1 Depth=1
                                        @ =>  This Inner Loop Header: Depth=2
	ldr	r0, [sp, #36]
	ldr	r0, [r0]
	lsls	r0, r0, #28
	cmp	r0, #0
	bmi	.LBB36_9
	b	.LBB36_6
.LBB36_6:                               @   in Loop: Header=BB36_5 Depth=2
.Ltmp258:
	.loc	2 1344 28                       @ ../../../../Library/StdDriver/src/i2c.c:1344:28
	ldr	r0, [sp, #8]
	subs	r0, r0, #1
	str	r0, [sp, #8]
.Ltmp259:
	.loc	2 1346 17                       @ ../../../../Library/StdDriver/src/i2c.c:1346:17
	ldr	r0, [sp, #8]
.Ltmp260:
	.loc	2 1346 17 is_stmt 0             @ ../../../../Library/StdDriver/src/i2c.c:1346:17
	cbnz	r0, .LBB36_8
	b	.LBB36_7
.LBB36_7:                               @   in Loop: Header=BB36_1 Depth=1
.Ltmp261:
	.loc	2 1348 34 is_stmt 1             @ ../../../../Library/StdDriver/src/i2c.c:1348:34
	ldr	r1, __arm_cp.36_0
	movs	r0, #0
	mvns	r0, r0
	str	r0, [r1]
	.loc	2 1349 17                       @ ../../../../Library/StdDriver/src/i2c.c:1349:17
	b	.LBB36_9
.Ltmp262:
.LBB36_8:                               @   in Loop: Header=BB36_5 Depth=2
	.loc	2 1342 9                        @ ../../../../Library/StdDriver/src/i2c.c:1342:9
	b	.LBB36_5
.LBB36_9:                               @   in Loop: Header=BB36_1 Depth=1
	.loc	2 1353 17                       @ ../../../../Library/StdDriver/src/i2c.c:1353:17
	ldr	r0, [sp, #36]
	ldr	r0, [r0, #12]
	.loc	2 1353 9 is_stmt 0              @ ../../../../Library/StdDriver/src/i2c.c:1353:9
	subs	r0, #8
	str	r0, [sp]                        @ 4-byte Spill
	cmp	r0, #80
	bls	.LBB36_10
	b	.LBB36_21
.LBB36_10:                              @   in Loop: Header=BB36_1 Depth=1
	.loc	2 0 9                           @ ../../../../Library/StdDriver/src/i2c.c:0:9
	ldr	r1, [sp]                        @ 4-byte Reload
	lsls	r2, r1, #2
	adr	r0, .LJTI36_0
	adds	r0, r0, r2
	mov	pc, r0
@ %bb.11:
	.p2align	2
.LJTI36_0:
	b.w	.LBB36_12
	b.w	.LBB36_21
	b.w	.LBB36_21
	b.w	.LBB36_21
	b.w	.LBB36_21
	b.w	.LBB36_21
	b.w	.LBB36_21
	b.w	.LBB36_21
	b.w	.LBB36_16
	b.w	.LBB36_21
	b.w	.LBB36_21
	b.w	.LBB36_21
	b.w	.LBB36_21
	b.w	.LBB36_21
	b.w	.LBB36_21
	b.w	.LBB36_21
	b.w	.LBB36_13
	b.w	.LBB36_21
	b.w	.LBB36_21
	b.w	.LBB36_21
	b.w	.LBB36_21
	b.w	.LBB36_21
	b.w	.LBB36_21
	b.w	.LBB36_21
	b.w	.LBB36_14
	b.w	.LBB36_21
	b.w	.LBB36_21
	b.w	.LBB36_21
	b.w	.LBB36_21
	b.w	.LBB36_21
	b.w	.LBB36_21
	b.w	.LBB36_21
	b.w	.LBB36_15
	b.w	.LBB36_21
	b.w	.LBB36_21
	b.w	.LBB36_21
	b.w	.LBB36_21
	b.w	.LBB36_21
	b.w	.LBB36_21
	b.w	.LBB36_21
	b.w	.LBB36_14
	b.w	.LBB36_21
	b.w	.LBB36_21
	b.w	.LBB36_21
	b.w	.LBB36_21
	b.w	.LBB36_21
	b.w	.LBB36_21
	b.w	.LBB36_21
	b.w	.LBB36_20
	b.w	.LBB36_21
	b.w	.LBB36_21
	b.w	.LBB36_21
	b.w	.LBB36_21
	b.w	.LBB36_21
	b.w	.LBB36_21
	b.w	.LBB36_21
	b.w	.LBB36_17
	b.w	.LBB36_21
	b.w	.LBB36_21
	b.w	.LBB36_21
	b.w	.LBB36_21
	b.w	.LBB36_21
	b.w	.LBB36_21
	b.w	.LBB36_21
	b.w	.LBB36_18
	b.w	.LBB36_21
	b.w	.LBB36_21
	b.w	.LBB36_21
	b.w	.LBB36_21
	b.w	.LBB36_21
	b.w	.LBB36_21
	b.w	.LBB36_21
	b.w	.LBB36_21
	b.w	.LBB36_21
	b.w	.LBB36_21
	b.w	.LBB36_21
	b.w	.LBB36_21
	b.w	.LBB36_21
	b.w	.LBB36_21
	b.w	.LBB36_21
	b.w	.LBB36_19
.LBB36_12:                              @   in Loop: Header=BB36_1 Depth=1
.Ltmp263:
	.loc	2 1356 17 is_stmt 1             @ ../../../../Library/StdDriver/src/i2c.c:1356:17
	ldr	r0, [sp, #32]
	lsls	r0, r0, #25
	lsrs	r0, r0, #24
	ldr	r1, [sp, #36]
	str	r0, [r1, #8]
	add	r1, sp, #12
	movs	r0, #8
	.loc	2 1357 24                       @ ../../../../Library/StdDriver/src/i2c.c:1357:24
	strb	r0, [r1]
	.loc	2 1358 17                       @ ../../../../Library/StdDriver/src/i2c.c:1358:17
	b	.LBB36_22
.LBB36_13:                              @   in Loop: Header=BB36_1 Depth=1
	.loc	2 0 17 is_stmt 0                @ ../../../../Library/StdDriver/src/i2c.c:0:17
	add	r0, sp, #28
	.loc	2 1361 17 is_stmt 1             @ ../../../../Library/StdDriver/src/i2c.c:1361:17
	ldrb	r0, [r0]
	ldr	r1, [sp, #36]
	str	r0, [r1, #8]
	.loc	2 1362 17                       @ ../../../../Library/StdDriver/src/i2c.c:1362:17
	b	.LBB36_22
.LBB36_14:                              @   in Loop: Header=BB36_1 Depth=1
	.loc	2 0 17 is_stmt 0                @ ../../../../Library/StdDriver/src/i2c.c:0:17
	add	r1, sp, #12
	movs	r0, #24
	.loc	2 1366 24 is_stmt 1             @ ../../../../Library/StdDriver/src/i2c.c:1366:24
	strb	r0, [r1]
	add	r1, sp, #20
	movs	r0, #1
	.loc	2 1367 23                       @ ../../../../Library/StdDriver/src/i2c.c:1367:23
	strb	r0, [r1]
	.loc	2 1368 17                       @ ../../../../Library/StdDriver/src/i2c.c:1368:17
	b	.LBB36_22
.LBB36_15:                              @   in Loop: Header=BB36_1 Depth=1
	.loc	2 0 17 is_stmt 0                @ ../../../../Library/StdDriver/src/i2c.c:0:17
	add	r1, sp, #12
	movs	r0, #40
	.loc	2 1371 24 is_stmt 1             @ ../../../../Library/StdDriver/src/i2c.c:1371:24
	strb	r0, [r1]
	.loc	2 1372 17                       @ ../../../../Library/StdDriver/src/i2c.c:1372:17
	b	.LBB36_22
.LBB36_16:                              @   in Loop: Header=BB36_1 Depth=1
	.loc	2 1375 17                       @ ../../../../Library/StdDriver/src/i2c.c:1375:17
	ldr	r0, [sp, #32]
	lsls	r0, r0, #1
	adds	r0, r0, #1
	uxtb	r0, r0
	ldr	r1, [sp, #36]
	str	r0, [r1, #8]
	add	r1, sp, #12
	movs	r0, #8
	.loc	2 1376 24                       @ ../../../../Library/StdDriver/src/i2c.c:1376:24
	strb	r0, [r1]
	.loc	2 1377 17                       @ ../../../../Library/StdDriver/src/i2c.c:1377:17
	b	.LBB36_22
.LBB36_17:                              @   in Loop: Header=BB36_1 Depth=1
	.loc	2 0 17 is_stmt 0                @ ../../../../Library/StdDriver/src/i2c.c:0:17
	add	r1, sp, #12
	movs	r0, #8
	.loc	2 1380 24 is_stmt 1             @ ../../../../Library/StdDriver/src/i2c.c:1380:24
	strb	r0, [r1]
	.loc	2 1381 17                       @ ../../../../Library/StdDriver/src/i2c.c:1381:17
	b	.LBB36_22
.LBB36_18:                              @   in Loop: Header=BB36_1 Depth=1
	.loc	2 0 17 is_stmt 0                @ ../../../../Library/StdDriver/src/i2c.c:0:17
	add	r1, sp, #12
	movs	r0, #24
	.loc	2 1384 24 is_stmt 1             @ ../../../../Library/StdDriver/src/i2c.c:1384:24
	strb	r0, [r1]
	add	r1, sp, #20
	movs	r0, #1
	.loc	2 1385 23                       @ ../../../../Library/StdDriver/src/i2c.c:1385:23
	strb	r0, [r1]
	.loc	2 1386 17                       @ ../../../../Library/StdDriver/src/i2c.c:1386:17
	b	.LBB36_22
.LBB36_19:                              @   in Loop: Header=BB36_1 Depth=1
	.loc	2 1389 35                       @ ../../../../Library/StdDriver/src/i2c.c:1389:35
	ldr	r0, [sp, #36]
	ldr	r0, [r0, #8]
	add	r1, sp, #16
	.loc	2 1389 23 is_stmt 0             @ ../../../../Library/StdDriver/src/i2c.c:1389:23
	strb	r0, [r1]
	add	r1, sp, #12
	movs	r0, #24
	.loc	2 1390 24 is_stmt 1             @ ../../../../Library/StdDriver/src/i2c.c:1390:24
	strb	r0, [r1]
	add	r1, sp, #24
	movs	r0, #0
	.loc	2 1391 27                       @ ../../../../Library/StdDriver/src/i2c.c:1391:27
	strb	r0, [r1]
	.loc	2 1392 17                       @ ../../../../Library/StdDriver/src/i2c.c:1392:17
	b	.LBB36_22
.LBB36_20:                              @   in Loop: Header=BB36_1 Depth=1
	.loc	2 1394 13                       @ ../../../../Library/StdDriver/src/i2c.c:1394:13
	b	.LBB36_21
.LBB36_21:                              @   in Loop: Header=BB36_1 Depth=1
	.loc	2 1396 17                       @ ../../../../Library/StdDriver/src/i2c.c:1396:17
	ldr	r0, [sp, #36]
	ldr	r0, [r0]
	movs	r1, #24
	orrs	r0, r1
	movs	r1, #36
	bics	r0, r1
	ldr	r1, [sp, #36]
	str	r0, [r1]
	add	r1, sp, #12
	movs	r0, #8
	.loc	2 1397 24                       @ ../../../../Library/StdDriver/src/i2c.c:1397:24
	strb	r0, [r1]
	add	r1, sp, #20
	movs	r0, #1
	.loc	2 1398 23                       @ ../../../../Library/StdDriver/src/i2c.c:1398:23
	strb	r0, [r1]
	.loc	2 1399 17                       @ ../../../../Library/StdDriver/src/i2c.c:1399:17
	b	.LBB36_22
.Ltmp264:
.LBB36_22:                              @   in Loop: Header=BB36_1 Depth=1
	.loc	2 1402 9                        @ ../../../../Library/StdDriver/src/i2c.c:1402:9
	ldr	r0, [sp, #36]
	ldr	r0, [r0]
	movs	r1, #60
	bics	r0, r1
	add	r1, sp, #12
	ldrb	r1, [r1]
	orrs	r0, r1
	ldr	r1, [sp, #36]
	str	r0, [r1]
.Ltmp265:
	.loc	2 1339 5                        @ ../../../../Library/StdDriver/src/i2c.c:1339:5
	b	.LBB36_1
.LBB36_23:
	.loc	2 0 5 is_stmt 0                 @ ../../../../Library/StdDriver/src/i2c.c:0:5
	add	r0, sp, #20
.Ltmp266:
	.loc	2 1405 9 is_stmt 1              @ ../../../../Library/StdDriver/src/i2c.c:1405:9
	ldrb	r0, [r0]
.Ltmp267:
	.loc	2 1405 9 is_stmt 0              @ ../../../../Library/StdDriver/src/i2c.c:1405:9
	cbz	r0, .LBB36_25
	b	.LBB36_24
.LBB36_24:
	.loc	2 0 9                           @ ../../../../Library/StdDriver/src/i2c.c:0:9
	add	r1, sp, #16
	movs	r0, #0
.Ltmp268:
	.loc	2 1407 15 is_stmt 1             @ ../../../../Library/StdDriver/src/i2c.c:1407:15
	strb	r0, [r1]
	.loc	2 1408 5                        @ ../../../../Library/StdDriver/src/i2c.c:1408:5
	b	.LBB36_25
.Ltmp269:
.LBB36_25:
	.loc	2 0 5 is_stmt 0                 @ ../../../../Library/StdDriver/src/i2c.c:0:5
	add	r0, sp, #16
	.loc	2 1410 12 is_stmt 1             @ ../../../../Library/StdDriver/src/i2c.c:1410:12
	ldrb	r0, [r0]
	.loc	2 1410 5 is_stmt 0              @ ../../../../Library/StdDriver/src/i2c.c:1410:5
	add	sp, #40
	bx	lr
.Ltmp270:
	.p2align	2
@ %bb.26:
	.loc	2 0 5                           @ ../../../../Library/StdDriver/src/i2c.c:0:5
__arm_cp.36_0:
	.long	g_I2C_i32ErrCode
.Lcpi_end22:
	.size	__arm_cp.36_0, .Lcpi_end22-__arm_cp.36_0
__arm_cp.36_1:
	.long	SystemCoreClock
.Lcpi_end23:
	.size	__arm_cp.36_1, .Lcpi_end23-__arm_cp.36_1
.Lfunc_end36:
	.size	I2C_ReadByteOneReg, .Lfunc_end36-I2C_ReadByteOneReg
	.cfi_endproc
	.cantunwind
	.fnend
                                        @ -- End function
	.section	.text.I2C_ReadMultiBytesOneReg,"ax",%progbits
	.hidden	I2C_ReadMultiBytesOneReg        @ -- Begin function I2C_ReadMultiBytesOneReg
	.globl	I2C_ReadMultiBytesOneReg
	.p2align	2
	.type	I2C_ReadMultiBytesOneReg,%function
	.code	16                              @ @I2C_ReadMultiBytesOneReg
	.thumb_func
I2C_ReadMultiBytesOneReg:
.Lfunc_begin37:
	.loc	2 1430 0 is_stmt 1              @ ../../../../Library/StdDriver/src/i2c.c:1430:0
	.fnstart
	.cfi_startproc
@ %bb.0:
	.save	{r4, lr}
	push	{r4, lr}
	.cfi_def_cfa_offset 8
	.cfi_offset lr, -4
	.cfi_offset r4, -8
	.pad	#44
	sub	sp, #44
	.cfi_def_cfa_offset 52
	ldr	r4, [sp, #52]
                                        @ kill: def $r4 killed $r2
                                        @ kill: def $r4 killed $r1
	str	r0, [sp, #40]
	add	r0, sp, #36
	strb	r1, [r0]
	add	r0, sp, #32
	strb	r2, [r0]
	str	r3, [sp, #28]
	add	r1, sp, #24
	movs	r0, #1
.Ltmp271:
	.loc	2 1431 13 prologue_end          @ ../../../../Library/StdDriver/src/i2c.c:1431:13
	strb	r0, [r1]
	add	r1, sp, #20
	movs	r0, #0
	.loc	2 1431 29 is_stmt 0             @ ../../../../Library/StdDriver/src/i2c.c:1431:29
	strb	r0, [r1]
	add	r1, sp, #16
	.loc	2 1431 41                       @ ../../../../Library/StdDriver/src/i2c.c:1431:41
	strb	r0, [r1]
	.loc	2 1432 14 is_stmt 1             @ ../../../../Library/StdDriver/src/i2c.c:1432:14
	str	r0, [sp, #12]
	.loc	2 1434 22                       @ ../../../../Library/StdDriver/src/i2c.c:1434:22
	ldr	r1, __arm_cp.37_0
	str	r0, [r1]
	.loc	2 1435 5                        @ ../../../../Library/StdDriver/src/i2c.c:1435:5
	ldr	r0, [sp, #40]
	ldr	r0, [r0]
	movs	r1, #32
	orrs	r0, r1
	movs	r1, #8
	bics	r0, r1
	ldr	r1, [sp, #40]
	str	r0, [r1]
	.loc	2 1437 5                        @ ../../../../Library/StdDriver/src/i2c.c:1437:5
	b	.LBB37_1
.LBB37_1:                               @ =>This Loop Header: Depth=1
                                        @     Child Loop BB37_5 Depth 2
	.loc	2 0 5 is_stmt 0                 @ ../../../../Library/StdDriver/src/i2c.c:0:5
	add	r0, sp, #24
	.loc	2 1437 12                       @ ../../../../Library/StdDriver/src/i2c.c:1437:12
	ldrb	r1, [r0]
	movs	r0, #0
	.loc	2 1437 22                       @ ../../../../Library/StdDriver/src/i2c.c:1437:22
	str	r0, [sp, #4]                    @ 4-byte Spill
	cbz	r1, .LBB37_3
	b	.LBB37_2
.LBB37_2:                               @   in Loop: Header=BB37_1 Depth=1
	.loc	2 0 22                          @ ../../../../Library/StdDriver/src/i2c.c:0:22
	add	r0, sp, #20
	.loc	2 1437 26                       @ ../../../../Library/StdDriver/src/i2c.c:1437:26
	ldrb	r0, [r0]
	.loc	2 1437 32                       @ ../../../../Library/StdDriver/src/i2c.c:1437:32
	rsbs	r1, r0, #0
	adcs	r0, r1
	str	r0, [sp, #4]                    @ 4-byte Spill
	b	.LBB37_3
.LBB37_3:                               @   in Loop: Header=BB37_1 Depth=1
	.loc	2 0 0                           @ ../../../../Library/StdDriver/src/i2c.c:0:0
	ldr	r0, [sp, #4]                    @ 4-byte Reload
	.loc	2 1437 5                        @ ../../../../Library/StdDriver/src/i2c.c:1437:5
	lsls	r0, r0, #31
	cbnz	r0, .LBB37_4
	b	.LBB37_27
.LBB37_4:                               @   in Loop: Header=BB37_1 Depth=1
.Ltmp272:
	.loc	2 1439 36 is_stmt 1             @ ../../../../Library/StdDriver/src/i2c.c:1439:36
	ldr	r0, __arm_cp.37_1
	ldr	r0, [r0]
	.loc	2 1439 18 is_stmt 0             @ ../../../../Library/StdDriver/src/i2c.c:1439:18
	str	r0, [sp, #8]
	.loc	2 1440 9 is_stmt 1              @ ../../../../Library/StdDriver/src/i2c.c:1440:9
	b	.LBB37_5
.LBB37_5:                               @   Parent Loop BB37_1 Depth=1
                                        @ =>  This Inner Loop Header: Depth=2
	ldr	r0, [sp, #40]
	ldr	r0, [r0]
	lsls	r0, r0, #28
	cmp	r0, #0
	bmi	.LBB37_9
	b	.LBB37_6
.LBB37_6:                               @   in Loop: Header=BB37_5 Depth=2
.Ltmp273:
	.loc	2 1442 28                       @ ../../../../Library/StdDriver/src/i2c.c:1442:28
	ldr	r0, [sp, #8]
	subs	r0, r0, #1
	str	r0, [sp, #8]
.Ltmp274:
	.loc	2 1444 17                       @ ../../../../Library/StdDriver/src/i2c.c:1444:17
	ldr	r0, [sp, #8]
.Ltmp275:
	.loc	2 1444 17 is_stmt 0             @ ../../../../Library/StdDriver/src/i2c.c:1444:17
	cbnz	r0, .LBB37_8
	b	.LBB37_7
.LBB37_7:                               @   in Loop: Header=BB37_1 Depth=1
.Ltmp276:
	.loc	2 1446 34 is_stmt 1             @ ../../../../Library/StdDriver/src/i2c.c:1446:34
	ldr	r1, __arm_cp.37_0
	movs	r0, #0
	mvns	r0, r0
	str	r0, [r1]
	.loc	2 1447 17                       @ ../../../../Library/StdDriver/src/i2c.c:1447:17
	b	.LBB37_9
.Ltmp277:
.LBB37_8:                               @   in Loop: Header=BB37_5 Depth=2
	.loc	2 1440 9                        @ ../../../../Library/StdDriver/src/i2c.c:1440:9
	b	.LBB37_5
.LBB37_9:                               @   in Loop: Header=BB37_1 Depth=1
	.loc	2 1451 17                       @ ../../../../Library/StdDriver/src/i2c.c:1451:17
	ldr	r0, [sp, #40]
	ldr	r0, [r0, #12]
	.loc	2 1451 9 is_stmt 0              @ ../../../../Library/StdDriver/src/i2c.c:1451:9
	subs	r0, #8
	str	r0, [sp]                        @ 4-byte Spill
	cmp	r0, #80
	bls	.LBB37_10
	b	.LBB37_25
.LBB37_10:                              @   in Loop: Header=BB37_1 Depth=1
	.loc	2 0 9                           @ ../../../../Library/StdDriver/src/i2c.c:0:9
	ldr	r1, [sp]                        @ 4-byte Reload
	lsls	r2, r1, #2
	adr	r0, .LJTI37_0
	adds	r0, r0, r2
	mov	pc, r0
@ %bb.11:
	.p2align	2
.LJTI37_0:
	b.w	.LBB37_12
	b.w	.LBB37_25
	b.w	.LBB37_25
	b.w	.LBB37_25
	b.w	.LBB37_25
	b.w	.LBB37_25
	b.w	.LBB37_25
	b.w	.LBB37_25
	b.w	.LBB37_16
	b.w	.LBB37_25
	b.w	.LBB37_25
	b.w	.LBB37_25
	b.w	.LBB37_25
	b.w	.LBB37_25
	b.w	.LBB37_25
	b.w	.LBB37_25
	b.w	.LBB37_13
	b.w	.LBB37_25
	b.w	.LBB37_25
	b.w	.LBB37_25
	b.w	.LBB37_25
	b.w	.LBB37_25
	b.w	.LBB37_25
	b.w	.LBB37_25
	b.w	.LBB37_14
	b.w	.LBB37_25
	b.w	.LBB37_25
	b.w	.LBB37_25
	b.w	.LBB37_25
	b.w	.LBB37_25
	b.w	.LBB37_25
	b.w	.LBB37_25
	b.w	.LBB37_15
	b.w	.LBB37_25
	b.w	.LBB37_25
	b.w	.LBB37_25
	b.w	.LBB37_25
	b.w	.LBB37_25
	b.w	.LBB37_25
	b.w	.LBB37_25
	b.w	.LBB37_14
	b.w	.LBB37_25
	b.w	.LBB37_25
	b.w	.LBB37_25
	b.w	.LBB37_25
	b.w	.LBB37_25
	b.w	.LBB37_25
	b.w	.LBB37_25
	b.w	.LBB37_24
	b.w	.LBB37_25
	b.w	.LBB37_25
	b.w	.LBB37_25
	b.w	.LBB37_25
	b.w	.LBB37_25
	b.w	.LBB37_25
	b.w	.LBB37_25
	b.w	.LBB37_17
	b.w	.LBB37_25
	b.w	.LBB37_25
	b.w	.LBB37_25
	b.w	.LBB37_25
	b.w	.LBB37_25
	b.w	.LBB37_25
	b.w	.LBB37_25
	b.w	.LBB37_18
	b.w	.LBB37_25
	b.w	.LBB37_25
	b.w	.LBB37_25
	b.w	.LBB37_25
	b.w	.LBB37_25
	b.w	.LBB37_25
	b.w	.LBB37_25
	b.w	.LBB37_19
	b.w	.LBB37_25
	b.w	.LBB37_25
	b.w	.LBB37_25
	b.w	.LBB37_25
	b.w	.LBB37_25
	b.w	.LBB37_25
	b.w	.LBB37_25
	b.w	.LBB37_23
.LBB37_12:                              @   in Loop: Header=BB37_1 Depth=1
.Ltmp278:
	.loc	2 1454 17 is_stmt 1             @ ../../../../Library/StdDriver/src/i2c.c:1454:17
	ldr	r0, [sp, #36]
	lsls	r0, r0, #25
	lsrs	r0, r0, #24
	ldr	r1, [sp, #40]
	str	r0, [r1, #8]
	add	r1, sp, #16
	movs	r0, #8
	.loc	2 1455 24                       @ ../../../../Library/StdDriver/src/i2c.c:1455:24
	strb	r0, [r1]
	.loc	2 1456 17                       @ ../../../../Library/StdDriver/src/i2c.c:1456:17
	b	.LBB37_26
.LBB37_13:                              @   in Loop: Header=BB37_1 Depth=1
	.loc	2 0 17 is_stmt 0                @ ../../../../Library/StdDriver/src/i2c.c:0:17
	add	r0, sp, #32
	.loc	2 1459 17 is_stmt 1             @ ../../../../Library/StdDriver/src/i2c.c:1459:17
	ldrb	r0, [r0]
	ldr	r1, [sp, #40]
	str	r0, [r1, #8]
	.loc	2 1460 17                       @ ../../../../Library/StdDriver/src/i2c.c:1460:17
	b	.LBB37_26
.LBB37_14:                              @   in Loop: Header=BB37_1 Depth=1
	.loc	2 0 17 is_stmt 0                @ ../../../../Library/StdDriver/src/i2c.c:0:17
	add	r1, sp, #16
	movs	r0, #24
	.loc	2 1464 24 is_stmt 1             @ ../../../../Library/StdDriver/src/i2c.c:1464:24
	strb	r0, [r1]
	add	r1, sp, #20
	movs	r0, #1
	.loc	2 1465 23                       @ ../../../../Library/StdDriver/src/i2c.c:1465:23
	strb	r0, [r1]
	.loc	2 1466 17                       @ ../../../../Library/StdDriver/src/i2c.c:1466:17
	b	.LBB37_26
.LBB37_15:                              @   in Loop: Header=BB37_1 Depth=1
	.loc	2 0 17 is_stmt 0                @ ../../../../Library/StdDriver/src/i2c.c:0:17
	add	r1, sp, #16
	movs	r0, #40
	.loc	2 1469 24 is_stmt 1             @ ../../../../Library/StdDriver/src/i2c.c:1469:24
	strb	r0, [r1]
	.loc	2 1470 17                       @ ../../../../Library/StdDriver/src/i2c.c:1470:17
	b	.LBB37_26
.LBB37_16:                              @   in Loop: Header=BB37_1 Depth=1
	.loc	2 1473 17                       @ ../../../../Library/StdDriver/src/i2c.c:1473:17
	ldr	r0, [sp, #36]
	lsls	r0, r0, #1
	adds	r0, r0, #1
	uxtb	r0, r0
	ldr	r1, [sp, #40]
	str	r0, [r1, #8]
	add	r1, sp, #16
	movs	r0, #8
	.loc	2 1474 24                       @ ../../../../Library/StdDriver/src/i2c.c:1474:24
	strb	r0, [r1]
	.loc	2 1475 17                       @ ../../../../Library/StdDriver/src/i2c.c:1475:17
	b	.LBB37_26
.LBB37_17:                              @   in Loop: Header=BB37_1 Depth=1
	.loc	2 0 17 is_stmt 0                @ ../../../../Library/StdDriver/src/i2c.c:0:17
	add	r1, sp, #16
	movs	r0, #12
	.loc	2 1478 24 is_stmt 1             @ ../../../../Library/StdDriver/src/i2c.c:1478:24
	strb	r0, [r1]
	.loc	2 1479 17                       @ ../../../../Library/StdDriver/src/i2c.c:1479:17
	b	.LBB37_26
.LBB37_18:                              @   in Loop: Header=BB37_1 Depth=1
	.loc	2 0 17 is_stmt 0                @ ../../../../Library/StdDriver/src/i2c.c:0:17
	add	r1, sp, #16
	movs	r0, #24
	.loc	2 1482 24 is_stmt 1             @ ../../../../Library/StdDriver/src/i2c.c:1482:24
	strb	r0, [r1]
	add	r1, sp, #20
	movs	r0, #1
	.loc	2 1483 23                       @ ../../../../Library/StdDriver/src/i2c.c:1483:23
	strb	r0, [r1]
	.loc	2 1484 17                       @ ../../../../Library/StdDriver/src/i2c.c:1484:17
	b	.LBB37_26
.LBB37_19:                              @   in Loop: Header=BB37_1 Depth=1
	.loc	2 1487 47                       @ ../../../../Library/StdDriver/src/i2c.c:1487:47
	ldr	r0, [sp, #40]
	ldr	r0, [r0, #8]
	.loc	2 1487 17 is_stmt 0             @ ../../../../Library/StdDriver/src/i2c.c:1487:17
	ldr	r1, [sp, #28]
	.loc	2 1487 31                       @ ../../../../Library/StdDriver/src/i2c.c:1487:31
	ldr	r2, [sp, #12]
	adds	r3, r2, #1
	str	r3, [sp, #12]
	.loc	2 1487 35                       @ ../../../../Library/StdDriver/src/i2c.c:1487:35
	strb	r0, [r1, r2]
.Ltmp279:
	.loc	2 1489 21 is_stmt 1             @ ../../../../Library/StdDriver/src/i2c.c:1489:21
	ldr	r0, [sp, #12]
	.loc	2 1489 33 is_stmt 0             @ ../../../../Library/StdDriver/src/i2c.c:1489:33
	ldr	r1, [sp, #52]
	.loc	2 1489 41                       @ ../../../../Library/StdDriver/src/i2c.c:1489:41
	subs	r1, r1, #1
.Ltmp280:
	.loc	2 1489 21                       @ ../../../../Library/StdDriver/src/i2c.c:1489:21
	cmp	r0, r1
	bhs	.LBB37_21
	b	.LBB37_20
.LBB37_20:                              @   in Loop: Header=BB37_1 Depth=1
	.loc	2 0 21                          @ ../../../../Library/StdDriver/src/i2c.c:0:21
	add	r1, sp, #16
	movs	r0, #12
.Ltmp281:
	.loc	2 1491 28 is_stmt 1             @ ../../../../Library/StdDriver/src/i2c.c:1491:28
	strb	r0, [r1]
	.loc	2 1492 17                       @ ../../../../Library/StdDriver/src/i2c.c:1492:17
	b	.LBB37_22
.Ltmp282:
.LBB37_21:                              @   in Loop: Header=BB37_1 Depth=1
	.loc	2 0 17 is_stmt 0                @ ../../../../Library/StdDriver/src/i2c.c:0:17
	add	r1, sp, #16
	movs	r0, #8
.Ltmp283:
	.loc	2 1495 28 is_stmt 1             @ ../../../../Library/StdDriver/src/i2c.c:1495:28
	strb	r0, [r1]
	b	.LBB37_22
.Ltmp284:
.LBB37_22:                              @   in Loop: Header=BB37_1 Depth=1
	.loc	2 1498 17                       @ ../../../../Library/StdDriver/src/i2c.c:1498:17
	b	.LBB37_26
.LBB37_23:                              @   in Loop: Header=BB37_1 Depth=1
	.loc	2 1501 47                       @ ../../../../Library/StdDriver/src/i2c.c:1501:47
	ldr	r0, [sp, #40]
	ldr	r0, [r0, #8]
	.loc	2 1501 17 is_stmt 0             @ ../../../../Library/StdDriver/src/i2c.c:1501:17
	ldr	r1, [sp, #28]
	.loc	2 1501 31                       @ ../../../../Library/StdDriver/src/i2c.c:1501:31
	ldr	r2, [sp, #12]
	adds	r3, r2, #1
	str	r3, [sp, #12]
	.loc	2 1501 35                       @ ../../../../Library/StdDriver/src/i2c.c:1501:35
	strb	r0, [r1, r2]
	add	r1, sp, #16
	movs	r0, #24
	.loc	2 1502 24 is_stmt 1             @ ../../../../Library/StdDriver/src/i2c.c:1502:24
	strb	r0, [r1]
	add	r1, sp, #24
	movs	r0, #0
	.loc	2 1503 27                       @ ../../../../Library/StdDriver/src/i2c.c:1503:27
	strb	r0, [r1]
	.loc	2 1504 17                       @ ../../../../Library/StdDriver/src/i2c.c:1504:17
	b	.LBB37_26
.LBB37_24:                              @   in Loop: Header=BB37_1 Depth=1
	.loc	2 1506 13                       @ ../../../../Library/StdDriver/src/i2c.c:1506:13
	b	.LBB37_25
.LBB37_25:                              @   in Loop: Header=BB37_1 Depth=1
	.loc	2 1508 17                       @ ../../../../Library/StdDriver/src/i2c.c:1508:17
	ldr	r0, [sp, #40]
	ldr	r0, [r0]
	movs	r1, #24
	orrs	r0, r1
	movs	r1, #36
	bics	r0, r1
	ldr	r1, [sp, #40]
	str	r0, [r1]
	add	r1, sp, #16
	movs	r0, #8
	.loc	2 1509 24                       @ ../../../../Library/StdDriver/src/i2c.c:1509:24
	strb	r0, [r1]
	add	r1, sp, #20
	movs	r0, #1
	.loc	2 1510 23                       @ ../../../../Library/StdDriver/src/i2c.c:1510:23
	strb	r0, [r1]
	.loc	2 1511 17                       @ ../../../../Library/StdDriver/src/i2c.c:1511:17
	b	.LBB37_26
.Ltmp285:
.LBB37_26:                              @   in Loop: Header=BB37_1 Depth=1
	.loc	2 1514 9                        @ ../../../../Library/StdDriver/src/i2c.c:1514:9
	ldr	r0, [sp, #40]
	ldr	r0, [r0]
	movs	r1, #60
	bics	r0, r1
	add	r1, sp, #16
	ldrb	r1, [r1]
	orrs	r0, r1
	ldr	r1, [sp, #40]
	str	r0, [r1]
.Ltmp286:
	.loc	2 1437 5                        @ ../../../../Library/StdDriver/src/i2c.c:1437:5
	b	.LBB37_1
.LBB37_27:
	.loc	2 1517 12                       @ ../../../../Library/StdDriver/src/i2c.c:1517:12
	ldr	r0, [sp, #12]
	.loc	2 1517 5 is_stmt 0              @ ../../../../Library/StdDriver/src/i2c.c:1517:5
	add	sp, #44
	pop	{r4, pc}
.Ltmp287:
	.p2align	2
@ %bb.28:
	.loc	2 0 5                           @ ../../../../Library/StdDriver/src/i2c.c:0:5
__arm_cp.37_0:
	.long	g_I2C_i32ErrCode
.Lcpi_end24:
	.size	__arm_cp.37_0, .Lcpi_end24-__arm_cp.37_0
__arm_cp.37_1:
	.long	SystemCoreClock
.Lcpi_end25:
	.size	__arm_cp.37_1, .Lcpi_end25-__arm_cp.37_1
.Lfunc_end37:
	.size	I2C_ReadMultiBytesOneReg, .Lfunc_end37-I2C_ReadMultiBytesOneReg
	.cfi_endproc
	.cantunwind
	.fnend
                                        @ -- End function
	.section	.text.I2C_ReadByteTwoRegs,"ax",%progbits
	.hidden	I2C_ReadByteTwoRegs             @ -- Begin function I2C_ReadByteTwoRegs
	.globl	I2C_ReadByteTwoRegs
	.p2align	2
	.type	I2C_ReadByteTwoRegs,%function
	.code	16                              @ @I2C_ReadByteTwoRegs
	.thumb_func
I2C_ReadByteTwoRegs:
.Lfunc_begin38:
	.loc	2 1535 0 is_stmt 1              @ ../../../../Library/StdDriver/src/i2c.c:1535:0
	.fnstart
	.cfi_startproc
@ %bb.0:
	.pad	#44
	sub	sp, #44
	.cfi_def_cfa_offset 44
                                        @ kill: def $r3 killed $r2
                                        @ kill: def $r3 killed $r1
	str	r0, [sp, #40]
	add	r0, sp, #36
	strb	r1, [r0]
	add	r0, sp, #32
	strh	r2, [r0]
	add	r0, sp, #28
	movs	r1, #1
.Ltmp288:
	.loc	2 1536 13 prologue_end          @ ../../../../Library/StdDriver/src/i2c.c:1536:13
	strb	r1, [r0]
	add	r2, sp, #24
	movs	r0, #0
	.loc	2 1536 29 is_stmt 0             @ ../../../../Library/StdDriver/src/i2c.c:1536:29
	strb	r0, [r2]
	add	r2, sp, #20
	.loc	2 1536 41                       @ ../../../../Library/StdDriver/src/i2c.c:1536:41
	strb	r0, [r2]
	add	r2, sp, #16
	.loc	2 1536 53                       @ ../../../../Library/StdDriver/src/i2c.c:1536:53
	strb	r1, [r2]
	add	r1, sp, #12
	.loc	2 1536 66                       @ ../../../../Library/StdDriver/src/i2c.c:1536:66
	strb	r0, [r1]
	.loc	2 1538 22 is_stmt 1             @ ../../../../Library/StdDriver/src/i2c.c:1538:22
	ldr	r1, __arm_cp.38_0
	str	r0, [r1]
	.loc	2 1539 5                        @ ../../../../Library/StdDriver/src/i2c.c:1539:5
	ldr	r0, [sp, #40]
	ldr	r0, [r0]
	movs	r1, #32
	orrs	r0, r1
	movs	r1, #8
	bics	r0, r1
	ldr	r1, [sp, #40]
	str	r0, [r1]
	.loc	2 1541 5                        @ ../../../../Library/StdDriver/src/i2c.c:1541:5
	b	.LBB38_1
.LBB38_1:                               @ =>This Loop Header: Depth=1
                                        @     Child Loop BB38_5 Depth 2
	.loc	2 0 5 is_stmt 0                 @ ../../../../Library/StdDriver/src/i2c.c:0:5
	add	r0, sp, #28
	.loc	2 1541 12                       @ ../../../../Library/StdDriver/src/i2c.c:1541:12
	ldrb	r1, [r0]
	movs	r0, #0
	.loc	2 1541 22                       @ ../../../../Library/StdDriver/src/i2c.c:1541:22
	str	r0, [sp, #4]                    @ 4-byte Spill
	cbz	r1, .LBB38_3
	b	.LBB38_2
.LBB38_2:                               @   in Loop: Header=BB38_1 Depth=1
	.loc	2 0 22                          @ ../../../../Library/StdDriver/src/i2c.c:0:22
	add	r0, sp, #24
	.loc	2 1541 26                       @ ../../../../Library/StdDriver/src/i2c.c:1541:26
	ldrb	r0, [r0]
	.loc	2 1541 32                       @ ../../../../Library/StdDriver/src/i2c.c:1541:32
	rsbs	r1, r0, #0
	adcs	r0, r1
	str	r0, [sp, #4]                    @ 4-byte Spill
	b	.LBB38_3
.LBB38_3:                               @   in Loop: Header=BB38_1 Depth=1
	.loc	2 0 0                           @ ../../../../Library/StdDriver/src/i2c.c:0:0
	ldr	r0, [sp, #4]                    @ 4-byte Reload
	.loc	2 1541 5                        @ ../../../../Library/StdDriver/src/i2c.c:1541:5
	lsls	r0, r0, #31
	cbnz	r0, .LBB38_4
	b	.LBB38_26
.LBB38_4:                               @   in Loop: Header=BB38_1 Depth=1
.Ltmp289:
	.loc	2 1543 36 is_stmt 1             @ ../../../../Library/StdDriver/src/i2c.c:1543:36
	ldr	r0, __arm_cp.38_1
	ldr	r0, [r0]
	.loc	2 1543 18 is_stmt 0             @ ../../../../Library/StdDriver/src/i2c.c:1543:18
	str	r0, [sp, #8]
	.loc	2 1544 9 is_stmt 1              @ ../../../../Library/StdDriver/src/i2c.c:1544:9
	b	.LBB38_5
.LBB38_5:                               @   Parent Loop BB38_1 Depth=1
                                        @ =>  This Inner Loop Header: Depth=2
	ldr	r0, [sp, #40]
	ldr	r0, [r0]
	lsls	r0, r0, #28
	cmp	r0, #0
	bmi	.LBB38_9
	b	.LBB38_6
.LBB38_6:                               @   in Loop: Header=BB38_5 Depth=2
.Ltmp290:
	.loc	2 1546 28                       @ ../../../../Library/StdDriver/src/i2c.c:1546:28
	ldr	r0, [sp, #8]
	subs	r0, r0, #1
	str	r0, [sp, #8]
.Ltmp291:
	.loc	2 1548 17                       @ ../../../../Library/StdDriver/src/i2c.c:1548:17
	ldr	r0, [sp, #8]
.Ltmp292:
	.loc	2 1548 17 is_stmt 0             @ ../../../../Library/StdDriver/src/i2c.c:1548:17
	cbnz	r0, .LBB38_8
	b	.LBB38_7
.LBB38_7:                               @   in Loop: Header=BB38_1 Depth=1
.Ltmp293:
	.loc	2 1550 34 is_stmt 1             @ ../../../../Library/StdDriver/src/i2c.c:1550:34
	ldr	r1, __arm_cp.38_0
	movs	r0, #0
	mvns	r0, r0
	str	r0, [r1]
	.loc	2 1551 17                       @ ../../../../Library/StdDriver/src/i2c.c:1551:17
	b	.LBB38_9
.Ltmp294:
.LBB38_8:                               @   in Loop: Header=BB38_5 Depth=2
	.loc	2 1544 9                        @ ../../../../Library/StdDriver/src/i2c.c:1544:9
	b	.LBB38_5
.LBB38_9:                               @   in Loop: Header=BB38_1 Depth=1
	.loc	2 1555 17                       @ ../../../../Library/StdDriver/src/i2c.c:1555:17
	ldr	r0, [sp, #40]
	ldr	r0, [r0, #12]
	.loc	2 1555 9 is_stmt 0              @ ../../../../Library/StdDriver/src/i2c.c:1555:9
	subs	r0, #8
	str	r0, [sp]                        @ 4-byte Spill
	cmp	r0, #80
	bls	.LBB38_10
	b	.LBB38_24
.LBB38_10:                              @   in Loop: Header=BB38_1 Depth=1
	.loc	2 0 9                           @ ../../../../Library/StdDriver/src/i2c.c:0:9
	ldr	r1, [sp]                        @ 4-byte Reload
	lsls	r2, r1, #2
	adr	r0, .LJTI38_0
	adds	r0, r0, r2
	mov	pc, r0
@ %bb.11:
	.p2align	2
.LJTI38_0:
	b.w	.LBB38_12
	b.w	.LBB38_24
	b.w	.LBB38_24
	b.w	.LBB38_24
	b.w	.LBB38_24
	b.w	.LBB38_24
	b.w	.LBB38_24
	b.w	.LBB38_24
	b.w	.LBB38_19
	b.w	.LBB38_24
	b.w	.LBB38_24
	b.w	.LBB38_24
	b.w	.LBB38_24
	b.w	.LBB38_24
	b.w	.LBB38_24
	b.w	.LBB38_24
	b.w	.LBB38_13
	b.w	.LBB38_24
	b.w	.LBB38_24
	b.w	.LBB38_24
	b.w	.LBB38_24
	b.w	.LBB38_24
	b.w	.LBB38_24
	b.w	.LBB38_24
	b.w	.LBB38_14
	b.w	.LBB38_24
	b.w	.LBB38_24
	b.w	.LBB38_24
	b.w	.LBB38_24
	b.w	.LBB38_24
	b.w	.LBB38_24
	b.w	.LBB38_24
	b.w	.LBB38_15
	b.w	.LBB38_24
	b.w	.LBB38_24
	b.w	.LBB38_24
	b.w	.LBB38_24
	b.w	.LBB38_24
	b.w	.LBB38_24
	b.w	.LBB38_24
	b.w	.LBB38_14
	b.w	.LBB38_24
	b.w	.LBB38_24
	b.w	.LBB38_24
	b.w	.LBB38_24
	b.w	.LBB38_24
	b.w	.LBB38_24
	b.w	.LBB38_24
	b.w	.LBB38_23
	b.w	.LBB38_24
	b.w	.LBB38_24
	b.w	.LBB38_24
	b.w	.LBB38_24
	b.w	.LBB38_24
	b.w	.LBB38_24
	b.w	.LBB38_24
	b.w	.LBB38_20
	b.w	.LBB38_24
	b.w	.LBB38_24
	b.w	.LBB38_24
	b.w	.LBB38_24
	b.w	.LBB38_24
	b.w	.LBB38_24
	b.w	.LBB38_24
	b.w	.LBB38_21
	b.w	.LBB38_24
	b.w	.LBB38_24
	b.w	.LBB38_24
	b.w	.LBB38_24
	b.w	.LBB38_24
	b.w	.LBB38_24
	b.w	.LBB38_24
	b.w	.LBB38_24
	b.w	.LBB38_24
	b.w	.LBB38_24
	b.w	.LBB38_24
	b.w	.LBB38_24
	b.w	.LBB38_24
	b.w	.LBB38_24
	b.w	.LBB38_24
	b.w	.LBB38_22
.LBB38_12:                              @   in Loop: Header=BB38_1 Depth=1
.Ltmp295:
	.loc	2 1558 17 is_stmt 1             @ ../../../../Library/StdDriver/src/i2c.c:1558:17
	ldr	r0, [sp, #36]
	lsls	r0, r0, #25
	lsrs	r0, r0, #24
	ldr	r1, [sp, #40]
	str	r0, [r1, #8]
	add	r1, sp, #12
	movs	r0, #8
	.loc	2 1559 24                       @ ../../../../Library/StdDriver/src/i2c.c:1559:24
	strb	r0, [r1]
	.loc	2 1560 17                       @ ../../../../Library/StdDriver/src/i2c.c:1560:17
	b	.LBB38_25
.LBB38_13:                              @   in Loop: Header=BB38_1 Depth=1
	.loc	2 0 17 is_stmt 0                @ ../../../../Library/StdDriver/src/i2c.c:0:17
	add	r0, sp, #32
	.loc	2 1563 17 is_stmt 1             @ ../../../../Library/StdDriver/src/i2c.c:1563:17
	ldrb	r0, [r0, #1]
	ldr	r1, [sp, #40]
	str	r0, [r1, #8]
	.loc	2 1564 17                       @ ../../../../Library/StdDriver/src/i2c.c:1564:17
	b	.LBB38_25
.LBB38_14:                              @   in Loop: Header=BB38_1 Depth=1
	.loc	2 0 17 is_stmt 0                @ ../../../../Library/StdDriver/src/i2c.c:0:17
	add	r1, sp, #12
	movs	r0, #24
	.loc	2 1568 24 is_stmt 1             @ ../../../../Library/StdDriver/src/i2c.c:1568:24
	strb	r0, [r1]
	add	r1, sp, #24
	movs	r0, #1
	.loc	2 1569 23                       @ ../../../../Library/StdDriver/src/i2c.c:1569:23
	strb	r0, [r1]
	.loc	2 1570 17                       @ ../../../../Library/StdDriver/src/i2c.c:1570:17
	b	.LBB38_25
.LBB38_15:                              @   in Loop: Header=BB38_1 Depth=1
	.loc	2 0 17 is_stmt 0                @ ../../../../Library/StdDriver/src/i2c.c:0:17
	add	r0, sp, #16
.Ltmp296:
	.loc	2 1573 21 is_stmt 1             @ ../../../../Library/StdDriver/src/i2c.c:1573:21
	ldrb	r0, [r0]
.Ltmp297:
	.loc	2 1573 21 is_stmt 0             @ ../../../../Library/StdDriver/src/i2c.c:1573:21
	cbz	r0, .LBB38_17
	b	.LBB38_16
.LBB38_16:                              @   in Loop: Header=BB38_1 Depth=1
	.loc	2 0 21                          @ ../../../../Library/StdDriver/src/i2c.c:0:21
	add	r0, sp, #32
.Ltmp298:
	.loc	2 1575 21 is_stmt 1             @ ../../../../Library/StdDriver/src/i2c.c:1575:21
	ldrb	r0, [r0]
	ldr	r1, [sp, #40]
	str	r0, [r1, #8]
	add	r1, sp, #16
	movs	r0, #0
	.loc	2 1576 28                       @ ../../../../Library/StdDriver/src/i2c.c:1576:28
	strb	r0, [r1]
	.loc	2 1577 17                       @ ../../../../Library/StdDriver/src/i2c.c:1577:17
	b	.LBB38_18
.Ltmp299:
.LBB38_17:                              @   in Loop: Header=BB38_1 Depth=1
	.loc	2 0 17 is_stmt 0                @ ../../../../Library/StdDriver/src/i2c.c:0:17
	add	r1, sp, #12
	movs	r0, #40
.Ltmp300:
	.loc	2 1580 28 is_stmt 1             @ ../../../../Library/StdDriver/src/i2c.c:1580:28
	strb	r0, [r1]
	b	.LBB38_18
.Ltmp301:
.LBB38_18:                              @   in Loop: Header=BB38_1 Depth=1
	.loc	2 1583 17                       @ ../../../../Library/StdDriver/src/i2c.c:1583:17
	b	.LBB38_25
.LBB38_19:                              @   in Loop: Header=BB38_1 Depth=1
	.loc	2 1586 17                       @ ../../../../Library/StdDriver/src/i2c.c:1586:17
	ldr	r0, [sp, #36]
	lsls	r0, r0, #1
	adds	r0, r0, #1
	uxtb	r0, r0
	ldr	r1, [sp, #40]
	str	r0, [r1, #8]
	add	r1, sp, #12
	movs	r0, #8
	.loc	2 1587 24                       @ ../../../../Library/StdDriver/src/i2c.c:1587:24
	strb	r0, [r1]
	.loc	2 1588 17                       @ ../../../../Library/StdDriver/src/i2c.c:1588:17
	b	.LBB38_25
.LBB38_20:                              @   in Loop: Header=BB38_1 Depth=1
	.loc	2 0 17 is_stmt 0                @ ../../../../Library/StdDriver/src/i2c.c:0:17
	add	r1, sp, #12
	movs	r0, #8
	.loc	2 1591 24 is_stmt 1             @ ../../../../Library/StdDriver/src/i2c.c:1591:24
	strb	r0, [r1]
	.loc	2 1592 17                       @ ../../../../Library/StdDriver/src/i2c.c:1592:17
	b	.LBB38_25
.LBB38_21:                              @   in Loop: Header=BB38_1 Depth=1
	.loc	2 0 17 is_stmt 0                @ ../../../../Library/StdDriver/src/i2c.c:0:17
	add	r1, sp, #12
	movs	r0, #24
	.loc	2 1595 24 is_stmt 1             @ ../../../../Library/StdDriver/src/i2c.c:1595:24
	strb	r0, [r1]
	add	r1, sp, #24
	movs	r0, #1
	.loc	2 1596 23                       @ ../../../../Library/StdDriver/src/i2c.c:1596:23
	strb	r0, [r1]
	.loc	2 1597 17                       @ ../../../../Library/StdDriver/src/i2c.c:1597:17
	b	.LBB38_25
.LBB38_22:                              @   in Loop: Header=BB38_1 Depth=1
	.loc	2 1600 35                       @ ../../../../Library/StdDriver/src/i2c.c:1600:35
	ldr	r0, [sp, #40]
	ldr	r0, [r0, #8]
	add	r1, sp, #20
	.loc	2 1600 23 is_stmt 0             @ ../../../../Library/StdDriver/src/i2c.c:1600:23
	strb	r0, [r1]
	add	r1, sp, #12
	movs	r0, #24
	.loc	2 1601 24 is_stmt 1             @ ../../../../Library/StdDriver/src/i2c.c:1601:24
	strb	r0, [r1]
	add	r1, sp, #28
	movs	r0, #0
	.loc	2 1602 27                       @ ../../../../Library/StdDriver/src/i2c.c:1602:27
	strb	r0, [r1]
	.loc	2 1603 17                       @ ../../../../Library/StdDriver/src/i2c.c:1603:17
	b	.LBB38_25
.LBB38_23:                              @   in Loop: Header=BB38_1 Depth=1
	.loc	2 1605 13                       @ ../../../../Library/StdDriver/src/i2c.c:1605:13
	b	.LBB38_24
.LBB38_24:                              @   in Loop: Header=BB38_1 Depth=1
	.loc	2 1607 17                       @ ../../../../Library/StdDriver/src/i2c.c:1607:17
	ldr	r0, [sp, #40]
	ldr	r0, [r0]
	movs	r1, #24
	orrs	r0, r1
	movs	r1, #36
	bics	r0, r1
	ldr	r1, [sp, #40]
	str	r0, [r1]
	add	r1, sp, #12
	movs	r0, #8
	.loc	2 1608 24                       @ ../../../../Library/StdDriver/src/i2c.c:1608:24
	strb	r0, [r1]
	add	r1, sp, #24
	movs	r0, #1
	.loc	2 1609 23                       @ ../../../../Library/StdDriver/src/i2c.c:1609:23
	strb	r0, [r1]
	.loc	2 1610 17                       @ ../../../../Library/StdDriver/src/i2c.c:1610:17
	b	.LBB38_25
.Ltmp302:
.LBB38_25:                              @   in Loop: Header=BB38_1 Depth=1
	.loc	2 1613 9                        @ ../../../../Library/StdDriver/src/i2c.c:1613:9
	ldr	r0, [sp, #40]
	ldr	r0, [r0]
	movs	r1, #60
	bics	r0, r1
	add	r1, sp, #12
	ldrb	r1, [r1]
	orrs	r0, r1
	ldr	r1, [sp, #40]
	str	r0, [r1]
.Ltmp303:
	.loc	2 1541 5                        @ ../../../../Library/StdDriver/src/i2c.c:1541:5
	b	.LBB38_1
.LBB38_26:
	.loc	2 0 5 is_stmt 0                 @ ../../../../Library/StdDriver/src/i2c.c:0:5
	add	r0, sp, #24
.Ltmp304:
	.loc	2 1616 9 is_stmt 1              @ ../../../../Library/StdDriver/src/i2c.c:1616:9
	ldrb	r0, [r0]
.Ltmp305:
	.loc	2 1616 9 is_stmt 0              @ ../../../../Library/StdDriver/src/i2c.c:1616:9
	cbz	r0, .LBB38_28
	b	.LBB38_27
.LBB38_27:
	.loc	2 0 9                           @ ../../../../Library/StdDriver/src/i2c.c:0:9
	add	r1, sp, #20
	movs	r0, #0
.Ltmp306:
	.loc	2 1618 15 is_stmt 1             @ ../../../../Library/StdDriver/src/i2c.c:1618:15
	strb	r0, [r1]
	.loc	2 1619 5                        @ ../../../../Library/StdDriver/src/i2c.c:1619:5
	b	.LBB38_28
.Ltmp307:
.LBB38_28:
	.loc	2 0 5 is_stmt 0                 @ ../../../../Library/StdDriver/src/i2c.c:0:5
	add	r0, sp, #20
	.loc	2 1621 12 is_stmt 1             @ ../../../../Library/StdDriver/src/i2c.c:1621:12
	ldrb	r0, [r0]
	.loc	2 1621 5 is_stmt 0              @ ../../../../Library/StdDriver/src/i2c.c:1621:5
	add	sp, #44
	bx	lr
.Ltmp308:
	.p2align	2
@ %bb.29:
	.loc	2 0 5                           @ ../../../../Library/StdDriver/src/i2c.c:0:5
__arm_cp.38_0:
	.long	g_I2C_i32ErrCode
.Lcpi_end26:
	.size	__arm_cp.38_0, .Lcpi_end26-__arm_cp.38_0
__arm_cp.38_1:
	.long	SystemCoreClock
.Lcpi_end27:
	.size	__arm_cp.38_1, .Lcpi_end27-__arm_cp.38_1
.Lfunc_end38:
	.size	I2C_ReadByteTwoRegs, .Lfunc_end38-I2C_ReadByteTwoRegs
	.cfi_endproc
	.cantunwind
	.fnend
                                        @ -- End function
	.section	.text.I2C_ReadMultiBytesTwoRegs,"ax",%progbits
	.hidden	I2C_ReadMultiBytesTwoRegs       @ -- Begin function I2C_ReadMultiBytesTwoRegs
	.globl	I2C_ReadMultiBytesTwoRegs
	.p2align	2
	.type	I2C_ReadMultiBytesTwoRegs,%function
	.code	16                              @ @I2C_ReadMultiBytesTwoRegs
	.thumb_func
I2C_ReadMultiBytesTwoRegs:
.Lfunc_begin39:
	.loc	2 1641 0 is_stmt 1              @ ../../../../Library/StdDriver/src/i2c.c:1641:0
	.fnstart
	.cfi_startproc
@ %bb.0:
	.save	{r4, lr}
	push	{r4, lr}
	.cfi_def_cfa_offset 8
	.cfi_offset lr, -4
	.cfi_offset r4, -8
	.pad	#48
	sub	sp, #48
	.cfi_def_cfa_offset 56
	ldr	r4, [sp, #56]
                                        @ kill: def $r4 killed $r2
                                        @ kill: def $r4 killed $r1
	str	r0, [sp, #44]
	add	r0, sp, #40
	strb	r1, [r0]
	add	r0, sp, #36
	strh	r2, [r0]
	str	r3, [sp, #32]
	add	r0, sp, #28
	movs	r1, #1
.Ltmp309:
	.loc	2 1642 13 prologue_end          @ ../../../../Library/StdDriver/src/i2c.c:1642:13
	strb	r1, [r0]
	add	r2, sp, #24
	movs	r0, #0
	.loc	2 1642 29 is_stmt 0             @ ../../../../Library/StdDriver/src/i2c.c:1642:29
	strb	r0, [r2]
	add	r2, sp, #20
	.loc	2 1642 41                       @ ../../../../Library/StdDriver/src/i2c.c:1642:41
	strb	r1, [r2]
	add	r1, sp, #16
	.loc	2 1642 54                       @ ../../../../Library/StdDriver/src/i2c.c:1642:54
	strb	r0, [r1]
	.loc	2 1643 14 is_stmt 1             @ ../../../../Library/StdDriver/src/i2c.c:1643:14
	str	r0, [sp, #12]
	.loc	2 1645 22                       @ ../../../../Library/StdDriver/src/i2c.c:1645:22
	ldr	r1, __arm_cp.39_0
	str	r0, [r1]
	.loc	2 1646 5                        @ ../../../../Library/StdDriver/src/i2c.c:1646:5
	ldr	r0, [sp, #44]
	ldr	r0, [r0]
	movs	r1, #32
	orrs	r0, r1
	movs	r1, #8
	bics	r0, r1
	ldr	r1, [sp, #44]
	str	r0, [r1]
	.loc	2 1648 5                        @ ../../../../Library/StdDriver/src/i2c.c:1648:5
	b	.LBB39_1
.LBB39_1:                               @ =>This Loop Header: Depth=1
                                        @     Child Loop BB39_5 Depth 2
	.loc	2 0 5 is_stmt 0                 @ ../../../../Library/StdDriver/src/i2c.c:0:5
	add	r0, sp, #28
	.loc	2 1648 12                       @ ../../../../Library/StdDriver/src/i2c.c:1648:12
	ldrb	r1, [r0]
	movs	r0, #0
	.loc	2 1648 22                       @ ../../../../Library/StdDriver/src/i2c.c:1648:22
	str	r0, [sp, #4]                    @ 4-byte Spill
	cbz	r1, .LBB39_3
	b	.LBB39_2
.LBB39_2:                               @   in Loop: Header=BB39_1 Depth=1
	.loc	2 0 22                          @ ../../../../Library/StdDriver/src/i2c.c:0:22
	add	r0, sp, #24
	.loc	2 1648 26                       @ ../../../../Library/StdDriver/src/i2c.c:1648:26
	ldrb	r0, [r0]
	.loc	2 1648 32                       @ ../../../../Library/StdDriver/src/i2c.c:1648:32
	rsbs	r1, r0, #0
	adcs	r0, r1
	str	r0, [sp, #4]                    @ 4-byte Spill
	b	.LBB39_3
.LBB39_3:                               @   in Loop: Header=BB39_1 Depth=1
	.loc	2 0 0                           @ ../../../../Library/StdDriver/src/i2c.c:0:0
	ldr	r0, [sp, #4]                    @ 4-byte Reload
	.loc	2 1648 5                        @ ../../../../Library/StdDriver/src/i2c.c:1648:5
	lsls	r0, r0, #31
	cbnz	r0, .LBB39_4
	b	.LBB39_30
.LBB39_4:                               @   in Loop: Header=BB39_1 Depth=1
.Ltmp310:
	.loc	2 1650 36 is_stmt 1             @ ../../../../Library/StdDriver/src/i2c.c:1650:36
	ldr	r0, __arm_cp.39_1
	ldr	r0, [r0]
	.loc	2 1650 18 is_stmt 0             @ ../../../../Library/StdDriver/src/i2c.c:1650:18
	str	r0, [sp, #8]
	.loc	2 1651 9 is_stmt 1              @ ../../../../Library/StdDriver/src/i2c.c:1651:9
	b	.LBB39_5
.LBB39_5:                               @   Parent Loop BB39_1 Depth=1
                                        @ =>  This Inner Loop Header: Depth=2
	ldr	r0, [sp, #44]
	ldr	r0, [r0]
	lsls	r0, r0, #28
	cmp	r0, #0
	bmi	.LBB39_9
	b	.LBB39_6
.LBB39_6:                               @   in Loop: Header=BB39_5 Depth=2
.Ltmp311:
	.loc	2 1653 28                       @ ../../../../Library/StdDriver/src/i2c.c:1653:28
	ldr	r0, [sp, #8]
	subs	r0, r0, #1
	str	r0, [sp, #8]
.Ltmp312:
	.loc	2 1655 17                       @ ../../../../Library/StdDriver/src/i2c.c:1655:17
	ldr	r0, [sp, #8]
.Ltmp313:
	.loc	2 1655 17 is_stmt 0             @ ../../../../Library/StdDriver/src/i2c.c:1655:17
	cbnz	r0, .LBB39_8
	b	.LBB39_7
.LBB39_7:                               @   in Loop: Header=BB39_1 Depth=1
.Ltmp314:
	.loc	2 1657 34 is_stmt 1             @ ../../../../Library/StdDriver/src/i2c.c:1657:34
	ldr	r1, __arm_cp.39_0
	movs	r0, #0
	mvns	r0, r0
	str	r0, [r1]
	.loc	2 1658 17                       @ ../../../../Library/StdDriver/src/i2c.c:1658:17
	b	.LBB39_9
.Ltmp315:
.LBB39_8:                               @   in Loop: Header=BB39_5 Depth=2
	.loc	2 1651 9                        @ ../../../../Library/StdDriver/src/i2c.c:1651:9
	b	.LBB39_5
.LBB39_9:                               @   in Loop: Header=BB39_1 Depth=1
	.loc	2 1662 17                       @ ../../../../Library/StdDriver/src/i2c.c:1662:17
	ldr	r0, [sp, #44]
	ldr	r0, [r0, #12]
	.loc	2 1662 9 is_stmt 0              @ ../../../../Library/StdDriver/src/i2c.c:1662:9
	subs	r0, #8
	str	r0, [sp]                        @ 4-byte Spill
	cmp	r0, #80
	bls	.LBB39_10
	b	.LBB39_28
.LBB39_10:                              @   in Loop: Header=BB39_1 Depth=1
	.loc	2 0 9                           @ ../../../../Library/StdDriver/src/i2c.c:0:9
	ldr	r1, [sp]                        @ 4-byte Reload
	lsls	r2, r1, #2
	adr	r0, .LJTI39_0
	adds	r0, r0, r2
	mov	pc, r0
@ %bb.11:
	.p2align	2
.LJTI39_0:
	b.w	.LBB39_12
	b.w	.LBB39_28
	b.w	.LBB39_28
	b.w	.LBB39_28
	b.w	.LBB39_28
	b.w	.LBB39_28
	b.w	.LBB39_28
	b.w	.LBB39_28
	b.w	.LBB39_19
	b.w	.LBB39_28
	b.w	.LBB39_28
	b.w	.LBB39_28
	b.w	.LBB39_28
	b.w	.LBB39_28
	b.w	.LBB39_28
	b.w	.LBB39_28
	b.w	.LBB39_13
	b.w	.LBB39_28
	b.w	.LBB39_28
	b.w	.LBB39_28
	b.w	.LBB39_28
	b.w	.LBB39_28
	b.w	.LBB39_28
	b.w	.LBB39_28
	b.w	.LBB39_14
	b.w	.LBB39_28
	b.w	.LBB39_28
	b.w	.LBB39_28
	b.w	.LBB39_28
	b.w	.LBB39_28
	b.w	.LBB39_28
	b.w	.LBB39_28
	b.w	.LBB39_15
	b.w	.LBB39_28
	b.w	.LBB39_28
	b.w	.LBB39_28
	b.w	.LBB39_28
	b.w	.LBB39_28
	b.w	.LBB39_28
	b.w	.LBB39_28
	b.w	.LBB39_14
	b.w	.LBB39_28
	b.w	.LBB39_28
	b.w	.LBB39_28
	b.w	.LBB39_28
	b.w	.LBB39_28
	b.w	.LBB39_28
	b.w	.LBB39_28
	b.w	.LBB39_27
	b.w	.LBB39_28
	b.w	.LBB39_28
	b.w	.LBB39_28
	b.w	.LBB39_28
	b.w	.LBB39_28
	b.w	.LBB39_28
	b.w	.LBB39_28
	b.w	.LBB39_20
	b.w	.LBB39_28
	b.w	.LBB39_28
	b.w	.LBB39_28
	b.w	.LBB39_28
	b.w	.LBB39_28
	b.w	.LBB39_28
	b.w	.LBB39_28
	b.w	.LBB39_21
	b.w	.LBB39_28
	b.w	.LBB39_28
	b.w	.LBB39_28
	b.w	.LBB39_28
	b.w	.LBB39_28
	b.w	.LBB39_28
	b.w	.LBB39_28
	b.w	.LBB39_22
	b.w	.LBB39_28
	b.w	.LBB39_28
	b.w	.LBB39_28
	b.w	.LBB39_28
	b.w	.LBB39_28
	b.w	.LBB39_28
	b.w	.LBB39_28
	b.w	.LBB39_26
.LBB39_12:                              @   in Loop: Header=BB39_1 Depth=1
.Ltmp316:
	.loc	2 1665 17 is_stmt 1             @ ../../../../Library/StdDriver/src/i2c.c:1665:17
	ldr	r0, [sp, #40]
	lsls	r0, r0, #25
	lsrs	r0, r0, #24
	ldr	r1, [sp, #44]
	str	r0, [r1, #8]
	add	r1, sp, #16
	movs	r0, #8
	.loc	2 1666 24                       @ ../../../../Library/StdDriver/src/i2c.c:1666:24
	strb	r0, [r1]
	.loc	2 1667 17                       @ ../../../../Library/StdDriver/src/i2c.c:1667:17
	b	.LBB39_29
.LBB39_13:                              @   in Loop: Header=BB39_1 Depth=1
	.loc	2 0 17 is_stmt 0                @ ../../../../Library/StdDriver/src/i2c.c:0:17
	add	r0, sp, #36
	.loc	2 1670 17 is_stmt 1             @ ../../../../Library/StdDriver/src/i2c.c:1670:17
	ldrb	r0, [r0, #1]
	ldr	r1, [sp, #44]
	str	r0, [r1, #8]
	.loc	2 1671 17                       @ ../../../../Library/StdDriver/src/i2c.c:1671:17
	b	.LBB39_29
.LBB39_14:                              @   in Loop: Header=BB39_1 Depth=1
	.loc	2 0 17 is_stmt 0                @ ../../../../Library/StdDriver/src/i2c.c:0:17
	add	r1, sp, #16
	movs	r0, #24
	.loc	2 1675 24 is_stmt 1             @ ../../../../Library/StdDriver/src/i2c.c:1675:24
	strb	r0, [r1]
	add	r1, sp, #24
	movs	r0, #1
	.loc	2 1676 23                       @ ../../../../Library/StdDriver/src/i2c.c:1676:23
	strb	r0, [r1]
	.loc	2 1677 17                       @ ../../../../Library/StdDriver/src/i2c.c:1677:17
	b	.LBB39_29
.LBB39_15:                              @   in Loop: Header=BB39_1 Depth=1
	.loc	2 0 17 is_stmt 0                @ ../../../../Library/StdDriver/src/i2c.c:0:17
	add	r0, sp, #20
.Ltmp317:
	.loc	2 1680 21 is_stmt 1             @ ../../../../Library/StdDriver/src/i2c.c:1680:21
	ldrb	r0, [r0]
.Ltmp318:
	.loc	2 1680 21 is_stmt 0             @ ../../../../Library/StdDriver/src/i2c.c:1680:21
	cbz	r0, .LBB39_17
	b	.LBB39_16
.LBB39_16:                              @   in Loop: Header=BB39_1 Depth=1
	.loc	2 0 21                          @ ../../../../Library/StdDriver/src/i2c.c:0:21
	add	r0, sp, #36
.Ltmp319:
	.loc	2 1682 21 is_stmt 1             @ ../../../../Library/StdDriver/src/i2c.c:1682:21
	ldrb	r0, [r0]
	ldr	r1, [sp, #44]
	str	r0, [r1, #8]
	add	r1, sp, #20
	movs	r0, #0
	.loc	2 1683 28                       @ ../../../../Library/StdDriver/src/i2c.c:1683:28
	strb	r0, [r1]
	.loc	2 1684 17                       @ ../../../../Library/StdDriver/src/i2c.c:1684:17
	b	.LBB39_18
.Ltmp320:
.LBB39_17:                              @   in Loop: Header=BB39_1 Depth=1
	.loc	2 0 17 is_stmt 0                @ ../../../../Library/StdDriver/src/i2c.c:0:17
	add	r1, sp, #16
	movs	r0, #40
.Ltmp321:
	.loc	2 1687 28 is_stmt 1             @ ../../../../Library/StdDriver/src/i2c.c:1687:28
	strb	r0, [r1]
	b	.LBB39_18
.Ltmp322:
.LBB39_18:                              @   in Loop: Header=BB39_1 Depth=1
	.loc	2 1690 17                       @ ../../../../Library/StdDriver/src/i2c.c:1690:17
	b	.LBB39_29
.LBB39_19:                              @   in Loop: Header=BB39_1 Depth=1
	.loc	2 1693 17                       @ ../../../../Library/StdDriver/src/i2c.c:1693:17
	ldr	r0, [sp, #40]
	lsls	r0, r0, #1
	adds	r0, r0, #1
	uxtb	r0, r0
	ldr	r1, [sp, #44]
	str	r0, [r1, #8]
	add	r1, sp, #16
	movs	r0, #8
	.loc	2 1694 24                       @ ../../../../Library/StdDriver/src/i2c.c:1694:24
	strb	r0, [r1]
	.loc	2 1695 17                       @ ../../../../Library/StdDriver/src/i2c.c:1695:17
	b	.LBB39_29
.LBB39_20:                              @   in Loop: Header=BB39_1 Depth=1
	.loc	2 0 17 is_stmt 0                @ ../../../../Library/StdDriver/src/i2c.c:0:17
	add	r1, sp, #16
	movs	r0, #12
	.loc	2 1698 24 is_stmt 1             @ ../../../../Library/StdDriver/src/i2c.c:1698:24
	strb	r0, [r1]
	.loc	2 1699 17                       @ ../../../../Library/StdDriver/src/i2c.c:1699:17
	b	.LBB39_29
.LBB39_21:                              @   in Loop: Header=BB39_1 Depth=1
	.loc	2 0 17 is_stmt 0                @ ../../../../Library/StdDriver/src/i2c.c:0:17
	add	r1, sp, #16
	movs	r0, #24
	.loc	2 1702 24 is_stmt 1             @ ../../../../Library/StdDriver/src/i2c.c:1702:24
	strb	r0, [r1]
	add	r1, sp, #24
	movs	r0, #1
	.loc	2 1703 23                       @ ../../../../Library/StdDriver/src/i2c.c:1703:23
	strb	r0, [r1]
	.loc	2 1704 17                       @ ../../../../Library/StdDriver/src/i2c.c:1704:17
	b	.LBB39_29
.LBB39_22:                              @   in Loop: Header=BB39_1 Depth=1
	.loc	2 1707 47                       @ ../../../../Library/StdDriver/src/i2c.c:1707:47
	ldr	r0, [sp, #44]
	ldr	r0, [r0, #8]
	.loc	2 1707 17 is_stmt 0             @ ../../../../Library/StdDriver/src/i2c.c:1707:17
	ldr	r1, [sp, #32]
	.loc	2 1707 31                       @ ../../../../Library/StdDriver/src/i2c.c:1707:31
	ldr	r2, [sp, #12]
	adds	r3, r2, #1
	str	r3, [sp, #12]
	.loc	2 1707 35                       @ ../../../../Library/StdDriver/src/i2c.c:1707:35
	strb	r0, [r1, r2]
.Ltmp323:
	.loc	2 1709 21 is_stmt 1             @ ../../../../Library/StdDriver/src/i2c.c:1709:21
	ldr	r0, [sp, #12]
	.loc	2 1709 33 is_stmt 0             @ ../../../../Library/StdDriver/src/i2c.c:1709:33
	ldr	r1, [sp, #56]
	.loc	2 1709 41                       @ ../../../../Library/StdDriver/src/i2c.c:1709:41
	subs	r1, r1, #1
.Ltmp324:
	.loc	2 1709 21                       @ ../../../../Library/StdDriver/src/i2c.c:1709:21
	cmp	r0, r1
	bhs	.LBB39_24
	b	.LBB39_23
.LBB39_23:                              @   in Loop: Header=BB39_1 Depth=1
	.loc	2 0 21                          @ ../../../../Library/StdDriver/src/i2c.c:0:21
	add	r1, sp, #16
	movs	r0, #12
.Ltmp325:
	.loc	2 1711 28 is_stmt 1             @ ../../../../Library/StdDriver/src/i2c.c:1711:28
	strb	r0, [r1]
	.loc	2 1712 17                       @ ../../../../Library/StdDriver/src/i2c.c:1712:17
	b	.LBB39_25
.Ltmp326:
.LBB39_24:                              @   in Loop: Header=BB39_1 Depth=1
	.loc	2 0 17 is_stmt 0                @ ../../../../Library/StdDriver/src/i2c.c:0:17
	add	r1, sp, #16
	movs	r0, #8
.Ltmp327:
	.loc	2 1715 28 is_stmt 1             @ ../../../../Library/StdDriver/src/i2c.c:1715:28
	strb	r0, [r1]
	b	.LBB39_25
.Ltmp328:
.LBB39_25:                              @   in Loop: Header=BB39_1 Depth=1
	.loc	2 1718 17                       @ ../../../../Library/StdDriver/src/i2c.c:1718:17
	b	.LBB39_29
.LBB39_26:                              @   in Loop: Header=BB39_1 Depth=1
	.loc	2 1721 47                       @ ../../../../Library/StdDriver/src/i2c.c:1721:47
	ldr	r0, [sp, #44]
	ldr	r0, [r0, #8]
	.loc	2 1721 17 is_stmt 0             @ ../../../../Library/StdDriver/src/i2c.c:1721:17
	ldr	r1, [sp, #32]
	.loc	2 1721 31                       @ ../../../../Library/StdDriver/src/i2c.c:1721:31
	ldr	r2, [sp, #12]
	adds	r3, r2, #1
	str	r3, [sp, #12]
	.loc	2 1721 35                       @ ../../../../Library/StdDriver/src/i2c.c:1721:35
	strb	r0, [r1, r2]
	add	r1, sp, #16
	movs	r0, #24
	.loc	2 1722 24 is_stmt 1             @ ../../../../Library/StdDriver/src/i2c.c:1722:24
	strb	r0, [r1]
	add	r1, sp, #28
	movs	r0, #0
	.loc	2 1723 27                       @ ../../../../Library/StdDriver/src/i2c.c:1723:27
	strb	r0, [r1]
	.loc	2 1724 17                       @ ../../../../Library/StdDriver/src/i2c.c:1724:17
	b	.LBB39_29
.LBB39_27:                              @   in Loop: Header=BB39_1 Depth=1
	.loc	2 1726 13                       @ ../../../../Library/StdDriver/src/i2c.c:1726:13
	b	.LBB39_28
.LBB39_28:                              @   in Loop: Header=BB39_1 Depth=1
	.loc	2 1728 17                       @ ../../../../Library/StdDriver/src/i2c.c:1728:17
	ldr	r0, [sp, #44]
	ldr	r0, [r0]
	movs	r1, #24
	orrs	r0, r1
	movs	r1, #36
	bics	r0, r1
	ldr	r1, [sp, #44]
	str	r0, [r1]
	add	r1, sp, #16
	movs	r0, #8
	.loc	2 1729 24                       @ ../../../../Library/StdDriver/src/i2c.c:1729:24
	strb	r0, [r1]
	add	r1, sp, #24
	movs	r0, #1
	.loc	2 1730 23                       @ ../../../../Library/StdDriver/src/i2c.c:1730:23
	strb	r0, [r1]
	.loc	2 1731 17                       @ ../../../../Library/StdDriver/src/i2c.c:1731:17
	b	.LBB39_29
.Ltmp329:
.LBB39_29:                              @   in Loop: Header=BB39_1 Depth=1
	.loc	2 1734 9                        @ ../../../../Library/StdDriver/src/i2c.c:1734:9
	ldr	r0, [sp, #44]
	ldr	r0, [r0]
	movs	r1, #60
	bics	r0, r1
	add	r1, sp, #16
	ldrb	r1, [r1]
	orrs	r0, r1
	ldr	r1, [sp, #44]
	str	r0, [r1]
.Ltmp330:
	.loc	2 1648 5                        @ ../../../../Library/StdDriver/src/i2c.c:1648:5
	b	.LBB39_1
.LBB39_30:
	.loc	2 1737 12                       @ ../../../../Library/StdDriver/src/i2c.c:1737:12
	ldr	r0, [sp, #12]
	.loc	2 1737 5 is_stmt 0              @ ../../../../Library/StdDriver/src/i2c.c:1737:5
	add	sp, #48
	pop	{r4, pc}
.Ltmp331:
	.p2align	2
@ %bb.31:
	.loc	2 0 5                           @ ../../../../Library/StdDriver/src/i2c.c:0:5
__arm_cp.39_0:
	.long	g_I2C_i32ErrCode
.Lcpi_end28:
	.size	__arm_cp.39_0, .Lcpi_end28-__arm_cp.39_0
__arm_cp.39_1:
	.long	SystemCoreClock
.Lcpi_end29:
	.size	__arm_cp.39_1, .Lcpi_end29-__arm_cp.39_1
.Lfunc_end39:
	.size	I2C_ReadMultiBytesTwoRegs, .Lfunc_end39-I2C_ReadMultiBytesTwoRegs
	.cfi_endproc
	.cantunwind
	.fnend
                                        @ -- End function
	.hidden	g_I2C_i32ErrCode                @ @g_I2C_i32ErrCode
	.type	g_I2C_i32ErrCode,%object
	.section	.bss.g_I2C_i32ErrCode,"aw",%nobits
	.globl	g_I2C_i32ErrCode
	.p2align	2
g_I2C_i32ErrCode:
	.long	0                               @ 0x0
	.size	g_I2C_i32ErrCode, 4

	.section	".note.GNU-stack","",%progbits
	.eabi_attribute	30, 6	@ Tag_ABI_optimization_goals
	.ARM_attribute	16, 1	@ Tag_AV_eba