	.text
	.syntax unified
	.eabi_attribute	67, "2.09"	@ Tag_conformance
	.cpu	cortex-m23
	.eabi_attribute	6, 16	@ Tag_CPU_arch
	.eabi_attribute	7, 77	@ Tag_CPU_arch_profile
	.eabi_attribute	8, 0	@ Tag_ARM_ISA_use
	.eabi_attribute	9, 3	@ Tag_THUMB_ISA_use
	.eabi_attribute	34, 0	@ Tag_CPU_unaligned_access
	.eabi_attribute	17, 1	@ Tag_ABI_PCS_GOT_use
	.eabi_attribute	20, 2	@ Tag_ABI_FP_denormal
	.eabi_attribute	21, 0	@ Tag_ABI_FP_exceptions
	.eabi_attribute	23, 1	@ Tag_ABI_FP_number_model
	.eabi_attribute	24, 1	@ Tag_ABI_align_needed
	.eabi_attribute	25, 1	@ Tag_ABI_align_preserved
	.eabi_attribute	38, 1	@ Tag_ABI_FP_16bit_format
	.eabi_attribute	18, 2	@ Tag_ABI_PCS_wchar_t
	.eabi_attribute	26, 1	@ Tag_ABI_enum_size
	.eabi_attribute	14, 0	@ Tag_ABI_PCS_R9_use
	.file	"keypad.c"
	.file	1 "E:\\BERSY\\sdk\\SampleCode\\NuCodeGen\\Scale\\KEIL" "../src/keypad.c"
	.file	2 "C:\\Keil_v5\\ARM\\ARMCLANG\\Bin\\..\\include" "stdint.h"
	.file	3 "E:\\BERSY\\sdk\\SampleCode\\NuCodeGen\\Scale\\KEIL" "..\\Inc/keypad.h"
	.file	4 "E:\\BERSY\\sdk\\SampleCode\\NuCodeGen\\Scale\\KEIL" "../../../../Library/CMSIS/Include\\core_cm23.h"
	.section	.text.newKeyPadObj,"ax",%progbits
	.hidden	newKeyPadObj                    @ -- Begin function newKeyPadObj
	.globl	newKeyPadObj
	.p2align	2
	.type	newKeyPadObj,%function
	.code	16                              @ @newKeyPadObj
	.thumb_func
newKeyPadObj:
.Lfunc_begin0:
	.loc	1 23 0                          @ ../src/keypad.c:23:0
	.fnstart
	.cfi_sections .debug_frame
	.cfi_startproc
@ %bb.0:
	.save	{r7, lr}
	push	{r7, lr}
	.cfi_def_cfa_offset 8
	.cfi_offset lr, -4
	.cfi_offset r7, -8
	.pad	#8
	sub	sp, #8
	.cfi_def_cfa_offset 16
	movs	r0, #20
.Ltmp0:
	.loc	1 24 24 prologue_end            @ ../src/keypad.c:24:24
	bl	malloc
	.loc	1 24 10 is_stmt 0               @ ../src/keypad.c:24:10
	str	r0, [sp, #4]
.Ltmp1:
	.loc	1 25 5 is_stmt 1                @ ../src/keypad.c:25:5
	ldr	r0, [sp, #4]
.Ltmp2:
	.loc	1 25 5 is_stmt 0                @ ../src/keypad.c:25:5
	cbnz	r0, .LBB0_3
	b	.LBB0_1
.LBB0_1:
.Ltmp3:
	.loc	1 29 3 is_stmt 1                @ ../src/keypad.c:29:3
	b	.LBB0_2
.LBB0_2:                                @ =>This Inner Loop Header: Depth=1
	b	.LBB0_2
.Ltmp4:
.LBB0_3:
	.loc	1 0 3 is_stmt 0                 @ ../src/keypad.c:0:3
	b	.LBB0_4
.LBB0_4:
	.loc	1 37 2 is_stmt 1                @ ../src/keypad.c:37:2
	ldr	r1, [sp, #4]
	.loc	1 37 21 is_stmt 0               @ ../src/keypad.c:37:21
	ldr	r0, __arm_cp.0_0
	str	r0, [r1]
	.loc	1 38 2 is_stmt 1                @ ../src/keypad.c:38:2
	ldr	r1, [sp, #4]
	.loc	1 38 21 is_stmt 0               @ ../src/keypad.c:38:21
	ldr	r0, __arm_cp.0_1
	str	r0, [r1, #4]
	.loc	1 39 2 is_stmt 1                @ ../src/keypad.c:39:2
	ldr	r1, [sp, #4]
	.loc	1 39 24 is_stmt 0               @ ../src/keypad.c:39:24
	ldr	r0, __arm_cp.0_2
	str	r0, [r1, #8]
	.loc	1 40 2 is_stmt 1                @ ../src/keypad.c:40:2
	ldr	r1, [sp, #4]
	.loc	1 40 24 is_stmt 0               @ ../src/keypad.c:40:24
	ldr	r0, __arm_cp.0_3
	str	r0, [r1, #12]
	.loc	1 41 2 is_stmt 1                @ ../src/keypad.c:41:2
	ldr	r1, [sp, #4]
	.loc	1 41 24 is_stmt 0               @ ../src/keypad.c:41:24
	ldr	r0, __arm_cp.0_4
	str	r0, [r1, #16]
	.loc	1 43 9 is_stmt 1                @ ../src/keypad.c:43:9
	ldr	r0, [sp, #4]
	.loc	1 43 2 is_stmt 0                @ ../src/keypad.c:43:2
	add	sp, #8
	pop	{r7, pc}
.Ltmp5:
	.p2align	2
@ %bb.5:
	.loc	1 0 2                           @ ../src/keypad.c:0:2
__arm_cp.0_0:
	.long	Init
.Lcpi_end0:
	.size	__arm_cp.0_0, .Lcpi_end0-__arm_cp.0_0
__arm_cp.0_1:
	.long	Scan
.Lcpi_end1:
	.size	__arm_cp.0_1, .Lcpi_end1-__arm_cp.0_1
__arm_cp.0_2:
	.long	setColumnPin
.Lcpi_end2:
	.size	__arm_cp.0_2, .Lcpi_end2-__arm_cp.0_2
__arm_cp.0_3:
	.long	resetAllColumnPins
.Lcpi_end3:
	.size	__arm_cp.0_3, .Lcpi_end3-__arm_cp.0_3
__arm_cp.0_4:
	.long	readRowPin
.Lcpi_end4:
	.size	__arm_cp.0_4, .Lcpi_end4-__arm_cp.0_4
.Lfunc_end0:
	.size	newKeyPadObj, .Lfunc_end0-newKeyPadObj
	.cfi_endproc
	.cantunwind
	.fnend
                                        @ -- End function
	.section	.text.Init,"ax",%progbits
	.p2align	2                               @ -- Begin function Init
	.type	Init,%function
	.code	16                              @ @Init
	.thumb_func
Init:
.Lfunc_begin1:
	.loc	1 47 0 is_stmt 1                @ ../src/keypad.c:47:0
	.fnstart
	.cfi_startproc
@ %bb.0:
	.pad	#8
	sub	sp, #8
	.cfi_def_cfa_offset 8
                                        @ kill: def $r2 killed $r1
                                        @ kill: def $r2 killed $r0
	add	r2, sp, #4
	strb	r0, [r2]
	mov	r0, sp
	strb	r1, [r0]
.Ltmp6:
	.loc	1 48 23 prologue_end            @ ../src/keypad.c:48:23
	ldr	r0, [sp, #4]
	.loc	1 48 21 is_stmt 0               @ ../src/keypad.c:48:21
	ldr	r1, __arm_cp.1_0
	strb	r0, [r1]
	.loc	1 49 20 is_stmt 1               @ ../src/keypad.c:49:20
	ldr	r0, [sp]
	.loc	1 49 18 is_stmt 0               @ ../src/keypad.c:49:18
	strb	r0, [r1, #1]
	.loc	1 54 1 is_stmt 1                @ ../src/keypad.c:54:1
	add	sp, #8
	bx	lr
.Ltmp7:
	.p2align	2
@ %bb.1:
	.loc	1 0 1 is_stmt 0                 @ ../src/keypad.c:0:1
__arm_cp.1_0:
	.long	KeyPad
.Lcpi_end5:
	.size	__arm_cp.1_0, .Lcpi_end5-__arm_cp.1_0
.Lfunc_end1:
	.size	Init, .Lfunc_end1-Init
	.cfi_endproc
	.cantunwind
	.fnend
                                        @ -- End function
	.section	.text.Scan,"ax",%progbits
	.p2align	2                               @ -- Begin function Scan
	.type	Scan,%function
	.code	16                              @ @Scan
	.thumb_func
Scan:
.Lfunc_begin2:
	.loc	1 56 0 is_stmt 1                @ ../src/keypad.c:56:0
	.fnstart
	.cfi_startproc
@ %bb.0:
	.save	{r7, lr}
	push	{r7, lr}
	.cfi_def_cfa_offset 8
	.cfi_offset lr, -4
	.cfi_offset r7, -8
	.pad	#24
	sub	sp, #24
	.cfi_def_cfa_offset 32
	str	r0, [sp, #16]
	movs	r0, #0
.Ltmp8:
	.loc	1 58 11 prologue_end            @ ../src/keypad.c:58:11
	str	r0, [sp, #8]
	.loc	1 59 3                          @ ../src/keypad.c:59:3
	ldr	r1, [sp, #16]
	.loc	1 59 13 is_stmt 0               @ ../src/keypad.c:59:13
	strb	r0, [r1]
	add	r1, sp, #4
.Ltmp9:
	.loc	1 60 15 is_stmt 1               @ ../src/keypad.c:60:15
	strb	r0, [r1]
	.loc	1 60 7 is_stmt 0                @ ../src/keypad.c:60:7
	b	.LBB2_1
.LBB2_1:                                @ =>This Loop Header: Depth=1
                                        @     Child Loop BB2_3 Depth 2
	.loc	1 0 7                           @ ../src/keypad.c:0:7
	add	r0, sp, #4
.Ltmp10:
	.loc	1 60 21                         @ ../src/keypad.c:60:21
	ldrb	r0, [r0]
	.loc	1 60 30                         @ ../src/keypad.c:60:30
	ldr	r1, __arm_cp.2_0
	ldrb	r1, [r1]
.Ltmp11:
	.loc	1 60 3                          @ ../src/keypad.c:60:3
	cmp	r0, r1
	bge	.LBB2_17
	b	.LBB2_2
.LBB2_2:                                @   in Loop: Header=BB2_1 Depth=1
.Ltmp12:
	.loc	1 62 5 is_stmt 1                @ ../src/keypad.c:62:5
	bl	resetAllColumnPins
	add	r0, sp, #4
	.loc	1 63 18                         @ ../src/keypad.c:63:18
	ldrb	r0, [r0]
	.loc	1 63 5 is_stmt 0                @ ../src/keypad.c:63:5
	bl	setColumnPin
	mov	r1, sp
	movs	r0, #0
.Ltmp13:
	.loc	1 64 17 is_stmt 1               @ ../src/keypad.c:64:17
	strb	r0, [r1]
	.loc	1 64 9 is_stmt 0                @ ../src/keypad.c:64:9
	b	.LBB2_3
.LBB2_3:                                @   Parent Loop BB2_1 Depth=1
                                        @ =>  This Inner Loop Header: Depth=2
	.loc	1 0 9                           @ ../src/keypad.c:0:9
	mov	r0, sp
.Ltmp14:
	.loc	1 64 23                         @ ../src/keypad.c:64:23
	ldrb	r0, [r0]
	.loc	1 64 32                         @ ../src/keypad.c:64:32
	ldr	r1, __arm_cp.2_0
	ldrb	r1, [r1, #1]
.Ltmp15:
	.loc	1 64 5                          @ ../src/keypad.c:64:5
	cmp	r0, r1
	bge	.LBB2_15
	b	.LBB2_4
.LBB2_4:                                @   in Loop: Header=BB2_3 Depth=2
	.loc	1 0 5                           @ ../src/keypad.c:0:5
	mov	r0, sp
.Ltmp16:
	.loc	1 66 21 is_stmt 1               @ ../src/keypad.c:66:21
	ldrb	r0, [r0]
	.loc	1 66 10 is_stmt 0               @ ../src/keypad.c:66:10
	bl	readRowPin
.Ltmp17:
	.loc	1 66 10                         @ ../src/keypad.c:66:10
	cmp	r0, #1
	bne	.LBB2_13
	b	.LBB2_5
.LBB2_5:                                @   in Loop: Header=BB2_3 Depth=2
	.loc	1 0 10                          @ ../src/keypad.c:0:10
	ldr	r0, __arm_cp.2_2
.Ltmp18:
	.loc	1 68 9 is_stmt 1                @ ../src/keypad.c:68:9
	bl	CLK_SysTickDelay
	mov	r0, sp
.Ltmp19:
	.loc	1 69 23                         @ ../src/keypad.c:69:23
	ldrb	r0, [r0]
	.loc	1 69 12 is_stmt 0               @ ../src/keypad.c:69:12
	bl	readRowPin
.Ltmp20:
	.loc	1 69 12                         @ ../src/keypad.c:69:12
	cmp	r0, #1
	bne	.LBB2_12
	b	.LBB2_6
.LBB2_6:
	.loc	1 0 12                          @ ../src/keypad.c:0:12
	mov	r0, sp
.Ltmp21:
	.loc	1 70 27 is_stmt 1               @ ../src/keypad.c:70:27
	ldrb	r0, [r0]
	movs	r1, #5
	.loc	1 70 12 is_stmt 0               @ ../src/keypad.c:70:12
	muls	r1, r0, r1
	ldr	r0, __arm_cp.2_3
	adds	r0, r0, r1
	add	r1, sp, #4
	.loc	1 70 30                         @ ../src/keypad.c:70:30
	ldrb	r1, [r1]
	.loc	1 70 12                         @ ../src/keypad.c:70:12
	ldrb	r0, [r0, r1]
	add	r1, sp, #12
	.loc	1 70 10                         @ ../src/keypad.c:70:10
	strb	r0, [r1]
	.loc	1 71 6 is_stmt 1                @ ../src/keypad.c:71:6
	b	.LBB2_7
.LBB2_7:                                @ =>This Inner Loop Header: Depth=1
	.loc	1 0 6 is_stmt 0                 @ ../src/keypad.c:0:6
	mov	r0, sp
	.loc	1 71 23                         @ ../src/keypad.c:71:23
	ldrb	r0, [r0]
	.loc	1 71 12                         @ ../src/keypad.c:71:12
	bl	readRowPin
	.loc	1 71 6                          @ ../src/keypad.c:71:6
	cbz	r0, .LBB2_11
	b	.LBB2_8
.LBB2_8:                                @   in Loop: Header=BB2_7 Depth=1
.Ltmp22:
	.loc	1 72 22 is_stmt 1               @ ../src/keypad.c:72:22
	ldr	r0, [sp, #8]
	adds	r0, r0, #1
	str	r0, [sp, #8]
.Ltmp23:
	.loc	1 73 10                         @ ../src/keypad.c:73:10
	ldr	r0, [sp, #8]
	ldr	r1, __arm_cp.2_4
.Ltmp24:
	.loc	1 73 10 is_stmt 0               @ ../src/keypad.c:73:10
	cmp	r0, r1
	blo	.LBB2_10
	b	.LBB2_9
.LBB2_9:
.Ltmp25:
	.loc	1 74 9 is_stmt 1                @ ../src/keypad.c:74:9
	ldr	r1, [sp, #16]
	movs	r0, #1
	.loc	1 74 19 is_stmt 0               @ ../src/keypad.c:74:19
	strb	r0, [r1]
	add	r0, sp, #12
	.loc	1 75 15 is_stmt 1               @ ../src/keypad.c:75:15
	ldrb	r0, [r0]
	add	r1, sp, #20
	.loc	1 75 8 is_stmt 0                @ ../src/keypad.c:75:8
	strh	r0, [r1]
	b	.LBB2_18
.Ltmp26:
.LBB2_10:                               @   in Loop: Header=BB2_7 Depth=1
	.loc	1 71 6 is_stmt 1                @ ../src/keypad.c:71:6
	b	.LBB2_7
.LBB2_11:
	.loc	1 0 6 is_stmt 0                 @ ../src/keypad.c:0:6
	add	r0, sp, #12
	.loc	1 78 13 is_stmt 1               @ ../src/keypad.c:78:13
	ldrb	r0, [r0]
	add	r1, sp, #20
	.loc	1 78 6 is_stmt 0                @ ../src/keypad.c:78:6
	strh	r0, [r1]
	b	.LBB2_18
.Ltmp27:
.LBB2_12:                               @   in Loop: Header=BB2_3 Depth=2
	.loc	1 80 7 is_stmt 1                @ ../src/keypad.c:80:7
	b	.LBB2_13
.Ltmp28:
.LBB2_13:                               @   in Loop: Header=BB2_3 Depth=2
	.loc	1 81 5                          @ ../src/keypad.c:81:5
	b	.LBB2_14
.Ltmp29:
.LBB2_14:                               @   in Loop: Header=BB2_3 Depth=2
	.loc	1 64 43                         @ ../src/keypad.c:64:43
	ldr	r0, [sp]
	adds	r0, r0, #1
	mov	r1, sp
	strb	r0, [r1]
	.loc	1 64 5 is_stmt 0                @ ../src/keypad.c:64:5
	b	.LBB2_3
.Ltmp30:
.LBB2_15:                               @   in Loop: Header=BB2_1 Depth=1
	.loc	1 82 3 is_stmt 1                @ ../src/keypad.c:82:3
	b	.LBB2_16
.Ltmp31:
.LBB2_16:                               @   in Loop: Header=BB2_1 Depth=1
	.loc	1 60 44                         @ ../src/keypad.c:60:44
	ldr	r0, [sp, #4]
	adds	r0, r0, #1
	add	r1, sp, #4
	strb	r0, [r1]
	.loc	1 60 3 is_stmt 0                @ ../src/keypad.c:60:3
	b	.LBB2_1
.Ltmp32:
.LBB2_17:
	.loc	1 0 3                           @ ../src/keypad.c:0:3
	add	r1, sp, #20
	ldr	r0, __arm_cp.2_1
	.loc	1 83 3 is_stmt 1                @ ../src/keypad.c:83:3
	strh	r0, [r1]
	b	.LBB2_18
.LBB2_18:
	.loc	1 84 1                          @ ../src/keypad.c:84:1
	movs	r1, #0
	add	r0, sp, #20
	ldrsh	r0, [r0, r1]
	add	sp, #24
	pop	{r7, pc}
.Ltmp33:
	.p2align	2
@ %bb.19:
	.loc	1 0 1 is_stmt 0                 @ ../src/keypad.c:0:1
__arm_cp.2_0:
	.long	KeyPad
.Lcpi_end6:
	.size	__arm_cp.2_0, .Lcpi_end6-__arm_cp.2_0
__arm_cp.2_1:
	.long	65535                           @ 0xffff
.Lcpi_end7:
	.size	__arm_cp.2_1, .Lcpi_end7-__arm_cp.2_1
__arm_cp.2_2:
	.long	20000                           @ 0x4e20
.Lcpi_end8:
	.size	__arm_cp.2_2, .Lcpi_end8-__arm_cp.2_2
__arm_cp.2_3:
	.long	keyboardMatris
.Lcpi_end9:
	.size	__arm_cp.2_3, .Lcpi_end9-__arm_cp.2_3
__arm_cp.2_4:
	.long	500001                          @ 0x7a121
.Lcpi_end10:
	.size	__arm_cp.2_4, .Lcpi_end10-__arm_cp.2_4
.Lfunc_end2:
	.size	Scan, .Lfunc_end2-Scan
	.cfi_endproc
	.cantunwind
	.fnend
                                        @ -- End function
	.section	.text.setColumnPin,"ax",%progbits
	.p2align	2                               @ -- Begin function setColumnPin
	.type	setColumnPin,%function
	.code	16                              @ @setColumnPin
	.thumb_func
setColumnPin:
.Lfunc_begin3:
	.loc	1 97 0 is_stmt 1                @ ../src/keypad.c:97:0
	.fnstart
	.cfi_startproc
@ %bb.0:
	.pad	#8
	sub	sp, #8
	.cfi_def_cfa_offset 8
	mov	r1, r0
                                        @ kill: def $r0 killed $r1
	add	r0, sp, #4
	strb	r1, [r0]
.Ltmp34:
	.loc	1 98 12 prologue_end            @ ../src/keypad.c:98:12
	ldrb	r0, [r0]
	.loc	1 98 5 is_stmt 0                @ ../src/keypad.c:98:5
	str	r0, [sp]                        @ 4-byte Spill
	cmp	r0, #4
	bhi	.LBB3_8
@ %bb.1:
	.loc	1 0 5                           @ ../src/keypad.c:0:5
	ldr	r1, [sp]                        @ 4-byte Reload
	lsls	r2, r1, #2
	adr	r0, .LJTI3_0
	adds	r0, r0, r2
	mov	pc, r0
@ %bb.2:
	.p2align	2
.LJTI3_0:
	b.w	.LBB3_3
	b.w	.LBB3_4
	b.w	.LBB3_5
	b.w	.LBB3_6
	b.w	.LBB3_7
.LBB3_3:
	ldr	r1, __arm_cp.3_4
	movs	r0, #1
.Ltmp35:
	.loc	1 100 19 is_stmt 1              @ ../src/keypad.c:100:19
	str	r0, [r1]
	.loc	1 101 9                         @ ../src/keypad.c:101:9
	b	.LBB3_8
.LBB3_4:
	.loc	1 0 9 is_stmt 0                 @ ../src/keypad.c:0:9
	ldr	r1, __arm_cp.3_3
	movs	r0, #1
	.loc	1 103 19 is_stmt 1              @ ../src/keypad.c:103:19
	str	r0, [r1]
	.loc	1 104 9                         @ ../src/keypad.c:104:9
	b	.LBB3_8
.LBB3_5:
	.loc	1 0 9 is_stmt 0                 @ ../src/keypad.c:0:9
	ldr	r1, __arm_cp.3_2
	movs	r0, #1
	.loc	1 106 19 is_stmt 1              @ ../src/keypad.c:106:19
	str	r0, [r1]
	.loc	1 107 9                         @ ../src/keypad.c:107:9
	b	.LBB3_8
.LBB3_6:
	.loc	1 0 9 is_stmt 0                 @ ../src/keypad.c:0:9
	ldr	r1, __arm_cp.3_1
	movs	r0, #1
	.loc	1 109 19 is_stmt 1              @ ../src/keypad.c:109:19
	str	r0, [r1]
	.loc	1 110 9                         @ ../src/keypad.c:110:9
	b	.LBB3_8
.LBB3_7:
	.loc	1 0 9 is_stmt 0                 @ ../src/keypad.c:0:9
	ldr	r1, __arm_cp.3_0
	movs	r0, #1
	.loc	1 112 19 is_stmt 1              @ ../src/keypad.c:112:19
	str	r0, [r1]
	.loc	1 113 9                         @ ../src/keypad.c:113:9
	b	.LBB3_8
.Ltmp36:
.LBB3_8:
	.loc	1 115 1                         @ ../src/keypad.c:115:1
	add	sp, #8
	bx	lr
.Ltmp37:
	.p2align	2
@ %bb.9:
	.loc	1 0 1 is_stmt 0                 @ ../src/keypad.c:0:1
__arm_cp.3_0:
	.long	1073760456                      @ 0x400048c8
.Lcpi_end11:
	.size	__arm_cp.3_0, .Lcpi_end11-__arm_cp.3_0
__arm_cp.3_1:
	.long	1073760460                      @ 0x400048cc
.Lcpi_end12:
	.size	__arm_cp.3_1, .Lcpi_end12-__arm_cp.3_1
__arm_cp.3_2:
	.long	1073760392                      @ 0x40004888
.Lcpi_end13:
	.size	__arm_cp.3_2, .Lcpi_end13-__arm_cp.3_2
__arm_cp.3_3:
	.long	1073760408                      @ 0x40004898
.Lcpi_end14:
	.size	__arm_cp.3_3, .Lcpi_end14-__arm_cp.3_3
__arm_cp.3_4:
	.long	1073760284                      @ 0x4000481c
.Lcpi_end15:
	.size	__arm_cp.3_4, .Lcpi_end15-__arm_cp.3_4
.Lfunc_end3:
	.size	setColumnPin, .Lfunc_end3-setColumnPin
	.cfi_endproc
	.cantunwind
	.fnend
                                        @ -- End function
	.section	.text.resetAllColumnPins,"ax",%progbits
	.p2align	2                               @ -- Begin function resetAllColumnPins
	.type	resetAllColumnPins,%function
	.code	16                              @ @resetAllColumnPins
	.thumb_func
resetAllColumnPins:
.Lfunc_begin4:
	.loc	1 89 0 is_stmt 1                @ ../src/keypad.c:89:0
	.fnstart
	.cfi_startproc
@ %bb.0:
	ldr	r1, __arm_cp.4_0
	movs	r0, #0
.Ltmp38:
	.loc	1 90 15 prologue_end            @ ../src/keypad.c:90:15
	str	r0, [r1]
	ldr	r1, __arm_cp.4_1
	.loc	1 91 15                         @ ../src/keypad.c:91:15
	str	r0, [r1]
	ldr	r1, __arm_cp.4_2
	.loc	1 92 15                         @ ../src/keypad.c:92:15
	str	r0, [r1]
	ldr	r1, __arm_cp.4_3
	.loc	1 93 15                         @ ../src/keypad.c:93:15
	str	r0, [r1]
	ldr	r1, __arm_cp.4_4
	.loc	1 94 15                         @ ../src/keypad.c:94:15
	str	r0, [r1]
	.loc	1 95 1                          @ ../src/keypad.c:95:1
	bx	lr
.Ltmp39:
	.p2align	2
@ %bb.1:
	.loc	1 0 1 is_stmt 0                 @ ../src/keypad.c:0:1
__arm_cp.4_0:
	.long	1073760284                      @ 0x4000481c
.Lcpi_end16:
	.size	__arm_cp.4_0, .Lcpi_end16-__arm_cp.4_0
__arm_cp.4_1:
	.long	1073760408                      @ 0x40004898
.Lcpi_end17:
	.size	__arm_cp.4_1, .Lcpi_end17-__arm_cp.4_1
__arm_cp.4_2:
	.long	1073760392                      @ 0x40004888
.Lcpi_end18:
	.size	__arm_cp.4_2, .Lcpi_end18-__arm_cp.4_2
__arm_cp.4_3:
	.long	1073760460                      @ 0x400048cc
.Lcpi_end19:
	.size	__arm_cp.4_3, .Lcpi_end19-__arm_cp.4_3
__arm_cp.4_4:
	.long	1073760456                      @ 0x400048c8
.Lcpi_end20:
	.size	__arm_cp.4_4, .Lcpi_end20-__arm_cp.4_4
.Lfunc_end4:
	.size	resetAllColumnPins, .Lfunc_end4-resetAllColumnPins
	.cfi_endproc
	.cantunwind
	.fnend
                                        @ -- End function
	.section	.text.readRowPin,"ax",%progbits
	.p2align	2                               @ -- Begin function readRowPin
	.type	readRowPin,%function
	.code	16                              @ @readRowPin
	.thumb_func
readRowPin:
.Lfunc_begin5:
	.loc	1 117 0 is_stmt 1               @ ../src/keypad.c:117:0
	.fnstart
	.cfi_startproc
@ %bb.0:
	.pad	#12
	sub	sp, #12
	.cfi_def_cfa_offset 12
	mov	r1, r0
                                        @ kill: def $r0 killed $r1
	add	r0, sp, #4
	strb	r1, [r0]
.Ltmp40:
	.loc	1 118 12 prologue_end           @ ../src/keypad.c:118:12
	ldrb	r0, [r0]
	.loc	1 118 5 is_stmt 0               @ ../src/keypad.c:118:5
	str	r0, [sp]                        @ 4-byte Spill
	cmp	r0, #3
	bhi	.LBB5_7
@ %bb.1:
	.loc	1 0 5                           @ ../src/keypad.c:0:5
	ldr	r1, [sp]                        @ 4-byte Reload
	lsls	r2, r1, #2
	adr	r0, .LJTI5_0
	adds	r0, r0, r2
	mov	pc, r0
@ %bb.2:
	.p2align	2
.LJTI5_0:
	b.w	.LBB5_3
	b.w	.LBB5_4
	b.w	.LBB5_5
	b.w	.LBB5_6
.LBB5_3:
	ldr	r0, __arm_cp.5_3
.Ltmp41:
	.loc	1 120 16 is_stmt 1              @ ../src/keypad.c:120:16
	ldr	r0, [r0]
	add	r1, sp, #8
	.loc	1 120 9 is_stmt 0               @ ../src/keypad.c:120:9
	strb	r0, [r1]
	b	.LBB5_8
.LBB5_4:
	.loc	1 0 9                           @ ../src/keypad.c:0:9
	ldr	r0, __arm_cp.5_2
	.loc	1 122 16 is_stmt 1              @ ../src/keypad.c:122:16
	ldr	r0, [r0]
	add	r1, sp, #8
	.loc	1 122 9 is_stmt 0               @ ../src/keypad.c:122:9
	strb	r0, [r1]
	b	.LBB5_8
.LBB5_5:
	.loc	1 0 9                           @ ../src/keypad.c:0:9
	ldr	r0, __arm_cp.5_1
	.loc	1 124 16 is_stmt 1              @ ../src/keypad.c:124:16
	ldr	r0, [r0]
	add	r1, sp, #8
	.loc	1 124 9 is_stmt 0               @ ../src/keypad.c:124:9
	strb	r0, [r1]
	b	.LBB5_8
.LBB5_6:
	.loc	1 0 9                           @ ../src/keypad.c:0:9
	ldr	r0, __arm_cp.5_0
	.loc	1 126 16 is_stmt 1              @ ../src/keypad.c:126:16
	ldr	r0, [r0]
	add	r1, sp, #8
	.loc	1 126 9 is_stmt 0               @ ../src/keypad.c:126:9
	strb	r0, [r1]
	b	.LBB5_8
.Ltmp42:
.LBB5_7:
	.loc	1 0 9                           @ ../src/keypad.c:0:9
	add	r1, sp, #8
	movs	r0, #255
	.loc	1 128 3 is_stmt 1               @ ../src/keypad.c:128:3
	strb	r0, [r1]
	b	.LBB5_8
.LBB5_8:
	.loc	1 129 1                         @ ../src/keypad.c:129:1
	movs	r1, #0
	add	r0, sp, #8
	ldrsb	r0, [r0, r1]
	add	sp, #12
	bx	lr
.Ltmp43:
	.p2align	2
@ %bb.9:
	.loc	1 0 1 is_stmt 0                 @ ../src/keypad.c:0:1
__arm_cp.5_0:
	.long	1073760304                      @ 0x40004830
.Lcpi_end21:
	.size	__arm_cp.5_0, .Lcpi_end21-__arm_cp.5_0
__arm_cp.5_1:
	.long	1073760448                      @ 0x400048c0
.Lcpi_end22:
	.size	__arm_cp.5_1, .Lcpi_end22-__arm_cp.5_1
__arm_cp.5_2:
	.long	1073760452                      @ 0x400048c4
.Lcpi_end23:
	.size	__arm_cp.5_2, .Lcpi_end23-__arm_cp.5_2
__arm_cp.5_3:
	.long	1073760384                      @ 0x40004880
.Lcpi_end24:
	.size	__arm_cp.5_3, .Lcpi_end24-__arm_cp.5_3
.Lfunc_end5:
	.size	readRowPin, .Lfunc_end5-readRowPin
	.cfi_endproc
	.cantunwind
	.fnend
                                        @ -- End function
	.section	.text.CLK_SysTickDelay,"ax",%progbits
	.p2align	2                               @ -- Begin function CLK_SysTickDelay
	.type	CLK_SysTickDelay,%function
	.code	16                              @ @CLK_SysTickDelay
	.thumb_func
CLK_SysTickDelay:
.Lfunc_begin6:
	.file	5 "E:\\BERSY\\sdk\\SampleCode\\NuCodeGen\\Scale\\KEIL" "../../../../Library/StdDriver/inc\\clk.h"
	.loc	5 597 0 is_stmt 1               @ ../../../../Library/StdDriver/inc\clk.h:597:0
	.fnstart
	.cfi_startproc
@ %bb.0:
	.pad	#4
	sub	sp, #4
	.cfi_def_cfa_offset 4
	str	r0, [sp]
.Ltmp44:
	.loc	5 598 21 prologue_end           @ ../../../../Library/StdDriver/inc\clk.h:598:21
	ldr	r1, [sp]
	.loc	5 598 31 is_stmt 0              @ ../../../../Library/StdDriver/inc\clk.h:598:31
	ldr	r0, __arm_cp.6_0
	ldr	r0, [r0]
	.loc	5 598 29                        @ ../../../../Library/StdDriver/inc\clk.h:598:29
	muls	r0, r1, r0
	ldr	r1, __arm_cp.6_1
	.loc	5 598 19                        @ ../../../../Library/StdDriver/inc\clk.h:598:19
	str	r0, [r1]
	ldr	r1, __arm_cp.6_2
	movs	r0, #0
	.loc	5 599 19 is_stmt 1              @ ../../../../Library/StdDriver/inc\clk.h:599:19
	str	r0, [r1]
	ldr	r1, __arm_cp.6_3
	movs	r0, #5
	.loc	5 600 19                        @ ../../../../Library/StdDriver/inc\clk.h:600:19
	str	r0, [r1]
	.loc	5 603 5                         @ ../../../../Library/StdDriver/inc\clk.h:603:5
	b	.LBB6_1
.LBB6_1:                                @ =>This Inner Loop Header: Depth=1
	.loc	5 0 5 is_stmt 0                 @ ../../../../Library/StdDriver/inc\clk.h:0:5
	ldr	r0, __arm_cp.6_3
	.loc	5 603 22                        @ ../../../../Library/StdDriver/inc\clk.h:603:22
	ldr	r0, [r0]
	.loc	5 603 5                         @ ../../../../Library/StdDriver/inc\clk.h:603:5
	lsls	r0, r0, #15
	cmp	r0, #0
	bmi	.LBB6_3
	b	.LBB6_2
.LBB6_2:                                @   in Loop: Header=BB6_1 Depth=1
	b	.LBB6_1
.LBB6_3:
	.loc	5 0 5                           @ ../../../../Library/StdDriver/inc\clk.h:0:5
	ldr	r1, __arm_cp.6_3
	movs	r0, #0
	.loc	5 608 19 is_stmt 1              @ ../../../../Library/StdDriver/inc\clk.h:608:19
	str	r0, [r1]
	.loc	5 609 1                         @ ../../../../Library/StdDriver/inc\clk.h:609:1
	add	sp, #4
	bx	lr
.Ltmp45:
	.p2align	2
@ %bb.4:
	.loc	5 0 1 is_stmt 0                 @ ../../../../Library/StdDriver/inc\clk.h:0:1
__arm_cp.6_0:
	.long	CyclesPerUs
.Lcpi_end25:
	.size	__arm_cp.6_0, .Lcpi_end25-__arm_cp.6_0
__arm_cp.6_1:
	.long	3758153748                      @ 0xe000e014
.Lcpi_end26:
	.size	__arm_cp.6_1, .Lcpi_end26-__arm_cp.6_1
__arm_cp.6_2:
	.long	3758153752                      @ 0xe000e018
.Lcpi_end27:
	.size	__arm_cp.6_2, .Lcpi_end27-__arm_cp.6_2
__arm_cp.6_3:
	.long	3758153744                      @ 0xe000e010
.Lcpi_end28:
	.size	__arm_cp.6_3, .Lcpi_end28-__arm_cp.6_3
.Lfunc_end6:
	.size	CLK_SysTickDelay, .Lfunc_end6-CLK_SysTickDelay
	.cfi_endproc
	.cantunwind
	.fnend
                                        @ -- End function
	.hidden	keyboardMatris                  @ @keyboardMatris
	.type	keyboardMatris,%object
	.section	.data.keyboardMatris,"aw",%progbits
	.globl	keyboardMatris
keyboardMatris:
	.ascii	"0.czt"
	.ascii	"123qs"
	.ascii	"456pu"
	.ascii	"789mC"
	.size	keyboardMatris, 20

	.hidden	KeyPad                          @ @KeyPad
	.type	KeyPad,%object
	.section	.bss.KeyPad,"aw",%nobits
	.globl	KeyPad
	.p2align	1
KeyPad:
	.zero	4
	.size	KeyPad, 4

	.section	".note.GNU-stack","",%progbits
	.eabi_attribute	30, 6	@ Tag_ABI_optimization_goals
	.ARM_attribute	16, 1	@ Tag_AV_eba