	.text
	.syntax unified
	.eabi_attribute	67, "2.09"	@ Tag_conformance
	.cpu	cortex-m23
	.eabi_attribute	6, 16	@ Tag_CPU_arch
	.eabi_attribute	7, 77	@ Tag_CPU_arch_profile
	.eabi_attribute	8, 0	@ Tag_ARM_ISA_use
	.eabi_attribute	9, 3	@ Tag_THUMB_ISA_use
	.eabi_attribute	34, 0	@ Tag_CPU_unaligned_access
	.eabi_attribute	17, 1	@ Tag_ABI_PCS_GOT_use
	.eabi_attribute	20, 2	@ Tag_ABI_FP_denormal
	.eabi_attribute	21, 0	@ Tag_ABI_FP_exceptions
	.eabi_attribute	23, 1	@ Tag_ABI_FP_number_model
	.eabi_attribute	24, 1	@ Tag_ABI_align_needed
	.eabi_attribute	25, 1	@ Tag_ABI_align_preserved
	.eabi_attribute	38, 1	@ Tag_ABI_FP_16bit_format
	.eabi_attribute	18, 2	@ Tag_ABI_PCS_wchar_t
	.eabi_attribute	26, 1	@ Tag_ABI_enum_size
	.eabi_attribute	14, 0	@ Tag_ABI_PCS_R9_use
	.file	"periph_conf.c"
	.file	1 "E:\\BERSY\\sdk\\SampleCode\\NuCodeGen\\Scale\\KEIL" "../../../../Library/Device/Nuvoton/M251/Include/M251.h"
	.file	2 "C:\\Keil_v5\\ARM\\ARMCLANG\\Bin\\..\\include" "stdint.h"
	.file	3 "E:\\BERSY\\sdk\\SampleCode\\NuCodeGen\\Scale\\KEIL" "../../../../Library/Device/Nuvoton/M251/Include/fmc_reg.h"
	.file	4 "E:\\BERSY\\sdk\\SampleCode\\NuCodeGen\\Scale\\KEIL" "../../../../Library/Device/Nuvoton/M251/Include/gpio_reg.h"
	.file	5 "E:\\BERSY\\sdk\\SampleCode\\NuCodeGen\\Scale\\KEIL" "../../../../Library/Device/Nuvoton/M251/Include/i2c_reg.h"
	.file	6 "E:\\BERSY\\sdk\\SampleCode\\NuCodeGen\\Scale\\KEIL" "../../../../Library/Device/Nuvoton/M251/Include/spi_reg.h"
	.file	7 "E:\\BERSY\\sdk\\SampleCode\\NuCodeGen\\Scale\\KEIL" "../../../../Library/Device/Nuvoton/M251/Include/timer_reg.h"
	.file	8 "E:\\BERSY\\sdk\\SampleCode\\NuCodeGen\\Scale\\KEIL" "../../../../Library/Device/Nuvoton/M251/Include/uart_reg.h"
	.file	9 "E:\\BERSY\\sdk\\SampleCode\\NuCodeGen\\Scale\\KEIL" "../../../../Library/CMSIS/Include\\core_cm23.h"
	.file	10 "E:\\BERSY\\sdk\\SampleCode\\NuCodeGen\\Scale\\KEIL" "../../../../Library/Device/Nuvoton/M251/Include/sys_reg.h"
	.file	11 "E:\\BERSY\\sdk\\SampleCode\\NuCodeGen\\Scale\\KEIL" "../../../../Library/Device/Nuvoton/M251/Include/wdt_reg.h"
	.section	.text.FMC_Init,"ax",%progbits
	.hidden	FMC_Init                        @ -- Begin function FMC_Init
	.globl	FMC_Init
	.p2align	2
	.type	FMC_Init,%function
	.code	16                              @ @FMC_Init
	.thumb_func
FMC_Init:
.Lfunc_begin0:
	.file	12 "E:\\BERSY\\sdk\\SampleCode\\NuCodeGen\\Scale\\KEIL" "../periph_conf.c"
	.loc	12 13 0                         @ ../periph_conf.c:13:0
	.fnstart
	.cfi_sections .debug_frame
	.cfi_startproc
@ %bb.0:
	.save	{r7, lr}
	push	{r7, lr}
	.cfi_def_cfa_offset 8
	.cfi_offset lr, -4
	.cfi_offset r7, -8
.Ltmp0:
	.loc	12 16 5 prologue_end            @ ../periph_conf.c:16:5
	bl	FMC_Open
	ldr	r1, __arm_cp.0_0
	.loc	12 19 5                         @ ../periph_conf.c:19:5
	ldr	r0, [r1]
	movs	r2, #16
	orrs	r0, r2
	str	r0, [r1]
	.loc	12 21 1                         @ ../periph_conf.c:21:1
	pop	{r7, pc}
.Ltmp1:
	.p2align	2
@ %bb.1:
	.loc	12 0 1 is_stmt 0                @ ../periph_conf.c:0:1
__arm_cp.0_0:
	.long	1073790976                      @ 0x4000c000
.Lcpi_end0:
	.size	__arm_cp.0_0, .Lcpi_end0-__arm_cp.0_0
.Lfunc_end0:
	.size	FMC_Init, .Lfunc_end0-FMC_Init
	.cfi_endproc
	.cantunwind
	.fnend
                                        @ -- End function
	.section	.text.GPIO_Init,"ax",%progbits
	.hidden	GPIO_Init                       @ -- Begin function GPIO_Init
	.globl	GPIO_Init
	.p2align	2
	.type	GPIO_Init,%function
	.code	16                              @ @GPIO_Init
	.thumb_func
GPIO_Init:
.Lfunc_begin1:
	.loc	12 26 0 is_stmt 1               @ ../periph_conf.c:26:0
	.fnstart
	.cfi_startproc
@ %bb.0:
	.save	{r4, r5, r6, lr}
	push	{r4, r5, r6, lr}
	.cfi_def_cfa_offset 16
	.cfi_offset lr, -4
	.cfi_offset r6, -8
	.cfi_offset r5, -12
	.cfi_offset r4, -16
	.pad	#24
	sub	sp, #24
	.cfi_def_cfa_offset 40
	movs	r0, #0
.Ltmp2:
	.loc	12 27 20 prologue_end           @ ../periph_conf.c:27:20
	str	r0, [sp, #4]                    @ 4-byte Spill
	str	r0, [sp, #20]
	ldr	r2, __arm_cp.1_0
	ldr	r1, __arm_cp.1_1
	.loc	12 30 14                        @ ../periph_conf.c:30:14
	str	r1, [r2]
	ldr	r1, __arm_cp.1_2
	.loc	12 47 16                        @ ../periph_conf.c:47:16
	str	r0, [r1]
	ldr	r2, __arm_cp.1_3
	ldr	r1, __arm_cp.1_4
	.loc	12 64 14                        @ ../periph_conf.c:64:14
	str	r1, [r2]
	ldr	r1, __arm_cp.1_5
	.loc	12 81 16                        @ ../periph_conf.c:81:16
	str	r0, [r1]
	ldr	r1, __arm_cp.1_6
	.loc	12 98 14                        @ ../periph_conf.c:98:14
	str	r0, [r1]
	ldr	r1, __arm_cp.1_7
	.loc	12 115 17                       @ ../periph_conf.c:115:17
	str	r0, [r1]
	ldr	r2, __arm_cp.1_8
	.loc	12 132 15                       @ ../periph_conf.c:132:15
	str	r0, [r2]
	.loc	12 149 15                       @ ../periph_conf.c:149:15
	ldr	r1, [r2]
	str	r1, [r2]
	ldr	r1, __arm_cp.1_9
	.loc	12 166 17                       @ ../periph_conf.c:166:17
	str	r0, [r1]
	movs	r2, #1
	str	r2, [sp, #12]                   @ 4-byte Spill
	lsls	r1, r2, #25
	ldr	r3, __arm_cp.1_10
	.loc	12 183 15                       @ ../periph_conf.c:183:15
	str	r1, [r3]
	ldr	r3, __arm_cp.1_11
	ldr	r1, __arm_cp.1_12
	.loc	12 200 14                       @ ../periph_conf.c:200:14
	str	r1, [r3]
	ldr	r1, __arm_cp.1_13
	.loc	12 217 16                       @ ../periph_conf.c:217:16
	str	r0, [r1]
	ldr	r3, __arm_cp.1_14
	movw	r1, #948
	.loc	12 234 14                       @ ../periph_conf.c:234:14
	str	r1, [r3]
	ldr	r1, __arm_cp.1_15
	.loc	12 251 16                       @ ../periph_conf.c:251:16
	str	r0, [r1]
	ldr	r1, __arm_cp.1_16
	.loc	12 268 14                       @ ../periph_conf.c:268:14
	str	r0, [r1]
	ldr	r1, __arm_cp.1_17
	.loc	12 285 17                       @ ../periph_conf.c:285:17
	str	r0, [r1]
	ldr	r3, __arm_cp.1_18
	.loc	12 302 15                       @ ../periph_conf.c:302:15
	str	r0, [r3]
	.loc	12 319 15                       @ ../periph_conf.c:319:15
	ldr	r1, [r3]
	str	r1, [r3]
	ldr	r1, __arm_cp.1_19
	.loc	12 336 17                       @ ../periph_conf.c:336:17
	str	r0, [r1]
	ldr	r1, __arm_cp.1_20
	.loc	12 353 15                       @ ../periph_conf.c:353:15
	str	r0, [r1]
	ldr	r1, __arm_cp.1_21
	.loc	12 369 5                        @ ../periph_conf.c:369:5
	str	r1, [sp, #16]                   @ 4-byte Spill
	ldr	r0, [r1]
	lsls	r6, r2, #17
	bics	r0, r6
	str	r0, [r1]
	movs	r0, #17
	.loc	12 371 5                        @ ../periph_conf.c:371:5
	bl	__NVIC_EnableIRQ
	movs	r0, #10
	.loc	12 373 5                        @ ../periph_conf.c:373:5
	str	r0, [sp, #8]                    @ 4-byte Spill
	bl	__NVIC_EnableIRQ
	movs	r0, #11
	.loc	12 375 5                        @ ../periph_conf.c:375:5
	bl	__NVIC_EnableIRQ
	movs	r0, #13
	.loc	12 377 5                        @ ../periph_conf.c:377:5
	bl	__NVIC_EnableIRQ
	ldr	r0, [sp, #4]                    @ 4-byte Reload
	ldr	r2, [sp, #12]                   @ 4-byte Reload
	ldr	r1, [sp, #16]                   @ 4-byte Reload
	ldr	r4, __arm_cp.1_22
	ldr	r3, __arm_cp.1_23
	.loc	12 380 14                       @ ../periph_conf.c:380:14
	str	r3, [r4]
	ldr	r3, __arm_cp.1_24
	.loc	12 397 16                       @ ../periph_conf.c:397:16
	str	r0, [r3]
	ldr	r4, __arm_cp.1_25
	movs	r3, #95
	.loc	12 414 14                       @ ../periph_conf.c:414:14
	str	r3, [r4]
	ldr	r3, __arm_cp.1_26
	.loc	12 431 16                       @ ../periph_conf.c:431:16
	str	r0, [r3]
	ldr	r3, __arm_cp.1_27
	.loc	12 448 14                       @ ../periph_conf.c:448:14
	str	r0, [r3]
	ldr	r3, __arm_cp.1_28
	.loc	12 465 17                       @ ../periph_conf.c:465:17
	str	r0, [r3]
	ldr	r4, __arm_cp.1_29
	.loc	12 482 15                       @ ../periph_conf.c:482:15
	str	r0, [r4]
	.loc	12 499 15                       @ ../periph_conf.c:499:15
	ldr	r3, [r4]
	lsls	r5, r2, #16
	orrs	r3, r5
	str	r3, [r4]
	ldr	r3, __arm_cp.1_30
	.loc	12 516 17                       @ ../periph_conf.c:516:17
	str	r0, [r3]
	ldr	r3, __arm_cp.1_31
	ldr	r0, __arm_cp.1_32
	.loc	12 533 15                       @ ../periph_conf.c:533:15
	str	r0, [r3]
	.loc	12 549 5                        @ ../periph_conf.c:549:5
	ldr	r0, [r1]
	lsls	r2, r2, #18
	bics	r0, r2
	str	r0, [r1]
	movs	r0, #18
	.loc	12 551 5                        @ ../periph_conf.c:551:5
	bl	__NVIC_EnableIRQ
	ldr	r3, [sp, #4]                    @ 4-byte Reload
	ldr	r0, [sp, #8]                    @ 4-byte Reload
	ldr	r2, [sp, #12]                   @ 4-byte Reload
	ldr	r1, [sp, #16]                   @ 4-byte Reload
	ldr	r5, __arm_cp.1_33
	movs	r4, #80
	.loc	12 554 14                       @ ../periph_conf.c:554:14
	str	r4, [r5]
	ldr	r4, __arm_cp.1_34
	.loc	12 567 16                       @ ../periph_conf.c:567:16
	str	r3, [r4]
	ldr	r5, __arm_cp.1_35
	movs	r4, #15
	.loc	12 580 14                       @ ../periph_conf.c:580:14
	str	r4, [r5]
	ldr	r4, __arm_cp.1_36
	.loc	12 593 16                       @ ../periph_conf.c:593:16
	str	r3, [r4]
	ldr	r5, __arm_cp.1_37
	movs	r4, #2
	.loc	12 606 14                       @ ../periph_conf.c:606:14
	str	r4, [r5]
	ldr	r4, __arm_cp.1_38
	.loc	12 619 17                       @ ../periph_conf.c:619:17
	str	r3, [r4]
	ldr	r5, __arm_cp.1_39
	.loc	12 632 15                       @ ../periph_conf.c:632:15
	str	r3, [r5]
	.loc	12 645 15                       @ ../periph_conf.c:645:15
	ldr	r4, [r5]
	orrs	r4, r6
	str	r4, [r5]
	ldr	r4, __arm_cp.1_40
	.loc	12 658 17                       @ ../periph_conf.c:658:17
	str	r3, [r4]
	ldr	r3, __arm_cp.1_41
	.loc	12 671 15                       @ ../periph_conf.c:671:15
	str	r0, [r3]
	.loc	12 683 5                        @ ../periph_conf.c:683:5
	ldr	r0, [r1]
	lsls	r2, r2, #19
	bics	r0, r2
	str	r0, [r1]
	movs	r0, #19
	.loc	12 685 5                        @ ../periph_conf.c:685:5
	bl	__NVIC_EnableIRQ
	.loc	12 687 1                        @ ../periph_conf.c:687:1
	add	sp, #24
	pop	{r4, r5, r6, pc}
.Ltmp3:
	.p2align	2
@ %bb.1:
	.loc	12 0 1 is_stmt 0                @ ../periph_conf.c:0:1
__arm_cp.1_0:
	.long	1073758208                      @ 0x40004000
.Lcpi_end1:
	.size	__arm_cp.1_0, .Lcpi_end1-__arm_cp.1_0
__arm_cp.1_1:
	.long	21824                           @ 0x5540
.Lcpi_end2:
	.size	__arm_cp.1_1, .Lcpi_end2-__arm_cp.1_1
__arm_cp.1_2:
	.long	1073758212                      @ 0x40004004
.Lcpi_end3:
	.size	__arm_cp.1_2, .Lcpi_end3-__arm_cp.1_2
__arm_cp.1_3:
	.long	1073758216                      @ 0x40004008
.Lcpi_end4:
	.size	__arm_cp.1_3, .Lcpi_end4-__arm_cp.1_3
__arm_cp.1_4:
	.long	4344                            @ 0x10f8
.Lcpi_end5:
	.size	__arm_cp.1_4, .Lcpi_end5-__arm_cp.1_4
__arm_cp.1_5:
	.long	1073758220                      @ 0x4000400c
.Lcpi_end6:
	.size	__arm_cp.1_5, .Lcpi_end6-__arm_cp.1_5
__arm_cp.1_6:
	.long	1073758228                      @ 0x40004014
.Lcpi_end7:
	.size	__arm_cp.1_6, .Lcpi_end7-__arm_cp.1_6
__arm_cp.1_7:
	.long	1073758232                      @ 0x40004018
.Lcpi_end8:
	.size	__arm_cp.1_7, .Lcpi_end8-__arm_cp.1_7
__arm_cp.1_8:
	.long	1073758236                      @ 0x4000401c
.Lcpi_end9:
	.size	__arm_cp.1_8, .Lcpi_end9-__arm_cp.1_8
__arm_cp.1_9:
	.long	1073758248                      @ 0x40004028
.Lcpi_end10:
	.size	__arm_cp.1_9, .Lcpi_end10-__arm_cp.1_9
__arm_cp.1_10:
	.long	1073758256                      @ 0x40004030
.Lcpi_end11:
	.size	__arm_cp.1_10, .Lcpi_end11-__arm_cp.1_10
__arm_cp.1_11:
	.long	1073758272                      @ 0x40004040
.Lcpi_end12:
	.size	__arm_cp.1_11, .Lcpi_end12-__arm_cp.1_11
__arm_cp.1_12:
	.long	345360                          @ 0x54510
.Lcpi_end13:
	.size	__arm_cp.1_12, .Lcpi_end13-__arm_cp.1_12
__arm_cp.1_13:
	.long	1073758276                      @ 0x40004044
.Lcpi_end14:
	.size	__arm_cp.1_13, .Lcpi_end14-__arm_cp.1_13
__arm_cp.1_14:
	.long	1073758280                      @ 0x40004048
.Lcpi_end15:
	.size	__arm_cp.1_14, .Lcpi_end15-__arm_cp.1_14
__arm_cp.1_15:
	.long	1073758284                      @ 0x4000404c
.Lcpi_end16:
	.size	__arm_cp.1_15, .Lcpi_end16-__arm_cp.1_15
__arm_cp.1_16:
	.long	1073758292                      @ 0x40004054
.Lcpi_end17:
	.size	__arm_cp.1_16, .Lcpi_end17-__arm_cp.1_16
__arm_cp.1_17:
	.long	1073758296                      @ 0x40004058
.Lcpi_end18:
	.size	__arm_cp.1_17, .Lcpi_end18-__arm_cp.1_17
__arm_cp.1_18:
	.long	1073758300                      @ 0x4000405c
.Lcpi_end19:
	.size	__arm_cp.1_18, .Lcpi_end19-__arm_cp.1_18
__arm_cp.1_19:
	.long	1073758312                      @ 0x40004068
.Lcpi_end20:
	.size	__arm_cp.1_19, .Lcpi_end20-__arm_cp.1_19
__arm_cp.1_20:
	.long	1073758320                      @ 0x40004070
.Lcpi_end21:
	.size	__arm_cp.1_20, .Lcpi_end21-__arm_cp.1_20
__arm_cp.1_21:
	.long	1073759296                      @ 0x40004440
.Lcpi_end22:
	.size	__arm_cp.1_21, .Lcpi_end22-__arm_cp.1_21
__arm_cp.1_22:
	.long	1073758336                      @ 0x40004080
.Lcpi_end23:
	.size	__arm_cp.1_22, .Lcpi_end23-__arm_cp.1_22
__arm_cp.1_23:
	.long	4112                            @ 0x1010
.Lcpi_end24:
	.size	__arm_cp.1_23, .Lcpi_end24-__arm_cp.1_23
__arm_cp.1_24:
	.long	1073758340                      @ 0x40004084
.Lcpi_end25:
	.size	__arm_cp.1_24, .Lcpi_end25-__arm_cp.1_24
__arm_cp.1_25:
	.long	1073758344                      @ 0x40004088
.Lcpi_end26:
	.size	__arm_cp.1_25, .Lcpi_end26-__arm_cp.1_25
__arm_cp.1_26:
	.long	1073758348                      @ 0x4000408c
.Lcpi_end27:
	.size	__arm_cp.1_26, .Lcpi_end27-__arm_cp.1_26
__arm_cp.1_27:
	.long	1073758356                      @ 0x40004094
.Lcpi_end28:
	.size	__arm_cp.1_27, .Lcpi_end28-__arm_cp.1_27
__arm_cp.1_28:
	.long	1073758360                      @ 0x40004098
.Lcpi_end29:
	.size	__arm_cp.1_28, .Lcpi_end29-__arm_cp.1_28
__arm_cp.1_29:
	.long	1073758364                      @ 0x4000409c
.Lcpi_end30:
	.size	__arm_cp.1_29, .Lcpi_end30-__arm_cp.1_29
__arm_cp.1_30:
	.long	1073758376                      @ 0x400040a8
.Lcpi_end31:
	.size	__arm_cp.1_30, .Lcpi_end31-__arm_cp.1_30
__arm_cp.1_31:
	.long	1073758384                      @ 0x400040b0
.Lcpi_end32:
	.size	__arm_cp.1_31, .Lcpi_end32-__arm_cp.1_31
__arm_cp.1_32:
	.long	650                             @ 0x28a
.Lcpi_end33:
	.size	__arm_cp.1_32, .Lcpi_end33-__arm_cp.1_32
__arm_cp.1_33:
	.long	1073758400                      @ 0x400040c0
.Lcpi_end34:
	.size	__arm_cp.1_33, .Lcpi_end34-__arm_cp.1_33
__arm_cp.1_34:
	.long	1073758404                      @ 0x400040c4
.Lcpi_end35:
	.size	__arm_cp.1_34, .Lcpi_end35-__arm_cp.1_34
__arm_cp.1_35:
	.long	1073758408                      @ 0x400040c8
.Lcpi_end36:
	.size	__arm_cp.1_35, .Lcpi_end36-__arm_cp.1_35
__arm_cp.1_36:
	.long	1073758412                      @ 0x400040cc
.Lcpi_end37:
	.size	__arm_cp.1_36, .Lcpi_end37-__arm_cp.1_36
__arm_cp.1_37:
	.long	1073758420                      @ 0x400040d4
.Lcpi_end38:
	.size	__arm_cp.1_37, .Lcpi_end38-__arm_cp.1_37
__arm_cp.1_38:
	.long	1073758424                      @ 0x400040d8
.Lcpi_end39:
	.size	__arm_cp.1_38, .Lcpi_end39-__arm_cp.1_38
__arm_cp.1_39:
	.long	1073758428                      @ 0x400040dc
.Lcpi_end40:
	.size	__arm_cp.1_39, .Lcpi_end40-__arm_cp.1_39
__arm_cp.1_40:
	.long	1073758440                      @ 0x400040e8
.Lcpi_end41:
	.size	__arm_cp.1_40, .Lcpi_end41-__arm_cp.1_40
__arm_cp.1_41:
	.long	1073758448                      @ 0x400040f0
.Lcpi_end42:
	.size	__arm_cp.1_41, .Lcpi_end42-__arm_cp.1_41
.Lfunc_end1:
	.size	GPIO_Init, .Lfunc_end1-GPIO_Init
	.cfi_endproc
	.cantunwind
	.fnend
                                        @ -- End function
	.section	.text.__NVIC_EnableIRQ,"ax",%progbits
	.p2align	2                               @ -- Begin function __NVIC_EnableIRQ
	.type	__NVIC_EnableIRQ,%function
	.code	16                              @ @__NVIC_EnableIRQ
	.thumb_func
__NVIC_EnableIRQ:
.Lfunc_begin2:
	.loc	9 1276 0 is_stmt 1              @ ../../../../Library/CMSIS/Include\core_cm23.h:1276:0
	.fnstart
	.cfi_startproc
@ %bb.0:
	.pad	#4
	sub	sp, #4
	.cfi_def_cfa_offset 4
	mov	r1, r0
                                        @ kill: def $r0 killed $r1
	mov	r0, sp
	strb	r1, [r0]
.Ltmp4:
	.loc	9 1277 17 prologue_end          @ ../../../../Library/CMSIS/Include\core_cm23.h:1277:17
	movs	r1, #0
	ldrsb	r0, [r0, r1]
.Ltmp5:
	.loc	9 1277 7 is_stmt 0              @ ../../../../Library/CMSIS/Include\core_cm23.h:1277:7
	cmp	r0, #0
	bmi	.LBB2_2
	b	.LBB2_1
.LBB2_1:
.Ltmp6:
	.loc	9 1279 93 is_stmt 1             @ ../../../../Library/CMSIS/Include\core_cm23.h:1279:93
	movs	r1, #0
	mov	r0, sp
	ldrsb	r1, [r0, r1]
	movs	r0, #31
	.loc	9 1279 99 is_stmt 0             @ ../../../../Library/CMSIS/Include\core_cm23.h:1279:99
	mov	r2, r1
	ands	r2, r0
	movs	r0, #1
	.loc	9 1279 69                       @ ../../../../Library/CMSIS/Include\core_cm23.h:1279:69
	lsls	r0, r2
	.loc	9 1279 43                       @ ../../../../Library/CMSIS/Include\core_cm23.h:1279:43
	lsrs	r1, r1, #5
	lsls	r1, r1, #2
	ldr	r2, __arm_cp.2_0
	.loc	9 1279 52                       @ ../../../../Library/CMSIS/Include\core_cm23.h:1279:52
	str	r0, [r1, r2]
	.loc	9 1280 3 is_stmt 1              @ ../../../../Library/CMSIS/Include\core_cm23.h:1280:3
	b	.LBB2_2
.Ltmp7:
.LBB2_2:
	.loc	9 1281 1                        @ ../../../../Library/CMSIS/Include\core_cm23.h:1281:1
	add	sp, #4
	bx	lr
.Ltmp8:
	.p2align	2
@ %bb.3:
	.loc	9 0 1 is_stmt 0                 @ ../../../../Library/CMSIS/Include\core_cm23.h:0:1
__arm_cp.2_0:
	.long	3758153984                      @ 0xe000e100
.Lcpi_end43:
	.size	__arm_cp.2_0, .Lcpi_end43-__arm_cp.2_0
.Lfunc_end2:
	.size	__NVIC_EnableIRQ, .Lfunc_end2-__NVIC_EnableIRQ
	.cfi_endproc
	.cantunwind
	.fnend
                                        @ -- End function
	.section	.text.I2C1_Init,"ax",%progbits
	.hidden	I2C1_Init                       @ -- Begin function I2C1_Init
	.globl	I2C1_Init
	.p2align	2
	.type	I2C1_Init,%function
	.code	16                              @ @I2C1_Init
	.thumb_func
I2C1_Init:
.Lfunc_begin3:
	.loc	12 689 0 is_stmt 1              @ ../periph_conf.c:689:0
	.fnstart
	.cfi_startproc
@ %bb.0:
	.save	{r7, lr}
	push	{r7, lr}
	.cfi_def_cfa_offset 8
	.cfi_offset lr, -4
	.cfi_offset r7, -8
	ldr	r0, __arm_cp.3_0
	ldr	r1, __arm_cp.3_1
.Ltmp9:
	.loc	12 690 5 prologue_end           @ ../periph_conf.c:690:5
	bl	I2C_Open
	.loc	12 692 1                        @ ../periph_conf.c:692:1
	pop	{r7, pc}
.Ltmp10:
	.p2align	2
@ %bb.1:
	.loc	12 0 1 is_stmt 0                @ ../periph_conf.c:0:1
__arm_cp.3_0:
	.long	1074270208                      @ 0x40081000
.Lcpi_end44:
	.size	__arm_cp.3_0, .Lcpi_end44-__arm_cp.3_0
__arm_cp.3_1:
	.long	400000                          @ 0x61a80
.Lcpi_end45:
	.size	__arm_cp.3_1, .Lcpi_end45-__arm_cp.3_1
.Lfunc_end3:
	.size	I2C1_Init, .Lfunc_end3-I2C1_Init
	.cfi_endproc
	.cantunwind
	.fnend
                                        @ -- End function
	.section	.text.SPII2S0_Init,"ax",%progbits
	.hidden	SPII2S0_Init                    @ -- Begin function SPII2S0_Init
	.globl	SPII2S0_Init
	.p2align	2
	.type	SPII2S0_Init,%function
	.code	16                              @ @SPII2S0_Init
	.thumb_func
SPII2S0_Init:
.Lfunc_begin4:
	.loc	12 697 0 is_stmt 1              @ ../periph_conf.c:697:0
	.fnstart
	.cfi_startproc
@ %bb.0:
	.save	{r4, lr}
	push	{r4, lr}
	.cfi_def_cfa_offset 8
	.cfi_offset lr, -4
	.cfi_offset r4, -8
	.pad	#16
	sub	sp, #16
	.cfi_def_cfa_offset 24
	ldr	r0, __arm_cp.4_0
.Ltmp11:
	.loc	12 700 5 prologue_end           @ ../periph_conf.c:700:5
	str	r0, [sp]
	ldr	r0, __arm_cp.4_1
	str	r0, [sp, #12]                   @ 4-byte Spill
	movs	r1, #0
	str	r1, [sp, #8]                    @ 4-byte Spill
	movs	r2, #12
	movs	r3, #8
	bl	SPI_Open
	ldr	r2, [sp, #8]                    @ 4-byte Reload
                                        @ kill: def $r1 killed $r0
	ldr	r0, [sp, #12]                   @ 4-byte Reload
	ldr	r3, __arm_cp.4_2
	.loc	12 703 26                       @ ../periph_conf.c:703:26
	ldr	r1, [r3]
	movs	r4, #4
	.loc	12 703 32 is_stmt 0             @ ../periph_conf.c:703:32
	bics	r1, r4
	.loc	12 703 17                       @ ../periph_conf.c:703:17
	str	r1, [r3]
	.loc	12 706 5 is_stmt 1              @ ../periph_conf.c:706:5
	ldr	r1, [r0]
	movw	r3, #8192
	bics	r1, r3
	str	r1, [r0]
	.loc	12 709 5                        @ ../periph_conf.c:709:5
	mov	r1, r2
	bl	SPI_SetFIFO
	.loc	12 711 1                        @ ../periph_conf.c:711:1
	add	sp, #16
	pop	{r4, pc}
.Ltmp12:
	.p2align	2
@ %bb.1:
	.loc	12 0 1 is_stmt 0                @ ../periph_conf.c:0:1
__arm_cp.4_0:
	.long	2000000                         @ 0x1e8480
.Lcpi_end46:
	.size	__arm_cp.4_0, .Lcpi_end46-__arm_cp.4_0
__arm_cp.4_1:
	.long	1074139136                      @ 0x40061000
.Lcpi_end47:
	.size	__arm_cp.4_1, .Lcpi_end47-__arm_cp.4_1
__arm_cp.4_2:
	.long	1074139144                      @ 0x40061008
.Lcpi_end48:
	.size	__arm_cp.4_2, .Lcpi_end48-__arm_cp.4_2
.Lfunc_end4:
	.size	SPII2S0_Init, .Lfunc_end4-SPII2S0_Init
	.cfi_endproc
	.cantunwind
	.fnend
                                        @ -- End function
	.section	.text.TIMER0_Init,"ax",%progbits
	.hidden	TIMER0_Init                     @ -- Begin function TIMER0_Init
	.globl	TIMER0_Init
	.p2align	2
	.type	TIMER0_Init,%function
	.code	16                              @ @TIMER0_Init
	.thumb_func
TIMER0_Init:
.Lfunc_begin5:
	.loc	12 713 0 is_stmt 1              @ ../periph_conf.c:713:0
	.fnstart
	.cfi_startproc
@ %bb.0:
	.save	{r7, lr}
	push	{r7, lr}
	.cfi_def_cfa_offset 8
	.cfi_offset lr, -4
	.cfi_offset r7, -8
	.pad	#8
	sub	sp, #8
	.cfi_def_cfa_offset 16
	movs	r2, #1
	lsls	r1, r2, #27
	ldr	r0, __arm_cp.5_0
.Ltmp13:
	.loc	12 715 5 prologue_end           @ ../periph_conf.c:715:5
	str	r0, [sp, #4]                    @ 4-byte Spill
	bl	TIMER_Open
                                        @ kill: def $r1 killed $r0
	.loc	12 722 5                        @ ../periph_conf.c:722:5
	ldr	r0, [sp, #4]                    @ 4-byte Reload
	bl	TIMER_EnableInt
	movs	r0, #32
	.loc	12 724 5                        @ ../periph_conf.c:724:5
	bl	__NVIC_EnableIRQ
	.loc	12 726 1                        @ ../periph_conf.c:726:1
	add	sp, #8
	pop	{r7, pc}
.Ltmp14:
	.p2align	2
@ %bb.1:
	.loc	12 0 1 is_stmt 0                @ ../periph_conf.c:0:1
__arm_cp.5_0:
	.long	1074069504                      @ 0x40050000
.Lcpi_end49:
	.size	__arm_cp.5_0, .Lcpi_end49-__arm_cp.5_0
.Lfunc_end5:
	.size	TIMER0_Init, .Lfunc_end5-TIMER0_Init
	.cfi_endproc
	.cantunwind
	.fnend
                                        @ -- End function
	.section	.text.TIMER_EnableInt,"ax",%progbits
	.p2align	1                               @ -- Begin function TIMER_EnableInt
	.type	TIMER_EnableInt,%function
	.code	16                              @ @TIMER_EnableInt
	.thumb_func
TIMER_EnableInt:
.Lfunc_begin6:
	.file	13 "E:\\BERSY\\sdk\\SampleCode\\NuCodeGen\\Scale\\KEIL" "../../../../Library/StdDriver/inc\\timer.h"
	.loc	13 351 0 is_stmt 1              @ ../../../../Library/StdDriver/inc\timer.h:351:0
	.fnstart
	.cfi_startproc
@ %bb.0:
	.pad	#4
	sub	sp, #4
	.cfi_def_cfa_offset 4
	str	r0, [sp]
.Ltmp15:
	.loc	13 352 5 prologue_end           @ ../../../../Library/StdDriver/inc\timer.h:352:5
	ldr	r1, [sp]
	.loc	13 352 16 is_stmt 0             @ ../../../../Library/StdDriver/inc\timer.h:352:16
	ldr	r0, [r1]
	movs	r2, #1
	lsls	r2, r2, #29
	orrs	r0, r2
	str	r0, [r1]
	.loc	13 353 1 is_stmt 1              @ ../../../../Library/StdDriver/inc\timer.h:353:1
	add	sp, #4
	bx	lr
.Ltmp16:
.Lfunc_end6:
	.size	TIMER_EnableInt, .Lfunc_end6-TIMER_EnableInt
	.cfi_endproc
	.cantunwind
	.fnend
                                        @ -- End function
	.section	.text.TIMER1_Init,"ax",%progbits
	.hidden	TIMER1_Init                     @ -- Begin function TIMER1_Init
	.globl	TIMER1_Init
	.p2align	2
	.type	TIMER1_Init,%function
	.code	16                              @ @TIMER1_Init
	.thumb_func
TIMER1_Init:
.Lfunc_begin7:
	.loc	12 729 0                        @ ../periph_conf.c:729:0
	.fnstart
	.cfi_startproc
@ %bb.0:
	.save	{r7, lr}
	push	{r7, lr}
	.cfi_def_cfa_offset 8
	.cfi_offset lr, -4
	.cfi_offset r7, -8
	.pad	#8
	sub	sp, #8
	.cfi_def_cfa_offset 16
	movs	r2, #1
	lsls	r1, r2, #27
	ldr	r0, __arm_cp.7_0
.Ltmp17:
	.loc	12 731 5 prologue_end           @ ../periph_conf.c:731:5
	str	r0, [sp, #4]                    @ 4-byte Spill
	bl	TIMER_Open
                                        @ kill: def $r1 killed $r0
	.loc	12 738 5                        @ ../periph_conf.c:738:5
	ldr	r0, [sp, #4]                    @ 4-byte Reload
	bl	TIMER_EnableInt
	movs	r0, #33
	.loc	12 740 5                        @ ../periph_conf.c:740:5
	bl	__NVIC_EnableIRQ
	.loc	12 742 1                        @ ../periph_conf.c:742:1
	add	sp, #8
	pop	{r7, pc}
.Ltmp18:
	.p2align	2
@ %bb.1:
	.loc	12 0 1 is_stmt 0                @ ../periph_conf.c:0:1
__arm_cp.7_0:
	.long	1074069760                      @ 0x40050100
.Lcpi_end50:
	.size	__arm_cp.7_0, .Lcpi_end50-__arm_cp.7_0
.Lfunc_end7:
	.size	TIMER1_Init, .Lfunc_end7-TIMER1_Init
	.cfi_endproc
	.cantunwind
	.fnend
                                        @ -- End function
	.section	.text.UART2_Init,"ax",%progbits
	.hidden	UART2_Init                      @ -- Begin function UART2_Init
	.globl	UART2_Init
	.p2align	2
	.type	UART2_Init,%function
	.code	16                              @ @UART2_Init
	.thumb_func
UART2_Init:
.Lfunc_begin8:
	.loc	12 744 0 is_stmt 1              @ ../periph_conf.c:744:0
	.fnstart
	.cfi_startproc
@ %bb.0:
	.save	{r7, lr}
	push	{r7, lr}
	.cfi_def_cfa_offset 8
	.cfi_offset lr, -4
	.cfi_offset r7, -8
	movs	r0, #225
	lsls	r1, r0, #9
	ldr	r0, __arm_cp.8_0
.Ltmp19:
	.loc	12 747 5 prologue_end           @ ../periph_conf.c:747:5
	bl	UART_Open
	ldr	r1, __arm_cp.8_1
	.loc	12 750 27                       @ ../periph_conf.c:750:27
	ldr	r0, [r1]
	movs	r2, #240
	.loc	12 750 32 is_stmt 0             @ ../periph_conf.c:750:32
	bics	r0, r2
	.loc	12 750 17                       @ ../periph_conf.c:750:17
	str	r0, [r1]
	.loc	12 752 1 is_stmt 1              @ ../periph_conf.c:752:1
	pop	{r7, pc}
.Ltmp20:
	.p2align	2
@ %bb.1:
	.loc	12 0 1 is_stmt 0                @ ../periph_conf.c:0:1
__arm_cp.8_0:
	.long	1074208768                      @ 0x40072000
.Lcpi_end51:
	.size	__arm_cp.8_0, .Lcpi_end51-__arm_cp.8_0
__arm_cp.8_1:
	.long	1074208776                      @ 0x40072008
.Lcpi_end52:
	.size	__arm_cp.8_1, .Lcpi_end52-__arm_cp.8_1
.Lfunc_end8:
	.size	UART2_Init, .Lfunc_end8-UART2_Init
	.cfi_endproc
	.cantunwind
	.fnend
                                        @ -- End function
	.section	.text.WDT_Init,"ax",%progbits
	.hidden	WDT_Init                        @ -- Begin function WDT_Init
	.globl	WDT_Init
	.p2align	1
	.type	WDT_Init,%function
	.code	16                              @ @WDT_Init
	.thumb_func
WDT_Init:
.Lfunc_begin9:
	.loc	12 754 0 is_stmt 1              @ ../periph_conf.c:754:0
	.fnstart
	.cfi_startproc
@ %bb.0:
	.save	{r7, lr}
	push	{r7, lr}
	.cfi_def_cfa_offset 8
	.cfi_offset lr, -4
	.cfi_offset r7, -8
.Ltmp21:
	.loc	12 756 5 prologue_end           @ ../periph_conf.c:756:5
	bl	SYS_UnlockReg
	movs	r1, #3
	movs	r3, #0
	.loc	12 759 5                        @ ../periph_conf.c:759:5
	mov	r0, r3
	mov	r2, r3
	bl	WDT_Open
	.loc	12 762 5                        @ ../periph_conf.c:762:5
	bl	WDT_EnableInt
	movs	r0, #8
	.loc	12 765 5                        @ ../periph_conf.c:765:5
	bl	__NVIC_EnableIRQ
	.loc	12 767 1                        @ ../periph_conf.c:767:1
	pop	{r7, pc}
.Ltmp22:
.Lfunc_end9:
	.size	WDT_Init, .Lfunc_end9-WDT_Init
	.cfi_endproc
	.cantunwind
	.fnend
                                        @ -- End function
	.section	.text.SYS_UnlockReg,"ax",%progbits
	.p2align	2                               @ -- Begin function SYS_UnlockReg
	.type	SYS_UnlockReg,%function
	.code	16                              @ @SYS_UnlockReg
	.thumb_func
SYS_UnlockReg:
.Lfunc_begin10:
	.file	14 "E:\\BERSY\\sdk\\SampleCode\\NuCodeGen\\Scale\\KEIL" "../../../../Library/StdDriver/inc\\sys.h"
	.loc	14 1348 0                       @ ../../../../Library/StdDriver/inc\sys.h:1348:0
	.fnstart
	.cfi_startproc
@ %bb.0:
	.loc	14 1349 5 prologue_end          @ ../../../../Library/StdDriver/inc\sys.h:1349:5
	b	.LBB10_1
.LBB10_1:                               @ =>This Inner Loop Header: Depth=1
	.loc	14 0 5 is_stmt 0                @ ../../../../Library/StdDriver/inc\sys.h:0:5
	ldr	r1, __arm_cp.10_0
	movs	r0, #89
.Ltmp23:
	.loc	14 1351 22 is_stmt 1            @ ../../../../Library/StdDriver/inc\sys.h:1351:22
	str	r0, [r1]
	movs	r0, #22
	.loc	14 1352 22                      @ ../../../../Library/StdDriver/inc\sys.h:1352:22
	str	r0, [r1]
	movs	r0, #136
	.loc	14 1353 22                      @ ../../../../Library/StdDriver/inc\sys.h:1353:22
	str	r0, [r1]
	.loc	14 1354 5                       @ ../../../../Library/StdDriver/inc\sys.h:1354:5
	b	.LBB10_2
.Ltmp24:
.LBB10_2:                               @   in Loop: Header=BB10_1 Depth=1
	.loc	14 0 5 is_stmt 0                @ ../../../../Library/StdDriver/inc\sys.h:0:5
	ldr	r0, __arm_cp.10_0
	.loc	14 1354 19                      @ ../../../../Library/StdDriver/inc\sys.h:1354:19
	ldr	r0, [r0]
.Ltmp25:
	.loc	14 1354 5                       @ ../../../../Library/StdDriver/inc\sys.h:1354:5
	cmp	r0, #0
	beq	.LBB10_1
	b	.LBB10_3
.Ltmp26:
.LBB10_3:
	.loc	14 1355 1 is_stmt 1             @ ../../../../Library/StdDriver/inc\sys.h:1355:1
	bx	lr
.Ltmp27:
	.p2align	2
@ %bb.4:
	.loc	14 0 1 is_stmt 0                @ ../../../../Library/StdDriver/inc\sys.h:0:1
__arm_cp.10_0:
	.long	1073742080                      @ 0x40000100
.Lcpi_end53:
	.size	__arm_cp.10_0, .Lcpi_end53-__arm_cp.10_0
.Lfunc_end10:
	.size	SYS_UnlockReg, .Lfunc_end10-SYS_UnlockReg
	.cfi_endproc
	.cantunwind
	.fnend
                                        @ -- End function
	.section	.text.WDT_EnableInt,"ax",%progbits
	.p2align	2                               @ -- Begin function WDT_EnableInt
	.type	WDT_EnableInt,%function
	.code	16                              @ @WDT_EnableInt
	.thumb_func
WDT_EnableInt:
.Lfunc_begin11:
	.file	15 "E:\\BERSY\\sdk\\SampleCode\\NuCodeGen\\Scale\\KEIL" "../../../../Library/StdDriver/inc\\wdt.h"
	.loc	15 189 0 is_stmt 1              @ ../../../../Library/StdDriver/inc\wdt.h:189:0
	.fnstart
	.cfi_startproc
@ %bb.0:
	ldr	r1, __arm_cp.11_0
.Ltmp28:
	.loc	15 190 14 prologue_end          @ ../../../../Library/StdDriver/inc\wdt.h:190:14
	ldr	r0, [r1]
	movs	r2, #64
	orrs	r0, r2
	str	r0, [r1]
	.loc	15 191 5                        @ ../../../../Library/StdDriver/inc\wdt.h:191:5
	bx	lr
.Ltmp29:
	.p2align	2
@ %bb.1:
	.loc	15 0 5 is_stmt 0                @ ../../../../Library/StdDriver/inc\wdt.h:0:5
__arm_cp.11_0:
	.long	1074003968                      @ 0x40040000
.Lcpi_end54:
	.size	__arm_cp.11_0, .Lcpi_end54-__arm_cp.11_0
.Lfunc_end11:
	.size	WDT_EnableInt, .Lfunc_end11-WDT_EnableInt
	.cfi_endproc
	.cantunwind
	.fnend
                                        @ -- End function
	.section	.text.Periph_Init,"ax",%progbits
	.hidden	Periph_Init                     @ -- Begin function Periph_Init
	.globl	Periph_Init
	.p2align	1
	.type	Periph_Init,%function
	.code	16                              @ @Periph_Init
	.thumb_func
Periph_Init:
.Lfunc_begin12:
	.loc	12 770 0 is_stmt 1              @ ../periph_conf.c:770:0
	.fnstart
	.cfi_startproc
@ %bb.0:
	.save	{r7, lr}
	push	{r7, lr}
	.cfi_def_cfa_offset 8
	.cfi_offset lr, -4
	.cfi_offset r7, -8
.Ltmp30:
	.loc	12 772 5 prologue_end           @ ../periph_conf.c:772:5
	bl	UART2_Init
	.loc	12 774 5                        @ ../periph_conf.c:774:5
	bl	GPIO_Init
	.loc	12 776 5                        @ ../periph_conf.c:776:5
	bl	I2C1_Init
	.loc	12 778 5                        @ ../periph_conf.c:778:5
	bl	SPII2S0_Init
	.loc	12 780 5                        @ ../periph_conf.c:780:5
	bl	TIMER0_Init
	.loc	12 782 5                        @ ../periph_conf.c:782:5
	bl	TIMER1_Init
	.loc	12 784 5                        @ ../periph_conf.c:784:5
	bl	WDT_Init
	.loc	12 786 5                        @ ../periph_conf.c:786:5
	bl	FMC_Init
	.loc	12 788 1                        @ ../periph_conf.c:788:1
	pop	{r7, pc}
.Ltmp31:
.Lfunc_end12:
	.size	Periph_Init, .Lfunc_end12-Periph_Init
	.cfi_endproc
	.cantunwind
	.fnend
                                        @ -- End function
	.section	".note.GNU-stack","",%progbits
	.eabi_attribute	30, 6	@ Tag_ABI_optimization_goals
	.ARM_attribute	16, 1	@ Tag_AV_eba