	.text
	.syntax unified
	.eabi_attribute	67, "2.09"	@ Tag_conformance
	.cpu	cortex-m23
	.eabi_attribute	6, 16	@ Tag_CPU_arch
	.eabi_attribute	7, 77	@ Tag_CPU_arch_profile
	.eabi_attribute	8, 0	@ Tag_ARM_ISA_use
	.eabi_attribute	9, 3	@ Tag_THUMB_ISA_use
	.eabi_attribute	34, 0	@ Tag_CPU_unaligned_access
	.eabi_attribute	17, 1	@ Tag_ABI_PCS_GOT_use
	.eabi_attribute	20, 2	@ Tag_ABI_FP_denormal
	.eabi_attribute	21, 0	@ Tag_ABI_FP_exceptions
	.eabi_attribute	23, 1	@ Tag_ABI_FP_number_model
	.eabi_attribute	24, 1	@ Tag_ABI_align_needed
	.eabi_attribute	25, 1	@ Tag_ABI_align_preserved
	.eabi_attribute	38, 1	@ Tag_ABI_FP_16bit_format
	.eabi_attribute	18, 2	@ Tag_ABI_PCS_wchar_t
	.eabi_attribute	26, 1	@ Tag_ABI_enum_size
	.eabi_attribute	14, 0	@ Tag_ABI_PCS_R9_use
	.file	"spi.c"
	.file	1 "C:\\Keil_v5\\ARM\\ARMCLANG\\Bin\\..\\include" "stdint.h"
	.file	2 "E:\\BERSY\\sdk\\SampleCode\\NuCodeGen\\Scale\\KEIL" "../../../../Library/Device/Nuvoton/M251/Include/spi_reg.h"
	.file	3 "E:\\BERSY\\sdk\\SampleCode\\NuCodeGen\\Scale\\KEIL" "../../../../Library/Device/Nuvoton/M251/Include/clk_reg.h"
	.file	4 "E:\\BERSY\\sdk\\SampleCode\\NuCodeGen\\Scale\\KEIL" "../../../../Library/Device/Nuvoton/M251/Include/sys_reg.h"
	.section	.text.SPI_Open,"ax",%progbits
	.hidden	SPI_Open                        @ -- Begin function SPI_Open
	.globl	SPI_Open
	.p2align	2
	.type	SPI_Open,%function
	.code	16                              @ @SPI_Open
	.thumb_func
SPI_Open:
.Lfunc_begin0:
	.file	5 "E:\\BERSY\\sdk\\SampleCode\\NuCodeGen\\Scale\\KEIL" "../../../../Library/StdDriver/src/spi.c"
	.loc	5 48 0                          @ ../../../../Library/StdDriver/src/spi.c:48:0
	.fnstart
	.cfi_sections .debug_frame
	.cfi_startproc
@ %bb.0:
	.save	{r4, lr}
	push	{r4, lr}
	.cfi_def_cfa_offset 8
	.cfi_offset lr, -4
	.cfi_offset r4, -8
	.pad	#32
	sub	sp, #32
	.cfi_def_cfa_offset 40
	ldr	r4, [sp, #40]
	str	r0, [sp, #28]
	str	r1, [sp, #24]
	str	r2, [sp, #20]
	str	r3, [sp, #16]
	movs	r0, #0
.Ltmp0:
	.loc	5 49 14 prologue_end            @ ../../../../Library/StdDriver/src/spi.c:49:14
	str	r0, [sp, #12]
	.loc	5 49 52 is_stmt 0               @ ../../../../Library/StdDriver/src/spi.c:49:52
	str	r0, [sp]
	.loc	5 52 5 is_stmt 1                @ ../../../../Library/StdDriver/src/spi.c:52:5
	ldr	r1, [sp, #28]
	.loc	5 52 17 is_stmt 0               @ ../../../../Library/StdDriver/src/spi.c:52:17
	ldr	r0, [r1, #96]
	movs	r2, #1
	bics	r0, r2
	str	r0, [r1, #96]
.Ltmp1:
	.loc	5 54 9 is_stmt 1                @ ../../../../Library/StdDriver/src/spi.c:54:9
	ldr	r0, [sp, #16]
.Ltmp2:
	.loc	5 54 9 is_stmt 0                @ ../../../../Library/StdDriver/src/spi.c:54:9
	cmp	r0, #32
	bne	.LBB0_2
	b	.LBB0_1
.LBB0_1:
	.loc	5 0 9                           @ ../../../../Library/StdDriver/src/spi.c:0:9
	movs	r0, #0
.Ltmp3:
	.loc	5 56 22 is_stmt 1               @ ../../../../Library/StdDriver/src/spi.c:56:22
	str	r0, [sp, #16]
	.loc	5 57 5                          @ ../../../../Library/StdDriver/src/spi.c:57:5
	b	.LBB0_2
.Ltmp4:
.LBB0_2:
	.loc	5 60 19                         @ ../../../../Library/StdDriver/src/spi.c:60:19
	bl	CLK_GetHCLKFreq
	.loc	5 60 17 is_stmt 0               @ ../../../../Library/StdDriver/src/spi.c:60:17
	str	r0, [sp, #4]
.Ltmp5:
	.loc	5 62 9 is_stmt 1                @ ../../../../Library/StdDriver/src/spi.c:62:9
	ldr	r0, [sp, #24]
.Ltmp6:
	.loc	5 62 9 is_stmt 0                @ ../../../../Library/StdDriver/src/spi.c:62:9
	cbz	r0, .LBB0_3
	b	.LBB0_46
.LBB0_3:
.Ltmp7:
	.loc	5 65 9 is_stmt 1                @ ../../../../Library/StdDriver/src/spi.c:65:9
	ldr	r1, [sp, #28]
	movs	r0, #0
	.loc	5 65 20 is_stmt 0               @ ../../../../Library/StdDriver/src/spi.c:65:20
	str	r0, [r1, #8]
	.loc	5 68 20 is_stmt 1               @ ../../../../Library/StdDriver/src/spi.c:68:20
	ldr	r0, [sp, #24]
	.loc	5 68 38 is_stmt 0               @ ../../../../Library/StdDriver/src/spi.c:68:38
	ldr	r1, [sp, #16]
	.loc	5 68 51                         @ ../../../../Library/StdDriver/src/spi.c:68:51
	lsls	r1, r1, #8
	.loc	5 68 35                         @ ../../../../Library/StdDriver/src/spi.c:68:35
	orrs	r0, r1
	.loc	5 68 77                         @ ../../../../Library/StdDriver/src/spi.c:68:77
	ldr	r1, [sp, #20]
	.loc	5 68 74                         @ ../../../../Library/StdDriver/src/spi.c:68:74
	orrs	r0, r1
	movs	r1, #1
	.loc	5 68 89                         @ ../../../../Library/StdDriver/src/spi.c:68:89
	orrs	r0, r1
	.loc	5 68 9                          @ ../../../../Library/StdDriver/src/spi.c:68:9
	ldr	r1, [sp, #28]
	.loc	5 68 18                         @ ../../../../Library/StdDriver/src/spi.c:68:18
	str	r0, [r1]
.Ltmp8:
	.loc	5 70 13 is_stmt 1               @ ../../../../Library/StdDriver/src/spi.c:70:13
	ldr	r0, [sp, #40]
	.loc	5 70 28 is_stmt 0               @ ../../../../Library/StdDriver/src/spi.c:70:28
	ldr	r1, [sp, #4]
.Ltmp9:
	.loc	5 70 13                         @ ../../../../Library/StdDriver/src/spi.c:70:13
	cmp	r0, r1
	blo	.LBB0_10
	b	.LBB0_4
.LBB0_4:
.Ltmp10:
	.loc	5 73 17 is_stmt 1               @ ../../../../Library/StdDriver/src/spi.c:73:17
	ldr	r0, [sp, #28]
	ldr	r1, __arm_cp.0_0
.Ltmp11:
	.loc	5 73 17 is_stmt 0               @ ../../../../Library/StdDriver/src/spi.c:73:17
	cmp	r0, r1
	bne	.LBB0_6
	b	.LBB0_5
.LBB0_5:
	.loc	5 0 17                          @ ../../../../Library/StdDriver/src/spi.c:0:17
	ldr	r1, __arm_cp.0_2
.Ltmp12:
	.loc	5 75 38 is_stmt 1               @ ../../../../Library/StdDriver/src/spi.c:75:38
	ldr	r0, [r1]
	movs	r2, #32
	.loc	5 75 46 is_stmt 0               @ ../../../../Library/StdDriver/src/spi.c:75:46
	orrs	r0, r2
	movs	r2, #16
	.loc	5 75 76                         @ ../../../../Library/StdDriver/src/spi.c:75:76
	bics	r0, r2
	.loc	5 75 30                         @ ../../../../Library/StdDriver/src/spi.c:75:30
	str	r0, [r1]
	.loc	5 76 13 is_stmt 1               @ ../../../../Library/StdDriver/src/spi.c:76:13
	b	.LBB0_9
.Ltmp13:
.LBB0_6:
	.loc	5 77 22                         @ ../../../../Library/StdDriver/src/spi.c:77:22
	ldr	r0, [sp, #28]
	ldr	r1, __arm_cp.0_1
.Ltmp14:
	.loc	5 77 22 is_stmt 0               @ ../../../../Library/StdDriver/src/spi.c:77:22
	cmp	r0, r1
	bne	.LBB0_8
	b	.LBB0_7
.LBB0_7:
	.loc	5 0 22                          @ ../../../../Library/StdDriver/src/spi.c:0:22
	ldr	r1, __arm_cp.0_2
.Ltmp15:
	.loc	5 79 38 is_stmt 1               @ ../../../../Library/StdDriver/src/spi.c:79:38
	ldr	r0, [r1]
	movs	r2, #128
	.loc	5 79 46 is_stmt 0               @ ../../../../Library/StdDriver/src/spi.c:79:46
	orrs	r0, r2
	movs	r2, #64
	.loc	5 79 76                         @ ../../../../Library/StdDriver/src/spi.c:79:76
	bics	r0, r2
	.loc	5 79 30                         @ ../../../../Library/StdDriver/src/spi.c:79:30
	str	r0, [r1]
	.loc	5 80 13 is_stmt 1               @ ../../../../Library/StdDriver/src/spi.c:80:13
	b	.LBB0_8
.Ltmp16:
.LBB0_8:
	.loc	5 0 13 is_stmt 0                @ ../../../../Library/StdDriver/src/spi.c:0:13
	b	.LBB0_9
.LBB0_9:
	.loc	5 81 9 is_stmt 1                @ ../../../../Library/StdDriver/src/spi.c:81:9
	b	.LBB0_10
.Ltmp17:
.LBB0_10:
	.loc	5 84 13                         @ ../../../../Library/StdDriver/src/spi.c:84:13
	ldr	r0, [sp, #28]
	ldr	r1, __arm_cp.0_0
.Ltmp18:
	.loc	5 84 13 is_stmt 0               @ ../../../../Library/StdDriver/src/spi.c:84:13
	cmp	r0, r1
	bne	.LBB0_21
	b	.LBB0_11
.LBB0_11:
	.loc	5 0 13                          @ ../../../../Library/StdDriver/src/spi.c:0:13
	ldr	r0, __arm_cp.0_2
.Ltmp19:
	.loc	5 86 23 is_stmt 1               @ ../../../../Library/StdDriver/src/spi.c:86:23
	ldr	r0, [r0]
.Ltmp20:
	.loc	5 86 17 is_stmt 0               @ ../../../../Library/StdDriver/src/spi.c:86:17
	lsls	r0, r0, #26
	lsrs	r0, r0, #30
	cbnz	r0, .LBB0_13
	b	.LBB0_12
.LBB0_12:
	.loc	5 0 17                          @ ../../../../Library/StdDriver/src/spi.c:0:17
	ldr	r0, __arm_cp.0_4
.Ltmp21:
	.loc	5 88 27 is_stmt 1               @ ../../../../Library/StdDriver/src/spi.c:88:27
	str	r0, [sp, #12]
	.loc	5 89 13                         @ ../../../../Library/StdDriver/src/spi.c:89:13
	b	.LBB0_20
.Ltmp22:
.LBB0_13:
	.loc	5 0 13 is_stmt 0                @ ../../../../Library/StdDriver/src/spi.c:0:13
	ldr	r0, __arm_cp.0_2
.Ltmp23:
	.loc	5 90 28 is_stmt 1               @ ../../../../Library/StdDriver/src/spi.c:90:28
	ldr	r0, [r0]
	movs	r1, #48
	.loc	5 90 36 is_stmt 0               @ ../../../../Library/StdDriver/src/spi.c:90:36
	ands	r0, r1
.Ltmp24:
	.loc	5 90 22                         @ ../../../../Library/StdDriver/src/spi.c:90:22
	cmp	r0, #16
	bne	.LBB0_15
	b	.LBB0_14
.LBB0_14:
.Ltmp25:
	.loc	5 92 29 is_stmt 1               @ ../../../../Library/StdDriver/src/spi.c:92:29
	bl	CLK_GetPLLClockFreq
	.loc	5 92 27 is_stmt 0               @ ../../../../Library/StdDriver/src/spi.c:92:27
	str	r0, [sp, #12]
	.loc	5 93 13 is_stmt 1               @ ../../../../Library/StdDriver/src/spi.c:93:13
	b	.LBB0_19
.Ltmp26:
.LBB0_15:
	.loc	5 0 13 is_stmt 0                @ ../../../../Library/StdDriver/src/spi.c:0:13
	ldr	r0, __arm_cp.0_2
.Ltmp27:
	.loc	5 94 28 is_stmt 1               @ ../../../../Library/StdDriver/src/spi.c:94:28
	ldr	r0, [r0]
	movs	r1, #48
	.loc	5 94 36 is_stmt 0               @ ../../../../Library/StdDriver/src/spi.c:94:36
	ands	r0, r1
.Ltmp28:
	.loc	5 94 22                         @ ../../../../Library/StdDriver/src/spi.c:94:22
	cmp	r0, #32
	bne	.LBB0_17
	b	.LBB0_16
.LBB0_16:
.Ltmp29:
	.loc	5 97 29 is_stmt 1               @ ../../../../Library/StdDriver/src/spi.c:97:29
	bl	CLK_GetPCLK1Freq
	.loc	5 97 27 is_stmt 0               @ ../../../../Library/StdDriver/src/spi.c:97:27
	str	r0, [sp, #12]
	.loc	5 98 13 is_stmt 1               @ ../../../../Library/StdDriver/src/spi.c:98:13
	b	.LBB0_18
.Ltmp30:
.LBB0_17:
	.loc	5 0 13 is_stmt 0                @ ../../../../Library/StdDriver/src/spi.c:0:13
	ldr	r0, __arm_cp.0_3
.Ltmp31:
	.loc	5 101 27 is_stmt 1              @ ../../../../Library/StdDriver/src/spi.c:101:27
	str	r0, [sp, #12]
	b	.LBB0_18
.Ltmp32:
.LBB0_18:
	.loc	5 0 27 is_stmt 0                @ ../../../../Library/StdDriver/src/spi.c:0:27
	b	.LBB0_19
.LBB0_19:
	b	.LBB0_20
.LBB0_20:
	.loc	5 103 9 is_stmt 1               @ ../../../../Library/StdDriver/src/spi.c:103:9
	b	.LBB0_33
.Ltmp33:
.LBB0_21:
	.loc	5 104 18                        @ ../../../../Library/StdDriver/src/spi.c:104:18
	ldr	r0, [sp, #28]
	ldr	r1, __arm_cp.0_1
.Ltmp34:
	.loc	5 104 18 is_stmt 0              @ ../../../../Library/StdDriver/src/spi.c:104:18
	cmp	r0, r1
	bne	.LBB0_32
	b	.LBB0_22
.LBB0_22:
	.loc	5 0 18                          @ ../../../../Library/StdDriver/src/spi.c:0:18
	ldr	r0, __arm_cp.0_2
.Ltmp35:
	.loc	5 106 23 is_stmt 1              @ ../../../../Library/StdDriver/src/spi.c:106:23
	ldr	r0, [r0]
.Ltmp36:
	.loc	5 106 17 is_stmt 0              @ ../../../../Library/StdDriver/src/spi.c:106:17
	lsls	r0, r0, #24
	lsrs	r0, r0, #30
	cbnz	r0, .LBB0_24
	b	.LBB0_23
.LBB0_23:
	.loc	5 0 17                          @ ../../../../Library/StdDriver/src/spi.c:0:17
	ldr	r0, __arm_cp.0_4
.Ltmp37:
	.loc	5 108 27 is_stmt 1              @ ../../../../Library/StdDriver/src/spi.c:108:27
	str	r0, [sp, #12]
	.loc	5 109 13                        @ ../../../../Library/StdDriver/src/spi.c:109:13
	b	.LBB0_31
.Ltmp38:
.LBB0_24:
	.loc	5 0 13 is_stmt 0                @ ../../../../Library/StdDriver/src/spi.c:0:13
	ldr	r0, __arm_cp.0_2
.Ltmp39:
	.loc	5 110 28 is_stmt 1              @ ../../../../Library/StdDriver/src/spi.c:110:28
	ldr	r0, [r0]
	movs	r1, #192
	.loc	5 110 36 is_stmt 0              @ ../../../../Library/StdDriver/src/spi.c:110:36
	ands	r0, r1
.Ltmp40:
	.loc	5 110 22                        @ ../../../../Library/StdDriver/src/spi.c:110:22
	cmp	r0, #64
	bne	.LBB0_26
	b	.LBB0_25
.LBB0_25:
.Ltmp41:
	.loc	5 112 29 is_stmt 1              @ ../../../../Library/StdDriver/src/spi.c:112:29
	bl	CLK_GetPLLClockFreq
	.loc	5 112 27 is_stmt 0              @ ../../../../Library/StdDriver/src/spi.c:112:27
	str	r0, [sp, #12]
	.loc	5 113 13 is_stmt 1              @ ../../../../Library/StdDriver/src/spi.c:113:13
	b	.LBB0_30
.Ltmp42:
.LBB0_26:
	.loc	5 0 13 is_stmt 0                @ ../../../../Library/StdDriver/src/spi.c:0:13
	ldr	r0, __arm_cp.0_2
.Ltmp43:
	.loc	5 114 28 is_stmt 1              @ ../../../../Library/StdDriver/src/spi.c:114:28
	ldr	r0, [r0]
	movs	r1, #192
	.loc	5 114 36 is_stmt 0              @ ../../../../Library/StdDriver/src/spi.c:114:36
	ands	r0, r1
.Ltmp44:
	.loc	5 114 22                        @ ../../../../Library/StdDriver/src/spi.c:114:22
	cmp	r0, #128
	bne	.LBB0_28
	b	.LBB0_27
.LBB0_27:
.Ltmp45:
	.loc	5 117 29 is_stmt 1              @ ../../../../Library/StdDriver/src/spi.c:117:29
	bl	CLK_GetPCLK1Freq
	.loc	5 117 27 is_stmt 0              @ ../../../../Library/StdDriver/src/spi.c:117:27
	str	r0, [sp, #12]
	.loc	5 118 13 is_stmt 1              @ ../../../../Library/StdDriver/src/spi.c:118:13
	b	.LBB0_29
.Ltmp46:
.LBB0_28:
	.loc	5 0 13 is_stmt 0                @ ../../../../Library/StdDriver/src/spi.c:0:13
	ldr	r0, __arm_cp.0_3
.Ltmp47:
	.loc	5 121 27 is_stmt 1              @ ../../../../Library/StdDriver/src/spi.c:121:27
	str	r0, [sp, #12]
	b	.LBB0_29
.Ltmp48:
.LBB0_29:
	.loc	5 0 27 is_stmt 0                @ ../../../../Library/StdDriver/src/spi.c:0:27
	b	.LBB0_30
.LBB0_30:
	b	.LBB0_31
.LBB0_31:
	.loc	5 123 9 is_stmt 1               @ ../../../../Library/StdDriver/src/spi.c:123:9
	b	.LBB0_32
.Ltmp49:
.LBB0_32:
	.loc	5 0 9 is_stmt 0                 @ ../../../../Library/StdDriver/src/spi.c:0:9
	b	.LBB0_33
.LBB0_33:
.Ltmp50:
	.loc	5 125 13 is_stmt 1              @ ../../../../Library/StdDriver/src/spi.c:125:13
	ldr	r0, [sp, #40]
	.loc	5 125 28 is_stmt 0              @ ../../../../Library/StdDriver/src/spi.c:125:28
	ldr	r1, [sp, #4]
.Ltmp51:
	.loc	5 125 13                        @ ../../../../Library/StdDriver/src/spi.c:125:13
	cmp	r0, r1
	blo	.LBB0_35
	b	.LBB0_34
.LBB0_34:
.Ltmp52:
	.loc	5 128 13 is_stmt 1              @ ../../../../Library/StdDriver/src/spi.c:128:13
	ldr	r1, [sp, #28]
	movs	r0, #0
	.loc	5 128 25 is_stmt 0              @ ../../../../Library/StdDriver/src/spi.c:128:25
	str	r0, [r1, #4]
	.loc	5 130 27 is_stmt 1              @ ../../../../Library/StdDriver/src/spi.c:130:27
	ldr	r0, [sp, #12]
	.loc	5 130 25 is_stmt 0              @ ../../../../Library/StdDriver/src/spi.c:130:25
	str	r0, [sp]
	.loc	5 131 9 is_stmt 1               @ ../../../../Library/StdDriver/src/spi.c:131:9
	b	.LBB0_45
.Ltmp53:
.LBB0_35:
	.loc	5 132 18                        @ ../../../../Library/StdDriver/src/spi.c:132:18
	ldr	r0, [sp, #40]
	.loc	5 132 33 is_stmt 0              @ ../../../../Library/StdDriver/src/spi.c:132:33
	ldr	r1, [sp, #12]
.Ltmp54:
	.loc	5 132 18                        @ ../../../../Library/StdDriver/src/spi.c:132:18
	cmp	r0, r1
	blo	.LBB0_37
	b	.LBB0_36
.LBB0_36:
.Ltmp55:
	.loc	5 135 13 is_stmt 1              @ ../../../../Library/StdDriver/src/spi.c:135:13
	ldr	r1, [sp, #28]
	movs	r0, #0
	.loc	5 135 25 is_stmt 0              @ ../../../../Library/StdDriver/src/spi.c:135:25
	str	r0, [r1, #4]
	.loc	5 137 27 is_stmt 1              @ ../../../../Library/StdDriver/src/spi.c:137:27
	ldr	r0, [sp, #12]
	.loc	5 137 25 is_stmt 0              @ ../../../../Library/StdDriver/src/spi.c:137:25
	str	r0, [sp]
	.loc	5 138 9 is_stmt 1               @ ../../../../Library/StdDriver/src/spi.c:138:9
	b	.LBB0_44
.Ltmp56:
.LBB0_37:
	.loc	5 139 18                        @ ../../../../Library/StdDriver/src/spi.c:139:18
	ldr	r0, [sp, #40]
.Ltmp57:
	.loc	5 139 18 is_stmt 0              @ ../../../../Library/StdDriver/src/spi.c:139:18
	cbnz	r0, .LBB0_39
	b	.LBB0_38
.LBB0_38:
.Ltmp58:
	.loc	5 142 13 is_stmt 1              @ ../../../../Library/StdDriver/src/spi.c:142:13
	ldr	r1, [sp, #28]
	.loc	5 142 25 is_stmt 0              @ ../../../../Library/StdDriver/src/spi.c:142:25
	ldr	r0, [r1, #4]
	ldr	r2, __arm_cp.0_6
	orrs	r0, r2
	str	r0, [r1, #4]
	.loc	5 144 28 is_stmt 1              @ ../../../../Library/StdDriver/src/spi.c:144:28
	ldr	r0, [sp, #12]
	.loc	5 144 38 is_stmt 0              @ ../../../../Library/StdDriver/src/spi.c:144:38
	lsrs	r0, r0, #9
	.loc	5 144 25                        @ ../../../../Library/StdDriver/src/spi.c:144:25
	str	r0, [sp]
	.loc	5 145 9 is_stmt 1               @ ../../../../Library/StdDriver/src/spi.c:145:9
	b	.LBB0_43
.Ltmp59:
.LBB0_39:
	.loc	5 148 25                        @ ../../../../Library/StdDriver/src/spi.c:148:25
	ldr	r2, [sp, #12]
	movs	r1, #10
	.loc	5 148 35 is_stmt 0              @ ../../../../Library/StdDriver/src/spi.c:148:35
	mov	r0, r1
	muls	r0, r2, r0
	.loc	5 148 45                        @ ../../../../Library/StdDriver/src/spi.c:148:45
	ldr	r2, [sp, #40]
	.loc	5 148 43                        @ ../../../../Library/StdDriver/src/spi.c:148:43
	udiv	r0, r0, r2
	.loc	5 148 57                        @ ../../../../Library/StdDriver/src/spi.c:148:57
	adds	r0, r0, #5
	.loc	5 148 64                        @ ../../../../Library/StdDriver/src/spi.c:148:64
	udiv	r0, r0, r1
	.loc	5 148 72                        @ ../../../../Library/StdDriver/src/spi.c:148:72
	subs	r0, r0, #1
	.loc	5 148 20                        @ ../../../../Library/StdDriver/src/spi.c:148:20
	str	r0, [sp, #8]
.Ltmp60:
	.loc	5 150 17 is_stmt 1              @ ../../../../Library/StdDriver/src/spi.c:150:17
	ldr	r0, [sp, #8]
.Ltmp61:
	.loc	5 150 17 is_stmt 0              @ ../../../../Library/StdDriver/src/spi.c:150:17
	lsrs	r0, r0, #9
	cbz	r0, .LBB0_41
	b	.LBB0_40
.LBB0_40:
	.loc	5 0 17                          @ ../../../../Library/StdDriver/src/spi.c:0:17
	ldr	r2, __arm_cp.0_6
.Ltmp62:
	.loc	5 152 24 is_stmt 1              @ ../../../../Library/StdDriver/src/spi.c:152:24
	str	r2, [sp, #8]
	.loc	5 153 17                        @ ../../../../Library/StdDriver/src/spi.c:153:17
	ldr	r1, [sp, #28]
	.loc	5 153 29 is_stmt 0              @ ../../../../Library/StdDriver/src/spi.c:153:29
	ldr	r0, [r1, #4]
	orrs	r0, r2
	str	r0, [r1, #4]
	.loc	5 155 32 is_stmt 1              @ ../../../../Library/StdDriver/src/spi.c:155:32
	ldr	r0, [sp, #12]
	.loc	5 155 42 is_stmt 0              @ ../../../../Library/StdDriver/src/spi.c:155:42
	lsrs	r0, r0, #9
	.loc	5 155 29                        @ ../../../../Library/StdDriver/src/spi.c:155:29
	str	r0, [sp]
	.loc	5 156 13 is_stmt 1              @ ../../../../Library/StdDriver/src/spi.c:156:13
	b	.LBB0_42
.Ltmp63:
.LBB0_41:
	.loc	5 159 32                        @ ../../../../Library/StdDriver/src/spi.c:159:32
	ldr	r0, [sp, #28]
	.loc	5 159 37 is_stmt 0              @ ../../../../Library/StdDriver/src/spi.c:159:37
	ldr	r0, [r0, #4]
	ldr	r1, __arm_cp.0_5
	.loc	5 159 44                        @ ../../../../Library/StdDriver/src/spi.c:159:44
	ands	r0, r1
	.loc	5 159 76                        @ ../../../../Library/StdDriver/src/spi.c:159:76
	ldr	r1, [sp, #8]
	.loc	5 159 73                        @ ../../../../Library/StdDriver/src/spi.c:159:73
	orrs	r0, r1
	.loc	5 159 17                        @ ../../../../Library/StdDriver/src/spi.c:159:17
	ldr	r1, [sp, #28]
	.loc	5 159 29                        @ ../../../../Library/StdDriver/src/spi.c:159:29
	str	r0, [r1, #4]
	.loc	5 161 32 is_stmt 1              @ ../../../../Library/StdDriver/src/spi.c:161:32
	ldr	r0, [sp, #12]
	.loc	5 161 45 is_stmt 0              @ ../../../../Library/StdDriver/src/spi.c:161:45
	ldr	r1, [sp, #8]
	.loc	5 161 52                        @ ../../../../Library/StdDriver/src/spi.c:161:52
	adds	r1, r1, #1
	.loc	5 161 42                        @ ../../../../Library/StdDriver/src/spi.c:161:42
	udiv	r0, r0, r1
	.loc	5 161 29                        @ ../../../../Library/StdDriver/src/spi.c:161:29
	str	r0, [sp]
	b	.LBB0_42
.Ltmp64:
.LBB0_42:
	.loc	5 0 29                          @ ../../../../Library/StdDriver/src/spi.c:0:29
	b	.LBB0_43
.LBB0_43:
	b	.LBB0_44
.LBB0_44:
	b	.LBB0_45
.LBB0_45:
	.loc	5 164 5 is_stmt 1               @ ../../../../Library/StdDriver/src/spi.c:164:5
	b	.LBB0_52
.Ltmp65:
.LBB0_46:
	.loc	5 168 9                         @ ../../../../Library/StdDriver/src/spi.c:168:9
	ldr	r1, [sp, #28]
	movs	r0, #0
	.loc	5 168 20 is_stmt 0              @ ../../../../Library/StdDriver/src/spi.c:168:20
	str	r0, [r1, #8]
	.loc	5 171 20 is_stmt 1              @ ../../../../Library/StdDriver/src/spi.c:171:20
	ldr	r1, [sp, #24]
	.loc	5 171 38 is_stmt 0              @ ../../../../Library/StdDriver/src/spi.c:171:38
	ldr	r2, [sp, #16]
	.loc	5 171 51                        @ ../../../../Library/StdDriver/src/spi.c:171:51
	lsls	r2, r2, #8
	.loc	5 171 35                        @ ../../../../Library/StdDriver/src/spi.c:171:35
	orrs	r1, r2
	.loc	5 171 77                        @ ../../../../Library/StdDriver/src/spi.c:171:77
	ldr	r2, [sp, #20]
	.loc	5 171 74                        @ ../../../../Library/StdDriver/src/spi.c:171:74
	orrs	r1, r2
	movs	r2, #1
	.loc	5 171 89                        @ ../../../../Library/StdDriver/src/spi.c:171:89
	orrs	r1, r2
	.loc	5 171 9                         @ ../../../../Library/StdDriver/src/spi.c:171:9
	ldr	r2, [sp, #28]
	.loc	5 171 18                        @ ../../../../Library/StdDriver/src/spi.c:171:18
	str	r1, [r2]
	.loc	5 174 9 is_stmt 1               @ ../../../../Library/StdDriver/src/spi.c:174:9
	ldr	r1, [sp, #28]
	.loc	5 174 21 is_stmt 0              @ ../../../../Library/StdDriver/src/spi.c:174:21
	str	r0, [r1, #4]
.Ltmp66:
	.loc	5 177 13 is_stmt 1              @ ../../../../Library/StdDriver/src/spi.c:177:13
	ldr	r0, [sp, #28]
	ldr	r1, __arm_cp.0_0
.Ltmp67:
	.loc	5 177 13 is_stmt 0              @ ../../../../Library/StdDriver/src/spi.c:177:13
	cmp	r0, r1
	bne	.LBB0_48
	b	.LBB0_47
.LBB0_47:
	.loc	5 0 13                          @ ../../../../Library/StdDriver/src/spi.c:0:13
	ldr	r1, __arm_cp.0_2
.Ltmp68:
	.loc	5 179 34 is_stmt 1              @ ../../../../Library/StdDriver/src/spi.c:179:34
	ldr	r0, [r1]
	movs	r2, #32
	.loc	5 179 42 is_stmt 0              @ ../../../../Library/StdDriver/src/spi.c:179:42
	orrs	r0, r2
	movs	r2, #16
	.loc	5 179 72                        @ ../../../../Library/StdDriver/src/spi.c:179:72
	bics	r0, r2
	.loc	5 179 26                        @ ../../../../Library/StdDriver/src/spi.c:179:26
	str	r0, [r1]
	.loc	5 181 27 is_stmt 1              @ ../../../../Library/StdDriver/src/spi.c:181:27
	bl	CLK_GetPCLK1Freq
	.loc	5 181 25 is_stmt 0              @ ../../../../Library/StdDriver/src/spi.c:181:25
	str	r0, [sp]
	.loc	5 182 9 is_stmt 1               @ ../../../../Library/StdDriver/src/spi.c:182:9
	b	.LBB0_51
.Ltmp69:
.LBB0_48:
	.loc	5 183 18                        @ ../../../../Library/StdDriver/src/spi.c:183:18
	ldr	r0, [sp, #28]
	ldr	r1, __arm_cp.0_1
.Ltmp70:
	.loc	5 183 18 is_stmt 0              @ ../../../../Library/StdDriver/src/spi.c:183:18
	cmp	r0, r1
	bne	.LBB0_50
	b	.LBB0_49
.LBB0_49:
	.loc	5 0 18                          @ ../../../../Library/StdDriver/src/spi.c:0:18
	ldr	r1, __arm_cp.0_2
.Ltmp71:
	.loc	5 185 34 is_stmt 1              @ ../../../../Library/StdDriver/src/spi.c:185:34
	ldr	r0, [r1]
	movs	r2, #128
	.loc	5 185 42 is_stmt 0              @ ../../../../Library/StdDriver/src/spi.c:185:42
	orrs	r0, r2
	movs	r2, #64
	.loc	5 185 72                        @ ../../../../Library/StdDriver/src/spi.c:185:72
	bics	r0, r2
	.loc	5 185 26                        @ ../../../../Library/StdDriver/src/spi.c:185:26
	str	r0, [r1]
	.loc	5 187 27 is_stmt 1              @ ../../../../Library/StdDriver/src/spi.c:187:27
	bl	CLK_GetPCLK1Freq
	.loc	5 187 25 is_stmt 0              @ ../../../../Library/StdDriver/src/spi.c:187:25
	str	r0, [sp]
	.loc	5 188 9 is_stmt 1               @ ../../../../Library/StdDriver/src/spi.c:188:9
	b	.LBB0_50
.Ltmp72:
.LBB0_50:
	.loc	5 0 9 is_stmt 0                 @ ../../../../Library/StdDriver/src/spi.c:0:9
	b	.LBB0_51
.LBB0_51:
	b	.LBB0_52
.LBB0_52:
	.loc	5 191 12 is_stmt 1              @ ../../../../Library/StdDriver/src/spi.c:191:12
	ldr	r0, [sp]
	.loc	5 191 5 is_stmt 0               @ ../../../../Library/StdDriver/src/spi.c:191:5
	add	sp, #32
	pop	{r4, pc}
.Ltmp73:
	.p2align	2
@ %bb.53:
	.loc	5 0 5                           @ ../../../../Library/StdDriver/src/spi.c:0:5
__arm_cp.0_0:
	.long	1074139136                      @ 0x40061000
.Lcpi_end0:
	.size	__arm_cp.0_0, .Lcpi_end0-__arm_cp.0_0
__arm_cp.0_1:
	.long	1074143232                      @ 0x40062000
.Lcpi_end1:
	.size	__arm_cp.0_1, .Lcpi_end1-__arm_cp.0_1
__arm_cp.0_2:
	.long	1073742360                      @ 0x40000218
.Lcpi_end2:
	.size	__arm_cp.0_2, .Lcpi_end2-__arm_cp.0_2
__arm_cp.0_3:
	.long	48000000                        @ 0x2dc6c00
.Lcpi_end3:
	.size	__arm_cp.0_3, .Lcpi_end3-__arm_cp.0_3
__arm_cp.0_4:
	.long	24000000                        @ 0x16e3600
.Lcpi_end4:
	.size	__arm_cp.0_4, .Lcpi_end4-__arm_cp.0_4
__arm_cp.0_5:
	.long	4294966784                      @ 0xfffffe00
.Lcpi_end5:
	.size	__arm_cp.0_5, .Lcpi_end5-__arm_cp.0_5
__arm_cp.0_6:
	.long	511                             @ 0x1ff
.Lcpi_end6:
	.size	__arm_cp.0_6, .Lcpi_end6-__arm_cp.0_6
.Lfunc_end0:
	.size	SPI_Open, .Lfunc_end0-SPI_Open
	.cfi_endproc
	.cantunwind
	.fnend
                                        @ -- End function
	.section	.text.SPI_Close,"ax",%progbits
	.hidden	SPI_Close                       @ -- Begin function SPI_Close
	.globl	SPI_Close
	.p2align	2
	.type	SPI_Close,%function
	.code	16                              @ @SPI_Close
	.thumb_func
SPI_Close:
.Lfunc_begin1:
	.loc	5 201 0 is_stmt 1               @ ../../../../Library/StdDriver/src/spi.c:201:0
	.fnstart
	.cfi_startproc
@ %bb.0:
	.pad	#4
	sub	sp, #4
	.cfi_def_cfa_offset 4
	str	r0, [sp]
.Ltmp74:
	.loc	5 202 9 prologue_end            @ ../../../../Library/StdDriver/src/spi.c:202:9
	ldr	r0, [sp]
	ldr	r1, __arm_cp.1_0
.Ltmp75:
	.loc	5 202 9 is_stmt 0               @ ../../../../Library/StdDriver/src/spi.c:202:9
	cmp	r0, r1
	bne	.LBB1_2
	b	.LBB1_1
.LBB1_1:
	.loc	5 0 9                           @ ../../../../Library/StdDriver/src/spi.c:0:9
	ldr	r1, __arm_cp.1_2
.Ltmp76:
	.loc	5 205 21 is_stmt 1              @ ../../../../Library/StdDriver/src/spi.c:205:21
	ldr	r0, [r1]
	movw	r2, #8192
	orrs	r0, r2
	str	r0, [r1]
	.loc	5 206 21                        @ ../../../../Library/StdDriver/src/spi.c:206:21
	ldr	r0, [r1]
	bics	r0, r2
	str	r0, [r1]
	.loc	5 207 5                         @ ../../../../Library/StdDriver/src/spi.c:207:5
	b	.LBB1_5
.Ltmp77:
.LBB1_2:
	.loc	5 208 14                        @ ../../../../Library/StdDriver/src/spi.c:208:14
	ldr	r0, [sp]
	ldr	r1, __arm_cp.1_1
.Ltmp78:
	.loc	5 208 14 is_stmt 0              @ ../../../../Library/StdDriver/src/spi.c:208:14
	cmp	r0, r1
	bne	.LBB1_4
	b	.LBB1_3
.LBB1_3:
	.loc	5 0 14                          @ ../../../../Library/StdDriver/src/spi.c:0:14
	ldr	r1, __arm_cp.1_2
.Ltmp79:
	.loc	5 211 21 is_stmt 1              @ ../../../../Library/StdDriver/src/spi.c:211:21
	ldr	r0, [r1]
	movw	r2, #16384
	orrs	r0, r2
	str	r0, [r1]
	.loc	5 212 21                        @ ../../../../Library/StdDriver/src/spi.c:212:21
	ldr	r0, [r1]
	bics	r0, r2
	str	r0, [r1]
	.loc	5 213 5                         @ ../../../../Library/StdDriver/src/spi.c:213:5
	b	.LBB1_4
.Ltmp80:
.LBB1_4:
	.loc	5 0 5 is_stmt 0                 @ ../../../../Library/StdDriver/src/spi.c:0:5
	b	.LBB1_5
.LBB1_5:
	.loc	5 214 1 is_stmt 1               @ ../../../../Library/StdDriver/src/spi.c:214:1
	add	sp, #4
	bx	lr
.Ltmp81:
	.p2align	2
@ %bb.6:
	.loc	5 0 1 is_stmt 0                 @ ../../../../Library/StdDriver/src/spi.c:0:1
__arm_cp.1_0:
	.long	1074139136                      @ 0x40061000
.Lcpi_end7:
	.size	__arm_cp.1_0, .Lcpi_end7-__arm_cp.1_0
__arm_cp.1_1:
	.long	1074143232                      @ 0x40062000
.Lcpi_end8:
	.size	__arm_cp.1_1, .Lcpi_end8-__arm_cp.1_1
__arm_cp.1_2:
	.long	1073741836                      @ 0x4000000c
.Lcpi_end9:
	.size	__arm_cp.1_2, .Lcpi_end9-__arm_cp.1_2
.Lfunc_end1:
	.size	SPI_Close, .Lfunc_end1-SPI_Close
	.cfi_endproc
	.cantunwind
	.fnend
                                        @ -- End function
	.section	.text.SPI_ClearRxFIFO,"ax",%progbits
	.hidden	SPI_ClearRxFIFO                 @ -- Begin function SPI_ClearRxFIFO
	.globl	SPI_ClearRxFIFO
	.p2align	1
	.type	SPI_ClearRxFIFO,%function
	.code	16                              @ @SPI_ClearRxFIFO
	.thumb_func
SPI_ClearRxFIFO:
.Lfunc_begin2:
	.loc	5 223 0 is_stmt 1               @ ../../../../Library/StdDriver/src/spi.c:223:0
	.fnstart
	.cfi_startproc
@ %bb.0:
	.pad	#4
	sub	sp, #4
	.cfi_def_cfa_offset 4
	str	r0, [sp]
.Ltmp82:
	.loc	5 224 5 prologue_end            @ ../../../../Library/StdDriver/src/spi.c:224:5
	ldr	r1, [sp]
	.loc	5 224 18 is_stmt 0              @ ../../../../Library/StdDriver/src/spi.c:224:18
	ldr	r0, [r1, #16]
	movw	r2, #256
	orrs	r0, r2
	str	r0, [r1, #16]
	.loc	5 225 1 is_stmt 1               @ ../../../../Library/StdDriver/src/spi.c:225:1
	add	sp, #4
	bx	lr
.Ltmp83:
.Lfunc_end2:
	.size	SPI_ClearRxFIFO, .Lfunc_end2-SPI_ClearRxFIFO
	.cfi_endproc
	.cantunwind
	.fnend
                                        @ -- End function
	.section	.text.SPI_ClearTxFIFO,"ax",%progbits
	.hidden	SPI_ClearTxFIFO                 @ -- Begin function SPI_ClearTxFIFO
	.globl	SPI_ClearTxFIFO
	.p2align	1
	.type	SPI_ClearTxFIFO,%function
	.code	16                              @ @SPI_ClearTxFIFO
	.thumb_func
SPI_ClearTxFIFO:
.Lfunc_begin3:
	.loc	5 235 0                         @ ../../../../Library/StdDriver/src/spi.c:235:0
	.fnstart
	.cfi_startproc
@ %bb.0:
	.pad	#4
	sub	sp, #4
	.cfi_def_cfa_offset 4
	str	r0, [sp]
.Ltmp84:
	.loc	5 236 5 prologue_end            @ ../../../../Library/StdDriver/src/spi.c:236:5
	ldr	r1, [sp]
	.loc	5 236 18 is_stmt 0              @ ../../../../Library/StdDriver/src/spi.c:236:18
	ldr	r0, [r1, #16]
	movw	r2, #512
	orrs	r0, r2
	str	r0, [r1, #16]
	.loc	5 237 1 is_stmt 1               @ ../../../../Library/StdDriver/src/spi.c:237:1
	add	sp, #4
	bx	lr
.Ltmp85:
.Lfunc_end3:
	.size	SPI_ClearTxFIFO, .Lfunc_end3-SPI_ClearTxFIFO
	.cfi_endproc
	.cantunwind
	.fnend
                                        @ -- End function
	.section	.text.SPI_DisableAutoSS,"ax",%progbits
	.hidden	SPI_DisableAutoSS               @ -- Begin function SPI_DisableAutoSS
	.globl	SPI_DisableAutoSS
	.p2align	1
	.type	SPI_DisableAutoSS,%function
	.code	16                              @ @SPI_DisableAutoSS
	.thumb_func
SPI_DisableAutoSS:
.Lfunc_begin4:
	.loc	5 246 0                         @ ../../../../Library/StdDriver/src/spi.c:246:0
	.fnstart
	.cfi_startproc
@ %bb.0:
	.pad	#4
	sub	sp, #4
	.cfi_def_cfa_offset 4
	str	r0, [sp]
.Ltmp86:
	.loc	5 247 5 prologue_end            @ ../../../../Library/StdDriver/src/spi.c:247:5
	ldr	r1, [sp]
	.loc	5 247 16 is_stmt 0              @ ../../../../Library/StdDriver/src/spi.c:247:16
	ldr	r0, [r1, #8]
	movs	r2, #9
	bics	r0, r2
	str	r0, [r1, #8]
	.loc	5 248 1 is_stmt 1               @ ../../../../Library/StdDriver/src/spi.c:248:1
	add	sp, #4
	bx	lr
.Ltmp87:
.Lfunc_end4:
	.size	SPI_DisableAutoSS, .Lfunc_end4-SPI_DisableAutoSS
	.cfi_endproc
	.cantunwind
	.fnend
                                        @ -- End function
	.section	.text.SPI_EnableAutoSS,"ax",%progbits
	.hidden	SPI_EnableAutoSS                @ -- Begin function SPI_EnableAutoSS
	.globl	SPI_EnableAutoSS
	.p2align	1
	.type	SPI_EnableAutoSS,%function
	.code	16                              @ @SPI_EnableAutoSS
	.thumb_func
SPI_EnableAutoSS:
.Lfunc_begin5:
	.loc	5 260 0                         @ ../../../../Library/StdDriver/src/spi.c:260:0
	.fnstart
	.cfi_startproc
@ %bb.0:
	.pad	#12
	sub	sp, #12
	.cfi_def_cfa_offset 12
	str	r0, [sp, #8]
	str	r1, [sp, #4]
	str	r2, [sp]
.Ltmp88:
	.loc	5 261 19 prologue_end           @ ../../../../Library/StdDriver/src/spi.c:261:19
	ldr	r0, [sp, #8]
	.loc	5 261 24 is_stmt 0              @ ../../../../Library/StdDriver/src/spi.c:261:24
	ldr	r1, [r0, #8]
	movs	r0, #5
	.loc	5 261 30                        @ ../../../../Library/StdDriver/src/spi.c:261:30
	bics	r1, r0
	.loc	5 261 106                       @ ../../../../Library/StdDriver/src/spi.c:261:106
	ldr	r0, [sp, #4]
	.loc	5 261 121                       @ ../../../../Library/StdDriver/src/spi.c:261:121
	ldr	r2, [sp]
	.loc	5 261 119                       @ ../../../../Library/StdDriver/src/spi.c:261:119
	orrs	r0, r2
	.loc	5 261 136                       @ ../../../../Library/StdDriver/src/spi.c:261:136
	orrs	r0, r1
	movs	r1, #8
	.loc	5 261 103                       @ ../../../../Library/StdDriver/src/spi.c:261:103
	orrs	r0, r1
	.loc	5 261 5                         @ ../../../../Library/StdDriver/src/spi.c:261:5
	ldr	r1, [sp, #8]
	.loc	5 261 16                        @ ../../../../Library/StdDriver/src/spi.c:261:16
	str	r0, [r1, #8]
	.loc	5 262 1 is_stmt 1               @ ../../../../Library/StdDriver/src/spi.c:262:1
	add	sp, #12
	bx	lr
.Ltmp89:
.Lfunc_end5:
	.size	SPI_EnableAutoSS, .Lfunc_end5-SPI_EnableAutoSS
	.cfi_endproc
	.cantunwind
	.fnend
                                        @ -- End function
	.section	.text.SPI_SetBusClock,"ax",%progbits
	.hidden	SPI_SetBusClock                 @ -- Begin function SPI_SetBusClock
	.globl	SPI_SetBusClock
	.p2align	2
	.type	SPI_SetBusClock,%function
	.code	16                              @ @SPI_SetBusClock
	.thumb_func
SPI_SetBusClock:
.Lfunc_begin6:
	.loc	5 277 0                         @ ../../../../Library/StdDriver/src/spi.c:277:0
	.fnstart
	.cfi_startproc
@ %bb.0:
	.save	{r7, lr}
	push	{r7, lr}
	.cfi_def_cfa_offset 8
	.cfi_offset lr, -4
	.cfi_offset r7, -8
	.pad	#24
	sub	sp, #24
	.cfi_def_cfa_offset 32
	str	r0, [sp, #20]
	str	r1, [sp, #16]
.Ltmp90:
	.loc	5 282 19 prologue_end           @ ../../../../Library/StdDriver/src/spi.c:282:19
	bl	CLK_GetHCLKFreq
	.loc	5 282 17 is_stmt 0              @ ../../../../Library/StdDriver/src/spi.c:282:17
	str	r0, [sp, #8]
.Ltmp91:
	.loc	5 284 9 is_stmt 1               @ ../../../../Library/StdDriver/src/spi.c:284:9
	ldr	r0, [sp, #16]
	.loc	5 284 24 is_stmt 0              @ ../../../../Library/StdDriver/src/spi.c:284:24
	ldr	r1, [sp, #8]
.Ltmp92:
	.loc	5 284 9                         @ ../../../../Library/StdDriver/src/spi.c:284:9
	cmp	r0, r1
	blo	.LBB6_7
	b	.LBB6_1
.LBB6_1:
.Ltmp93:
	.loc	5 287 13 is_stmt 1              @ ../../../../Library/StdDriver/src/spi.c:287:13
	ldr	r0, [sp, #20]
	ldr	r1, __arm_cp.6_0
.Ltmp94:
	.loc	5 287 13 is_stmt 0              @ ../../../../Library/StdDriver/src/spi.c:287:13
	cmp	r0, r1
	bne	.LBB6_3
	b	.LBB6_2
.LBB6_2:
	.loc	5 0 13                          @ ../../../../Library/StdDriver/src/spi.c:0:13
	ldr	r1, __arm_cp.6_2
.Ltmp95:
	.loc	5 289 34 is_stmt 1              @ ../../../../Library/StdDriver/src/spi.c:289:34
	ldr	r0, [r1]
	movs	r2, #32
	.loc	5 289 42 is_stmt 0              @ ../../../../Library/StdDriver/src/spi.c:289:42
	orrs	r0, r2
	movs	r2, #16
	.loc	5 289 72                        @ ../../../../Library/StdDriver/src/spi.c:289:72
	bics	r0, r2
	.loc	5 289 26                        @ ../../../../Library/StdDriver/src/spi.c:289:26
	str	r0, [r1]
	.loc	5 290 9 is_stmt 1               @ ../../../../Library/StdDriver/src/spi.c:290:9
	b	.LBB6_6
.Ltmp96:
.LBB6_3:
	.loc	5 291 18                        @ ../../../../Library/StdDriver/src/spi.c:291:18
	ldr	r0, [sp, #20]
	ldr	r1, __arm_cp.6_1
.Ltmp97:
	.loc	5 291 18 is_stmt 0              @ ../../../../Library/StdDriver/src/spi.c:291:18
	cmp	r0, r1
	bne	.LBB6_5
	b	.LBB6_4
.LBB6_4:
	.loc	5 0 18                          @ ../../../../Library/StdDriver/src/spi.c:0:18
	ldr	r1, __arm_cp.6_2
.Ltmp98:
	.loc	5 293 34 is_stmt 1              @ ../../../../Library/StdDriver/src/spi.c:293:34
	ldr	r0, [r1]
	movs	r2, #128
	.loc	5 293 42 is_stmt 0              @ ../../../../Library/StdDriver/src/spi.c:293:42
	orrs	r0, r2
	movs	r2, #64
	.loc	5 293 72                        @ ../../../../Library/StdDriver/src/spi.c:293:72
	bics	r0, r2
	.loc	5 293 26                        @ ../../../../Library/StdDriver/src/spi.c:293:26
	str	r0, [r1]
	.loc	5 294 9 is_stmt 1               @ ../../../../Library/StdDriver/src/spi.c:294:9
	b	.LBB6_5
.Ltmp99:
.LBB6_5:
	.loc	5 0 9 is_stmt 0                 @ ../../../../Library/StdDriver/src/spi.c:0:9
	b	.LBB6_6
.LBB6_6:
	.loc	5 295 5 is_stmt 1               @ ../../../../Library/StdDriver/src/spi.c:295:5
	b	.LBB6_7
.Ltmp100:
.LBB6_7:
	.loc	5 298 9                         @ ../../../../Library/StdDriver/src/spi.c:298:9
	ldr	r0, [sp, #20]
	ldr	r1, __arm_cp.6_0
.Ltmp101:
	.loc	5 298 9 is_stmt 0               @ ../../../../Library/StdDriver/src/spi.c:298:9
	cmp	r0, r1
	bne	.LBB6_18
	b	.LBB6_8
.LBB6_8:
	.loc	5 0 9                           @ ../../../../Library/StdDriver/src/spi.c:0:9
	ldr	r0, __arm_cp.6_2
.Ltmp102:
	.loc	5 300 19 is_stmt 1              @ ../../../../Library/StdDriver/src/spi.c:300:19
	ldr	r0, [r0]
.Ltmp103:
	.loc	5 300 13 is_stmt 0              @ ../../../../Library/StdDriver/src/spi.c:300:13
	lsls	r0, r0, #26
	lsrs	r0, r0, #30
	cbnz	r0, .LBB6_10
	b	.LBB6_9
.LBB6_9:
	.loc	5 0 13                          @ ../../../../Library/StdDriver/src/spi.c:0:13
	ldr	r0, __arm_cp.6_4
.Ltmp104:
	.loc	5 302 23 is_stmt 1              @ ../../../../Library/StdDriver/src/spi.c:302:23
	str	r0, [sp, #12]
	.loc	5 303 9                         @ ../../../../Library/StdDriver/src/spi.c:303:9
	b	.LBB6_17
.Ltmp105:
.LBB6_10:
	.loc	5 0 9 is_stmt 0                 @ ../../../../Library/StdDriver/src/spi.c:0:9
	ldr	r0, __arm_cp.6_2
.Ltmp106:
	.loc	5 304 24 is_stmt 1              @ ../../../../Library/StdDriver/src/spi.c:304:24
	ldr	r0, [r0]
	movs	r1, #48
	.loc	5 304 32 is_stmt 0              @ ../../../../Library/StdDriver/src/spi.c:304:32
	ands	r0, r1
.Ltmp107:
	.loc	5 304 18                        @ ../../../../Library/StdDriver/src/spi.c:304:18
	cmp	r0, #16
	bne	.LBB6_12
	b	.LBB6_11
.LBB6_11:
.Ltmp108:
	.loc	5 306 25 is_stmt 1              @ ../../../../Library/StdDriver/src/spi.c:306:25
	bl	CLK_GetPLLClockFreq
	.loc	5 306 23 is_stmt 0              @ ../../../../Library/StdDriver/src/spi.c:306:23
	str	r0, [sp, #12]
	.loc	5 307 9 is_stmt 1               @ ../../../../Library/StdDriver/src/spi.c:307:9
	b	.LBB6_16
.Ltmp109:
.LBB6_12:
	.loc	5 0 9 is_stmt 0                 @ ../../../../Library/StdDriver/src/spi.c:0:9
	ldr	r0, __arm_cp.6_2
.Ltmp110:
	.loc	5 308 24 is_stmt 1              @ ../../../../Library/StdDriver/src/spi.c:308:24
	ldr	r0, [r0]
	movs	r1, #48
	.loc	5 308 32 is_stmt 0              @ ../../../../Library/StdDriver/src/spi.c:308:32
	ands	r0, r1
.Ltmp111:
	.loc	5 308 18                        @ ../../../../Library/StdDriver/src/spi.c:308:18
	cmp	r0, #32
	bne	.LBB6_14
	b	.LBB6_13
.LBB6_13:
.Ltmp112:
	.loc	5 311 25 is_stmt 1              @ ../../../../Library/StdDriver/src/spi.c:311:25
	bl	CLK_GetPCLK1Freq
	.loc	5 311 23 is_stmt 0              @ ../../../../Library/StdDriver/src/spi.c:311:23
	str	r0, [sp, #12]
	.loc	5 312 9 is_stmt 1               @ ../../../../Library/StdDriver/src/spi.c:312:9
	b	.LBB6_15
.Ltmp113:
.LBB6_14:
	.loc	5 0 9 is_stmt 0                 @ ../../../../Library/StdDriver/src/spi.c:0:9
	ldr	r0, __arm_cp.6_3
.Ltmp114:
	.loc	5 315 23 is_stmt 1              @ ../../../../Library/StdDriver/src/spi.c:315:23
	str	r0, [sp, #12]
	b	.LBB6_15
.Ltmp115:
.LBB6_15:
	.loc	5 0 23 is_stmt 0                @ ../../../../Library/StdDriver/src/spi.c:0:23
	b	.LBB6_16
.LBB6_16:
	b	.LBB6_17
.LBB6_17:
	.loc	5 317 5 is_stmt 1               @ ../../../../Library/StdDriver/src/spi.c:317:5
	b	.LBB6_30
.Ltmp116:
.LBB6_18:
	.loc	5 318 14                        @ ../../../../Library/StdDriver/src/spi.c:318:14
	ldr	r0, [sp, #20]
	ldr	r1, __arm_cp.6_1
.Ltmp117:
	.loc	5 318 14 is_stmt 0              @ ../../../../Library/StdDriver/src/spi.c:318:14
	cmp	r0, r1
	bne	.LBB6_29
	b	.LBB6_19
.LBB6_19:
	.loc	5 0 14                          @ ../../../../Library/StdDriver/src/spi.c:0:14
	ldr	r0, __arm_cp.6_2
.Ltmp118:
	.loc	5 320 19 is_stmt 1              @ ../../../../Library/StdDriver/src/spi.c:320:19
	ldr	r0, [r0]
.Ltmp119:
	.loc	5 320 13 is_stmt 0              @ ../../../../Library/StdDriver/src/spi.c:320:13
	lsls	r0, r0, #24
	lsrs	r0, r0, #30
	cbnz	r0, .LBB6_21
	b	.LBB6_20
.LBB6_20:
	.loc	5 0 13                          @ ../../../../Library/StdDriver/src/spi.c:0:13
	ldr	r0, __arm_cp.6_4
.Ltmp120:
	.loc	5 322 23 is_stmt 1              @ ../../../../Library/StdDriver/src/spi.c:322:23
	str	r0, [sp, #12]
	.loc	5 323 9                         @ ../../../../Library/StdDriver/src/spi.c:323:9
	b	.LBB6_28
.Ltmp121:
.LBB6_21:
	.loc	5 0 9 is_stmt 0                 @ ../../../../Library/StdDriver/src/spi.c:0:9
	ldr	r0, __arm_cp.6_2
.Ltmp122:
	.loc	5 324 24 is_stmt 1              @ ../../../../Library/StdDriver/src/spi.c:324:24
	ldr	r0, [r0]
	movs	r1, #192
	.loc	5 324 32 is_stmt 0              @ ../../../../Library/StdDriver/src/spi.c:324:32
	ands	r0, r1
.Ltmp123:
	.loc	5 324 18                        @ ../../../../Library/StdDriver/src/spi.c:324:18
	cmp	r0, #64
	bne	.LBB6_23
	b	.LBB6_22
.LBB6_22:
.Ltmp124:
	.loc	5 326 25 is_stmt 1              @ ../../../../Library/StdDriver/src/spi.c:326:25
	bl	CLK_GetPLLClockFreq
	.loc	5 326 23 is_stmt 0              @ ../../../../Library/StdDriver/src/spi.c:326:23
	str	r0, [sp, #12]
	.loc	5 327 9 is_stmt 1               @ ../../../../Library/StdDriver/src/spi.c:327:9
	b	.LBB6_27
.Ltmp125:
.LBB6_23:
	.loc	5 0 9 is_stmt 0                 @ ../../../../Library/StdDriver/src/spi.c:0:9
	ldr	r0, __arm_cp.6_2
.Ltmp126:
	.loc	5 328 24 is_stmt 1              @ ../../../../Library/StdDriver/src/spi.c:328:24
	ldr	r0, [r0]
	movs	r1, #192
	.loc	5 328 32 is_stmt 0              @ ../../../../Library/StdDriver/src/spi.c:328:32
	ands	r0, r1
.Ltmp127:
	.loc	5 328 18                        @ ../../../../Library/StdDriver/src/spi.c:328:18
	cmp	r0, #128
	bne	.LBB6_25
	b	.LBB6_24
.LBB6_24:
.Ltmp128:
	.loc	5 331 25 is_stmt 1              @ ../../../../Library/StdDriver/src/spi.c:331:25
	bl	CLK_GetPCLK1Freq
	.loc	5 331 23 is_stmt 0              @ ../../../../Library/StdDriver/src/spi.c:331:23
	str	r0, [sp, #12]
	.loc	5 332 9 is_stmt 1               @ ../../../../Library/StdDriver/src/spi.c:332:9
	b	.LBB6_26
.Ltmp129:
.LBB6_25:
	.loc	5 0 9 is_stmt 0                 @ ../../../../Library/StdDriver/src/spi.c:0:9
	ldr	r0, __arm_cp.6_3
.Ltmp130:
	.loc	5 335 23 is_stmt 1              @ ../../../../Library/StdDriver/src/spi.c:335:23
	str	r0, [sp, #12]
	b	.LBB6_26
.Ltmp131:
.LBB6_26:
	.loc	5 0 23 is_stmt 0                @ ../../../../Library/StdDriver/src/spi.c:0:23
	b	.LBB6_27
.LBB6_27:
	b	.LBB6_28
.LBB6_28:
	.loc	5 337 5 is_stmt 1               @ ../../../../Library/StdDriver/src/spi.c:337:5
	b	.LBB6_29
.Ltmp132:
.LBB6_29:
	.loc	5 0 5 is_stmt 0                 @ ../../../../Library/StdDriver/src/spi.c:0:5
	b	.LBB6_30
.LBB6_30:
.Ltmp133:
	.loc	5 339 9 is_stmt 1               @ ../../../../Library/StdDriver/src/spi.c:339:9
	ldr	r0, [sp, #16]
	.loc	5 339 24 is_stmt 0              @ ../../../../Library/StdDriver/src/spi.c:339:24
	ldr	r1, [sp, #8]
.Ltmp134:
	.loc	5 339 9                         @ ../../../../Library/StdDriver/src/spi.c:339:9
	cmp	r0, r1
	blo	.LBB6_32
	b	.LBB6_31
.LBB6_31:
.Ltmp135:
	.loc	5 342 9 is_stmt 1               @ ../../../../Library/StdDriver/src/spi.c:342:9
	ldr	r1, [sp, #20]
	movs	r0, #0
	.loc	5 342 21 is_stmt 0              @ ../../../../Library/StdDriver/src/spi.c:342:21
	str	r0, [r1, #4]
	.loc	5 344 23 is_stmt 1              @ ../../../../Library/StdDriver/src/spi.c:344:23
	ldr	r0, [sp, #12]
	.loc	5 344 21 is_stmt 0              @ ../../../../Library/StdDriver/src/spi.c:344:21
	str	r0, [sp]
	.loc	5 345 5 is_stmt 1               @ ../../../../Library/StdDriver/src/spi.c:345:5
	b	.LBB6_42
.Ltmp136:
.LBB6_32:
	.loc	5 346 14                        @ ../../../../Library/StdDriver/src/spi.c:346:14
	ldr	r0, [sp, #16]
	.loc	5 346 29 is_stmt 0              @ ../../../../Library/StdDriver/src/spi.c:346:29
	ldr	r1, [sp, #12]
.Ltmp137:
	.loc	5 346 14                        @ ../../../../Library/StdDriver/src/spi.c:346:14
	cmp	r0, r1
	blo	.LBB6_34
	b	.LBB6_33
.LBB6_33:
.Ltmp138:
	.loc	5 349 9 is_stmt 1               @ ../../../../Library/StdDriver/src/spi.c:349:9
	ldr	r1, [sp, #20]
	movs	r0, #0
	.loc	5 349 21 is_stmt 0              @ ../../../../Library/StdDriver/src/spi.c:349:21
	str	r0, [r1, #4]
	.loc	5 351 23 is_stmt 1              @ ../../../../Library/StdDriver/src/spi.c:351:23
	ldr	r0, [sp, #12]
	.loc	5 351 21 is_stmt 0              @ ../../../../Library/StdDriver/src/spi.c:351:21
	str	r0, [sp]
	.loc	5 352 5 is_stmt 1               @ ../../../../Library/StdDriver/src/spi.c:352:5
	b	.LBB6_41
.Ltmp139:
.LBB6_34:
	.loc	5 353 14                        @ ../../../../Library/StdDriver/src/spi.c:353:14
	ldr	r0, [sp, #16]
.Ltmp140:
	.loc	5 353 14 is_stmt 0              @ ../../../../Library/StdDriver/src/spi.c:353:14
	cbnz	r0, .LBB6_36
	b	.LBB6_35
.LBB6_35:
.Ltmp141:
	.loc	5 356 9 is_stmt 1               @ ../../../../Library/StdDriver/src/spi.c:356:9
	ldr	r1, [sp, #20]
	.loc	5 356 21 is_stmt 0              @ ../../../../Library/StdDriver/src/spi.c:356:21
	ldr	r0, [r1, #4]
	ldr	r2, __arm_cp.6_6
	orrs	r0, r2
	str	r0, [r1, #4]
	.loc	5 358 24 is_stmt 1              @ ../../../../Library/StdDriver/src/spi.c:358:24
	ldr	r0, [sp, #12]
	.loc	5 358 34 is_stmt 0              @ ../../../../Library/StdDriver/src/spi.c:358:34
	lsrs	r0, r0, #9
	.loc	5 358 21                        @ ../../../../Library/StdDriver/src/spi.c:358:21
	str	r0, [sp]
	.loc	5 359 5 is_stmt 1               @ ../../../../Library/StdDriver/src/spi.c:359:5
	b	.LBB6_40
.Ltmp142:
.LBB6_36:
	.loc	5 362 21                        @ ../../../../Library/StdDriver/src/spi.c:362:21
	ldr	r2, [sp, #12]
	movs	r1, #10
	.loc	5 362 31 is_stmt 0              @ ../../../../Library/StdDriver/src/spi.c:362:31
	mov	r0, r1
	muls	r0, r2, r0
	.loc	5 362 41                        @ ../../../../Library/StdDriver/src/spi.c:362:41
	ldr	r2, [sp, #16]
	.loc	5 362 39                        @ ../../../../Library/StdDriver/src/spi.c:362:39
	udiv	r0, r0, r2
	.loc	5 362 53                        @ ../../../../Library/StdDriver/src/spi.c:362:53
	adds	r0, r0, #5
	.loc	5 362 60                        @ ../../../../Library/StdDriver/src/spi.c:362:60
	udiv	r0, r0, r1
	.loc	5 362 68                        @ ../../../../Library/StdDriver/src/spi.c:362:68
	subs	r0, r0, #1
	.loc	5 362 16                        @ ../../../../Library/StdDriver/src/spi.c:362:16
	str	r0, [sp, #4]
.Ltmp143:
	.loc	5 364 13 is_stmt 1              @ ../../../../Library/StdDriver/src/spi.c:364:13
	ldr	r0, [sp, #4]
.Ltmp144:
	.loc	5 364 13 is_stmt 0              @ ../../../../Library/StdDriver/src/spi.c:364:13
	lsrs	r0, r0, #9
	cbz	r0, .LBB6_38
	b	.LBB6_37
.LBB6_37:
	.loc	5 0 13                          @ ../../../../Library/StdDriver/src/spi.c:0:13
	ldr	r2, __arm_cp.6_6
.Ltmp145:
	.loc	5 366 20 is_stmt 1              @ ../../../../Library/StdDriver/src/spi.c:366:20
	str	r2, [sp, #4]
	.loc	5 367 13                        @ ../../../../Library/StdDriver/src/spi.c:367:13
	ldr	r1, [sp, #20]
	.loc	5 367 25 is_stmt 0              @ ../../../../Library/StdDriver/src/spi.c:367:25
	ldr	r0, [r1, #4]
	orrs	r0, r2
	str	r0, [r1, #4]
	.loc	5 369 28 is_stmt 1              @ ../../../../Library/StdDriver/src/spi.c:369:28
	ldr	r0, [sp, #12]
	.loc	5 369 38 is_stmt 0              @ ../../../../Library/StdDriver/src/spi.c:369:38
	lsrs	r0, r0, #9
	.loc	5 369 25                        @ ../../../../Library/StdDriver/src/spi.c:369:25
	str	r0, [sp]
	.loc	5 370 9 is_stmt 1               @ ../../../../Library/StdDriver/src/spi.c:370:9
	b	.LBB6_39
.Ltmp146:
.LBB6_38:
	.loc	5 373 28                        @ ../../../../Library/StdDriver/src/spi.c:373:28
	ldr	r0, [sp, #20]
	.loc	5 373 33 is_stmt 0              @ ../../../../Library/StdDriver/src/spi.c:373:33
	ldr	r0, [r0, #4]
	ldr	r1, __arm_cp.6_5
	.loc	5 373 40                        @ ../../../../Library/StdDriver/src/spi.c:373:40
	ands	r0, r1
	.loc	5 373 72                        @ ../../../../Library/StdDriver/src/spi.c:373:72
	ldr	r1, [sp, #4]
	.loc	5 373 69                        @ ../../../../Library/StdDriver/src/spi.c:373:69
	orrs	r0, r1
	.loc	5 373 13                        @ ../../../../Library/StdDriver/src/spi.c:373:13
	ldr	r1, [sp, #20]
	.loc	5 373 25                        @ ../../../../Library/StdDriver/src/spi.c:373:25
	str	r0, [r1, #4]
	.loc	5 375 28 is_stmt 1              @ ../../../../Library/StdDriver/src/spi.c:375:28
	ldr	r0, [sp, #12]
	.loc	5 375 41 is_stmt 0              @ ../../../../Library/StdDriver/src/spi.c:375:41
	ldr	r1, [sp, #4]
	.loc	5 375 48                        @ ../../../../Library/StdDriver/src/spi.c:375:48
	adds	r1, r1, #1
	.loc	5 375 38                        @ ../../../../Library/StdDriver/src/spi.c:375:38
	udiv	r0, r0, r1
	.loc	5 375 25                        @ ../../../../Library/StdDriver/src/spi.c:375:25
	str	r0, [sp]
	b	.LBB6_39
.Ltmp147:
.LBB6_39:
	.loc	5 0 25                          @ ../../../../Library/StdDriver/src/spi.c:0:25
	b	.LBB6_40
.LBB6_40:
	b	.LBB6_41
.LBB6_41:
	b	.LBB6_42
.LBB6_42:
	.loc	5 379 12 is_stmt 1              @ ../../../../Library/StdDriver/src/spi.c:379:12
	ldr	r0, [sp]
	.loc	5 379 5 is_stmt 0               @ ../../../../Library/StdDriver/src/spi.c:379:5
	add	sp, #24
	pop	{r7, pc}
.Ltmp148:
	.p2align	2
@ %bb.43:
	.loc	5 0 5                           @ ../../../../Library/StdDriver/src/spi.c:0:5
__arm_cp.6_0:
	.long	1074139136                      @ 0x40061000
.Lcpi_end10:
	.size	__arm_cp.6_0, .Lcpi_end10-__arm_cp.6_0
__arm_cp.6_1:
	.long	1074143232                      @ 0x40062000
.Lcpi_end11:
	.size	__arm_cp.6_1, .Lcpi_end11-__arm_cp.6_1
__arm_cp.6_2:
	.long	1073742360                      @ 0x40000218
.Lcpi_end12:
	.size	__arm_cp.6_2, .Lcpi_end12-__arm_cp.6_2
__arm_cp.6_3:
	.long	48000000                        @ 0x2dc6c00
.Lcpi_end13:
	.size	__arm_cp.6_3, .Lcpi_end13-__arm_cp.6_3
__arm_cp.6_4:
	.long	24000000                        @ 0x16e3600
.Lcpi_end14:
	.size	__arm_cp.6_4, .Lcpi_end14-__arm_cp.6_4
__arm_cp.6_5:
	.long	4294966784                      @ 0xfffffe00
.Lcpi_end15:
	.size	__arm_cp.6_5, .Lcpi_end15-__arm_cp.6_5
__arm_cp.6_6:
	.long	511                             @ 0x1ff
.Lcpi_end16:
	.size	__arm_cp.6_6, .Lcpi_end16-__arm_cp.6_6
.Lfunc_end6:
	.size	SPI_SetBusClock, .Lfunc_end6-SPI_SetBusClock
	.cfi_endproc
	.cantunwind
	.fnend
                                        @ -- End function
	.section	.text.SPI_SetFIFO,"ax",%progbits
	.hidden	SPI_SetFIFO                     @ -- Begin function SPI_SetFIFO
	.globl	SPI_SetFIFO
	.p2align	1
	.type	SPI_SetFIFO,%function
	.code	16                              @ @SPI_SetFIFO
	.thumb_func
SPI_SetFIFO:
.Lfunc_begin7:
	.loc	5 391 0 is_stmt 1               @ ../../../../Library/StdDriver/src/spi.c:391:0
	.fnstart
	.cfi_startproc
@ %bb.0:
	.pad	#12
	sub	sp, #12
	.cfi_def_cfa_offset 12
	str	r0, [sp, #8]
	str	r1, [sp, #4]
	str	r2, [sp]
.Ltmp149:
	.loc	5 392 21 prologue_end           @ ../../../../Library/StdDriver/src/spi.c:392:21
	ldr	r0, [sp, #8]
	.loc	5 392 26 is_stmt 0              @ ../../../../Library/StdDriver/src/spi.c:392:26
	ldr	r0, [r0, #16]
	movs	r1, #119
	lsls	r1, r1, #24
	.loc	5 392 34                        @ ../../../../Library/StdDriver/src/spi.c:392:34
	bics	r0, r1
	.loc	5 393 21 is_stmt 1              @ ../../../../Library/StdDriver/src/spi.c:393:21
	ldr	r1, [sp, #4]
	.loc	5 393 36 is_stmt 0              @ ../../../../Library/StdDriver/src/spi.c:393:36
	lsls	r1, r1, #28
	.loc	5 392 84 is_stmt 1              @ ../../../../Library/StdDriver/src/spi.c:392:84
	orrs	r0, r1
	.loc	5 394 21                        @ ../../../../Library/StdDriver/src/spi.c:394:21
	ldr	r1, [sp]
	.loc	5 394 36 is_stmt 0              @ ../../../../Library/StdDriver/src/spi.c:394:36
	lsls	r1, r1, #24
	.loc	5 393 61 is_stmt 1              @ ../../../../Library/StdDriver/src/spi.c:393:61
	orrs	r0, r1
	.loc	5 392 5                         @ ../../../../Library/StdDriver/src/spi.c:392:5
	ldr	r1, [sp, #8]
	.loc	5 392 18 is_stmt 0              @ ../../../../Library/StdDriver/src/spi.c:392:18
	str	r0, [r1, #16]
	.loc	5 395 1 is_stmt 1               @ ../../../../Library/StdDriver/src/spi.c:395:1
	add	sp, #12
	bx	lr
.Ltmp150:
.Lfunc_end7:
	.size	SPI_SetFIFO, .Lfunc_end7-SPI_SetFIFO
	.cfi_endproc
	.cantunwind
	.fnend
                                        @ -- End function
	.section	.text.SPI_GetBusClock,"ax",%progbits
	.hidden	SPI_GetBusClock                 @ -- Begin function SPI_GetBusClock
	.globl	SPI_GetBusClock
	.p2align	2
	.type	SPI_GetBusClock,%function
	.code	16                              @ @SPI_GetBusClock
	.thumb_func
SPI_GetBusClock:
.Lfunc_begin8:
	.loc	5 404 0                         @ ../../../../Library/StdDriver/src/spi.c:404:0
	.fnstart
	.cfi_startproc
@ %bb.0:
	.save	{r7, lr}
	push	{r7, lr}
	.cfi_def_cfa_offset 8
	.cfi_offset lr, -4
	.cfi_offset r7, -8
	.pad	#16
	sub	sp, #16
	.cfi_def_cfa_offset 24
	str	r0, [sp, #12]
	ldr	r0, __arm_cp.8_0
.Ltmp151:
	.loc	5 406 14 prologue_end           @ ../../../../Library/StdDriver/src/spi.c:406:14
	str	r0, [sp, #4]
	.loc	5 409 15                        @ ../../../../Library/StdDriver/src/spi.c:409:15
	ldr	r0, [sp, #12]
	.loc	5 409 20 is_stmt 0              @ ../../../../Library/StdDriver/src/spi.c:409:20
	ldr	r0, [r0, #4]
	ldr	r1, __arm_cp.8_1
	.loc	5 409 27                        @ ../../../../Library/StdDriver/src/spi.c:409:27
	ands	r0, r1
	.loc	5 409 12                        @ ../../../../Library/StdDriver/src/spi.c:409:12
	str	r0, [sp, #8]
.Ltmp152:
	.loc	5 412 9 is_stmt 1               @ ../../../../Library/StdDriver/src/spi.c:412:9
	ldr	r0, [sp, #12]
	ldr	r1, __arm_cp.8_2
.Ltmp153:
	.loc	5 412 9 is_stmt 0               @ ../../../../Library/StdDriver/src/spi.c:412:9
	cmp	r0, r1
	bne	.LBB8_11
	b	.LBB8_1
.LBB8_1:
	.loc	5 0 9                           @ ../../../../Library/StdDriver/src/spi.c:0:9
	ldr	r0, __arm_cp.8_4
.Ltmp154:
	.loc	5 414 19 is_stmt 1              @ ../../../../Library/StdDriver/src/spi.c:414:19
	ldr	r0, [r0]
.Ltmp155:
	.loc	5 414 13 is_stmt 0              @ ../../../../Library/StdDriver/src/spi.c:414:13
	lsls	r0, r0, #26
	lsrs	r0, r0, #30
	cbnz	r0, .LBB8_3
	b	.LBB8_2
.LBB8_2:
	.loc	5 0 13                          @ ../../../../Library/StdDriver/src/spi.c:0:13
	ldr	r0, __arm_cp.8_5
.Ltmp156:
	.loc	5 416 23 is_stmt 1              @ ../../../../Library/StdDriver/src/spi.c:416:23
	str	r0, [sp, #4]
	.loc	5 417 9                         @ ../../../../Library/StdDriver/src/spi.c:417:9
	b	.LBB8_10
.Ltmp157:
.LBB8_3:
	.loc	5 0 9 is_stmt 0                 @ ../../../../Library/StdDriver/src/spi.c:0:9
	ldr	r0, __arm_cp.8_4
.Ltmp158:
	.loc	5 418 24 is_stmt 1              @ ../../../../Library/StdDriver/src/spi.c:418:24
	ldr	r0, [r0]
	movs	r1, #48
	.loc	5 418 32 is_stmt 0              @ ../../../../Library/StdDriver/src/spi.c:418:32
	ands	r0, r1
.Ltmp159:
	.loc	5 418 18                        @ ../../../../Library/StdDriver/src/spi.c:418:18
	cmp	r0, #16
	bne	.LBB8_5
	b	.LBB8_4
.LBB8_4:
.Ltmp160:
	.loc	5 420 25 is_stmt 1              @ ../../../../Library/StdDriver/src/spi.c:420:25
	bl	CLK_GetPLLClockFreq
	.loc	5 420 23 is_stmt 0              @ ../../../../Library/StdDriver/src/spi.c:420:23
	str	r0, [sp, #4]
	.loc	5 421 9 is_stmt 1               @ ../../../../Library/StdDriver/src/spi.c:421:9
	b	.LBB8_9
.Ltmp161:
.LBB8_5:
	.loc	5 0 9 is_stmt 0                 @ ../../../../Library/StdDriver/src/spi.c:0:9
	ldr	r0, __arm_cp.8_4
.Ltmp162:
	.loc	5 422 24 is_stmt 1              @ ../../../../Library/StdDriver/src/spi.c:422:24
	ldr	r0, [r0]
	movs	r1, #48
	.loc	5 422 32 is_stmt 0              @ ../../../../Library/StdDriver/src/spi.c:422:32
	ands	r0, r1
.Ltmp163:
	.loc	5 422 18                        @ ../../../../Library/StdDriver/src/spi.c:422:18
	cmp	r0, #32
	bne	.LBB8_7
	b	.LBB8_6
.LBB8_6:
.Ltmp164:
	.loc	5 425 25 is_stmt 1              @ ../../../../Library/StdDriver/src/spi.c:425:25
	bl	CLK_GetPCLK1Freq
	.loc	5 425 23 is_stmt 0              @ ../../../../Library/StdDriver/src/spi.c:425:23
	str	r0, [sp, #4]
	.loc	5 426 9 is_stmt 1               @ ../../../../Library/StdDriver/src/spi.c:426:9
	b	.LBB8_8
.Ltmp165:
.LBB8_7:
	.loc	5 0 9 is_stmt 0                 @ ../../../../Library/StdDriver/src/spi.c:0:9
	ldr	r0, __arm_cp.8_0
.Ltmp166:
	.loc	5 429 23 is_stmt 1              @ ../../../../Library/StdDriver/src/spi.c:429:23
	str	r0, [sp, #4]
	b	.LBB8_8
.Ltmp167:
.LBB8_8:
	.loc	5 0 23 is_stmt 0                @ ../../../../Library/StdDriver/src/spi.c:0:23
	b	.LBB8_9
.LBB8_9:
	b	.LBB8_10
.LBB8_10:
	.loc	5 431 5 is_stmt 1               @ ../../../../Library/StdDriver/src/spi.c:431:5
	b	.LBB8_23
.Ltmp168:
.LBB8_11:
	.loc	5 432 14                        @ ../../../../Library/StdDriver/src/spi.c:432:14
	ldr	r0, [sp, #12]
	ldr	r1, __arm_cp.8_3
.Ltmp169:
	.loc	5 432 14 is_stmt 0              @ ../../../../Library/StdDriver/src/spi.c:432:14
	cmp	r0, r1
	bne	.LBB8_22
	b	.LBB8_12
.LBB8_12:
	.loc	5 0 14                          @ ../../../../Library/StdDriver/src/spi.c:0:14
	ldr	r0, __arm_cp.8_4
.Ltmp170:
	.loc	5 434 19 is_stmt 1              @ ../../../../Library/StdDriver/src/spi.c:434:19
	ldr	r0, [r0]
.Ltmp171:
	.loc	5 434 13 is_stmt 0              @ ../../../../Library/StdDriver/src/spi.c:434:13
	lsls	r0, r0, #24
	lsrs	r0, r0, #30
	cbnz	r0, .LBB8_14
	b	.LBB8_13
.LBB8_13:
	.loc	5 0 13                          @ ../../../../Library/StdDriver/src/spi.c:0:13
	ldr	r0, __arm_cp.8_5
.Ltmp172:
	.loc	5 436 23 is_stmt 1              @ ../../../../Library/StdDriver/src/spi.c:436:23
	str	r0, [sp, #4]
	.loc	5 437 9                         @ ../../../../Library/StdDriver/src/spi.c:437:9
	b	.LBB8_21
.Ltmp173:
.LBB8_14:
	.loc	5 0 9 is_stmt 0                 @ ../../../../Library/StdDriver/src/spi.c:0:9
	ldr	r0, __arm_cp.8_4
.Ltmp174:
	.loc	5 438 24 is_stmt 1              @ ../../../../Library/StdDriver/src/spi.c:438:24
	ldr	r0, [r0]
	movs	r1, #192
	.loc	5 438 32 is_stmt 0              @ ../../../../Library/StdDriver/src/spi.c:438:32
	ands	r0, r1
.Ltmp175:
	.loc	5 438 18                        @ ../../../../Library/StdDriver/src/spi.c:438:18
	cmp	r0, #64
	bne	.LBB8_16
	b	.LBB8_15
.LBB8_15:
.Ltmp176:
	.loc	5 440 25 is_stmt 1              @ ../../../../Library/StdDriver/src/spi.c:440:25
	bl	CLK_GetPLLClockFreq
	.loc	5 440 23 is_stmt 0              @ ../../../../Library/StdDriver/src/spi.c:440:23
	str	r0, [sp, #4]
	.loc	5 441 9 is_stmt 1               @ ../../../../Library/StdDriver/src/spi.c:441:9
	b	.LBB8_20
.Ltmp177:
.LBB8_16:
	.loc	5 0 9 is_stmt 0                 @ ../../../../Library/StdDriver/src/spi.c:0:9
	ldr	r0, __arm_cp.8_4
.Ltmp178:
	.loc	5 442 24 is_stmt 1              @ ../../../../Library/StdDriver/src/spi.c:442:24
	ldr	r0, [r0]
	movs	r1, #192
	.loc	5 442 32 is_stmt 0              @ ../../../../Library/StdDriver/src/spi.c:442:32
	ands	r0, r1
.Ltmp179:
	.loc	5 442 18                        @ ../../../../Library/StdDriver/src/spi.c:442:18
	cmp	r0, #128
	bne	.LBB8_18
	b	.LBB8_17
.LBB8_17:
.Ltmp180:
	.loc	5 445 25 is_stmt 1              @ ../../../../Library/StdDriver/src/spi.c:445:25
	bl	CLK_GetPCLK1Freq
	.loc	5 445 23 is_stmt 0              @ ../../../../Library/StdDriver/src/spi.c:445:23
	str	r0, [sp, #4]
	.loc	5 446 9 is_stmt 1               @ ../../../../Library/StdDriver/src/spi.c:446:9
	b	.LBB8_19
.Ltmp181:
.LBB8_18:
	.loc	5 0 9 is_stmt 0                 @ ../../../../Library/StdDriver/src/spi.c:0:9
	ldr	r0, __arm_cp.8_0
.Ltmp182:
	.loc	5 449 23 is_stmt 1              @ ../../../../Library/StdDriver/src/spi.c:449:23
	str	r0, [sp, #4]
	b	.LBB8_19
.Ltmp183:
.LBB8_19:
	.loc	5 0 23 is_stmt 0                @ ../../../../Library/StdDriver/src/spi.c:0:23
	b	.LBB8_20
.LBB8_20:
	b	.LBB8_21
.LBB8_21:
	.loc	5 451 5 is_stmt 1               @ ../../../../Library/StdDriver/src/spi.c:451:5
	b	.LBB8_22
.Ltmp184:
.LBB8_22:
	.loc	5 0 5 is_stmt 0                 @ ../../../../Library/StdDriver/src/spi.c:0:5
	b	.LBB8_23
.LBB8_23:
	.loc	5 454 13 is_stmt 1              @ ../../../../Library/StdDriver/src/spi.c:454:13
	ldr	r0, [sp, #4]
	.loc	5 454 26 is_stmt 0              @ ../../../../Library/StdDriver/src/spi.c:454:26
	ldr	r1, [sp, #8]
	.loc	5 454 33                        @ ../../../../Library/StdDriver/src/spi.c:454:33
	adds	r1, r1, #1
	.loc	5 454 23                        @ ../../../../Library/StdDriver/src/spi.c:454:23
	udiv	r0, r0, r1
	.loc	5 454 5                         @ ../../../../Library/StdDriver/src/spi.c:454:5
	add	sp, #16
	pop	{r7, pc}
.Ltmp185:
	.p2align	2
@ %bb.24:
	.loc	5 0 5                           @ ../../../../Library/StdDriver/src/spi.c:0:5
__arm_cp.8_0:
	.long	48000000                        @ 0x2dc6c00
.Lcpi_end17:
	.size	__arm_cp.8_0, .Lcpi_end17-__arm_cp.8_0
__arm_cp.8_1:
	.long	511                             @ 0x1ff
.Lcpi_end18:
	.size	__arm_cp.8_1, .Lcpi_end18-__arm_cp.8_1
__arm_cp.8_2:
	.long	1074139136                      @ 0x40061000
.Lcpi_end19:
	.size	__arm_cp.8_2, .Lcpi_end19-__arm_cp.8_2
__arm_cp.8_3:
	.long	1074143232                      @ 0x40062000
.Lcpi_end20:
	.size	__arm_cp.8_3, .Lcpi_end20-__arm_cp.8_3
__arm_cp.8_4:
	.long	1073742360                      @ 0x40000218
.Lcpi_end21:
	.size	__arm_cp.8_4, .Lcpi_end21-__arm_cp.8_4
__arm_cp.8_5:
	.long	24000000                        @ 0x16e3600
.Lcpi_end22:
	.size	__arm_cp.8_5, .Lcpi_end22-__arm_cp.8_5
.Lfunc_end8:
	.size	SPI_GetBusClock, .Lfunc_end8-SPI_GetBusClock
	.cfi_endproc
	.cantunwind
	.fnend
                                        @ -- End function
	.section	.text.SPI_EnableInt,"ax",%progbits
	.hidden	SPI_EnableInt                   @ -- Begin function SPI_EnableInt
	.globl	SPI_EnableInt
	.p2align	1
	.type	SPI_EnableInt,%function
	.code	16                              @ @SPI_EnableInt
	.thumb_func
SPI_EnableInt:
.Lfunc_begin9:
	.loc	5 478 0 is_stmt 1               @ ../../../../Library/StdDriver/src/spi.c:478:0
	.fnstart
	.cfi_startproc
@ %bb.0:
	.pad	#8
	sub	sp, #8
	.cfi_def_cfa_offset 8
	str	r0, [sp, #4]
	str	r1, [sp]
	mov	r0, sp
.Ltmp186:
	.loc	5 480 9 prologue_end            @ ../../../../Library/StdDriver/src/spi.c:480:9
	ldrb	r0, [r0]
	lsls	r0, r0, #31
	cbz	r0, .LBB9_2
	b	.LBB9_1
.LBB9_1:
.Ltmp187:
	.loc	5 482 9                         @ ../../../../Library/StdDriver/src/spi.c:482:9
	ldr	r1, [sp, #4]
	.loc	5 482 18 is_stmt 0              @ ../../../../Library/StdDriver/src/spi.c:482:18
	ldr	r0, [r1]
	movs	r2, #1
	lsls	r2, r2, #17
	orrs	r0, r2
	str	r0, [r1]
	.loc	5 483 5 is_stmt 1               @ ../../../../Library/StdDriver/src/spi.c:483:5
	b	.LBB9_2
.Ltmp188:
.LBB9_2:
	.loc	5 0 5 is_stmt 0                 @ ../../../../Library/StdDriver/src/spi.c:0:5
	mov	r0, sp
	.loc	5 486 9 is_stmt 1               @ ../../../../Library/StdDriver/src/spi.c:486:9
	ldrb	r0, [r0]
	lsls	r0, r0, #30
	cmp	r0, #0
	bpl	.LBB9_4
	b	.LBB9_3
.LBB9_3:
.Ltmp189:
	.loc	5 488 9                         @ ../../../../Library/StdDriver/src/spi.c:488:9
	ldr	r1, [sp, #4]
	.loc	5 488 20 is_stmt 0              @ ../../../../Library/StdDriver/src/spi.c:488:20
	ldr	r0, [r1, #8]
	movw	r2, #4096
	orrs	r0, r2
	str	r0, [r1, #8]
	.loc	5 489 5 is_stmt 1               @ ../../../../Library/StdDriver/src/spi.c:489:5
	b	.LBB9_4
.Ltmp190:
.LBB9_4:
	.loc	5 0 5 is_stmt 0                 @ ../../../../Library/StdDriver/src/spi.c:0:5
	mov	r0, sp
	.loc	5 492 9 is_stmt 1               @ ../../../../Library/StdDriver/src/spi.c:492:9
	ldrb	r0, [r0]
	lsls	r0, r0, #29
	cmp	r0, #0
	bpl	.LBB9_6
	b	.LBB9_5
.LBB9_5:
.Ltmp191:
	.loc	5 494 9                         @ ../../../../Library/StdDriver/src/spi.c:494:9
	ldr	r1, [sp, #4]
	.loc	5 494 20 is_stmt 0              @ ../../../../Library/StdDriver/src/spi.c:494:20
	ldr	r0, [r1, #8]
	movw	r2, #8192
	orrs	r0, r2
	str	r0, [r1, #8]
	.loc	5 495 5 is_stmt 1               @ ../../../../Library/StdDriver/src/spi.c:495:5
	b	.LBB9_6
.Ltmp192:
.LBB9_6:
	.loc	5 0 5 is_stmt 0                 @ ../../../../Library/StdDriver/src/spi.c:0:5
	mov	r0, sp
	.loc	5 498 9 is_stmt 1               @ ../../../../Library/StdDriver/src/spi.c:498:9
	ldrb	r0, [r0]
	lsls	r0, r0, #28
	cmp	r0, #0
	bpl	.LBB9_8
	b	.LBB9_7
.LBB9_7:
.Ltmp193:
	.loc	5 500 9                         @ ../../../../Library/StdDriver/src/spi.c:500:9
	ldr	r1, [sp, #4]
	.loc	5 500 20 is_stmt 0              @ ../../../../Library/StdDriver/src/spi.c:500:20
	ldr	r0, [r1, #8]
	movw	r2, #512
	orrs	r0, r2
	str	r0, [r1, #8]
	.loc	5 501 5 is_stmt 1               @ ../../../../Library/StdDriver/src/spi.c:501:5
	b	.LBB9_8
.Ltmp194:
.LBB9_8:
	.loc	5 0 5 is_stmt 0                 @ ../../../../Library/StdDriver/src/spi.c:0:5
	mov	r0, sp
	.loc	5 504 9 is_stmt 1               @ ../../../../Library/StdDriver/src/spi.c:504:9
	ldrb	r0, [r0]
	lsls	r0, r0, #27
	cmp	r0, #0
	bpl	.LBB9_10
	b	.LBB9_9
.LBB9_9:
.Ltmp195:
	.loc	5 506 9                         @ ../../../../Library/StdDriver/src/spi.c:506:9
	ldr	r1, [sp, #4]
	.loc	5 506 20 is_stmt 0              @ ../../../../Library/StdDriver/src/spi.c:506:20
	ldr	r0, [r1, #8]
	movw	r2, #256
	orrs	r0, r2
	str	r0, [r1, #8]
	.loc	5 507 5 is_stmt 1               @ ../../../../Library/StdDriver/src/spi.c:507:5
	b	.LBB9_10
.Ltmp196:
.LBB9_10:
	.loc	5 0 5 is_stmt 0                 @ ../../../../Library/StdDriver/src/spi.c:0:5
	mov	r0, sp
	.loc	5 510 9 is_stmt 1               @ ../../../../Library/StdDriver/src/spi.c:510:9
	ldrb	r0, [r0]
	lsls	r0, r0, #25
	cmp	r0, #0
	bpl	.LBB9_12
	b	.LBB9_11
.LBB9_11:
.Ltmp197:
	.loc	5 512 9                         @ ../../../../Library/StdDriver/src/spi.c:512:9
	ldr	r1, [sp, #4]
	.loc	5 512 22 is_stmt 0              @ ../../../../Library/StdDriver/src/spi.c:512:22
	ldr	r0, [r1, #16]
	movs	r2, #128
	orrs	r0, r2
	str	r0, [r1, #16]
	.loc	5 513 5 is_stmt 1               @ ../../../../Library/StdDriver/src/spi.c:513:5
	b	.LBB9_12
.Ltmp198:
.LBB9_12:
	.loc	5 0 5 is_stmt 0                 @ ../../../../Library/StdDriver/src/spi.c:0:5
	mov	r0, sp
	.loc	5 516 9 is_stmt 1               @ ../../../../Library/StdDriver/src/spi.c:516:9
	ldrb	r0, [r0]
	lsls	r0, r0, #24
	cmp	r0, #0
	bpl	.LBB9_14
	b	.LBB9_13
.LBB9_13:
.Ltmp199:
	.loc	5 518 9                         @ ../../../../Library/StdDriver/src/spi.c:518:9
	ldr	r1, [sp, #4]
	.loc	5 518 22 is_stmt 0              @ ../../../../Library/StdDriver/src/spi.c:518:22
	ldr	r0, [r1, #16]
	movs	r2, #8
	orrs	r0, r2
	str	r0, [r1, #16]
	.loc	5 519 5 is_stmt 1               @ ../../../../Library/StdDriver/src/spi.c:519:5
	b	.LBB9_14
.Ltmp200:
.LBB9_14:
	.loc	5 0 5 is_stmt 0                 @ ../../../../Library/StdDriver/src/spi.c:0:5
	mov	r0, sp
	.loc	5 522 9 is_stmt 1               @ ../../../../Library/StdDriver/src/spi.c:522:9
	ldrb	r0, [r0, #1]
	lsls	r0, r0, #31
	cbz	r0, .LBB9_16
	b	.LBB9_15
.LBB9_15:
.Ltmp201:
	.loc	5 524 9                         @ ../../../../Library/StdDriver/src/spi.c:524:9
	ldr	r1, [sp, #4]
	.loc	5 524 22 is_stmt 0              @ ../../../../Library/StdDriver/src/spi.c:524:22
	ldr	r0, [r1, #16]
	movs	r2, #4
	orrs	r0, r2
	str	r0, [r1, #16]
	.loc	5 525 5 is_stmt 1               @ ../../../../Library/StdDriver/src/spi.c:525:5
	b	.LBB9_16
.Ltmp202:
.LBB9_16:
	.loc	5 0 5 is_stmt 0                 @ ../../../../Library/StdDriver/src/spi.c:0:5
	mov	r0, sp
	.loc	5 528 9 is_stmt 1               @ ../../../../Library/StdDriver/src/spi.c:528:9
	ldrb	r0, [r0, #1]
	lsls	r0, r0, #30
	cmp	r0, #0
	bpl	.LBB9_18
	b	.LBB9_17
.LBB9_17:
.Ltmp203:
	.loc	5 530 9                         @ ../../../../Library/StdDriver/src/spi.c:530:9
	ldr	r1, [sp, #4]
	.loc	5 530 22 is_stmt 0              @ ../../../../Library/StdDriver/src/spi.c:530:22
	ldr	r0, [r1, #16]
	movs	r2, #32
	orrs	r0, r2
	str	r0, [r1, #16]
	.loc	5 531 5 is_stmt 1               @ ../../../../Library/StdDriver/src/spi.c:531:5
	b	.LBB9_18
.Ltmp204:
.LBB9_18:
	.loc	5 0 5 is_stmt 0                 @ ../../../../Library/StdDriver/src/spi.c:0:5
	mov	r0, sp
	.loc	5 534 9 is_stmt 1               @ ../../../../Library/StdDriver/src/spi.c:534:9
	ldrb	r0, [r0, #1]
	lsls	r0, r0, #29
	cmp	r0, #0
	bpl	.LBB9_20
	b	.LBB9_19
.LBB9_19:
.Ltmp205:
	.loc	5 536 9                         @ ../../../../Library/StdDriver/src/spi.c:536:9
	ldr	r1, [sp, #4]
	.loc	5 536 22 is_stmt 0              @ ../../../../Library/StdDriver/src/spi.c:536:22
	ldr	r0, [r1, #16]
	movs	r2, #16
	orrs	r0, r2
	str	r0, [r1, #16]
	.loc	5 537 5 is_stmt 1               @ ../../../../Library/StdDriver/src/spi.c:537:5
	b	.LBB9_20
.Ltmp206:
.LBB9_20:
	.loc	5 538 1                         @ ../../../../Library/StdDriver/src/spi.c:538:1
	add	sp, #8
	bx	lr
.Ltmp207:
.Lfunc_end9:
	.size	SPI_EnableInt, .Lfunc_end9-SPI_EnableInt
	.cfi_endproc
	.cantunwind
	.fnend
                                        @ -- End function
	.section	.text.SPI_DisableInt,"ax",%progbits
	.hidden	SPI_DisableInt                  @ -- Begin function SPI_DisableInt
	.globl	SPI_DisableInt
	.p2align	1
	.type	SPI_DisableInt,%function
	.code	16                              @ @SPI_DisableInt
	.thumb_func
SPI_DisableInt:
.Lfunc_begin10:
	.loc	5 561 0                         @ ../../../../Library/StdDriver/src/spi.c:561:0
	.fnstart
	.cfi_startproc
@ %bb.0:
	.pad	#8
	sub	sp, #8
	.cfi_def_cfa_offset 8
	str	r0, [sp, #4]
	str	r1, [sp]
	mov	r0, sp
.Ltmp208:
	.loc	5 563 9 prologue_end            @ ../../../../Library/StdDriver/src/spi.c:563:9
	ldrb	r0, [r0]
	lsls	r0, r0, #31
	cbz	r0, .LBB10_2
	b	.LBB10_1
.LBB10_1:
.Ltmp209:
	.loc	5 565 9                         @ ../../../../Library/StdDriver/src/spi.c:565:9
	ldr	r1, [sp, #4]
	.loc	5 565 18 is_stmt 0              @ ../../../../Library/StdDriver/src/spi.c:565:18
	ldr	r0, [r1]
	movs	r2, #1
	lsls	r2, r2, #17
	bics	r0, r2
	str	r0, [r1]
	.loc	5 566 5 is_stmt 1               @ ../../../../Library/StdDriver/src/spi.c:566:5
	b	.LBB10_2
.Ltmp210:
.LBB10_2:
	.loc	5 0 5 is_stmt 0                 @ ../../../../Library/StdDriver/src/spi.c:0:5
	mov	r0, sp
	.loc	5 569 9 is_stmt 1               @ ../../../../Library/StdDriver/src/spi.c:569:9
	ldrb	r0, [r0]
	lsls	r0, r0, #30
	cmp	r0, #0
	bpl	.LBB10_4
	b	.LBB10_3
.LBB10_3:
.Ltmp211:
	.loc	5 571 9                         @ ../../../../Library/StdDriver/src/spi.c:571:9
	ldr	r1, [sp, #4]
	.loc	5 571 20 is_stmt 0              @ ../../../../Library/StdDriver/src/spi.c:571:20
	ldr	r0, [r1, #8]
	movw	r2, #4096
	bics	r0, r2
	str	r0, [r1, #8]
	.loc	5 572 5 is_stmt 1               @ ../../../../Library/StdDriver/src/spi.c:572:5
	b	.LBB10_4
.Ltmp212:
.LBB10_4:
	.loc	5 0 5 is_stmt 0                 @ ../../../../Library/StdDriver/src/spi.c:0:5
	mov	r0, sp
	.loc	5 575 9 is_stmt 1               @ ../../../../Library/StdDriver/src/spi.c:575:9
	ldrb	r0, [r0]
	lsls	r0, r0, #29
	cmp	r0, #0
	bpl	.LBB10_6
	b	.LBB10_5
.LBB10_5:
.Ltmp213:
	.loc	5 577 9                         @ ../../../../Library/StdDriver/src/spi.c:577:9
	ldr	r1, [sp, #4]
	.loc	5 577 20 is_stmt 0              @ ../../../../Library/StdDriver/src/spi.c:577:20
	ldr	r0, [r1, #8]
	movw	r2, #8192
	bics	r0, r2
	str	r0, [r1, #8]
	.loc	5 578 5 is_stmt 1               @ ../../../../Library/StdDriver/src/spi.c:578:5
	b	.LBB10_6
.Ltmp214:
.LBB10_6:
	.loc	5 0 5 is_stmt 0                 @ ../../../../Library/StdDriver/src/spi.c:0:5
	mov	r0, sp
	.loc	5 581 9 is_stmt 1               @ ../../../../Library/StdDriver/src/spi.c:581:9
	ldrb	r0, [r0]
	lsls	r0, r0, #28
	cmp	r0, #0
	bpl	.LBB10_8
	b	.LBB10_7
.LBB10_7:
.Ltmp215:
	.loc	5 583 9                         @ ../../../../Library/StdDriver/src/spi.c:583:9
	ldr	r1, [sp, #4]
	.loc	5 583 20 is_stmt 0              @ ../../../../Library/StdDriver/src/spi.c:583:20
	ldr	r0, [r1, #8]
	movw	r2, #512
	bics	r0, r2
	str	r0, [r1, #8]
	.loc	5 584 5 is_stmt 1               @ ../../../../Library/StdDriver/src/spi.c:584:5
	b	.LBB10_8
.Ltmp216:
.LBB10_8:
	.loc	5 0 5 is_stmt 0                 @ ../../../../Library/StdDriver/src/spi.c:0:5
	mov	r0, sp
	.loc	5 587 9 is_stmt 1               @ ../../../../Library/StdDriver/src/spi.c:587:9
	ldrb	r0, [r0]
	lsls	r0, r0, #27
	cmp	r0, #0
	bpl	.LBB10_10
	b	.LBB10_9
.LBB10_9:
.Ltmp217:
	.loc	5 589 9                         @ ../../../../Library/StdDriver/src/spi.c:589:9
	ldr	r1, [sp, #4]
	.loc	5 589 20 is_stmt 0              @ ../../../../Library/StdDriver/src/spi.c:589:20
	ldr	r0, [r1, #8]
	movw	r2, #256
	bics	r0, r2
	str	r0, [r1, #8]
	.loc	5 590 5 is_stmt 1               @ ../../../../Library/StdDriver/src/spi.c:590:5
	b	.LBB10_10
.Ltmp218:
.LBB10_10:
	.loc	5 0 5 is_stmt 0                 @ ../../../../Library/StdDriver/src/spi.c:0:5
	mov	r0, sp
	.loc	5 593 9 is_stmt 1               @ ../../../../Library/StdDriver/src/spi.c:593:9
	ldrb	r0, [r0]
	lsls	r0, r0, #25
	cmp	r0, #0
	bpl	.LBB10_12
	b	.LBB10_11
.LBB10_11:
.Ltmp219:
	.loc	5 595 9                         @ ../../../../Library/StdDriver/src/spi.c:595:9
	ldr	r1, [sp, #4]
	.loc	5 595 22 is_stmt 0              @ ../../../../Library/StdDriver/src/spi.c:595:22
	ldr	r0, [r1, #16]
	movs	r2, #128
	bics	r0, r2
	str	r0, [r1, #16]
	.loc	5 596 5 is_stmt 1               @ ../../../../Library/StdDriver/src/spi.c:596:5
	b	.LBB10_12
.Ltmp220:
.LBB10_12:
	.loc	5 0 5 is_stmt 0                 @ ../../../../Library/StdDriver/src/spi.c:0:5
	mov	r0, sp
	.loc	5 599 9 is_stmt 1               @ ../../../../Library/StdDriver/src/spi.c:599:9
	ldrb	r0, [r0]
	lsls	r0, r0, #24
	cmp	r0, #0
	bpl	.LBB10_14
	b	.LBB10_13
.LBB10_13:
.Ltmp221:
	.loc	5 601 9                         @ ../../../../Library/StdDriver/src/spi.c:601:9
	ldr	r1, [sp, #4]
	.loc	5 601 22 is_stmt 0              @ ../../../../Library/StdDriver/src/spi.c:601:22
	ldr	r0, [r1, #16]
	movs	r2, #8
	bics	r0, r2
	str	r0, [r1, #16]
	.loc	5 602 5 is_stmt 1               @ ../../../../Library/StdDriver/src/spi.c:602:5
	b	.LBB10_14
.Ltmp222:
.LBB10_14:
	.loc	5 0 5 is_stmt 0                 @ ../../../../Library/StdDriver/src/spi.c:0:5
	mov	r0, sp
	.loc	5 605 9 is_stmt 1               @ ../../../../Library/StdDriver/src/spi.c:605:9
	ldrb	r0, [r0, #1]
	lsls	r0, r0, #31
	cbz	r0, .LBB10_16
	b	.LBB10_15
.LBB10_15:
.Ltmp223:
	.loc	5 607 9                         @ ../../../../Library/StdDriver/src/spi.c:607:9
	ldr	r1, [sp, #4]
	.loc	5 607 22 is_stmt 0              @ ../../../../Library/StdDriver/src/spi.c:607:22
	ldr	r0, [r1, #16]
	movs	r2, #4
	bics	r0, r2
	str	r0, [r1, #16]
	.loc	5 608 5 is_stmt 1               @ ../../../../Library/StdDriver/src/spi.c:608:5
	b	.LBB10_16
.Ltmp224:
.LBB10_16:
	.loc	5 0 5 is_stmt 0                 @ ../../../../Library/StdDriver/src/spi.c:0:5
	mov	r0, sp
	.loc	5 611 9 is_stmt 1               @ ../../../../Library/StdDriver/src/spi.c:611:9
	ldrb	r0, [r0, #1]
	lsls	r0, r0, #30
	cmp	r0, #0
	bpl	.LBB10_18
	b	.LBB10_17
.LBB10_17:
.Ltmp225:
	.loc	5 613 9                         @ ../../../../Library/StdDriver/src/spi.c:613:9
	ldr	r1, [sp, #4]
	.loc	5 613 22 is_stmt 0              @ ../../../../Library/StdDriver/src/spi.c:613:22
	ldr	r0, [r1, #16]
	movs	r2, #32
	bics	r0, r2
	str	r0, [r1, #16]
	.loc	5 614 5 is_stmt 1               @ ../../../../Library/StdDriver/src/spi.c:614:5
	b	.LBB10_18
.Ltmp226:
.LBB10_18:
	.loc	5 0 5 is_stmt 0                 @ ../../../../Library/StdDriver/src/spi.c:0:5
	mov	r0, sp
	.loc	5 617 9 is_stmt 1               @ ../../../../Library/StdDriver/src/spi.c:617:9
	ldrb	r0, [r0, #1]
	lsls	r0, r0, #29
	cmp	r0, #0
	bpl	.LBB10_20
	b	.LBB10_19
.LBB10_19:
.Ltmp227:
	.loc	5 619 9                         @ ../../../../Library/StdDriver/src/spi.c:619:9
	ldr	r1, [sp, #4]
	.loc	5 619 22 is_stmt 0              @ ../../../../Library/StdDriver/src/spi.c:619:22
	ldr	r0, [r1, #16]
	movs	r2, #16
	bics	r0, r2
	str	r0, [r1, #16]
	.loc	5 620 5 is_stmt 1               @ ../../../../Library/StdDriver/src/spi.c:620:5
	b	.LBB10_20
.Ltmp228:
.LBB10_20:
	.loc	5 621 1                         @ ../../../../Library/StdDriver/src/spi.c:621:1
	add	sp, #8
	bx	lr
.Ltmp229:
.Lfunc_end10:
	.size	SPI_DisableInt, .Lfunc_end10-SPI_DisableInt
	.cfi_endproc
	.cantunwind
	.fnend
                                        @ -- End function
	.section	.text.SPI_GetIntFlag,"ax",%progbits
	.hidden	SPI_GetIntFlag                  @ -- Begin function SPI_GetIntFlag
	.globl	SPI_GetIntFlag
	.p2align	1
	.type	SPI_GetIntFlag,%function
	.code	16                              @ @SPI_GetIntFlag
	.thumb_func
SPI_GetIntFlag:
.Lfunc_begin11:
	.loc	5 644 0                         @ ../../../../Library/StdDriver/src/spi.c:644:0
	.fnstart
	.cfi_startproc
@ %bb.0:
	.pad	#16
	sub	sp, #16
	.cfi_def_cfa_offset 16
	str	r0, [sp, #12]
	str	r1, [sp, #8]
	movs	r0, #0
.Ltmp230:
	.loc	5 645 14 prologue_end           @ ../../../../Library/StdDriver/src/spi.c:645:14
	str	r0, [sp, #4]
	.loc	5 647 17                        @ ../../../../Library/StdDriver/src/spi.c:647:17
	ldr	r0, [sp, #12]
	.loc	5 647 22 is_stmt 0              @ ../../../../Library/StdDriver/src/spi.c:647:22
	ldr	r0, [r0, #20]
	movs	r1, #2
	.loc	5 647 29                        @ ../../../../Library/StdDriver/src/spi.c:647:29
	ands	r0, r1
	.loc	5 647 15                        @ ../../../../Library/StdDriver/src/spi.c:647:15
	str	r0, [sp]
	add	r0, sp, #8
.Ltmp231:
	.loc	5 650 39 is_stmt 1              @ ../../../../Library/StdDriver/src/spi.c:650:39
	ldrb	r0, [r0]
	lsls	r0, r0, #31
	cbz	r0, .LBB11_3
	b	.LBB11_1
.LBB11_1:
	.loc	5 650 43 is_stmt 0              @ ../../../../Library/StdDriver/src/spi.c:650:43
	ldr	r0, [sp]
.Ltmp232:
	.loc	5 650 9                         @ ../../../../Library/StdDriver/src/spi.c:650:9
	cbz	r0, .LBB11_3
	b	.LBB11_2
.LBB11_2:
.Ltmp233:
	.loc	5 652 20 is_stmt 1              @ ../../../../Library/StdDriver/src/spi.c:652:20
	ldr	r0, [sp, #4]
	movs	r1, #1
	orrs	r0, r1
	str	r0, [sp, #4]
	.loc	5 653 5                         @ ../../../../Library/StdDriver/src/spi.c:653:5
	b	.LBB11_3
.Ltmp234:
.LBB11_3:
	.loc	5 655 17                        @ ../../../../Library/StdDriver/src/spi.c:655:17
	ldr	r0, [sp, #12]
	.loc	5 655 22 is_stmt 0              @ ../../../../Library/StdDriver/src/spi.c:655:22
	ldr	r0, [r0, #20]
	movs	r1, #4
	.loc	5 655 29                        @ ../../../../Library/StdDriver/src/spi.c:655:29
	ands	r0, r1
	.loc	5 655 15                        @ ../../../../Library/StdDriver/src/spi.c:655:15
	str	r0, [sp]
	add	r0, sp, #8
.Ltmp235:
	.loc	5 658 40 is_stmt 1              @ ../../../../Library/StdDriver/src/spi.c:658:40
	ldrb	r0, [r0]
	lsls	r0, r0, #30
	cmp	r0, #0
	bpl	.LBB11_6
	b	.LBB11_4
.LBB11_4:
	.loc	5 658 44 is_stmt 0              @ ../../../../Library/StdDriver/src/spi.c:658:44
	ldr	r0, [sp]
.Ltmp236:
	.loc	5 658 9                         @ ../../../../Library/StdDriver/src/spi.c:658:9
	cbz	r0, .LBB11_6
	b	.LBB11_5
.LBB11_5:
.Ltmp237:
	.loc	5 660 20 is_stmt 1              @ ../../../../Library/StdDriver/src/spi.c:660:20
	ldr	r0, [sp, #4]
	movs	r1, #2
	orrs	r0, r1
	str	r0, [sp, #4]
	.loc	5 661 5                         @ ../../../../Library/StdDriver/src/spi.c:661:5
	b	.LBB11_6
.Ltmp238:
.LBB11_6:
	.loc	5 663 17                        @ ../../../../Library/StdDriver/src/spi.c:663:17
	ldr	r0, [sp, #12]
	.loc	5 663 22 is_stmt 0              @ ../../../../Library/StdDriver/src/spi.c:663:22
	ldr	r0, [r0, #20]
	movs	r1, #8
	.loc	5 663 29                        @ ../../../../Library/StdDriver/src/spi.c:663:29
	ands	r0, r1
	.loc	5 663 15                        @ ../../../../Library/StdDriver/src/spi.c:663:15
	str	r0, [sp]
	add	r0, sp, #8
.Ltmp239:
	.loc	5 666 42 is_stmt 1              @ ../../../../Library/StdDriver/src/spi.c:666:42
	ldrb	r0, [r0]
	lsls	r0, r0, #29
	cmp	r0, #0
	bpl	.LBB11_9
	b	.LBB11_7
.LBB11_7:
	.loc	5 666 46 is_stmt 0              @ ../../../../Library/StdDriver/src/spi.c:666:46
	ldr	r0, [sp]
.Ltmp240:
	.loc	5 666 9                         @ ../../../../Library/StdDriver/src/spi.c:666:9
	cbz	r0, .LBB11_9
	b	.LBB11_8
.LBB11_8:
.Ltmp241:
	.loc	5 668 20 is_stmt 1              @ ../../../../Library/StdDriver/src/spi.c:668:20
	ldr	r0, [sp, #4]
	movs	r1, #4
	orrs	r0, r1
	str	r0, [sp, #4]
	.loc	5 669 5                         @ ../../../../Library/StdDriver/src/spi.c:669:5
	b	.LBB11_9
.Ltmp242:
.LBB11_9:
	.loc	5 671 17                        @ ../../../../Library/StdDriver/src/spi.c:671:17
	ldr	r0, [sp, #12]
	.loc	5 671 22 is_stmt 0              @ ../../../../Library/StdDriver/src/spi.c:671:22
	ldr	r0, [r0, #20]
	movs	r1, #128
	.loc	5 671 29                        @ ../../../../Library/StdDriver/src/spi.c:671:29
	ands	r0, r1
	.loc	5 671 15                        @ ../../../../Library/StdDriver/src/spi.c:671:15
	str	r0, [sp]
	add	r0, sp, #8
.Ltmp243:
	.loc	5 674 40 is_stmt 1              @ ../../../../Library/StdDriver/src/spi.c:674:40
	ldrb	r0, [r0]
	lsls	r0, r0, #28
	cmp	r0, #0
	bpl	.LBB11_12
	b	.LBB11_10
.LBB11_10:
	.loc	5 674 44 is_stmt 0              @ ../../../../Library/StdDriver/src/spi.c:674:44
	ldr	r0, [sp]
.Ltmp244:
	.loc	5 674 9                         @ ../../../../Library/StdDriver/src/spi.c:674:9
	cbz	r0, .LBB11_12
	b	.LBB11_11
.LBB11_11:
.Ltmp245:
	.loc	5 676 20 is_stmt 1              @ ../../../../Library/StdDriver/src/spi.c:676:20
	ldr	r0, [sp, #4]
	movs	r1, #8
	orrs	r0, r1
	str	r0, [sp, #4]
	.loc	5 677 5                         @ ../../../../Library/StdDriver/src/spi.c:677:5
	b	.LBB11_12
.Ltmp246:
.LBB11_12:
	.loc	5 679 17                        @ ../../../../Library/StdDriver/src/spi.c:679:17
	ldr	r0, [sp, #12]
	.loc	5 679 22 is_stmt 0              @ ../../../../Library/StdDriver/src/spi.c:679:22
	ldr	r0, [r0, #20]
	movs	r1, #64
	.loc	5 679 29                        @ ../../../../Library/StdDriver/src/spi.c:679:29
	ands	r0, r1
	.loc	5 679 15                        @ ../../../../Library/StdDriver/src/spi.c:679:15
	str	r0, [sp]
	add	r0, sp, #8
.Ltmp247:
	.loc	5 682 40 is_stmt 1              @ ../../../../Library/StdDriver/src/spi.c:682:40
	ldrb	r0, [r0]
	lsls	r0, r0, #27
	cmp	r0, #0
	bpl	.LBB11_15
	b	.LBB11_13
.LBB11_13:
	.loc	5 682 44 is_stmt 0              @ ../../../../Library/StdDriver/src/spi.c:682:44
	ldr	r0, [sp]
.Ltmp248:
	.loc	5 682 9                         @ ../../../../Library/StdDriver/src/spi.c:682:9
	cbz	r0, .LBB11_15
	b	.LBB11_14
.LBB11_14:
.Ltmp249:
	.loc	5 684 20 is_stmt 1              @ ../../../../Library/StdDriver/src/spi.c:684:20
	ldr	r0, [sp, #4]
	movs	r1, #16
	orrs	r0, r1
	str	r0, [sp, #4]
	.loc	5 685 5                         @ ../../../../Library/StdDriver/src/spi.c:685:5
	b	.LBB11_15
.Ltmp250:
.LBB11_15:
	.loc	5 687 17                        @ ../../../../Library/StdDriver/src/spi.c:687:17
	ldr	r0, [sp, #12]
	.loc	5 687 22 is_stmt 0              @ ../../../../Library/StdDriver/src/spi.c:687:22
	ldr	r0, [r0, #20]
	movs	r1, #1
	lsls	r1, r1, #19
	.loc	5 687 29                        @ ../../../../Library/StdDriver/src/spi.c:687:29
	ands	r0, r1
	.loc	5 687 15                        @ ../../../../Library/StdDriver/src/spi.c:687:15
	str	r0, [sp]
	add	r0, sp, #8
.Ltmp251:
	.loc	5 690 39 is_stmt 1              @ ../../../../Library/StdDriver/src/spi.c:690:39
	ldrb	r0, [r0]
	lsls	r0, r0, #25
	cmp	r0, #0
	bpl	.LBB11_18
	b	.LBB11_16
.LBB11_16:
	.loc	5 690 43 is_stmt 0              @ ../../../../Library/StdDriver/src/spi.c:690:43
	ldr	r0, [sp]
.Ltmp252:
	.loc	5 690 9                         @ ../../../../Library/StdDriver/src/spi.c:690:9
	cbz	r0, .LBB11_18
	b	.LBB11_17
.LBB11_17:
.Ltmp253:
	.loc	5 692 20 is_stmt 1              @ ../../../../Library/StdDriver/src/spi.c:692:20
	ldr	r0, [sp, #4]
	movs	r1, #64
	orrs	r0, r1
	str	r0, [sp, #4]
	.loc	5 693 5                         @ ../../../../Library/StdDriver/src/spi.c:693:5
	b	.LBB11_18
.Ltmp254:
.LBB11_18:
	.loc	5 695 17                        @ ../../../../Library/StdDriver/src/spi.c:695:17
	ldr	r0, [sp, #12]
	.loc	5 695 22 is_stmt 0              @ ../../../../Library/StdDriver/src/spi.c:695:22
	ldr	r0, [r0, #20]
	movs	r1, #1
	lsls	r1, r1, #18
	.loc	5 695 29                        @ ../../../../Library/StdDriver/src/spi.c:695:29
	ands	r0, r1
	.loc	5 695 15                        @ ../../../../Library/StdDriver/src/spi.c:695:15
	str	r0, [sp]
	add	r0, sp, #8
.Ltmp255:
	.loc	5 698 44 is_stmt 1              @ ../../../../Library/StdDriver/src/spi.c:698:44
	ldrb	r0, [r0]
	lsls	r0, r0, #24
	cmp	r0, #0
	bpl	.LBB11_21
	b	.LBB11_19
.LBB11_19:
	.loc	5 698 48 is_stmt 0              @ ../../../../Library/StdDriver/src/spi.c:698:48
	ldr	r0, [sp]
.Ltmp256:
	.loc	5 698 9                         @ ../../../../Library/StdDriver/src/spi.c:698:9
	cbz	r0, .LBB11_21
	b	.LBB11_20
.LBB11_20:
.Ltmp257:
	.loc	5 700 20 is_stmt 1              @ ../../../../Library/StdDriver/src/spi.c:700:20
	ldr	r0, [sp, #4]
	movs	r1, #128
	orrs	r0, r1
	str	r0, [sp, #4]
	.loc	5 701 5                         @ ../../../../Library/StdDriver/src/spi.c:701:5
	b	.LBB11_21
.Ltmp258:
.LBB11_21:
	.loc	5 703 17                        @ ../../../../Library/StdDriver/src/spi.c:703:17
	ldr	r0, [sp, #12]
	.loc	5 703 22 is_stmt 0              @ ../../../../Library/StdDriver/src/spi.c:703:22
	ldr	r0, [r0, #20]
	movw	r1, #1024
	.loc	5 703 29                        @ ../../../../Library/StdDriver/src/spi.c:703:29
	ands	r0, r1
	.loc	5 703 15                        @ ../../../../Library/StdDriver/src/spi.c:703:15
	str	r0, [sp]
	add	r0, sp, #8
.Ltmp259:
	.loc	5 706 44 is_stmt 1              @ ../../../../Library/StdDriver/src/spi.c:706:44
	ldrb	r0, [r0, #1]
	lsls	r0, r0, #31
	cbz	r0, .LBB11_24
	b	.LBB11_22
.LBB11_22:
	.loc	5 706 48 is_stmt 0              @ ../../../../Library/StdDriver/src/spi.c:706:48
	ldr	r0, [sp]
.Ltmp260:
	.loc	5 706 9                         @ ../../../../Library/StdDriver/src/spi.c:706:9
	cbz	r0, .LBB11_24
	b	.LBB11_23
.LBB11_23:
.Ltmp261:
	.loc	5 708 20 is_stmt 1              @ ../../../../Library/StdDriver/src/spi.c:708:20
	ldr	r0, [sp, #4]
	movw	r1, #256
	orrs	r0, r1
	str	r0, [sp, #4]
	.loc	5 709 5                         @ ../../../../Library/StdDriver/src/spi.c:709:5
	b	.LBB11_24
.Ltmp262:
.LBB11_24:
	.loc	5 711 17                        @ ../../../../Library/StdDriver/src/spi.c:711:17
	ldr	r0, [sp, #12]
	.loc	5 711 22 is_stmt 0              @ ../../../../Library/StdDriver/src/spi.c:711:22
	ldr	r0, [r0, #20]
	movw	r1, #2048
	.loc	5 711 29                        @ ../../../../Library/StdDriver/src/spi.c:711:29
	ands	r0, r1
	.loc	5 711 15                        @ ../../../../Library/StdDriver/src/spi.c:711:15
	str	r0, [sp]
	add	r0, sp, #8
.Ltmp263:
	.loc	5 714 44 is_stmt 1              @ ../../../../Library/StdDriver/src/spi.c:714:44
	ldrb	r0, [r0, #1]
	lsls	r0, r0, #30
	cmp	r0, #0
	bpl	.LBB11_27
	b	.LBB11_25
.LBB11_25:
	.loc	5 714 48 is_stmt 0              @ ../../../../Library/StdDriver/src/spi.c:714:48
	ldr	r0, [sp]
.Ltmp264:
	.loc	5 714 9                         @ ../../../../Library/StdDriver/src/spi.c:714:9
	cbz	r0, .LBB11_27
	b	.LBB11_26
.LBB11_26:
.Ltmp265:
	.loc	5 716 20 is_stmt 1              @ ../../../../Library/StdDriver/src/spi.c:716:20
	ldr	r0, [sp, #4]
	movw	r1, #512
	orrs	r0, r1
	str	r0, [sp, #4]
	.loc	5 717 5                         @ ../../../../Library/StdDriver/src/spi.c:717:5
	b	.LBB11_27
.Ltmp266:
.LBB11_27:
	.loc	5 719 17                        @ ../../../../Library/StdDriver/src/spi.c:719:17
	ldr	r0, [sp, #12]
	.loc	5 719 22 is_stmt 0              @ ../../../../Library/StdDriver/src/spi.c:719:22
	ldr	r0, [r0, #20]
	movw	r1, #4096
	.loc	5 719 29                        @ ../../../../Library/StdDriver/src/spi.c:719:29
	ands	r0, r1
	.loc	5 719 15                        @ ../../../../Library/StdDriver/src/spi.c:719:15
	str	r0, [sp]
	add	r0, sp, #8
.Ltmp267:
	.loc	5 722 44 is_stmt 1              @ ../../../../Library/StdDriver/src/spi.c:722:44
	ldrb	r0, [r0, #1]
	lsls	r0, r0, #29
	cmp	r0, #0
	bpl	.LBB11_30
	b	.LBB11_28
.LBB11_28:
	.loc	5 722 48 is_stmt 0              @ ../../../../Library/StdDriver/src/spi.c:722:48
	ldr	r0, [sp]
.Ltmp268:
	.loc	5 722 9                         @ ../../../../Library/StdDriver/src/spi.c:722:9
	cbz	r0, .LBB11_30
	b	.LBB11_29
.LBB11_29:
.Ltmp269:
	.loc	5 724 20 is_stmt 1              @ ../../../../Library/StdDriver/src/spi.c:724:20
	ldr	r0, [sp, #4]
	movw	r1, #1024
	orrs	r0, r1
	str	r0, [sp, #4]
	.loc	5 725 5                         @ ../../../../Library/StdDriver/src/spi.c:725:5
	b	.LBB11_30
.Ltmp270:
.LBB11_30:
	.loc	5 727 12                        @ ../../../../Library/StdDriver/src/spi.c:727:12
	ldr	r0, [sp, #4]
	.loc	5 727 5 is_stmt 0               @ ../../../../Library/StdDriver/src/spi.c:727:5
	add	sp, #16
	bx	lr
.Ltmp271:
.Lfunc_end11:
	.size	SPI_GetIntFlag, .Lfunc_end11-SPI_GetIntFlag
	.cfi_endproc
	.cantunwind
	.fnend
                                        @ -- End function
	.section	.text.SPI_ClearIntFlag,"ax",%progbits
	.hidden	SPI_ClearIntFlag                @ -- Begin function SPI_ClearIntFlag
	.globl	SPI_ClearIntFlag
	.p2align	1
	.type	SPI_ClearIntFlag,%function
	.code	16                              @ @SPI_ClearIntFlag
	.thumb_func
SPI_ClearIntFlag:
.Lfunc_begin12:
	.loc	5 749 0 is_stmt 1               @ ../../../../Library/StdDriver/src/spi.c:749:0
	.fnstart
	.cfi_startproc
@ %bb.0:
	.pad	#8
	sub	sp, #8
	.cfi_def_cfa_offset 8
	str	r0, [sp, #4]
	str	r1, [sp]
	mov	r0, sp
.Ltmp272:
	.loc	5 750 9 prologue_end            @ ../../../../Library/StdDriver/src/spi.c:750:9
	ldrb	r0, [r0]
	lsls	r0, r0, #31
	cbz	r0, .LBB12_2
	b	.LBB12_1
.LBB12_1:
.Ltmp273:
	.loc	5 752 9                         @ ../../../../Library/StdDriver/src/spi.c:752:9
	ldr	r1, [sp, #4]
	movs	r0, #2
	.loc	5 752 21 is_stmt 0              @ ../../../../Library/StdDriver/src/spi.c:752:21
	str	r0, [r1, #20]
	.loc	5 753 5 is_stmt 1               @ ../../../../Library/StdDriver/src/spi.c:753:5
	b	.LBB12_2
.Ltmp274:
.LBB12_2:
	.loc	5 0 5 is_stmt 0                 @ ../../../../Library/StdDriver/src/spi.c:0:5
	mov	r0, sp
	.loc	5 755 9 is_stmt 1               @ ../../../../Library/StdDriver/src/spi.c:755:9
	ldrb	r0, [r0]
	lsls	r0, r0, #30
	cmp	r0, #0
	bpl	.LBB12_4
	b	.LBB12_3
.LBB12_3:
.Ltmp275:
	.loc	5 757 9                         @ ../../../../Library/StdDriver/src/spi.c:757:9
	ldr	r1, [sp, #4]
	movs	r0, #4
	.loc	5 757 21 is_stmt 0              @ ../../../../Library/StdDriver/src/spi.c:757:21
	str	r0, [r1, #20]
	.loc	5 758 5 is_stmt 1               @ ../../../../Library/StdDriver/src/spi.c:758:5
	b	.LBB12_4
.Ltmp276:
.LBB12_4:
	.loc	5 0 5 is_stmt 0                 @ ../../../../Library/StdDriver/src/spi.c:0:5
	mov	r0, sp
	.loc	5 760 9 is_stmt 1               @ ../../../../Library/StdDriver/src/spi.c:760:9
	ldrb	r0, [r0]
	lsls	r0, r0, #29
	cmp	r0, #0
	bpl	.LBB12_6
	b	.LBB12_5
.LBB12_5:
.Ltmp277:
	.loc	5 762 9                         @ ../../../../Library/StdDriver/src/spi.c:762:9
	ldr	r1, [sp, #4]
	movs	r0, #8
	.loc	5 762 21 is_stmt 0              @ ../../../../Library/StdDriver/src/spi.c:762:21
	str	r0, [r1, #20]
	.loc	5 763 5 is_stmt 1               @ ../../../../Library/StdDriver/src/spi.c:763:5
	b	.LBB12_6
.Ltmp278:
.LBB12_6:
	.loc	5 0 5 is_stmt 0                 @ ../../../../Library/StdDriver/src/spi.c:0:5
	mov	r0, sp
	.loc	5 765 9 is_stmt 1               @ ../../../../Library/StdDriver/src/spi.c:765:9
	ldrb	r0, [r0]
	lsls	r0, r0, #28
	cmp	r0, #0
	bpl	.LBB12_8
	b	.LBB12_7
.LBB12_7:
.Ltmp279:
	.loc	5 767 9                         @ ../../../../Library/StdDriver/src/spi.c:767:9
	ldr	r1, [sp, #4]
	movs	r0, #128
	.loc	5 767 21 is_stmt 0              @ ../../../../Library/StdDriver/src/spi.c:767:21
	str	r0, [r1, #20]
	.loc	5 768 5 is_stmt 1               @ ../../../../Library/StdDriver/src/spi.c:768:5
	b	.LBB12_8
.Ltmp280:
.LBB12_8:
	.loc	5 0 5 is_stmt 0                 @ ../../../../Library/StdDriver/src/spi.c:0:5
	mov	r0, sp
	.loc	5 770 9 is_stmt 1               @ ../../../../Library/StdDriver/src/spi.c:770:9
	ldrb	r0, [r0]
	lsls	r0, r0, #27
	cmp	r0, #0
	bpl	.LBB12_10
	b	.LBB12_9
.LBB12_9:
.Ltmp281:
	.loc	5 772 9                         @ ../../../../Library/StdDriver/src/spi.c:772:9
	ldr	r1, [sp, #4]
	movs	r0, #64
	.loc	5 772 21 is_stmt 0              @ ../../../../Library/StdDriver/src/spi.c:772:21
	str	r0, [r1, #20]
	.loc	5 773 5 is_stmt 1               @ ../../../../Library/StdDriver/src/spi.c:773:5
	b	.LBB12_10
.Ltmp282:
.LBB12_10:
	.loc	5 0 5 is_stmt 0                 @ ../../../../Library/StdDriver/src/spi.c:0:5
	mov	r0, sp
	.loc	5 775 9 is_stmt 1               @ ../../../../Library/StdDriver/src/spi.c:775:9
	ldrb	r0, [r0]
	lsls	r0, r0, #25
	cmp	r0, #0
	bpl	.LBB12_12
	b	.LBB12_11
.LBB12_11:
.Ltmp283:
	.loc	5 777 9                         @ ../../../../Library/StdDriver/src/spi.c:777:9
	ldr	r1, [sp, #4]
	movs	r0, #1
	lsls	r0, r0, #19
	.loc	5 777 21 is_stmt 0              @ ../../../../Library/StdDriver/src/spi.c:777:21
	str	r0, [r1, #20]
	.loc	5 778 5 is_stmt 1               @ ../../../../Library/StdDriver/src/spi.c:778:5
	b	.LBB12_12
.Ltmp284:
.LBB12_12:
	.loc	5 0 5 is_stmt 0                 @ ../../../../Library/StdDriver/src/spi.c:0:5
	mov	r0, sp
	.loc	5 780 9 is_stmt 1               @ ../../../../Library/StdDriver/src/spi.c:780:9
	ldrb	r0, [r0, #1]
	lsls	r0, r0, #30
	cmp	r0, #0
	bpl	.LBB12_14
	b	.LBB12_13
.LBB12_13:
.Ltmp285:
	.loc	5 782 9                         @ ../../../../Library/StdDriver/src/spi.c:782:9
	ldr	r1, [sp, #4]
	movw	r0, #2048
	.loc	5 782 21 is_stmt 0              @ ../../../../Library/StdDriver/src/spi.c:782:21
	str	r0, [r1, #20]
	.loc	5 783 5 is_stmt 1               @ ../../../../Library/StdDriver/src/spi.c:783:5
	b	.LBB12_14
.Ltmp286:
.LBB12_14:
	.loc	5 0 5 is_stmt 0                 @ ../../../../Library/StdDriver/src/spi.c:0:5
	mov	r0, sp
	.loc	5 785 9 is_stmt 1               @ ../../../../Library/StdDriver/src/spi.c:785:9
	ldrb	r0, [r0, #1]
	lsls	r0, r0, #29
	cmp	r0, #0
	bpl	.LBB12_16
	b	.LBB12_15
.LBB12_15:
.Ltmp287:
	.loc	5 787 9                         @ ../../../../Library/StdDriver/src/spi.c:787:9
	ldr	r1, [sp, #4]
	movw	r0, #4096
	.loc	5 787 21 is_stmt 0              @ ../../../../Library/StdDriver/src/spi.c:787:21
	str	r0, [r1, #20]
	.loc	5 788 5 is_stmt 1               @ ../../../../Library/StdDriver/src/spi.c:788:5
	b	.LBB12_16
.Ltmp288:
.LBB12_16:
	.loc	5 789 1                         @ ../../../../Library/StdDriver/src/spi.c:789:1
	add	sp, #8
	bx	lr
.Ltmp289:
.Lfunc_end12:
	.size	SPI_ClearIntFlag, .Lfunc_end12-SPI_ClearIntFlag
	.cfi_endproc
	.cantunwind
	.fnend
                                        @ -- End function
	.section	.text.SPI_GetStatus,"ax",%progbits
	.hidden	SPI_GetStatus                   @ -- Begin function SPI_GetStatus
	.globl	SPI_GetStatus
	.p2align	1
	.type	SPI_GetStatus,%function
	.code	16                              @ @SPI_GetStatus
	.thumb_func
SPI_GetStatus:
.Lfunc_begin13:
	.loc	5 810 0                         @ ../../../../Library/StdDriver/src/spi.c:810:0
	.fnstart
	.cfi_startproc
@ %bb.0:
	.pad	#16
	sub	sp, #16
	.cfi_def_cfa_offset 16
	str	r0, [sp, #12]
	str	r1, [sp, #8]
	movs	r0, #0
.Ltmp290:
	.loc	5 811 14 prologue_end           @ ../../../../Library/StdDriver/src/spi.c:811:14
	str	r0, [sp, #4]
	.loc	5 813 19                        @ ../../../../Library/StdDriver/src/spi.c:813:19
	ldr	r0, [sp, #12]
	.loc	5 813 24 is_stmt 0              @ ../../../../Library/StdDriver/src/spi.c:813:24
	ldr	r0, [r0, #20]
	movs	r1, #1
	.loc	5 813 31                        @ ../../../../Library/StdDriver/src/spi.c:813:31
	ands	r0, r1
	.loc	5 813 17                        @ ../../../../Library/StdDriver/src/spi.c:813:17
	str	r0, [sp]
	add	r0, sp, #8
.Ltmp291:
	.loc	5 816 35 is_stmt 1              @ ../../../../Library/StdDriver/src/spi.c:816:35
	ldrb	r0, [r0]
	lsls	r0, r0, #31
	cbz	r0, .LBB13_3
	b	.LBB13_1
.LBB13_1:
	.loc	5 816 39 is_stmt 0              @ ../../../../Library/StdDriver/src/spi.c:816:39
	ldr	r0, [sp]
.Ltmp292:
	.loc	5 816 9                         @ ../../../../Library/StdDriver/src/spi.c:816:9
	cbz	r0, .LBB13_3
	b	.LBB13_2
.LBB13_2:
.Ltmp293:
	.loc	5 818 17 is_stmt 1              @ ../../../../Library/StdDriver/src/spi.c:818:17
	ldr	r0, [sp, #4]
	movs	r1, #1
	orrs	r0, r1
	str	r0, [sp, #4]
	.loc	5 819 5                         @ ../../../../Library/StdDriver/src/spi.c:819:5
	b	.LBB13_3
.Ltmp294:
.LBB13_3:
	.loc	5 821 19                        @ ../../../../Library/StdDriver/src/spi.c:821:19
	ldr	r0, [sp, #12]
	.loc	5 821 24 is_stmt 0              @ ../../../../Library/StdDriver/src/spi.c:821:24
	ldr	r0, [r0, #20]
	movw	r1, #256
	.loc	5 821 31                        @ ../../../../Library/StdDriver/src/spi.c:821:31
	ands	r0, r1
	.loc	5 821 17                        @ ../../../../Library/StdDriver/src/spi.c:821:17
	str	r0, [sp]
	add	r0, sp, #8
.Ltmp295:
	.loc	5 824 39 is_stmt 1              @ ../../../../Library/StdDriver/src/spi.c:824:39
	ldrb	r0, [r0]
	lsls	r0, r0, #30
	cmp	r0, #0
	bpl	.LBB13_6
	b	.LBB13_4
.LBB13_4:
	.loc	5 824 43 is_stmt 0              @ ../../../../Library/StdDriver/src/spi.c:824:43
	ldr	r0, [sp]
.Ltmp296:
	.loc	5 824 9                         @ ../../../../Library/StdDriver/src/spi.c:824:9
	cbz	r0, .LBB13_6
	b	.LBB13_5
.LBB13_5:
.Ltmp297:
	.loc	5 826 17 is_stmt 1              @ ../../../../Library/StdDriver/src/spi.c:826:17
	ldr	r0, [sp, #4]
	movs	r1, #2
	orrs	r0, r1
	str	r0, [sp, #4]
	.loc	5 827 5                         @ ../../../../Library/StdDriver/src/spi.c:827:5
	b	.LBB13_6
.Ltmp298:
.LBB13_6:
	.loc	5 829 19                        @ ../../../../Library/StdDriver/src/spi.c:829:19
	ldr	r0, [sp, #12]
	.loc	5 829 24 is_stmt 0              @ ../../../../Library/StdDriver/src/spi.c:829:24
	ldr	r0, [r0, #20]
	movw	r1, #512
	.loc	5 829 31                        @ ../../../../Library/StdDriver/src/spi.c:829:31
	ands	r0, r1
	.loc	5 829 17                        @ ../../../../Library/StdDriver/src/spi.c:829:17
	str	r0, [sp]
	add	r0, sp, #8
.Ltmp299:
	.loc	5 832 38 is_stmt 1              @ ../../../../Library/StdDriver/src/spi.c:832:38
	ldrb	r0, [r0]
	lsls	r0, r0, #29
	cmp	r0, #0
	bpl	.LBB13_9
	b	.LBB13_7
.LBB13_7:
	.loc	5 832 42 is_stmt 0              @ ../../../../Library/StdDriver/src/spi.c:832:42
	ldr	r0, [sp]
.Ltmp300:
	.loc	5 832 9                         @ ../../../../Library/StdDriver/src/spi.c:832:9
	cbz	r0, .LBB13_9
	b	.LBB13_8
.LBB13_8:
.Ltmp301:
	.loc	5 834 17 is_stmt 1              @ ../../../../Library/StdDriver/src/spi.c:834:17
	ldr	r0, [sp, #4]
	movs	r1, #4
	orrs	r0, r1
	str	r0, [sp, #4]
	.loc	5 835 5                         @ ../../../../Library/StdDriver/src/spi.c:835:5
	b	.LBB13_9
.Ltmp302:
.LBB13_9:
	.loc	5 837 19                        @ ../../../../Library/StdDriver/src/spi.c:837:19
	ldr	r0, [sp, #12]
	.loc	5 837 24 is_stmt 0              @ ../../../../Library/StdDriver/src/spi.c:837:24
	ldr	r0, [r0, #20]
	movs	r1, #1
	lsls	r1, r1, #16
	.loc	5 837 31                        @ ../../../../Library/StdDriver/src/spi.c:837:31
	ands	r0, r1
	.loc	5 837 17                        @ ../../../../Library/StdDriver/src/spi.c:837:17
	str	r0, [sp]
	add	r0, sp, #8
.Ltmp303:
	.loc	5 840 39 is_stmt 1              @ ../../../../Library/StdDriver/src/spi.c:840:39
	ldrb	r0, [r0]
	lsls	r0, r0, #28
	cmp	r0, #0
	bpl	.LBB13_12
	b	.LBB13_10
.LBB13_10:
	.loc	5 840 43 is_stmt 0              @ ../../../../Library/StdDriver/src/spi.c:840:43
	ldr	r0, [sp]
.Ltmp304:
	.loc	5 840 9                         @ ../../../../Library/StdDriver/src/spi.c:840:9
	cbz	r0, .LBB13_12
	b	.LBB13_11
.LBB13_11:
.Ltmp305:
	.loc	5 842 17 is_stmt 1              @ ../../../../Library/StdDriver/src/spi.c:842:17
	ldr	r0, [sp, #4]
	movs	r1, #8
	orrs	r0, r1
	str	r0, [sp, #4]
	.loc	5 843 5                         @ ../../../../Library/StdDriver/src/spi.c:843:5
	b	.LBB13_12
.Ltmp306:
.LBB13_12:
	.loc	5 845 19                        @ ../../../../Library/StdDriver/src/spi.c:845:19
	ldr	r0, [sp, #12]
	.loc	5 845 24 is_stmt 0              @ ../../../../Library/StdDriver/src/spi.c:845:24
	ldr	r0, [r0, #20]
	movs	r1, #1
	lsls	r1, r1, #17
	.loc	5 845 31                        @ ../../../../Library/StdDriver/src/spi.c:845:31
	ands	r0, r1
	.loc	5 845 17                        @ ../../../../Library/StdDriver/src/spi.c:845:17
	str	r0, [sp]
	add	r0, sp, #8
.Ltmp307:
	.loc	5 848 38 is_stmt 1              @ ../../../../Library/StdDriver/src/spi.c:848:38
	ldrb	r0, [r0]
	lsls	r0, r0, #27
	cmp	r0, #0
	bpl	.LBB13_15
	b	.LBB13_13
.LBB13_13:
	.loc	5 848 42 is_stmt 0              @ ../../../../Library/StdDriver/src/spi.c:848:42
	ldr	r0, [sp]
.Ltmp308:
	.loc	5 848 9                         @ ../../../../Library/StdDriver/src/spi.c:848:9
	cbz	r0, .LBB13_15
	b	.LBB13_14
.LBB13_14:
.Ltmp309:
	.loc	5 850 17 is_stmt 1              @ ../../../../Library/StdDriver/src/spi.c:850:17
	ldr	r0, [sp, #4]
	movs	r1, #16
	orrs	r0, r1
	str	r0, [sp, #4]
	.loc	5 851 5                         @ ../../../../Library/StdDriver/src/spi.c:851:5
	b	.LBB13_15
.Ltmp310:
.LBB13_15:
	.loc	5 853 19                        @ ../../../../Library/StdDriver/src/spi.c:853:19
	ldr	r0, [sp, #12]
	.loc	5 853 24 is_stmt 0              @ ../../../../Library/StdDriver/src/spi.c:853:24
	ldr	r0, [r0, #20]
	movs	r1, #1
	lsls	r1, r1, #23
	.loc	5 853 31                        @ ../../../../Library/StdDriver/src/spi.c:853:31
	ands	r0, r1
	.loc	5 853 17                        @ ../../../../Library/StdDriver/src/spi.c:853:17
	str	r0, [sp]
	add	r0, sp, #8
.Ltmp311:
	.loc	5 856 41 is_stmt 1              @ ../../../../Library/StdDriver/src/spi.c:856:41
	ldrb	r0, [r0]
	lsls	r0, r0, #26
	cmp	r0, #0
	bpl	.LBB13_18
	b	.LBB13_16
.LBB13_16:
	.loc	5 856 45 is_stmt 0              @ ../../../../Library/StdDriver/src/spi.c:856:45
	ldr	r0, [sp]
.Ltmp312:
	.loc	5 856 9                         @ ../../../../Library/StdDriver/src/spi.c:856:9
	cbz	r0, .LBB13_18
	b	.LBB13_17
.LBB13_17:
.Ltmp313:
	.loc	5 858 17 is_stmt 1              @ ../../../../Library/StdDriver/src/spi.c:858:17
	ldr	r0, [sp, #4]
	movs	r1, #32
	orrs	r0, r1
	str	r0, [sp, #4]
	.loc	5 859 5                         @ ../../../../Library/StdDriver/src/spi.c:859:5
	b	.LBB13_18
.Ltmp314:
.LBB13_18:
	.loc	5 861 19                        @ ../../../../Library/StdDriver/src/spi.c:861:19
	ldr	r0, [sp, #12]
	.loc	5 861 24 is_stmt 0              @ ../../../../Library/StdDriver/src/spi.c:861:24
	ldr	r0, [r0, #20]
	movw	r1, #32768
	.loc	5 861 31                        @ ../../../../Library/StdDriver/src/spi.c:861:31
	ands	r0, r1
	.loc	5 861 17                        @ ../../../../Library/StdDriver/src/spi.c:861:17
	str	r0, [sp]
	add	r0, sp, #8
.Ltmp315:
	.loc	5 864 40 is_stmt 1              @ ../../../../Library/StdDriver/src/spi.c:864:40
	ldrb	r0, [r0]
	lsls	r0, r0, #25
	cmp	r0, #0
	bpl	.LBB13_21
	b	.LBB13_19
.LBB13_19:
	.loc	5 864 44 is_stmt 0              @ ../../../../Library/StdDriver/src/spi.c:864:44
	ldr	r0, [sp]
.Ltmp316:
	.loc	5 864 9                         @ ../../../../Library/StdDriver/src/spi.c:864:9
	cbz	r0, .LBB13_21
	b	.LBB13_20
.LBB13_20:
.Ltmp317:
	.loc	5 866 17 is_stmt 1              @ ../../../../Library/StdDriver/src/spi.c:866:17
	ldr	r0, [sp, #4]
	movs	r1, #64
	orrs	r0, r1
	str	r0, [sp, #4]
	.loc	5 867 5                         @ ../../../../Library/StdDriver/src/spi.c:867:5
	b	.LBB13_21
.Ltmp318:
.LBB13_21:
	.loc	5 869 19                        @ ../../../../Library/StdDriver/src/spi.c:869:19
	ldr	r0, [sp, #12]
	.loc	5 869 24 is_stmt 0              @ ../../../../Library/StdDriver/src/spi.c:869:24
	ldr	r0, [r0, #20]
	movs	r1, #16
	.loc	5 869 31                        @ ../../../../Library/StdDriver/src/spi.c:869:31
	ands	r0, r1
	.loc	5 869 17                        @ ../../../../Library/StdDriver/src/spi.c:869:17
	str	r0, [sp]
	add	r0, sp, #8
.Ltmp319:
	.loc	5 872 41 is_stmt 1              @ ../../../../Library/StdDriver/src/spi.c:872:41
	ldrb	r0, [r0]
	lsls	r0, r0, #24
	cmp	r0, #0
	bpl	.LBB13_24
	b	.LBB13_22
.LBB13_22:
	.loc	5 872 45 is_stmt 0              @ ../../../../Library/StdDriver/src/spi.c:872:45
	ldr	r0, [sp]
.Ltmp320:
	.loc	5 872 9                         @ ../../../../Library/StdDriver/src/spi.c:872:9
	cbz	r0, .LBB13_24
	b	.LBB13_23
.LBB13_23:
.Ltmp321:
	.loc	5 874 17 is_stmt 1              @ ../../../../Library/StdDriver/src/spi.c:874:17
	ldr	r0, [sp, #4]
	movs	r1, #128
	orrs	r0, r1
	str	r0, [sp, #4]
	.loc	5 875 5                         @ ../../../../Library/StdDriver/src/spi.c:875:5
	b	.LBB13_24
.Ltmp322:
.LBB13_24:
	.loc	5 877 12                        @ ../../../../Library/StdDriver/src/spi.c:877:12
	ldr	r0, [sp, #4]
	.loc	5 877 5 is_stmt 0               @ ../../../../Library/StdDriver/src/spi.c:877:5
	add	sp, #16
	bx	lr
.Ltmp323:
.Lfunc_end13:
	.size	SPI_GetStatus, .Lfunc_end13-SPI_GetStatus
	.cfi_endproc
	.cantunwind
	.fnend
                                        @ -- End function
	.section	.text.SPI_GetStatus2,"ax",%progbits
	.hidden	SPI_GetStatus2                  @ -- Begin function SPI_GetStatus2
	.globl	SPI_GetStatus2
	.p2align	1
	.type	SPI_GetStatus2,%function
	.code	16                              @ @SPI_GetStatus2
	.thumb_func
SPI_GetStatus2:
.Lfunc_begin14:
	.loc	5 892 0 is_stmt 1               @ ../../../../Library/StdDriver/src/spi.c:892:0
	.fnstart
	.cfi_startproc
@ %bb.0:
	.pad	#16
	sub	sp, #16
	.cfi_def_cfa_offset 16
	str	r0, [sp, #12]
	str	r1, [sp, #8]
	movs	r0, #0
.Ltmp324:
	.loc	5 894 14 prologue_end           @ ../../../../Library/StdDriver/src/spi.c:894:14
	str	r0, [sp]
	.loc	5 896 20                        @ ../../../../Library/StdDriver/src/spi.c:896:20
	ldr	r0, [sp, #12]
	.loc	5 896 25 is_stmt 0              @ ../../../../Library/StdDriver/src/spi.c:896:25
	ldr	r0, [r0, #24]
	.loc	5 896 18                        @ ../../../../Library/StdDriver/src/spi.c:896:18
	str	r0, [sp, #4]
	add	r0, sp, #8
	.loc	5 899 9 is_stmt 1               @ ../../../../Library/StdDriver/src/spi.c:899:9
	ldrb	r0, [r0]
	lsls	r0, r0, #31
	cbz	r0, .LBB14_2
	b	.LBB14_1
.LBB14_1:
.Ltmp325:
	.loc	5 901 22                        @ ../../../../Library/StdDriver/src/spi.c:901:22
	ldr	r0, [sp, #4]
	movs	r1, #63
	lsls	r1, r1, #24
	.loc	5 901 35 is_stmt 0              @ ../../../../Library/StdDriver/src/spi.c:901:35
	ands	r0, r1
	.loc	5 901 63                        @ ../../../../Library/StdDriver/src/spi.c:901:63
	lsrs	r0, r0, #24
	.loc	5 901 19                        @ ../../../../Library/StdDriver/src/spi.c:901:19
	str	r0, [sp]
	.loc	5 902 5 is_stmt 1               @ ../../../../Library/StdDriver/src/spi.c:902:5
	b	.LBB14_2
.Ltmp326:
.LBB14_2:
	.loc	5 904 12                        @ ../../../../Library/StdDriver/src/spi.c:904:12
	ldr	r0, [sp]
	.loc	5 904 5 is_stmt 0               @ ../../../../Library/StdDriver/src/spi.c:904:5
	add	sp, #16
	bx	lr
.Ltmp327:
.Lfunc_end14:
	.size	SPI_GetStatus2, .Lfunc_end14-SPI_GetStatus2
	.cfi_endproc
	.cantunwind
	.fnend
                                        @ -- End function
	.section	.text.SPII2S_Open,"ax",%progbits
	.hidden	SPII2S_Open                     @ -- Begin function SPII2S_Open
	.globl	SPII2S_Open
	.p2align	2
	.type	SPII2S_Open,%function
	.code	16                              @ @SPII2S_Open
	.thumb_func
SPII2S_Open:
.Lfunc_begin15:
	.loc	5 988 0 is_stmt 1               @ ../../../../Library/StdDriver/src/spi.c:988:0
	.fnstart
	.cfi_startproc
@ %bb.0:
	.save	{r4, lr}
	push	{r4, lr}
	.cfi_def_cfa_offset 8
	.cfi_offset lr, -4
	.cfi_offset r4, -8
	.pad	#32
	sub	sp, #32
	.cfi_def_cfa_offset 40
	ldr	r4, [sp, #44]
	ldr	r4, [sp, #40]
	str	r0, [sp, #28]
	str	r1, [sp, #24]
	str	r2, [sp, #20]
	str	r3, [sp, #16]
	movs	r0, #0
.Ltmp328:
	.loc	5 991 14 prologue_end           @ ../../../../Library/StdDriver/src/spi.c:991:14
	str	r0, [sp]
.Ltmp329:
	.loc	5 994 9                         @ ../../../../Library/StdDriver/src/spi.c:994:9
	ldr	r0, [sp, #28]
	ldr	r1, __arm_cp.15_0
.Ltmp330:
	.loc	5 994 9 is_stmt 0               @ ../../../../Library/StdDriver/src/spi.c:994:9
	cmp	r0, r1
	bne	.LBB15_2
	b	.LBB15_1
.LBB15_1:
	.loc	5 0 9                           @ ../../../../Library/StdDriver/src/spi.c:0:9
	ldr	r1, __arm_cp.15_2
.Ltmp331:
	.loc	5 996 21 is_stmt 1              @ ../../../../Library/StdDriver/src/spi.c:996:21
	ldr	r0, [r1]
	movw	r2, #8192
	orrs	r0, r2
	str	r0, [r1]
	.loc	5 997 21                        @ ../../../../Library/StdDriver/src/spi.c:997:21
	ldr	r0, [r1]
	bics	r0, r2
	str	r0, [r1]
	.loc	5 998 5                         @ ../../../../Library/StdDriver/src/spi.c:998:5
	b	.LBB15_5
.Ltmp332:
.LBB15_2:
	.loc	5 999 14                        @ ../../../../Library/StdDriver/src/spi.c:999:14
	ldr	r0, [sp, #28]
	ldr	r1, __arm_cp.15_1
.Ltmp333:
	.loc	5 999 14 is_stmt 0              @ ../../../../Library/StdDriver/src/spi.c:999:14
	cmp	r0, r1
	bne	.LBB15_4
	b	.LBB15_3
.LBB15_3:
	.loc	5 0 14                          @ ../../../../Library/StdDriver/src/spi.c:0:14
	ldr	r1, __arm_cp.15_2
.Ltmp334:
	.loc	5 1001 21 is_stmt 1             @ ../../../../Library/StdDriver/src/spi.c:1001:21
	ldr	r0, [r1]
	movw	r2, #16384
	orrs	r0, r2
	str	r0, [r1]
	.loc	5 1002 21                       @ ../../../../Library/StdDriver/src/spi.c:1002:21
	ldr	r0, [r1]
	bics	r0, r2
	str	r0, [r1]
	.loc	5 1003 5                        @ ../../../../Library/StdDriver/src/spi.c:1003:5
	b	.LBB15_4
.Ltmp335:
.LBB15_4:
	.loc	5 0 5 is_stmt 0                 @ ../../../../Library/StdDriver/src/spi.c:0:5
	b	.LBB15_5
.LBB15_5:
	.loc	5 1006 19 is_stmt 1             @ ../../../../Library/StdDriver/src/spi.c:1006:19
	ldr	r0, [sp, #24]
	.loc	5 1006 36 is_stmt 0             @ ../../../../Library/StdDriver/src/spi.c:1006:36
	ldr	r1, [sp, #16]
	.loc	5 1006 34                       @ ../../../../Library/StdDriver/src/spi.c:1006:34
	orrs	r0, r1
	.loc	5 1006 51                       @ ../../../../Library/StdDriver/src/spi.c:1006:51
	ldr	r1, [sp, #40]
	.loc	5 1006 49                       @ ../../../../Library/StdDriver/src/spi.c:1006:49
	orrs	r0, r1
	.loc	5 1006 65                       @ ../../../../Library/StdDriver/src/spi.c:1006:65
	ldr	r1, [sp, #44]
	.loc	5 1006 63                       @ ../../../../Library/StdDriver/src/spi.c:1006:63
	orrs	r0, r1
	.loc	5 1006 5                        @ ../../../../Library/StdDriver/src/spi.c:1006:5
	ldr	r1, [sp, #28]
	.loc	5 1006 17                       @ ../../../../Library/StdDriver/src/spi.c:1006:17
	str	r0, [r1, #96]
	.loc	5 1008 5 is_stmt 1              @ ../../../../Library/StdDriver/src/spi.c:1008:5
	ldr	r1, [sp, #28]
	movs	r0, #33
	lsls	r0, r0, #24
	.loc	5 1008 18 is_stmt 0             @ ../../../../Library/StdDriver/src/spi.c:1008:18
	str	r0, [r1, #16]
.Ltmp336:
	.loc	5 1010 9 is_stmt 1              @ ../../../../Library/StdDriver/src/spi.c:1010:9
	ldr	r0, [sp, #24]
.Ltmp337:
	.loc	5 1010 9 is_stmt 0              @ ../../../../Library/StdDriver/src/spi.c:1010:9
	cbnz	r0, .LBB15_7
	b	.LBB15_6
.LBB15_6:
.Ltmp338:
	.loc	5 1013 47 is_stmt 1             @ ../../../../Library/StdDriver/src/spi.c:1013:47
	ldr	r0, [sp, #28]
	.loc	5 1013 21 is_stmt 0             @ ../../../../Library/StdDriver/src/spi.c:1013:21
	bl	SPII2S_GetSourceClockFreq
	.loc	5 1013 19                       @ ../../../../Library/StdDriver/src/spi.c:1013:19
	str	r0, [sp, #4]
	.loc	5 1016 22 is_stmt 1             @ ../../../../Library/StdDriver/src/spi.c:1016:22
	ldr	r1, [sp, #20]
	.loc	5 1016 40 is_stmt 0             @ ../../../../Library/StdDriver/src/spi.c:1016:40
	ldr	r0, [sp, #16]
	.loc	5 1016 53                       @ ../../../../Library/StdDriver/src/spi.c:1016:53
	lsrs	r0, r0, #4
	.loc	5 1016 80                       @ ../../../../Library/StdDriver/src/spi.c:1016:80
	adds	r0, r0, #1
	.loc	5 1016 36                       @ ../../../../Library/StdDriver/src/spi.c:1016:36
	muls	r0, r1, r0
	.loc	5 1016 87                       @ ../../../../Library/StdDriver/src/spi.c:1016:87
	lsls	r0, r0, #4
	.loc	5 1016 20                       @ ../../../../Library/StdDriver/src/spi.c:1016:20
	str	r0, [sp, #8]
	.loc	5 1017 27 is_stmt 1             @ ../../../../Library/StdDriver/src/spi.c:1017:27
	ldr	r2, [sp, #4]
	movs	r1, #10
	.loc	5 1017 37 is_stmt 0             @ ../../../../Library/StdDriver/src/spi.c:1017:37
	mov	r0, r1
	muls	r0, r2, r0
	.loc	5 1017 46                       @ ../../../../Library/StdDriver/src/spi.c:1017:46
	ldr	r2, [sp, #8]
	.loc	5 1017 44                       @ ../../../../Library/StdDriver/src/spi.c:1017:44
	udiv	r0, r0, r2
	.loc	5 1017 59                       @ ../../../../Library/StdDriver/src/spi.c:1017:59
	lsrs	r0, r0, #1
	.loc	5 1017 67                       @ ../../../../Library/StdDriver/src/spi.c:1017:67
	adds	r0, r0, #5
	.loc	5 1017 74                       @ ../../../../Library/StdDriver/src/spi.c:1017:74
	udiv	r0, r0, r1
	.loc	5 1017 82                       @ ../../../../Library/StdDriver/src/spi.c:1017:82
	subs	r0, r0, #1
	.loc	5 1017 20                       @ ../../../../Library/StdDriver/src/spi.c:1017:20
	str	r0, [sp, #12]
	.loc	5 1019 25 is_stmt 1             @ ../../../../Library/StdDriver/src/spi.c:1019:25
	ldr	r0, [sp, #28]
	.loc	5 1019 30 is_stmt 0             @ ../../../../Library/StdDriver/src/spi.c:1019:30
	ldr	r0, [r0, #100]
	ldr	r1, __arm_cp.15_3
	.loc	5 1019 37                       @ ../../../../Library/StdDriver/src/spi.c:1019:37
	ands	r0, r1
	.loc	5 1019 67                       @ ../../../../Library/StdDriver/src/spi.c:1019:67
	ldr	r1, [sp, #12]
	.loc	5 1019 78                       @ ../../../../Library/StdDriver/src/spi.c:1019:78
	lsls	r1, r1, #8
	.loc	5 1019 64                       @ ../../../../Library/StdDriver/src/spi.c:1019:64
	orrs	r0, r1
	.loc	5 1019 9                        @ ../../../../Library/StdDriver/src/spi.c:1019:9
	ldr	r1, [sp, #28]
	.loc	5 1019 21                       @ ../../../../Library/StdDriver/src/spi.c:1019:21
	str	r0, [r1, #100]
	.loc	5 1021 9 is_stmt 1              @ ../../../../Library/StdDriver/src/spi.c:1021:9
	ldr	r1, [sp, #28]
	.loc	5 1021 21 is_stmt 0             @ ../../../../Library/StdDriver/src/spi.c:1021:21
	ldr	r0, [r1, #100]
	movs	r2, #1
	lsls	r2, r2, #24
	orrs	r0, r2
	str	r0, [r1, #100]
	.loc	5 1023 22 is_stmt 1             @ ../../../../Library/StdDriver/src/spi.c:1023:22
	ldr	r0, [sp, #4]
	.loc	5 1023 36 is_stmt 0             @ ../../../../Library/StdDriver/src/spi.c:1023:36
	ldr	r1, [sp, #12]
	.loc	5 1023 47                       @ ../../../../Library/StdDriver/src/spi.c:1023:47
	lsls	r1, r1, #1
	.loc	5 1023 54                       @ ../../../../Library/StdDriver/src/spi.c:1023:54
	adds	r1, r1, #2
	.loc	5 1023 32                       @ ../../../../Library/StdDriver/src/spi.c:1023:32
	udiv	r0, r0, r1
	.loc	5 1023 20                       @ ../../../../Library/StdDriver/src/spi.c:1023:20
	str	r0, [sp, #8]
	.loc	5 1025 25 is_stmt 1             @ ../../../../Library/StdDriver/src/spi.c:1025:25
	ldr	r0, [sp, #8]
	.loc	5 1025 41 is_stmt 0             @ ../../../../Library/StdDriver/src/spi.c:1025:41
	ldr	r1, [sp, #16]
	movs	r2, #15
	.loc	5 1025 54                       @ ../../../../Library/StdDriver/src/spi.c:1025:54
	bics	r1, r2
	.loc	5 1025 88                       @ ../../../../Library/StdDriver/src/spi.c:1025:88
	adds	r1, #16
	.loc	5 1025 36                       @ ../../../../Library/StdDriver/src/spi.c:1025:36
	udiv	r0, r0, r1
	.loc	5 1025 23                       @ ../../../../Library/StdDriver/src/spi.c:1025:23
	str	r0, [sp, #20]
	.loc	5 1028 9 is_stmt 1              @ ../../../../Library/StdDriver/src/spi.c:1028:9
	ldr	r1, [sp, #28]
	.loc	5 1028 21 is_stmt 0             @ ../../../../Library/StdDriver/src/spi.c:1028:21
	ldr	r0, [r1, #96]
	movs	r2, #7
	orrs	r0, r2
	str	r0, [r1, #96]
	.loc	5 1031 23 is_stmt 1             @ ../../../../Library/StdDriver/src/spi.c:1031:23
	ldr	r0, [sp, #20]
	.loc	5 1031 21 is_stmt 0             @ ../../../../Library/StdDriver/src/spi.c:1031:21
	str	r0, [sp]
	.loc	5 1032 5 is_stmt 1              @ ../../../../Library/StdDriver/src/spi.c:1032:5
	b	.LBB15_13
.Ltmp339:
.LBB15_7:
	.loc	5 1036 9                        @ ../../../../Library/StdDriver/src/spi.c:1036:9
	ldr	r1, [sp, #28]
	.loc	5 1036 21 is_stmt 0             @ ../../../../Library/StdDriver/src/spi.c:1036:21
	ldr	r0, [r1, #100]
	ldr	r2, __arm_cp.15_3
	ands	r0, r2
	str	r0, [r1, #100]
	.loc	5 1038 9 is_stmt 1              @ ../../../../Library/StdDriver/src/spi.c:1038:9
	ldr	r1, [sp, #28]
	.loc	5 1038 21 is_stmt 0             @ ../../../../Library/StdDriver/src/spi.c:1038:21
	ldr	r0, [r1, #100]
	movs	r2, #3
	lsls	r2, r2, #24
	orrs	r0, r2
	str	r0, [r1, #100]
.Ltmp340:
	.loc	5 1040 13 is_stmt 1             @ ../../../../Library/StdDriver/src/spi.c:1040:13
	ldr	r0, [sp, #28]
	ldr	r1, __arm_cp.15_0
.Ltmp341:
	.loc	5 1040 13 is_stmt 0             @ ../../../../Library/StdDriver/src/spi.c:1040:13
	cmp	r0, r1
	bne	.LBB15_9
	b	.LBB15_8
.LBB15_8:
	.loc	5 0 13                          @ ../../../../Library/StdDriver/src/spi.c:0:13
	ldr	r1, __arm_cp.15_4
.Ltmp342:
	.loc	5 1043 34 is_stmt 1             @ ../../../../Library/StdDriver/src/spi.c:1043:34
	ldr	r0, [r1]
	movs	r2, #32
	.loc	5 1043 42 is_stmt 0             @ ../../../../Library/StdDriver/src/spi.c:1043:42
	orrs	r0, r2
	movs	r2, #16
	.loc	5 1043 72                       @ ../../../../Library/StdDriver/src/spi.c:1043:72
	bics	r0, r2
	.loc	5 1043 26                       @ ../../../../Library/StdDriver/src/spi.c:1043:26
	str	r0, [r1]
	.loc	5 1045 13 is_stmt 1             @ ../../../../Library/StdDriver/src/spi.c:1045:13
	ldr	r1, [sp, #28]
	.loc	5 1045 25 is_stmt 0             @ ../../../../Library/StdDriver/src/spi.c:1045:25
	ldr	r0, [r1, #96]
	movs	r2, #7
	orrs	r0, r2
	str	r0, [r1, #96]
	.loc	5 1047 27 is_stmt 1             @ ../../../../Library/StdDriver/src/spi.c:1047:27
	bl	CLK_GetPCLK1Freq
	.loc	5 1047 25 is_stmt 0             @ ../../../../Library/StdDriver/src/spi.c:1047:25
	str	r0, [sp]
	.loc	5 1048 9 is_stmt 1              @ ../../../../Library/StdDriver/src/spi.c:1048:9
	b	.LBB15_12
.Ltmp343:
.LBB15_9:
	.loc	5 1049 18                       @ ../../../../Library/StdDriver/src/spi.c:1049:18
	ldr	r0, [sp, #28]
	ldr	r1, __arm_cp.15_1
.Ltmp344:
	.loc	5 1049 18 is_stmt 0             @ ../../../../Library/StdDriver/src/spi.c:1049:18
	cmp	r0, r1
	bne	.LBB15_11
	b	.LBB15_10
.LBB15_10:
	.loc	5 0 18                          @ ../../../../Library/StdDriver/src/spi.c:0:18
	ldr	r1, __arm_cp.15_4
.Ltmp345:
	.loc	5 1052 34 is_stmt 1             @ ../../../../Library/StdDriver/src/spi.c:1052:34
	ldr	r0, [r1]
	movs	r2, #128
	.loc	5 1052 42 is_stmt 0             @ ../../../../Library/StdDriver/src/spi.c:1052:42
	orrs	r0, r2
	movs	r2, #64
	.loc	5 1052 72                       @ ../../../../Library/StdDriver/src/spi.c:1052:72
	bics	r0, r2
	.loc	5 1052 26                       @ ../../../../Library/StdDriver/src/spi.c:1052:26
	str	r0, [r1]
	.loc	5 1054 13 is_stmt 1             @ ../../../../Library/StdDriver/src/spi.c:1054:13
	ldr	r1, [sp, #28]
	.loc	5 1054 25 is_stmt 0             @ ../../../../Library/StdDriver/src/spi.c:1054:25
	ldr	r0, [r1, #96]
	movs	r2, #7
	orrs	r0, r2
	str	r0, [r1, #96]
	.loc	5 1056 27 is_stmt 1             @ ../../../../Library/StdDriver/src/spi.c:1056:27
	bl	CLK_GetPCLK1Freq
	.loc	5 1056 25 is_stmt 0             @ ../../../../Library/StdDriver/src/spi.c:1056:25
	str	r0, [sp]
	.loc	5 1057 9 is_stmt 1              @ ../../../../Library/StdDriver/src/spi.c:1057:9
	b	.LBB15_11
.Ltmp346:
.LBB15_11:
	.loc	5 0 9 is_stmt 0                 @ ../../../../Library/StdDriver/src/spi.c:0:9
	b	.LBB15_12
.LBB15_12:
	b	.LBB15_13
.LBB15_13:
	.loc	5 1060 12 is_stmt 1             @ ../../../../Library/StdDriver/src/spi.c:1060:12
	ldr	r0, [sp]
	.loc	5 1060 5 is_stmt 0              @ ../../../../Library/StdDriver/src/spi.c:1060:5
	add	sp, #32
	pop	{r4, pc}
.Ltmp347:
	.p2align	2
@ %bb.14:
	.loc	5 0 5                           @ ../../../../Library/StdDriver/src/spi.c:0:5
__arm_cp.15_0:
	.long	1074139136                      @ 0x40061000
.Lcpi_end23:
	.size	__arm_cp.15_0, .Lcpi_end23-__arm_cp.15_0
__arm_cp.15_1:
	.long	1074143232                      @ 0x40062000
.Lcpi_end24:
	.size	__arm_cp.15_1, .Lcpi_end24-__arm_cp.15_1
__arm_cp.15_2:
	.long	1073741836                      @ 0x4000000c
.Lcpi_end25:
	.size	__arm_cp.15_2, .Lcpi_end25-__arm_cp.15_2
__arm_cp.15_3:
	.long	4294705407                      @ 0xfffc00ff
.Lcpi_end26:
	.size	__arm_cp.15_3, .Lcpi_end26-__arm_cp.15_3
__arm_cp.15_4:
	.long	1073742360                      @ 0x40000218
.Lcpi_end27:
	.size	__arm_cp.15_4, .Lcpi_end27-__arm_cp.15_4
.Lfunc_end15:
	.size	SPII2S_Open, .Lfunc_end15-SPII2S_Open
	.cfi_endproc
	.cantunwind
	.fnend
                                        @ -- End function
	.section	.text.SPII2S_GetSourceClockFreq,"ax",%progbits
	.p2align	2                               @ -- Begin function SPII2S_GetSourceClockFreq
	.type	SPII2S_GetSourceClockFreq,%function
	.code	16                              @ @SPII2S_GetSourceClockFreq
	.thumb_func
SPII2S_GetSourceClockFreq:
.Lfunc_begin16:
	.loc	5 914 0 is_stmt 1               @ ../../../../Library/StdDriver/src/spi.c:914:0
	.fnstart
	.cfi_startproc
@ %bb.0:
	.save	{r7, lr}
	push	{r7, lr}
	.cfi_def_cfa_offset 8
	.cfi_offset lr, -4
	.cfi_offset r7, -8
	.pad	#8
	sub	sp, #8
	.cfi_def_cfa_offset 16
	str	r0, [sp, #4]
	ldr	r0, __arm_cp.16_0
.Ltmp348:
	.loc	5 915 14 prologue_end           @ ../../../../Library/StdDriver/src/spi.c:915:14
	str	r0, [sp]
.Ltmp349:
	.loc	5 917 9                         @ ../../../../Library/StdDriver/src/spi.c:917:9
	ldr	r0, [sp, #4]
	ldr	r1, __arm_cp.16_1
.Ltmp350:
	.loc	5 917 9 is_stmt 0               @ ../../../../Library/StdDriver/src/spi.c:917:9
	cmp	r0, r1
	bne	.LBB16_11
	b	.LBB16_1
.LBB16_1:
	.loc	5 0 9                           @ ../../../../Library/StdDriver/src/spi.c:0:9
	ldr	r0, __arm_cp.16_3
.Ltmp351:
	.loc	5 919 19 is_stmt 1              @ ../../../../Library/StdDriver/src/spi.c:919:19
	ldr	r0, [r0]
.Ltmp352:
	.loc	5 919 13 is_stmt 0              @ ../../../../Library/StdDriver/src/spi.c:919:13
	lsls	r0, r0, #26
	lsrs	r0, r0, #30
	cbnz	r0, .LBB16_3
	b	.LBB16_2
.LBB16_2:
	.loc	5 0 13                          @ ../../../../Library/StdDriver/src/spi.c:0:13
	ldr	r0, __arm_cp.16_4
.Ltmp353:
	.loc	5 921 21 is_stmt 1              @ ../../../../Library/StdDriver/src/spi.c:921:21
	str	r0, [sp]
	.loc	5 922 9                         @ ../../../../Library/StdDriver/src/spi.c:922:9
	b	.LBB16_10
.Ltmp354:
.LBB16_3:
	.loc	5 0 9 is_stmt 0                 @ ../../../../Library/StdDriver/src/spi.c:0:9
	ldr	r0, __arm_cp.16_3
.Ltmp355:
	.loc	5 923 24 is_stmt 1              @ ../../../../Library/StdDriver/src/spi.c:923:24
	ldr	r0, [r0]
	movs	r1, #48
	.loc	5 923 32 is_stmt 0              @ ../../../../Library/StdDriver/src/spi.c:923:32
	ands	r0, r1
.Ltmp356:
	.loc	5 923 18                        @ ../../../../Library/StdDriver/src/spi.c:923:18
	cmp	r0, #16
	bne	.LBB16_5
	b	.LBB16_4
.LBB16_4:
.Ltmp357:
	.loc	5 925 23 is_stmt 1              @ ../../../../Library/StdDriver/src/spi.c:925:23
	bl	CLK_GetPLLClockFreq
	.loc	5 925 21 is_stmt 0              @ ../../../../Library/StdDriver/src/spi.c:925:21
	str	r0, [sp]
	.loc	5 926 9 is_stmt 1               @ ../../../../Library/StdDriver/src/spi.c:926:9
	b	.LBB16_9
.Ltmp358:
.LBB16_5:
	.loc	5 0 9 is_stmt 0                 @ ../../../../Library/StdDriver/src/spi.c:0:9
	ldr	r0, __arm_cp.16_3
.Ltmp359:
	.loc	5 927 24 is_stmt 1              @ ../../../../Library/StdDriver/src/spi.c:927:24
	ldr	r0, [r0]
	movs	r1, #48
	.loc	5 927 32 is_stmt 0              @ ../../../../Library/StdDriver/src/spi.c:927:32
	ands	r0, r1
.Ltmp360:
	.loc	5 927 18                        @ ../../../../Library/StdDriver/src/spi.c:927:18
	cmp	r0, #32
	bne	.LBB16_7
	b	.LBB16_6
.LBB16_6:
.Ltmp361:
	.loc	5 930 23 is_stmt 1              @ ../../../../Library/StdDriver/src/spi.c:930:23
	bl	CLK_GetPCLK1Freq
	.loc	5 930 21 is_stmt 0              @ ../../../../Library/StdDriver/src/spi.c:930:21
	str	r0, [sp]
	.loc	5 931 9 is_stmt 1               @ ../../../../Library/StdDriver/src/spi.c:931:9
	b	.LBB16_8
.Ltmp362:
.LBB16_7:
	.loc	5 0 9 is_stmt 0                 @ ../../../../Library/StdDriver/src/spi.c:0:9
	ldr	r0, __arm_cp.16_0
.Ltmp363:
	.loc	5 934 21 is_stmt 1              @ ../../../../Library/StdDriver/src/spi.c:934:21
	str	r0, [sp]
	b	.LBB16_8
.Ltmp364:
.LBB16_8:
	.loc	5 0 21 is_stmt 0                @ ../../../../Library/StdDriver/src/spi.c:0:21
	b	.LBB16_9
.LBB16_9:
	b	.LBB16_10
.LBB16_10:
	.loc	5 936 5 is_stmt 1               @ ../../../../Library/StdDriver/src/spi.c:936:5
	b	.LBB16_23
.Ltmp365:
.LBB16_11:
	.loc	5 937 14                        @ ../../../../Library/StdDriver/src/spi.c:937:14
	ldr	r0, [sp, #4]
	ldr	r1, __arm_cp.16_2
.Ltmp366:
	.loc	5 937 14 is_stmt 0              @ ../../../../Library/StdDriver/src/spi.c:937:14
	cmp	r0, r1
	bne	.LBB16_22
	b	.LBB16_12
.LBB16_12:
	.loc	5 0 14                          @ ../../../../Library/StdDriver/src/spi.c:0:14
	ldr	r0, __arm_cp.16_3
.Ltmp367:
	.loc	5 939 19 is_stmt 1              @ ../../../../Library/StdDriver/src/spi.c:939:19
	ldr	r0, [r0]
.Ltmp368:
	.loc	5 939 13 is_stmt 0              @ ../../../../Library/StdDriver/src/spi.c:939:13
	lsls	r0, r0, #24
	lsrs	r0, r0, #30
	cbnz	r0, .LBB16_14
	b	.LBB16_13
.LBB16_13:
	.loc	5 0 13                          @ ../../../../Library/StdDriver/src/spi.c:0:13
	ldr	r0, __arm_cp.16_4
.Ltmp369:
	.loc	5 941 21 is_stmt 1              @ ../../../../Library/StdDriver/src/spi.c:941:21
	str	r0, [sp]
	.loc	5 942 9                         @ ../../../../Library/StdDriver/src/spi.c:942:9
	b	.LBB16_21
.Ltmp370:
.LBB16_14:
	.loc	5 0 9 is_stmt 0                 @ ../../../../Library/StdDriver/src/spi.c:0:9
	ldr	r0, __arm_cp.16_3
.Ltmp371:
	.loc	5 943 24 is_stmt 1              @ ../../../../Library/StdDriver/src/spi.c:943:24
	ldr	r0, [r0]
	movs	r1, #192
	.loc	5 943 32 is_stmt 0              @ ../../../../Library/StdDriver/src/spi.c:943:32
	ands	r0, r1
.Ltmp372:
	.loc	5 943 18                        @ ../../../../Library/StdDriver/src/spi.c:943:18
	cmp	r0, #64
	bne	.LBB16_16
	b	.LBB16_15
.LBB16_15:
.Ltmp373:
	.loc	5 945 23 is_stmt 1              @ ../../../../Library/StdDriver/src/spi.c:945:23
	bl	CLK_GetPLLClockFreq
	.loc	5 945 21 is_stmt 0              @ ../../../../Library/StdDriver/src/spi.c:945:21
	str	r0, [sp]
	.loc	5 946 9 is_stmt 1               @ ../../../../Library/StdDriver/src/spi.c:946:9
	b	.LBB16_20
.Ltmp374:
.LBB16_16:
	.loc	5 0 9 is_stmt 0                 @ ../../../../Library/StdDriver/src/spi.c:0:9
	ldr	r0, __arm_cp.16_3
.Ltmp375:
	.loc	5 947 24 is_stmt 1              @ ../../../../Library/StdDriver/src/spi.c:947:24
	ldr	r0, [r0]
	movs	r1, #192
	.loc	5 947 32 is_stmt 0              @ ../../../../Library/StdDriver/src/spi.c:947:32
	ands	r0, r1
.Ltmp376:
	.loc	5 947 18                        @ ../../../../Library/StdDriver/src/spi.c:947:18
	cmp	r0, #128
	bne	.LBB16_18
	b	.LBB16_17
.LBB16_17:
.Ltmp377:
	.loc	5 950 23 is_stmt 1              @ ../../../../Library/StdDriver/src/spi.c:950:23
	bl	CLK_GetPCLK1Freq
	.loc	5 950 21 is_stmt 0              @ ../../../../Library/StdDriver/src/spi.c:950:21
	str	r0, [sp]
	.loc	5 951 9 is_stmt 1               @ ../../../../Library/StdDriver/src/spi.c:951:9
	b	.LBB16_19
.Ltmp378:
.LBB16_18:
	.loc	5 0 9 is_stmt 0                 @ ../../../../Library/StdDriver/src/spi.c:0:9
	ldr	r0, __arm_cp.16_0
.Ltmp379:
	.loc	5 954 21 is_stmt 1              @ ../../../../Library/StdDriver/src/spi.c:954:21
	str	r0, [sp]
	b	.LBB16_19
.Ltmp380:
.LBB16_19:
	.loc	5 0 21 is_stmt 0                @ ../../../../Library/StdDriver/src/spi.c:0:21
	b	.LBB16_20
.LBB16_20:
	b	.LBB16_21
.LBB16_21:
	.loc	5 956 5 is_stmt 1               @ ../../../../Library/StdDriver/src/spi.c:956:5
	b	.LBB16_22
.Ltmp381:
.LBB16_22:
	.loc	5 0 5 is_stmt 0                 @ ../../../../Library/StdDriver/src/spi.c:0:5
	b	.LBB16_23
.LBB16_23:
	.loc	5 958 12 is_stmt 1              @ ../../../../Library/StdDriver/src/spi.c:958:12
	ldr	r0, [sp]
	.loc	5 958 5 is_stmt 0               @ ../../../../Library/StdDriver/src/spi.c:958:5
	add	sp, #8
	pop	{r7, pc}
.Ltmp382:
	.p2align	2
@ %bb.24:
	.loc	5 0 5                           @ ../../../../Library/StdDriver/src/spi.c:0:5
__arm_cp.16_0:
	.long	48000000                        @ 0x2dc6c00
.Lcpi_end28:
	.size	__arm_cp.16_0, .Lcpi_end28-__arm_cp.16_0
__arm_cp.16_1:
	.long	1074139136                      @ 0x40061000
.Lcpi_end29:
	.size	__arm_cp.16_1, .Lcpi_end29-__arm_cp.16_1
__arm_cp.16_2:
	.long	1074143232                      @ 0x40062000
.Lcpi_end30:
	.size	__arm_cp.16_2, .Lcpi_end30-__arm_cp.16_2
__arm_cp.16_3:
	.long	1073742360                      @ 0x40000218
.Lcpi_end31:
	.size	__arm_cp.16_3, .Lcpi_end31-__arm_cp.16_3
__arm_cp.16_4:
	.long	24000000                        @ 0x16e3600
.Lcpi_end32:
	.size	__arm_cp.16_4, .Lcpi_end32-__arm_cp.16_4
.Lfunc_end16:
	.size	SPII2S_GetSourceClockFreq, .Lfunc_end16-SPII2S_GetSourceClockFreq
	.cfi_endproc
	.cantunwind
	.fnend
                                        @ -- End function
	.section	.text.SPII2S_Close,"ax",%progbits
	.hidden	SPII2S_Close                    @ -- Begin function SPII2S_Close
	.globl	SPII2S_Close
	.p2align	1
	.type	SPII2S_Close,%function
	.code	16                              @ @SPII2S_Close
	.thumb_func
SPII2S_Close:
.Lfunc_begin17:
	.loc	5 1070 0 is_stmt 1              @ ../../../../Library/StdDriver/src/spi.c:1070:0
	.fnstart
	.cfi_startproc
@ %bb.0:
	.pad	#4
	sub	sp, #4
	.cfi_def_cfa_offset 4
	str	r0, [sp]
.Ltmp383:
	.loc	5 1071 5 prologue_end           @ ../../../../Library/StdDriver/src/spi.c:1071:5
	ldr	r1, [sp]
	.loc	5 1071 17 is_stmt 0             @ ../../../../Library/StdDriver/src/spi.c:1071:17
	ldr	r0, [r1, #96]
	movs	r2, #1
	bics	r0, r2
	str	r0, [r1, #96]
	.loc	5 1072 1 is_stmt 1              @ ../../../../Library/StdDriver/src/spi.c:1072:1
	add	sp, #4
	bx	lr
.Ltmp384:
.Lfunc_end17:
	.size	SPII2S_Close, .Lfunc_end17-SPII2S_Close
	.cfi_endproc
	.cantunwind
	.fnend
                                        @ -- End function
	.section	.text.SPII2S_EnableInt,"ax",%progbits
	.hidden	SPII2S_EnableInt                @ -- Begin function SPII2S_EnableInt
	.globl	SPII2S_EnableInt
	.p2align	1
	.type	SPII2S_EnableInt,%function
	.code	16                              @ @SPII2S_EnableInt
	.thumb_func
SPII2S_EnableInt:
.Lfunc_begin18:
	.loc	5 1091 0                        @ ../../../../Library/StdDriver/src/spi.c:1091:0
	.fnstart
	.cfi_startproc
@ %bb.0:
	.pad	#8
	sub	sp, #8
	.cfi_def_cfa_offset 8
	str	r0, [sp, #4]
	str	r1, [sp]
	mov	r0, sp
.Ltmp385:
	.loc	5 1093 9 prologue_end           @ ../../../../Library/StdDriver/src/spi.c:1093:9
	ldrb	r0, [r0]
	lsls	r0, r0, #31
	cbz	r0, .LBB18_2
	b	.LBB18_1
.LBB18_1:
.Ltmp386:
	.loc	5 1095 9                        @ ../../../../Library/StdDriver/src/spi.c:1095:9
	ldr	r1, [sp, #4]
	.loc	5 1095 22 is_stmt 0             @ ../../../../Library/StdDriver/src/spi.c:1095:22
	ldr	r0, [r1, #16]
	movs	r2, #8
	orrs	r0, r2
	str	r0, [r1, #16]
	.loc	5 1096 5 is_stmt 1              @ ../../../../Library/StdDriver/src/spi.c:1096:5
	b	.LBB18_2
.Ltmp387:
.LBB18_2:
	.loc	5 0 5 is_stmt 0                 @ ../../../../Library/StdDriver/src/spi.c:0:5
	mov	r0, sp
	.loc	5 1099 9 is_stmt 1              @ ../../../../Library/StdDriver/src/spi.c:1099:9
	ldrb	r0, [r0]
	lsls	r0, r0, #30
	cmp	r0, #0
	bpl	.LBB18_4
	b	.LBB18_3
.LBB18_3:
.Ltmp388:
	.loc	5 1101 9                        @ ../../../../Library/StdDriver/src/spi.c:1101:9
	ldr	r1, [sp, #4]
	.loc	5 1101 22 is_stmt 0             @ ../../../../Library/StdDriver/src/spi.c:1101:22
	ldr	r0, [r1, #16]
	movs	r2, #4
	orrs	r0, r2
	str	r0, [r1, #16]
	.loc	5 1102 5 is_stmt 1              @ ../../../../Library/StdDriver/src/spi.c:1102:5
	b	.LBB18_4
.Ltmp389:
.LBB18_4:
	.loc	5 0 5 is_stmt 0                 @ ../../../../Library/StdDriver/src/spi.c:0:5
	mov	r0, sp
	.loc	5 1105 9 is_stmt 1              @ ../../../../Library/StdDriver/src/spi.c:1105:9
	ldrb	r0, [r0]
	lsls	r0, r0, #29
	cmp	r0, #0
	bpl	.LBB18_6
	b	.LBB18_5
.LBB18_5:
.Ltmp390:
	.loc	5 1107 9                        @ ../../../../Library/StdDriver/src/spi.c:1107:9
	ldr	r1, [sp, #4]
	.loc	5 1107 22 is_stmt 0             @ ../../../../Library/StdDriver/src/spi.c:1107:22
	ldr	r0, [r1, #16]
	movs	r2, #32
	orrs	r0, r2
	str	r0, [r1, #16]
	.loc	5 1108 5 is_stmt 1              @ ../../../../Library/StdDriver/src/spi.c:1108:5
	b	.LBB18_6
.Ltmp391:
.LBB18_6:
	.loc	5 0 5 is_stmt 0                 @ ../../../../Library/StdDriver/src/spi.c:0:5
	mov	r0, sp
	.loc	5 1111 9 is_stmt 1              @ ../../../../Library/StdDriver/src/spi.c:1111:9
	ldrb	r0, [r0]
	lsls	r0, r0, #28
	cmp	r0, #0
	bpl	.LBB18_8
	b	.LBB18_7
.LBB18_7:
.Ltmp392:
	.loc	5 1113 9                        @ ../../../../Library/StdDriver/src/spi.c:1113:9
	ldr	r1, [sp, #4]
	.loc	5 1113 22 is_stmt 0             @ ../../../../Library/StdDriver/src/spi.c:1113:22
	ldr	r0, [r1, #16]
	movs	r2, #16
	orrs	r0, r2
	str	r0, [r1, #16]
	.loc	5 1114 5 is_stmt 1              @ ../../../../Library/StdDriver/src/spi.c:1114:5
	b	.LBB18_8
.Ltmp393:
.LBB18_8:
	.loc	5 0 5 is_stmt 0                 @ ../../../../Library/StdDriver/src/spi.c:0:5
	mov	r0, sp
	.loc	5 1117 9 is_stmt 1              @ ../../../../Library/StdDriver/src/spi.c:1117:9
	ldrb	r0, [r0]
	lsls	r0, r0, #27
	cmp	r0, #0
	bpl	.LBB18_10
	b	.LBB18_9
.LBB18_9:
.Ltmp394:
	.loc	5 1119 9                        @ ../../../../Library/StdDriver/src/spi.c:1119:9
	ldr	r1, [sp, #4]
	.loc	5 1119 22 is_stmt 0             @ ../../../../Library/StdDriver/src/spi.c:1119:22
	ldr	r0, [r1, #16]
	movs	r2, #128
	orrs	r0, r2
	str	r0, [r1, #16]
	.loc	5 1120 5 is_stmt 1              @ ../../../../Library/StdDriver/src/spi.c:1120:5
	b	.LBB18_10
.Ltmp395:
.LBB18_10:
	.loc	5 0 5 is_stmt 0                 @ ../../../../Library/StdDriver/src/spi.c:0:5
	mov	r0, sp
	.loc	5 1123 9 is_stmt 1              @ ../../../../Library/StdDriver/src/spi.c:1123:9
	ldrb	r0, [r0]
	lsls	r0, r0, #26
	cmp	r0, #0
	bpl	.LBB18_12
	b	.LBB18_11
.LBB18_11:
.Ltmp396:
	.loc	5 1125 9                        @ ../../../../Library/StdDriver/src/spi.c:1125:9
	ldr	r1, [sp, #4]
	.loc	5 1125 21 is_stmt 0             @ ../../../../Library/StdDriver/src/spi.c:1125:21
	ldr	r0, [r1, #96]
	movs	r2, #1
	lsls	r2, r2, #24
	orrs	r0, r2
	str	r0, [r1, #96]
	.loc	5 1126 5 is_stmt 1              @ ../../../../Library/StdDriver/src/spi.c:1126:5
	b	.LBB18_12
.Ltmp397:
.LBB18_12:
	.loc	5 0 5 is_stmt 0                 @ ../../../../Library/StdDriver/src/spi.c:0:5
	mov	r0, sp
	.loc	5 1129 9 is_stmt 1              @ ../../../../Library/StdDriver/src/spi.c:1129:9
	ldrb	r0, [r0]
	lsls	r0, r0, #25
	cmp	r0, #0
	bpl	.LBB18_14
	b	.LBB18_13
.LBB18_13:
.Ltmp398:
	.loc	5 1131 9                        @ ../../../../Library/StdDriver/src/spi.c:1131:9
	ldr	r1, [sp, #4]
	.loc	5 1131 21 is_stmt 0             @ ../../../../Library/StdDriver/src/spi.c:1131:21
	ldr	r0, [r1, #96]
	movs	r2, #1
	lsls	r2, r2, #25
	orrs	r0, r2
	str	r0, [r1, #96]
	.loc	5 1132 5 is_stmt 1              @ ../../../../Library/StdDriver/src/spi.c:1132:5
	b	.LBB18_14
.Ltmp399:
.LBB18_14:
	.loc	5 0 5 is_stmt 0                 @ ../../../../Library/StdDriver/src/spi.c:0:5
	mov	r0, sp
	.loc	5 1135 9 is_stmt 1              @ ../../../../Library/StdDriver/src/spi.c:1135:9
	ldrb	r0, [r0]
	lsls	r0, r0, #24
	cmp	r0, #0
	bpl	.LBB18_16
	b	.LBB18_15
.LBB18_15:
.Ltmp400:
	.loc	5 1137 9                        @ ../../../../Library/StdDriver/src/spi.c:1137:9
	ldr	r1, [sp, #4]
	.loc	5 1137 21 is_stmt 0             @ ../../../../Library/StdDriver/src/spi.c:1137:21
	ldr	r0, [r1, #96]
	movs	r2, #1
	lsls	r2, r2, #31
	orrs	r0, r2
	str	r0, [r1, #96]
	.loc	5 1138 5 is_stmt 1              @ ../../../../Library/StdDriver/src/spi.c:1138:5
	b	.LBB18_16
.Ltmp401:
.LBB18_16:
	.loc	5 1139 1                        @ ../../../../Library/StdDriver/src/spi.c:1139:1
	add	sp, #8
	bx	lr
.Ltmp402:
.Lfunc_end18:
	.size	SPII2S_EnableInt, .Lfunc_end18-SPII2S_EnableInt
	.cfi_endproc
	.cantunwind
	.fnend
                                        @ -- End function
	.section	.text.SPII2S_DisableInt,"ax",%progbits
	.hidden	SPII2S_DisableInt               @ -- Begin function SPII2S_DisableInt
	.globl	SPII2S_DisableInt
	.p2align	1
	.type	SPII2S_DisableInt,%function
	.code	16                              @ @SPII2S_DisableInt
	.thumb_func
SPII2S_DisableInt:
.Lfunc_begin19:
	.loc	5 1158 0                        @ ../../../../Library/StdDriver/src/spi.c:1158:0
	.fnstart
	.cfi_startproc
@ %bb.0:
	.pad	#8
	sub	sp, #8
	.cfi_def_cfa_offset 8
	str	r0, [sp, #4]
	str	r1, [sp]
	mov	r0, sp
.Ltmp403:
	.loc	5 1160 9 prologue_end           @ ../../../../Library/StdDriver/src/spi.c:1160:9
	ldrb	r0, [r0]
	lsls	r0, r0, #31
	cbz	r0, .LBB19_2
	b	.LBB19_1
.LBB19_1:
.Ltmp404:
	.loc	5 1162 9                        @ ../../../../Library/StdDriver/src/spi.c:1162:9
	ldr	r1, [sp, #4]
	.loc	5 1162 22 is_stmt 0             @ ../../../../Library/StdDriver/src/spi.c:1162:22
	ldr	r0, [r1, #16]
	movs	r2, #8
	bics	r0, r2
	str	r0, [r1, #16]
	.loc	5 1163 5 is_stmt 1              @ ../../../../Library/StdDriver/src/spi.c:1163:5
	b	.LBB19_2
.Ltmp405:
.LBB19_2:
	.loc	5 0 5 is_stmt 0                 @ ../../../../Library/StdDriver/src/spi.c:0:5
	mov	r0, sp
	.loc	5 1166 9 is_stmt 1              @ ../../../../Library/StdDriver/src/spi.c:1166:9
	ldrb	r0, [r0]
	lsls	r0, r0, #30
	cmp	r0, #0
	bpl	.LBB19_4
	b	.LBB19_3
.LBB19_3:
.Ltmp406:
	.loc	5 1168 9                        @ ../../../../Library/StdDriver/src/spi.c:1168:9
	ldr	r1, [sp, #4]
	.loc	5 1168 22 is_stmt 0             @ ../../../../Library/StdDriver/src/spi.c:1168:22
	ldr	r0, [r1, #16]
	movs	r2, #4
	bics	r0, r2
	str	r0, [r1, #16]
	.loc	5 1169 5 is_stmt 1              @ ../../../../Library/StdDriver/src/spi.c:1169:5
	b	.LBB19_4
.Ltmp407:
.LBB19_4:
	.loc	5 0 5 is_stmt 0                 @ ../../../../Library/StdDriver/src/spi.c:0:5
	mov	r0, sp
	.loc	5 1172 9 is_stmt 1              @ ../../../../Library/StdDriver/src/spi.c:1172:9
	ldrb	r0, [r0]
	lsls	r0, r0, #29
	cmp	r0, #0
	bpl	.LBB19_6
	b	.LBB19_5
.LBB19_5:
.Ltmp408:
	.loc	5 1174 9                        @ ../../../../Library/StdDriver/src/spi.c:1174:9
	ldr	r1, [sp, #4]
	.loc	5 1174 22 is_stmt 0             @ ../../../../Library/StdDriver/src/spi.c:1174:22
	ldr	r0, [r1, #16]
	movs	r2, #32
	bics	r0, r2
	str	r0, [r1, #16]
	.loc	5 1175 5 is_stmt 1              @ ../../../../Library/StdDriver/src/spi.c:1175:5
	b	.LBB19_6
.Ltmp409:
.LBB19_6:
	.loc	5 0 5 is_stmt 0                 @ ../../../../Library/StdDriver/src/spi.c:0:5
	mov	r0, sp
	.loc	5 1178 9 is_stmt 1              @ ../../../../Library/StdDriver/src/spi.c:1178:9
	ldrb	r0, [r0]
	lsls	r0, r0, #28
	cmp	r0, #0
	bpl	.LBB19_8
	b	.LBB19_7
.LBB19_7:
.Ltmp410:
	.loc	5 1180 9                        @ ../../../../Library/StdDriver/src/spi.c:1180:9
	ldr	r1, [sp, #4]
	.loc	5 1180 22 is_stmt 0             @ ../../../../Library/StdDriver/src/spi.c:1180:22
	ldr	r0, [r1, #16]
	movs	r2, #16
	bics	r0, r2
	str	r0, [r1, #16]
	.loc	5 1181 5 is_stmt 1              @ ../../../../Library/StdDriver/src/spi.c:1181:5
	b	.LBB19_8
.Ltmp411:
.LBB19_8:
	.loc	5 0 5 is_stmt 0                 @ ../../../../Library/StdDriver/src/spi.c:0:5
	mov	r0, sp
	.loc	5 1184 9 is_stmt 1              @ ../../../../Library/StdDriver/src/spi.c:1184:9
	ldrb	r0, [r0]
	lsls	r0, r0, #27
	cmp	r0, #0
	bpl	.LBB19_10
	b	.LBB19_9
.LBB19_9:
.Ltmp412:
	.loc	5 1186 9                        @ ../../../../Library/StdDriver/src/spi.c:1186:9
	ldr	r1, [sp, #4]
	.loc	5 1186 22 is_stmt 0             @ ../../../../Library/StdDriver/src/spi.c:1186:22
	ldr	r0, [r1, #16]
	movs	r2, #128
	bics	r0, r2
	str	r0, [r1, #16]
	.loc	5 1187 5 is_stmt 1              @ ../../../../Library/StdDriver/src/spi.c:1187:5
	b	.LBB19_10
.Ltmp413:
.LBB19_10:
	.loc	5 0 5 is_stmt 0                 @ ../../../../Library/StdDriver/src/spi.c:0:5
	mov	r0, sp
	.loc	5 1190 9 is_stmt 1              @ ../../../../Library/StdDriver/src/spi.c:1190:9
	ldrb	r0, [r0]
	lsls	r0, r0, #26
	cmp	r0, #0
	bpl	.LBB19_12
	b	.LBB19_11
.LBB19_11:
.Ltmp414:
	.loc	5 1192 9                        @ ../../../../Library/StdDriver/src/spi.c:1192:9
	ldr	r1, [sp, #4]
	.loc	5 1192 21 is_stmt 0             @ ../../../../Library/StdDriver/src/spi.c:1192:21
	ldr	r0, [r1, #96]
	movs	r2, #1
	lsls	r2, r2, #24
	bics	r0, r2
	str	r0, [r1, #96]
	.loc	5 1193 5 is_stmt 1              @ ../../../../Library/StdDriver/src/spi.c:1193:5
	b	.LBB19_12
.Ltmp415:
.LBB19_12:
	.loc	5 0 5 is_stmt 0                 @ ../../../../Library/StdDriver/src/spi.c:0:5
	mov	r0, sp
	.loc	5 1196 9 is_stmt 1              @ ../../../../Library/StdDriver/src/spi.c:1196:9
	ldrb	r0, [r0]
	lsls	r0, r0, #25
	cmp	r0, #0
	bpl	.LBB19_14
	b	.LBB19_13
.LBB19_13:
.Ltmp416:
	.loc	5 1198 9                        @ ../../../../Library/StdDriver/src/spi.c:1198:9
	ldr	r1, [sp, #4]
	.loc	5 1198 21 is_stmt 0             @ ../../../../Library/StdDriver/src/spi.c:1198:21
	ldr	r0, [r1, #96]
	movs	r2, #1
	lsls	r2, r2, #25
	bics	r0, r2
	str	r0, [r1, #96]
	.loc	5 1199 5 is_stmt 1              @ ../../../../Library/StdDriver/src/spi.c:1199:5
	b	.LBB19_14
.Ltmp417:
.LBB19_14:
	.loc	5 0 5 is_stmt 0                 @ ../../../../Library/StdDriver/src/spi.c:0:5
	mov	r0, sp
	.loc	5 1202 9 is_stmt 1              @ ../../../../Library/StdDriver/src/spi.c:1202:9
	ldrb	r0, [r0]
	lsls	r0, r0, #24
	cmp	r0, #0
	bpl	.LBB19_16
	b	.LBB19_15
.LBB19_15:
.Ltmp418:
	.loc	5 1204 9                        @ ../../../../Library/StdDriver/src/spi.c:1204:9
	ldr	r1, [sp, #4]
	.loc	5 1204 21 is_stmt 0             @ ../../../../Library/StdDriver/src/spi.c:1204:21
	ldr	r0, [r1, #96]
	movs	r2, #1
	lsls	r2, r2, #31
	bics	r0, r2
	str	r0, [r1, #96]
	.loc	5 1205 5 is_stmt 1              @ ../../../../Library/StdDriver/src/spi.c:1205:5
	b	.LBB19_16
.Ltmp419:
.LBB19_16:
	.loc	5 1206 1                        @ ../../../../Library/StdDriver/src/spi.c:1206:1
	add	sp, #8
	bx	lr
.Ltmp420:
.Lfunc_end19:
	.size	SPII2S_DisableInt, .Lfunc_end19-SPII2S_DisableInt
	.cfi_endproc
	.cantunwind
	.fnend
                                        @ -- End function
	.section	.text.SPII2S_EnableMCLK,"ax",%progbits
	.hidden	SPII2S_EnableMCLK               @ -- Begin function SPII2S_EnableMCLK
	.globl	SPII2S_EnableMCLK
	.p2align	1
	.type	SPII2S_EnableMCLK,%function
	.code	16                              @ @SPII2S_EnableMCLK
	.thumb_func
SPII2S_EnableMCLK:
.Lfunc_begin20:
	.loc	5 1217 0                        @ ../../../../Library/StdDriver/src/spi.c:1217:0
	.fnstart
	.cfi_startproc
@ %bb.0:
	.save	{r7, lr}
	push	{r7, lr}
	.cfi_def_cfa_offset 8
	.cfi_offset lr, -4
	.cfi_offset r7, -8
	.pad	#24
	sub	sp, #24
	.cfi_def_cfa_offset 32
	str	r0, [sp, #20]
	str	r1, [sp, #16]
.Ltmp421:
	.loc	5 1221 43 prologue_end          @ ../../../../Library/StdDriver/src/spi.c:1221:43
	ldr	r0, [sp, #20]
	.loc	5 1221 17 is_stmt 0             @ ../../../../Library/StdDriver/src/spi.c:1221:17
	bl	SPII2S_GetSourceClockFreq
	.loc	5 1221 15                       @ ../../../../Library/StdDriver/src/spi.c:1221:15
	str	r0, [sp, #8]
.Ltmp422:
	.loc	5 1223 9 is_stmt 1              @ ../../../../Library/StdDriver/src/spi.c:1223:9
	ldr	r0, [sp, #16]
	.loc	5 1223 24 is_stmt 0             @ ../../../../Library/StdDriver/src/spi.c:1223:24
	ldr	r1, [sp, #8]
.Ltmp423:
	.loc	5 1223 9                        @ ../../../../Library/StdDriver/src/spi.c:1223:9
	cmp	r0, r1
	bne	.LBB20_2
	b	.LBB20_1
.LBB20_1:
	.loc	5 0 9                           @ ../../../../Library/StdDriver/src/spi.c:0:9
	movs	r0, #0
.Ltmp424:
	.loc	5 1225 20 is_stmt 1             @ ../../../../Library/StdDriver/src/spi.c:1225:20
	str	r0, [sp, #12]
	.loc	5 1226 5                        @ ../../../../Library/StdDriver/src/spi.c:1226:5
	b	.LBB20_5
.Ltmp425:
.LBB20_2:
	.loc	5 1229 23                       @ ../../../../Library/StdDriver/src/spi.c:1229:23
	ldr	r0, [sp, #8]
	.loc	5 1229 35 is_stmt 0             @ ../../../../Library/StdDriver/src/spi.c:1229:35
	ldr	r1, [sp, #16]
	.loc	5 1229 33                       @ ../../../../Library/StdDriver/src/spi.c:1229:33
	udiv	r0, r0, r1
	.loc	5 1229 48                       @ ../../../../Library/StdDriver/src/spi.c:1229:48
	lsrs	r0, r0, #1
	.loc	5 1229 20                       @ ../../../../Library/StdDriver/src/spi.c:1229:20
	str	r0, [sp, #12]
.Ltmp426:
	.loc	5 1232 13 is_stmt 1             @ ../../../../Library/StdDriver/src/spi.c:1232:13
	ldr	r0, [sp, #12]
.Ltmp427:
	.loc	5 1232 13 is_stmt 0             @ ../../../../Library/StdDriver/src/spi.c:1232:13
	cmp	r0, #128
	blo	.LBB20_4
	b	.LBB20_3
.LBB20_3:
	.loc	5 0 13                          @ ../../../../Library/StdDriver/src/spi.c:0:13
	movs	r0, #127
.Ltmp428:
	.loc	5 1234 24 is_stmt 1             @ ../../../../Library/StdDriver/src/spi.c:1234:24
	str	r0, [sp, #12]
	.loc	5 1235 9                        @ ../../../../Library/StdDriver/src/spi.c:1235:9
	b	.LBB20_4
.Ltmp429:
.LBB20_4:
	.loc	5 0 9 is_stmt 0                 @ ../../../../Library/StdDriver/src/spi.c:0:9
	b	.LBB20_5
.LBB20_5:
	.loc	5 1239 20 is_stmt 1             @ ../../../../Library/StdDriver/src/spi.c:1239:20
	ldr	r0, [sp, #20]
	.loc	5 1239 25 is_stmt 0             @ ../../../../Library/StdDriver/src/spi.c:1239:25
	ldr	r0, [r0, #100]
	movs	r1, #127
	.loc	5 1239 32                       @ ../../../../Library/StdDriver/src/spi.c:1239:32
	bics	r0, r1
	.loc	5 1239 62                       @ ../../../../Library/StdDriver/src/spi.c:1239:62
	ldr	r1, [sp, #12]
	.loc	5 1239 59                       @ ../../../../Library/StdDriver/src/spi.c:1239:59
	orrs	r0, r1
	.loc	5 1239 5                        @ ../../../../Library/StdDriver/src/spi.c:1239:5
	ldr	r1, [sp, #20]
	.loc	5 1239 17                       @ ../../../../Library/StdDriver/src/spi.c:1239:17
	str	r0, [r1, #100]
	.loc	5 1242 5 is_stmt 1              @ ../../../../Library/StdDriver/src/spi.c:1242:5
	ldr	r1, [sp, #20]
	.loc	5 1242 17 is_stmt 0             @ ../../../../Library/StdDriver/src/spi.c:1242:17
	ldr	r0, [r1, #96]
	movw	r2, #32768
	orrs	r0, r2
	str	r0, [r1, #96]
.Ltmp430:
	.loc	5 1244 9 is_stmt 1              @ ../../../../Library/StdDriver/src/spi.c:1244:9
	ldr	r0, [sp, #12]
.Ltmp431:
	.loc	5 1244 9 is_stmt 0              @ ../../../../Library/StdDriver/src/spi.c:1244:9
	cbnz	r0, .LBB20_7
	b	.LBB20_6
.LBB20_6:
.Ltmp432:
	.loc	5 1246 23 is_stmt 1             @ ../../../../Library/StdDriver/src/spi.c:1246:23
	ldr	r0, [sp, #8]
	.loc	5 1246 21 is_stmt 0             @ ../../../../Library/StdDriver/src/spi.c:1246:21
	str	r0, [sp, #4]
	.loc	5 1247 5 is_stmt 1              @ ../../../../Library/StdDriver/src/spi.c:1247:5
	b	.LBB20_8
.Ltmp433:
.LBB20_7:
	.loc	5 1250 25                       @ ../../../../Library/StdDriver/src/spi.c:1250:25
	ldr	r0, [sp, #8]
	.loc	5 1250 35 is_stmt 0             @ ../../../../Library/StdDriver/src/spi.c:1250:35
	lsrs	r0, r0, #1
	.loc	5 1250 45                       @ ../../../../Library/StdDriver/src/spi.c:1250:45
	ldr	r1, [sp, #12]
	.loc	5 1250 43                       @ ../../../../Library/StdDriver/src/spi.c:1250:43
	udiv	r0, r0, r1
	.loc	5 1250 21                       @ ../../../../Library/StdDriver/src/spi.c:1250:21
	str	r0, [sp, #4]
	b	.LBB20_8
.Ltmp434:
.LBB20_8:
	.loc	5 1253 12 is_stmt 1             @ ../../../../Library/StdDriver/src/spi.c:1253:12
	ldr	r0, [sp, #4]
	.loc	5 1253 5 is_stmt 0              @ ../../../../Library/StdDriver/src/spi.c:1253:5
	add	sp, #24
	pop	{r7, pc}
.Ltmp435:
.Lfunc_end20:
	.size	SPII2S_EnableMCLK, .Lfunc_end20-SPII2S_EnableMCLK
	.cfi_endproc
	.cantunwind
	.fnend
                                        @ -- End function
	.section	.text.SPII2S_DisableMCLK,"ax",%progbits
	.hidden	SPII2S_DisableMCLK              @ -- Begin function SPII2S_DisableMCLK
	.globl	SPII2S_DisableMCLK
	.p2align	1
	.type	SPII2S_DisableMCLK,%function
	.code	16                              @ @SPII2S_DisableMCLK
	.thumb_func
SPII2S_DisableMCLK:
.Lfunc_begin21:
	.loc	5 1263 0 is_stmt 1              @ ../../../../Library/StdDriver/src/spi.c:1263:0
	.fnstart
	.cfi_startproc
@ %bb.0:
	.pad	#4
	sub	sp, #4
	.cfi_def_cfa_offset 4
	str	r0, [sp]
.Ltmp436:
	.loc	5 1264 5 prologue_end           @ ../../../../Library/StdDriver/src/spi.c:1264:5
	ldr	r1, [sp]
	.loc	5 1264 17 is_stmt 0             @ ../../../../Library/StdDriver/src/spi.c:1264:17
	ldr	r0, [r1, #96]
	movw	r2, #32768
	bics	r0, r2
	str	r0, [r1, #96]
	.loc	5 1265 1 is_stmt 1              @ ../../../../Library/StdDriver/src/spi.c:1265:1
	add	sp, #4
	bx	lr
.Ltmp437:
.Lfunc_end21:
	.size	SPII2S_DisableMCLK, .Lfunc_end21-SPII2S_DisableMCLK
	.cfi_endproc
	.cantunwind
	.fnend
                                        @ -- End function
	.section	.text.SPII2S_SetFIFO,"ax",%progbits
	.hidden	SPII2S_SetFIFO                  @ -- Begin function SPII2S_SetFIFO
	.globl	SPII2S_SetFIFO
	.p2align	1
	.type	SPII2S_SetFIFO,%function
	.code	16                              @ @SPII2S_SetFIFO
	.thumb_func
SPII2S_SetFIFO:
.Lfunc_begin22:
	.loc	5 1276 0                        @ ../../../../Library/StdDriver/src/spi.c:1276:0
	.fnstart
	.cfi_startproc
@ %bb.0:
	.pad	#12
	sub	sp, #12
	.cfi_def_cfa_offset 12
	str	r0, [sp, #8]
	str	r1, [sp, #4]
	str	r2, [sp]
.Ltmp438:
	.loc	5 1277 21 prologue_end          @ ../../../../Library/StdDriver/src/spi.c:1277:21
	ldr	r0, [sp, #8]
	.loc	5 1277 26 is_stmt 0             @ ../../../../Library/StdDriver/src/spi.c:1277:26
	ldr	r0, [r0, #16]
	movs	r1, #119
	lsls	r1, r1, #24
	.loc	5 1277 34                       @ ../../../../Library/StdDriver/src/spi.c:1277:34
	bics	r0, r1
	.loc	5 1278 21 is_stmt 1             @ ../../../../Library/StdDriver/src/spi.c:1278:21
	ldr	r1, [sp, #4]
	.loc	5 1278 36 is_stmt 0             @ ../../../../Library/StdDriver/src/spi.c:1278:36
	lsls	r1, r1, #28
	.loc	5 1277 84 is_stmt 1             @ ../../../../Library/StdDriver/src/spi.c:1277:84
	orrs	r0, r1
	.loc	5 1279 21                       @ ../../../../Library/StdDriver/src/spi.c:1279:21
	ldr	r1, [sp]
	.loc	5 1279 36 is_stmt 0             @ ../../../../Library/StdDriver/src/spi.c:1279:36
	lsls	r1, r1, #24
	.loc	5 1278 61 is_stmt 1             @ ../../../../Library/StdDriver/src/spi.c:1278:61
	orrs	r0, r1
	.loc	5 1277 5                        @ ../../../../Library/StdDriver/src/spi.c:1277:5
	ldr	r1, [sp, #8]
	.loc	5 1277 18 is_stmt 0             @ ../../../../Library/StdDriver/src/spi.c:1277:18
	str	r0, [r1, #16]
	.loc	5 1280 1 is_stmt 1              @ ../../../../Library/StdDriver/src/spi.c:1280:1
	add	sp, #12
	bx	lr
.Ltmp439:
.Lfunc_end22:
	.size	SPII2S_SetFIFO, .Lfunc_end22-SPII2S_SetFIFO
	.cfi_endproc
	.cantunwind
	.fnend
                                        @ -- End function
	.section	".note.GNU-stack","",%progbits
	.eabi_attribute	30, 6	@ Tag_ABI_optimization_goals
	.ARM_attribute	16, 1	@ Tag_AV_eba